--- !tapi-tbd-v3
archs:                 [ armv7, armv7s, arm64, arm64e ]
platform:              ios
flags:                 [ flat_namespace ]
install-name:          /System/Library/PrivateFrameworks/Stickers.framework/Support/StarmojiSearch.framework/StarmojiSearch
current-version:       1
compatibility-version: 1
objc-constraint:       retain_release
exports:
  - archs:                [ armv7, armv7s, arm64, arm64e ]
    symbols:              [ _StarmojiSearchVersionNumber,
                            _StarmojiSearchVersionString,
                            __ZN8stickers12IndexBuilder5buildERKNSt3__113unordered_mapINS1_12basic_stringIcNS1_11char_traitsIcEENS1_9allocatorIcEEEENS1_6vectorINS_11PostingDataENS6_ISA_EEEENS1_4hashIS8_EENS1_8equal_toIS8_EENS6_INS1_4pairIKS8_SC_EEEEEERSI_SO_,
                            __ZN8stickers13DocIDRegistry16getOrCreateDocIDERKN7Sticker6Search5Index4UUIDE,
                            __ZN8stickers13DocIDRegistryC1EONSt3__16vectorIN7Sticker6Search5Index4UUIDENS1_9allocatorIS6_EEEE,
                            __ZN8stickers13DocIDRegistryC2EONSt3__16vectorIN7Sticker6Search5Index4UUIDENS1_9allocatorIS6_EEEE,
                            __ZN8stickers15CoreEmojiBundle29createSearchModelURLForLocaleEPK10__CFLocale,
                            __ZN8stickers15RawIndexBuilder10addPostingERKNSt3__112basic_stringIcNS1_11char_traitsIcEENS1_9allocatorIcEEEEji,
                            __ZN8stickers16EmojiStaticIndexC1ERKNSt3__112basic_stringIcNS1_11char_traitsIcEENS1_9allocatorIcEEEES9_,
                            __ZN8stickers16EmojiStaticIndexC2ERKNSt3__112basic_stringIcNS1_11char_traitsIcEENS1_9allocatorIcEEEES9_,
                            __ZN8stickers17UUIDVectorBuilder3addEyy,
                            __ZN8stickers18StickerIndexMerger11consolidateEv,
                            __ZN8stickers18StickerIndexMerger13compactDocIDsEv,
                            __ZN8stickers18StickerIndexMerger15loadStaticIndexERKNS_18StickerStaticIndexERKNSt3__113unordered_setIN7Sticker6Search5Index4UUIDENS_8UUIDHashENS_9UUIDEqualENS4_9allocatorIS9_EEEE,
                            __ZN8stickers18StickerIndexMerger20mergePendingStickersERKNSt3__16vectorINS_11StickerDataENS1_9allocatorIS3_EEEERKNS1_13unordered_setIN7Sticker6Search5Index4UUIDENS_8UUIDHashENS_9UUIDEqualENS4_ISD_EEEE,
                            __ZN8stickers18StickerIndexMerger5mergeERKNS_18StickerStaticIndexERKNSt3__16vectorINS_11StickerDataENS4_9allocatorIS6_EEEERKNS4_13unordered_setIN7Sticker6Search5Index4UUIDENS_8UUIDHashENS_9UUIDEqualENS7_ISG_EEEE,
                            __ZN8stickers18StickerIndexWriter5writeERKNSt3__13mapINS1_12basic_stringIcNS1_11char_traitsIcEENS1_9allocatorIcEEEENS1_6vectorINS_18StickerPostingDataENS6_ISA_EEEENS1_4lessIS8_EENS6_INS1_4pairIKS8_SC_EEEEEERKNS9_IN7Sticker6Search5Index4UUIDENS6_ISP_EEEERKNS1_4__fs10filesystem4pathERSG_,
                            __ZN8stickers18StickerStaticIndexC1ERKNSt3__112basic_stringIcNS1_11char_traitsIcEENS1_9allocatorIcEEEES9_,
                            __ZN8stickers18StickerStaticIndexC2ERKNSt3__112basic_stringIcNS1_11char_traitsIcEENS1_9allocatorIcEEEES9_,
                            __ZN8stickers22quantizeRelevancyScoreEf,
                            __ZN8stickers24StickerDataVectorBuilder3addERKNS_11StickerDataE,
                            __ZN8stickers24dequantizeRelevancyScoreEh,
                            __ZN8stickers37createSearchModelURLForLocaleInternalEPK10__CFLocale,
                            __ZN8stickers38getNormalizedLocaleIdentifierForLocaleEPK10__CFLocale,
                            __ZN8stickers7Helpers38getNormalizedLocaleIdentifierForLocaleEPK10__CFLocale,
                            __ZN8stickers8Searcher26buildAndReloadStickerIndexERKNSt3__16vectorINS_11StickerDataENS1_9allocatorIS3_EEEERKNS1_12basic_stringIcNS1_11char_traitsIcEENS4_IcEEEESF_RKNS2_IN7Sticker6Search5Index4UUIDENS4_ISJ_EEEE,
                            __ZN8stickers8SearcherC1ERKNSt3__112basic_stringIcNS1_11char_traitsIcEENS1_9allocatorIcEEEES9_S9_S9_,
                            __ZN8stickers8SearcherC2ERKNSt3__112basic_stringIcNS1_11char_traitsIcEENS1_9allocatorIcEEEES9_S9_S9_,
                            __ZN8stickers8SearcherD1Ev,
                            __ZN8stickers8SearcherD2Ev,
                            __ZNK8stickers13DocIDRegistry8getUUIDsEv,
                            __ZNK8stickers15RawIndexBuilder5buildEv,
                            __ZNK8stickers16EmojiStaticIndex13getEmojiIndexEv,
                            __ZNK8stickers16EmojiStaticIndex15findPostingListERKNSt3__112basic_stringIcNS1_11char_traitsIcEENS1_9allocatorIcEEEE,
                            __ZNK8stickers16EmojiStaticIndex18calculateDocScoresERKNSt3__113unordered_mapINS1_12basic_stringIcNS1_11char_traitsIcEENS1_9allocatorIcEEEEiNS1_4hashIS8_EENS1_8equal_toIS8_EENS6_INS1_4pairIKS8_iEEEEEE,
                            __ZNK8stickers16EmojiStaticIndex26collectAutocompleteResultsERKNSt3__112basic_stringIcNS1_11char_traitsIcEENS1_9allocatorIcEEEEjRNS1_13unordered_mapIjxNS1_4hashIjEENS1_8equal_toIjEENS5_INS1_4pairIKjxEEEEEE,
                            __ZNK8stickers17UUIDVectorBuilder5buildEv,
                            __ZNK8stickers18StickerIndexMerger11docIDToUUIDEv,
                            __ZNK8stickers18StickerIndexMerger12stickerCountEv,
                            __ZNK8stickers18StickerIndexMerger8postingsEv,
                            __ZNK8stickers18StickerIndexMerger9termCountEv,
                            __ZNK8stickers18StickerStaticIndex17enumeratePostingsERKNSt3__18functionIFvNS1_17basic_string_viewIcNS1_11char_traitsIcEEEERKN7Sticker6Search5Index4UUIDEhEEE,
                            __ZNK8stickers18StickerStaticIndex18calculateDocScoresERKNSt3__113unordered_mapINS1_12basic_stringIcNS1_11char_traitsIcEENS1_9allocatorIcEEEEiNS1_4hashIS8_EENS1_8equal_toIS8_EENS6_INS1_4pairIKS8_iEEEEEE,
                            __ZNK8stickers18StickerStaticIndex26collectAutocompleteResultsERKNSt3__112basic_stringIcNS1_11char_traitsIcEENS1_9allocatorIcEEEEjRNS1_13unordered_mapIjxNS1_4hashIjEENS1_8equal_toIjEENS5_INS1_4pairIKjxEEEEEE,
                            __ZNK8stickers18StickerStaticIndex8getUUIDsEv,
                            __ZNK8stickers24StickerDataVectorBuilder5buildEv,
                            __ZNK8stickers8Searcher6searchERKNS_13SearchRequestE ]
    objc-classes:         [ SSDeleteRequest, SSDocument, SSIndexRequest,
                            SSSearchEngine, SSSearchRequest, SSSearchResult ]
    weak-def-symbols:     [ __ZN5apple4aiml12flatbuffers225flatbuffer_version_stringE,
                            __ZNSt3__119piecewise_constructE,
                            __ZZN5apple4aiml12flatbuffers24dataIN5Emoji6Search5Index7PostingENSt3__19allocatorIS6_EEEEPKT_RKNS7_6vectorISA_T0_EEE1t,
                            __ZZN5apple4aiml12flatbuffers24dataIN7Sticker6Search5Index4UUIDENSt3__19allocatorIS6_EEEEPKT_RKNS7_6vectorISA_T0_EEE1t,
                            __ZZN5apple4aiml12flatbuffers24dataIN7Sticker6Search5Index7PostingENSt3__19allocatorIS6_EEEEPKT_RKNS7_6vectorISA_T0_EEE1t,
                            __ZZN5apple4aiml12flatbuffers24dataINS1_6OffsetIN5Emoji6Search5Index11PostingListEEENSt3__19allocatorIS8_EEEEPKT_RKNS9_6vectorISC_T0_EEE1t,
                            __ZZN5apple4aiml12flatbuffers24dataINS1_6OffsetIN7Sticker6Search5Index11PostingListEEENSt3__19allocatorIS8_EEEEPKT_RKNS9_6vectorISC_T0_EEE1t ]
...
