--- !tapi-tbd
tbd-version:     4
targets:         [ x86_64-macos, arm64e-macos ]
install-name:    '/System/Library/PrivateFrameworks/asmp.framework/Versions/A/asmp'
current-version: 1.5.1
compatibility-version: 1.5.1
exports:
  - targets:         [ x86_64-macos ]
    weak-symbols:    [ __ZTIN4ASMP13OpticalSampleE, __ZTIN4ASMP15ThreeAxisSampleE, 
                       __ZTIN4ASMP17SingleValueSampleE, __ZTINSt3__110__back_refIcEE, 
                       __ZTINSt3__110__function6__baseIFPKcvEEE, __ZTINSt3__110__function6__baseIFdvEEE, 
                       __ZTINSt3__110__function6__baseIFjvEEE, __ZTINSt3__111__alternateIcEE, 
                       __ZTINSt3__111__end_stateIcEE, __ZTINSt3__111__lookaheadIcNS_12regex_traitsIcEEEE, 
                       __ZTINSt3__111__match_anyIcEE, __ZTINSt3__112__match_charIcEE, 
                       __ZTINSt3__113__empty_stateIcEE, __ZTINSt3__113basic_filebufIcNS_11char_traitsIcEEEE, 
                       __ZTINSt3__114basic_ifstreamIcNS_11char_traitsIcEEEE, __ZTINSt3__114basic_ofstreamIcNS_11char_traitsIcEEEE, 
                       __ZTINSt3__115__has_one_stateIcEE, __ZTINSt3__115__word_boundaryIcNS_12regex_traitsIcEEEE, 
                       __ZTINSt3__115basic_stringbufIcNS_11char_traitsIcEENS_9allocatorIcEEEE, 
                       __ZTINSt3__116__back_ref_icaseIcNS_12regex_traitsIcEEEE, __ZTINSt3__116__owns_one_stateIcEE, 
                       __ZTINSt3__117__owns_two_statesIcEE, __ZTINSt3__117__repeat_one_loopIcEE, 
                       __ZTINSt3__117bad_function_callE, __ZTINSt3__118__back_ref_collateIcNS_12regex_traitsIcEEEE, 
                       __ZTINSt3__118__match_char_icaseIcNS_12regex_traitsIcEEEE, 
                       __ZTINSt3__118basic_stringstreamIcNS_11char_traitsIcEENS_9allocatorIcEEEE, 
                       __ZTINSt3__119basic_istringstreamIcNS_11char_traitsIcEENS_9allocatorIcEEEE, 
                       __ZTINSt3__119basic_ostringstreamIcNS_11char_traitsIcEENS_9allocatorIcEEEE, 
                       __ZTINSt3__120__bracket_expressionIcNS_12regex_traitsIcEEEE, 
                       __ZTINSt3__120__l_anchor_multilineIcEE, __ZTINSt3__120__match_char_collateIcNS_12regex_traitsIcEEEE, 
                       __ZTINSt3__120__r_anchor_multilineIcEE, __ZTINSt3__120__shared_ptr_emplaceIN4ASMP14MeasurementSet15SensorRangeImplENS_9allocatorIS3_EEEE, 
                       __ZTINSt3__120__shared_ptr_emplaceIN4ASMP14MeasurementSet16FixtureRangeImplENS_9allocatorIS3_EEEE, 
                       __ZTINSt3__120__shared_ptr_pointerIPNS_13__empty_stateIcEENS_10shared_ptrIS2_E27__shared_ptr_default_deleteIS2_S2_EENS_9allocatorIS2_EEEE, 
                       __ZTINSt3__121__empty_non_own_stateIcEE, __ZTINSt3__123__match_any_but_newlineIcEE, 
                       __ZTINSt3__126__end_marked_subexpressionIcEE, __ZTINSt3__128__begin_marked_subexpressionIcEE, 
                       __ZTINSt3__16__loopIcEE, __ZTINSt3__16__nodeIcEE, __ZTSN4ASMP13OpticalSampleE, 
                       __ZTSN4ASMP15ThreeAxisSampleE, __ZTSN4ASMP17SingleValueSampleE, 
                       __ZTSNSt3__110__back_refIcEE, __ZTSNSt3__110__function6__baseIFPKcvEEE, 
                       __ZTSNSt3__110__function6__baseIFdvEEE, __ZTSNSt3__110__function6__baseIFjvEEE, 
                       __ZTSNSt3__110shared_ptrINS_13__empty_stateIcEEE27__shared_ptr_default_deleteIS2_S2_EE, 
                       __ZTSNSt3__111__alternateIcEE, __ZTSNSt3__111__end_stateIcEE, 
                       __ZTSNSt3__111__lookaheadIcNS_12regex_traitsIcEEEE, __ZTSNSt3__111__match_anyIcEE, 
                       __ZTSNSt3__112__match_charIcEE, __ZTSNSt3__113__empty_stateIcEE, 
                       __ZTSNSt3__113basic_filebufIcNS_11char_traitsIcEEEE, __ZTSNSt3__114basic_ifstreamIcNS_11char_traitsIcEEEE, 
                       __ZTSNSt3__114basic_ofstreamIcNS_11char_traitsIcEEEE, __ZTSNSt3__115__has_one_stateIcEE, 
                       __ZTSNSt3__115__word_boundaryIcNS_12regex_traitsIcEEEE, __ZTSNSt3__115basic_stringbufIcNS_11char_traitsIcEENS_9allocatorIcEEEE, 
                       __ZTSNSt3__116__back_ref_icaseIcNS_12regex_traitsIcEEEE, __ZTSNSt3__116__owns_one_stateIcEE, 
                       __ZTSNSt3__117__owns_two_statesIcEE, __ZTSNSt3__117__repeat_one_loopIcEE, 
                       __ZTSNSt3__117bad_function_callE, __ZTSNSt3__118__back_ref_collateIcNS_12regex_traitsIcEEEE, 
                       __ZTSNSt3__118__match_char_icaseIcNS_12regex_traitsIcEEEE, 
                       __ZTSNSt3__118basic_stringstreamIcNS_11char_traitsIcEENS_9allocatorIcEEEE, 
                       __ZTSNSt3__119basic_istringstreamIcNS_11char_traitsIcEENS_9allocatorIcEEEE, 
                       __ZTSNSt3__119basic_ostringstreamIcNS_11char_traitsIcEENS_9allocatorIcEEEE, 
                       __ZTSNSt3__120__bracket_expressionIcNS_12regex_traitsIcEEEE, 
                       __ZTSNSt3__120__l_anchor_multilineIcEE, __ZTSNSt3__120__match_char_collateIcNS_12regex_traitsIcEEEE, 
                       __ZTSNSt3__120__r_anchor_multilineIcEE, __ZTSNSt3__120__shared_ptr_emplaceIN4ASMP14MeasurementSet15SensorRangeImplENS_9allocatorIS3_EEEE, 
                       __ZTSNSt3__120__shared_ptr_emplaceIN4ASMP14MeasurementSet16FixtureRangeImplENS_9allocatorIS3_EEEE, 
                       __ZTSNSt3__120__shared_ptr_pointerIPNS_13__empty_stateIcEENS_10shared_ptrIS2_E27__shared_ptr_default_deleteIS2_S2_EENS_9allocatorIS2_EEEE, 
                       __ZTSNSt3__121__empty_non_own_stateIcEE, __ZTSNSt3__123__match_any_but_newlineIcEE, 
                       __ZTSNSt3__126__end_marked_subexpressionIcEE, __ZTSNSt3__128__begin_marked_subexpressionIcEE, 
                       __ZTSNSt3__16__loopIcEE, __ZTSNSt3__16__nodeIcEE ]
  - targets:         [ x86_64-macos, arm64e-macos ]
    symbols:         [ _ASMPAddAccelerometerSample, _ASMPAddAccelerometerTrace, _ASMPAddAccelerometerTraceTag, 
                       _ASMPAddEncoderSample, _ASMPAddEncoderTrace, _ASMPAddEncoderTraceTag, 
                       _ASMPAddGyroscopeSample, _ASMPAddGyroscopeTrace, _ASMPAddGyroscopeTraceTag, 
                       _ASMPAddMeasurementSetMetadata, _ASMPAddOpticalFeature, _ASMPAddOpticalSample, 
                       _ASMPAddOpticalTrace, _ASMPAddOpticalTraceTag, _ASMPAddSensorMetadata, 
                       _ASMPAddThermometerSample, _ASMPAddThermometerTrace, _ASMPAddThermometerTraceTag, 
                       _ASMPConvertToUnit, _ASMPDeserializeFromBuffer, _ASMPDeserializeFromFile, 
                       _ASMPFindFixture, _ASMPFindOpticalSample, _ASMPFindSensor, 
                       _ASMPGetFixtureName, _ASMPGetGridLabels, _ASMPGetLensTemp, 
                       _ASMPGetLibraryVersion, _ASMPGetMeasurementSetMetadata, _ASMPGetNativeAccelerometerUnit, 
                       _ASMPGetNativeEncoderUnit, _ASMPGetNativeGyroscopeUnit, _ASMPGetNativeThermometerUnit, 
                       _ASMPGetSampleTimestampResolution, _ASMPGetSensorMetadata, 
                       _ASMPGetSensorName, _ASMPGetSensorTemp, _ASMPGetSlot, _ASMPGetSourceFixtureForAccelerometerTrace, 
                       _ASMPGetSourceFixtureForEncoderTrace, _ASMPGetSourceFixtureForGyroscopeTrace, 
                       _ASMPGetSourceFixtureForOpticalTrace, _ASMPGetSourceFixtureForThermometerTrace, 
                       _ASMPGetSourceSensorForAccelerometerTrace, _ASMPGetSourceSensorForEncoderTrace, 
                       _ASMPGetSourceSensorForGyroscopeTrace, _ASMPGetSourceSensorForOpticalTrace, 
                       _ASMPGetSourceSensorForThermometerTrace, _ASMPGetSphereX, 
                       _ASMPGetSphereY, _ASMPGetZestimate, _ASMPMeasurementSetCreate, 
                       _ASMPMeasurementSetDestroy, _ASMPMerge, _ASMPMergeArray, _ASMPMergeWithResolver, 
                       _ASMPQueryTracesWithUri, _ASMPRegisterFixture, _ASMPRegisterSensor, 
                       _ASMPReleaseBuffer, _ASMPRemoveMeasurementSetMetadata, _ASMPRemoveSensorMetadata, 
                       _ASMPRemoveTrace, _ASMPSerializeToBuffer, _ASMPSerializeToFile, 
                       _ASMPSetAccelerometerFilename, _ASMPSetEncoderFilename, _ASMPSetGridLabels, 
                       _ASMPSetGyroscopeFilename, _ASMPSetLensTemp, _ASMPSetSampleTimestampResolution, 
                       _ASMPSetSensorTemp, _ASMPSetSlot, _ASMPSetSphereX, _ASMPSetSphereY, 
                       _ASMPSetThermometerFilename, _ASMPSetZestimate, _ASMPUriCreateFromNames, 
                       _ASMPUriCreateFromString, _ASMPUriGetFixtureName, _ASMPUriGetSensorName, 
                       _ASMPUriGetTag, _ASMPVisitAccelerometerSamples, _ASMPVisitAccelerometerSamplesInInterval, 
                       _ASMPVisitAccelerometerTraceTags, _ASMPVisitEncoderSamples, 
                       _ASMPVisitEncoderSamplesInInterval, _ASMPVisitEncoderTraceTags, 
                       _ASMPVisitFixtures, _ASMPVisitGyroscopeSamples, _ASMPVisitGyroscopeSamplesInInterval, 
                       _ASMPVisitGyroscopeTraceTags, _ASMPVisitMeasurementSetMetadata, 
                       _ASMPVisitOpticalFeatures, _ASMPVisitOpticalSamples, _ASMPVisitOpticalSamplesInInterval, 
                       _ASMPVisitOpticalTraceTags, _ASMPVisitSensorMetadata, _ASMPVisitSensors, 
                       _ASMPVisitTags, _ASMPVisitThermometerSamples, _ASMPVisitThermometerSamplesInInterval, 
                       _ASMPVisitThermometerTraceTags, _ASMP_SERIALIZE_FORMAT_ARCHIVE, 
                       _ASMP_SERIALIZE_FORMAT_BINARY, _ASMP_SERIALIZE_FORMAT_JSON, 
                       _ASMP_STATUS_CODE_DATAERR, _ASMP_STATUS_CODE_ERROR, _ASMP_STATUS_CODE_OK, 
                       _ASMP_STATUS_CODE_UNSUPPORTED, _ASMP_UNIT_CELSIUS, _ASMP_UNIT_CENTIMETER, 
                       _ASMP_UNIT_DEGREE, _ASMP_UNIT_DEGREE_PER_SECOND, _ASMP_UNIT_FAHRENHEIT, 
                       _ASMP_UNIT_FOOT, _ASMP_UNIT_GRAM, _ASMP_UNIT_GRAVITY, _ASMP_UNIT_INCH, 
                       _ASMP_UNIT_KELVIN, _ASMP_UNIT_KILOGRAM, _ASMP_UNIT_METER, 
                       _ASMP_UNIT_METERS_PER_SECOND_SQUARED, _ASMP_UNIT_MICROMETER, 
                       _ASMP_UNIT_MILLIGRAM, _ASMP_UNIT_MILLIGRAVITY, _ASMP_UNIT_MILLIMETER, 
                       _ASMP_UNIT_NAN, _ASMP_UNIT_PIXEL, _ASMP_UNIT_POUNDS, _ASMP_UNIT_RADIAN, 
                       _ASMP_UNIT_RADIAN_PER_SECOND, _ASMP_UNIT_STEP, _ASMP_UNIT_UNKNOWN, 
                       __ZN4ASMP10Covariance12Correlated2DEddd, __ZN4ASMP10Covariance12Correlated3DEdddddd, 
                       __ZN4ASMP10Covariance14Uncorrelated2DEdd, __ZN4ASMP10Covariance14Uncorrelated3DEddd, 
                       __ZN4ASMP10Covariance5EmptyEv, __ZN4ASMP10Covariance9IsotropicEd, 
                       __ZN4ASMP10CovarianceC1ENSt3__110unique_ptrINS0_4ImplENS1_14default_deleteIS3_EEEE, 
                       __ZN4ASMP10CovarianceC1EOS0_, __ZN4ASMP10CovarianceC1ERKS0_, 
                       __ZN4ASMP10CovarianceC1Ev, __ZN4ASMP10CovarianceC2ENSt3__110unique_ptrINS0_4ImplENS1_14default_deleteIS3_EEEE, 
                       __ZN4ASMP10CovarianceC2EOS0_, __ZN4ASMP10CovarianceC2ERKS0_, 
                       __ZN4ASMP10CovarianceC2Ev, __ZN4ASMP10CovarianceD1Ev, __ZN4ASMP10CovarianceD2Ev, 
                       __ZN4ASMP10CovarianceaSEOS0_, __ZN4ASMP10CovarianceaSERKS0_, 
                       __ZN4ASMP10FutureFile7GetImplEv, __ZN4ASMP10FutureFileC1EOS0_, 
                       __ZN4ASMP10FutureFileC1ERKS0_, __ZN4ASMP10FutureFileC1Ev, 
                       __ZN4ASMP10FutureFileC2EOS0_, __ZN4ASMP10FutureFileC2ERKS0_, 
                       __ZN4ASMP10FutureFileC2Ev, __ZN4ASMP10FutureFileD0Ev, __ZN4ASMP10FutureFileD1Ev, 
                       __ZN4ASMP10FutureFileD2Ev, __ZN4ASMP10FutureFileaSEOS0_, __ZN4ASMP10FutureFileaSERKS0_, 
                       __ZN4ASMP10GridLabelsC1Eii, __ZN4ASMP10GridLabelsC1Ev, __ZN4ASMP10GridLabelsC2Eii, 
                       __ZN4ASMP10GridLabelsC2Ev, __ZN4ASMP10SensorType11ThermometerEv, 
                       __ZN4ASMP10SensorType13AccelerometerEv, __ZN4ASMP10SensorType7EncoderEv, 
                       __ZN4ASMP10SensorType7OpticalEv, __ZN4ASMP10SensorType9GyroscopeEv, 
                       __ZN4ASMP10SensorTypeC1EOS0_, __ZN4ASMP10SensorTypeC1ERKS0_, 
                       __ZN4ASMP10SensorTypeC1Ev, __ZN4ASMP10SensorTypeC2EOS0_, __ZN4ASMP10SensorTypeC2ERKS0_, 
                       __ZN4ASMP10SensorTypeC2Ev, __ZN4ASMP10SensorTypeD1Ev, __ZN4ASMP10SensorTypeD2Ev, 
                       __ZN4ASMP10SensorTypeaSEOS0_, __ZN4ASMP10SensorTypeaSERKS0_, 
                       __ZN4ASMP10TraceRangeC1ENSt3__110shared_ptrINS_14TraceRangeImplEEE, 
                       __ZN4ASMP10TraceRangeC1Ev, __ZN4ASMP10TraceRangeC2ENSt3__110shared_ptrINS_14TraceRangeImplEEE, 
                       __ZN4ASMP10TraceRangeC2Ev, __ZN4ASMP11SampleRangeC1ENSt3__110shared_ptrINS_15SampleRangeImplEEE, 
                       __ZN4ASMP11SampleRangeC1Ev, __ZN4ASMP11SampleRangeC2ENSt3__110shared_ptrINS_15SampleRangeImplEEE, 
                       __ZN4ASMP11SampleRangeC2Ev, __ZN4ASMP11Thermometer8AddTraceERKNS_7FixtureE, 
                       __ZN4ASMP11ThermometerC1ENSt3__112basic_stringIcNS1_11char_traitsIcEENS1_9allocatorIcEEEE, 
                       __ZN4ASMP11ThermometerC1EOS0_, __ZN4ASMP11ThermometerC1ERKS0_, 
                       __ZN4ASMP11ThermometerC2ENSt3__112basic_stringIcNS1_11char_traitsIcEENS1_9allocatorIcEEEE, 
                       __ZN4ASMP11ThermometerC2EOS0_, __ZN4ASMP11ThermometerC2ERKS0_, 
                       __ZN4ASMP11ThermometeraSEOS0_, __ZN4ASMP11ThermometeraSERKS0_, 
                       __ZN4ASMP12OpticalTrace9AddSampleERKNS_17OpticalSampleBaseE, 
                       __ZN4ASMP12OpticalTraceC1ENSt3__110shared_ptrINS_5Trace4ImplEEE, 
                       __ZN4ASMP12OpticalTraceC1EOS0_, __ZN4ASMP12OpticalTraceC1ERKS0_, 
                       __ZN4ASMP12OpticalTraceC2ENSt3__110shared_ptrINS_5Trace4ImplEEE, 
                       __ZN4ASMP12OpticalTraceC2EOS0_, __ZN4ASMP12OpticalTraceC2ERKS0_, 
                       __ZN4ASMP12OpticalTraceaSEOS0_, __ZN4ASMP12OpticalTraceaSERKS0_, 
                       __ZN4ASMP12ProcessRange3endEv, __ZN4ASMP12ProcessRange5beginEv, 
                       __ZN4ASMP12ProcessRangeC1EOS0_, __ZN4ASMP12ProcessRangeC1ERKS0_, 
                       __ZN4ASMP12ProcessRangeC1Ev, __ZN4ASMP12ProcessRangeC2EOS0_, 
                       __ZN4ASMP12ProcessRangeC2ERKS0_, __ZN4ASMP12ProcessRangeC2Ev, 
                       __ZN4ASMP12ProcessRangeD1Ev, __ZN4ASMP12ProcessRangeD2Ev, 
                       __ZN4ASMP12ProcessRangeaSEOS0_, __ZN4ASMP12ProcessRangeaSERKS0_, 
                       __ZN4ASMP12QueryBuilder3TagENSt3__117basic_string_viewIcNS1_11char_traitsIcEEEE, 
                       __ZN4ASMP12QueryBuilder4TagsERKNSt3__16vectorINS1_12basic_stringIcNS1_11char_traitsIcEENS1_9allocatorIcEEEENS6_IS8_EEEE, 
                       __ZN4ASMP12QueryBuilder5ClearEv, __ZN4ASMP12QueryBuilder6SensorENSt3__117basic_string_viewIcNS1_11char_traitsIcEEEE, 
                       __ZN4ASMP12QueryBuilder7FixtureENSt3__117basic_string_viewIcNS1_11char_traitsIcEEEE, 
                       __ZN4ASMP12QueryBuilder7SensorsERKNSt3__16vectorINS1_12basic_stringIcNS1_11char_traitsIcEENS1_9allocatorIcEEEENS6_IS8_EEEE, 
                       __ZN4ASMP12QueryBuilder8FixturesERKNSt3__16vectorINS1_12basic_stringIcNS1_11char_traitsIcEENS1_9allocatorIcEEEENS6_IS8_EEEE, 
                       __ZN4ASMP12QueryBuilderC1EOS0_, __ZN4ASMP12QueryBuilderC1ERKS0_, 
                       __ZN4ASMP12QueryBuilderC1Ev, __ZN4ASMP12QueryBuilderC2EOS0_, 
                       __ZN4ASMP12QueryBuilderC2ERKS0_, __ZN4ASMP12QueryBuilderC2Ev, 
                       __ZN4ASMP12QueryBuilderD1Ev, __ZN4ASMP12QueryBuilderD2Ev, 
                       __ZN4ASMP12QueryBuilderaSEOS0_, __ZN4ASMP12QueryBuilderaSERKS0_, 
                       __ZN4ASMP12ResourceInfoC1ENSt3__112basic_stringIcNS1_11char_traitsIcEENS1_9allocatorIcEEEExx, 
                       __ZN4ASMP12ResourceInfoC1EOS0_, __ZN4ASMP12ResourceInfoC1ERKS0_, 
                       __ZN4ASMP12ResourceInfoC1Ev, __ZN4ASMP12ResourceInfoC2ENSt3__112basic_stringIcNS1_11char_traitsIcEENS1_9allocatorIcEEEExx, 
                       __ZN4ASMP12ResourceInfoC2EOS0_, __ZN4ASMP12ResourceInfoC2ERKS0_, 
                       __ZN4ASMP12ResourceInfoC2Ev, __ZN4ASMP12ResourceInfoD0Ev, 
                       __ZN4ASMP12ResourceInfoD1Ev, __ZN4ASMP12ResourceInfoD2Ev, 
                       __ZN4ASMP12ResourceInfoaSEOS0_, __ZN4ASMP12ResourceInfoaSERKS0_, 
                       __ZN4ASMP12ResourceType10FutureFileEv, __ZN4ASMP12ResourceType4FileEv, 
                       __ZN4ASMP12ResourceType5GroupEv, __ZN4ASMP12ResourceTypeC1EOS0_, 
                       __ZN4ASMP12ResourceTypeC1ERKS0_, __ZN4ASMP12ResourceTypeC1Ev, 
                       __ZN4ASMP12ResourceTypeC2EOS0_, __ZN4ASMP12ResourceTypeC2ERKS0_, 
                       __ZN4ASMP12ResourceTypeC2Ev, __ZN4ASMP12ResourceTypeD1Ev, 
                       __ZN4ASMP12ResourceTypeD2Ev, __ZN4ASMP12ResourceTypeaSEOS0_, 
                       __ZN4ASMP12ResourceTypeaSERKS0_, __ZN4ASMP13Accelerometer8AddTraceERKNS_7FixtureE, 
                       __ZN4ASMP13AccelerometerC1ENSt3__112basic_stringIcNS1_11char_traitsIcEENS1_9allocatorIcEEEE, 
                       __ZN4ASMP13AccelerometerC1EOS0_, __ZN4ASMP13AccelerometerC1ERKS0_, 
                       __ZN4ASMP13AccelerometerC2ENSt3__112basic_stringIcNS1_11char_traitsIcEENS1_9allocatorIcEEEE, 
                       __ZN4ASMP13AccelerometerC2EOS0_, __ZN4ASMP13AccelerometerC2ERKS0_, 
                       __ZN4ASMP13AccelerometeraSEOS0_, __ZN4ASMP13AccelerometeraSERKS0_, 
                       __ZN4ASMP13OpticalSample14OpticalFeature10SetChartIdEj, __ZN4ASMP13OpticalSample14OpticalFeature13SetCovarianceENS_10CovarianceE, 
                       __ZN4ASMP13OpticalSample14OpticalFeature13SetGridLabelsENS_10GridLabelsE, 
                       __ZN4ASMP13OpticalSample14OpticalFeature8SetDepthEd, __ZN4ASMP13OpticalSample14OpticalFeatureC1EOS1_, 
                       __ZN4ASMP13OpticalSample14OpticalFeatureC1ERKS1_, __ZN4ASMP13OpticalSample14OpticalFeatureC1Ejdd, 
                       __ZN4ASMP13OpticalSample14OpticalFeatureC2EOS1_, __ZN4ASMP13OpticalSample14OpticalFeatureC2ERKS1_, 
                       __ZN4ASMP13OpticalSample14OpticalFeatureC2Ejdd, __ZN4ASMP13OpticalSample14OpticalFeatureD1Ev, 
                       __ZN4ASMP13OpticalSample14OpticalFeatureD2Ev, __ZN4ASMP13OpticalSample14OpticalFeatureaSEOS1_, 
                       __ZN4ASMP13OpticalSample14OpticalFeatureaSERKS1_, __ZN4ASMP13OpticalSample8SetValueERKNS0_18OpticalFeatureTypeE, 
                       __ZN4ASMP13OpticalSampleC1EOS0_, __ZN4ASMP13OpticalSampleC1ERKS0_, 
                       __ZN4ASMP13OpticalSampleC1Ev, __ZN4ASMP13OpticalSampleC2EOS0_, 
                       __ZN4ASMP13OpticalSampleC2ERKS0_, __ZN4ASMP13OpticalSampleC2Ev, 
                       __ZN4ASMP13OpticalSampleaSEOS0_, __ZN4ASMP13OpticalSampleaSERKS0_, 
                       __ZN4ASMP13OpticalSensor8AddTraceERKNS_7FixtureE, __ZN4ASMP13OpticalSensorC1ENSt3__112basic_stringIcNS1_11char_traitsIcEENS1_9allocatorIcEEEE, 
                       __ZN4ASMP13OpticalSensorC1EOS0_, __ZN4ASMP13OpticalSensorC1ERKS0_, 
                       __ZN4ASMP13OpticalSensorC2ENSt3__112basic_stringIcNS1_11char_traitsIcEENS1_9allocatorIcEEEE, 
                       __ZN4ASMP13OpticalSensorC2EOS0_, __ZN4ASMP13OpticalSensorC2ERKS0_, 
                       __ZN4ASMP13OpticalSensoraSEOS0_, __ZN4ASMP13OpticalSensoraSERKS0_, 
                       __ZN4ASMP13ResourceRange3endEv, __ZN4ASMP13ResourceRange5beginEv, 
                       __ZN4ASMP13ResourceRangeC1ENSt3__110shared_ptrINS_17ResourceRangeImplEEE, 
                       __ZN4ASMP13ResourceRangeC1Ev, __ZN4ASMP13ResourceRangeC2ENSt3__110shared_ptrINS_17ResourceRangeImplEEE, 
                       __ZN4ASMP13ResourceRangeC2Ev, __ZN4ASMP13TraceIteratorC1EOS0_, 
                       __ZN4ASMP13TraceIteratorC1ERKS0_, __ZN4ASMP13TraceIteratorC1Ev, 
                       __ZN4ASMP13TraceIteratorC2EOS0_, __ZN4ASMP13TraceIteratorC2ERKS0_, 
                       __ZN4ASMP13TraceIteratorC2Ev, __ZN4ASMP13TraceIteratorD1Ev, 
                       __ZN4ASMP13TraceIteratorD2Ev, __ZN4ASMP13TraceIteratoraSEOS0_, 
                       __ZN4ASMP13TraceIteratoraSERKS0_, __ZN4ASMP13TraceIteratorppEi, 
                       __ZN4ASMP13TraceIteratorppEv, __ZN4ASMP14MeasurementSet10FindSensorENSt3__117basic_string_viewIcNS1_11char_traitsIcEEEE, 
                       __ZN4ASMP14MeasurementSet10GetSensorsEv, __ZN4ASMP14MeasurementSet10GetStorageEv, 
                       __ZN4ASMP14MeasurementSet11FindFixtureENSt3__117basic_string_viewIcNS1_11char_traitsIcEEEE, 
                       __ZN4ASMP14MeasurementSet11GetFixturesEv, __ZN4ASMP14MeasurementSet11GetMetadataEv, 
                       __ZN4ASMP14MeasurementSet11SensorRange3endEv, __ZN4ASMP14MeasurementSet11SensorRange5beginEv, 
                       __ZN4ASMP14MeasurementSet11SensorRangeC1ENSt3__110shared_ptrINS0_15SensorRangeImplEEE, 
                       __ZN4ASMP14MeasurementSet11SensorRangeC1Ev, __ZN4ASMP14MeasurementSet11SensorRangeC2ENSt3__110shared_ptrINS0_15SensorRangeImplEEE, 
                       __ZN4ASMP14MeasurementSet11SensorRangeC2Ev, __ZN4ASMP14MeasurementSet12FixtureRange3endEv, 
                       __ZN4ASMP14MeasurementSet12FixtureRange5beginEv, __ZN4ASMP14MeasurementSet12FixtureRangeC1ENSt3__110shared_ptrINS0_16FixtureRangeImplEEE, 
                       __ZN4ASMP14MeasurementSet12FixtureRangeC1Ev, __ZN4ASMP14MeasurementSet12FixtureRangeC2ENSt3__110shared_ptrINS0_16FixtureRangeImplEEE, 
                       __ZN4ASMP14MeasurementSet12FixtureRangeC2Ev, __ZN4ASMP14MeasurementSet14QueryProcessesERKNSt3__117basic_string_viewIcNS1_11char_traitsIcEEEE, 
                       __ZN4ASMP14MeasurementSet14RegisterSensorERKNS_6SensorE, __ZN4ASMP14MeasurementSet14SensorIteratorC1EOS1_, 
                       __ZN4ASMP14MeasurementSet14SensorIteratorC1ERKS1_, __ZN4ASMP14MeasurementSet14SensorIteratorC1Ev, 
                       __ZN4ASMP14MeasurementSet14SensorIteratorC2EOS1_, __ZN4ASMP14MeasurementSet14SensorIteratorC2ERKS1_, 
                       __ZN4ASMP14MeasurementSet14SensorIteratorC2Ev, __ZN4ASMP14MeasurementSet14SensorIteratorD1Ev, 
                       __ZN4ASMP14MeasurementSet14SensorIteratorD2Ev, __ZN4ASMP14MeasurementSet14SensorIteratoraSEOS1_, 
                       __ZN4ASMP14MeasurementSet14SensorIteratoraSERKS1_, __ZN4ASMP14MeasurementSet14SensorIteratorppEi, 
                       __ZN4ASMP14MeasurementSet14SensorIteratorppEv, __ZN4ASMP14MeasurementSet15FixtureIteratorC1EOS1_, 
                       __ZN4ASMP14MeasurementSet15FixtureIteratorC1ERKS1_, __ZN4ASMP14MeasurementSet15FixtureIteratorC1Ev, 
                       __ZN4ASMP14MeasurementSet15FixtureIteratorC2EOS1_, __ZN4ASMP14MeasurementSet15FixtureIteratorC2ERKS1_, 
                       __ZN4ASMP14MeasurementSet15FixtureIteratorC2Ev, __ZN4ASMP14MeasurementSet15FixtureIteratorD1Ev, 
                       __ZN4ASMP14MeasurementSet15FixtureIteratorD2Ev, __ZN4ASMP14MeasurementSet15FixtureIteratoraSEOS1_, 
                       __ZN4ASMP14MeasurementSet15FixtureIteratoraSERKS1_, __ZN4ASMP14MeasurementSet15FixtureIteratorppEi, 
                       __ZN4ASMP14MeasurementSet15FixtureIteratorppEv, __ZN4ASMP14MeasurementSet15RegisterFixtureERKNS_7FixtureE, 
                       __ZN4ASMP14MeasurementSet15RegisterProcessEv, __ZN4ASMP14MeasurementSet16SerializeOptions17SetMaxArchiveSizeEy, 
                       __ZN4ASMP14MeasurementSet16SerializeOptions18SetFileUriSelectorENSt3__117basic_string_viewIcNS2_11char_traitsIcEEEE, 
                       __ZN4ASMP14MeasurementSet16SerializeOptions21SetIncludeFileStorageEb, 
                       __ZN4ASMP14MeasurementSet16SerializeOptions25SetEnsureStorageNotCopiedEb, 
                       __ZN4ASMP14MeasurementSet16SerializeOptions26SetEnsureFileTagsAreUniqueEb, 
                       __ZN4ASMP14MeasurementSet16SerializeOptions27SetEnsureTraceTagsAreUniqueEb, 
                       __ZN4ASMP14MeasurementSet16SerializeOptions28SetEnsureAllFilesHaveFixtureEb, 
                       __ZN4ASMP14MeasurementSet16SerializeOptionsC1EOS1_, __ZN4ASMP14MeasurementSet16SerializeOptionsC1ERKS1_, 
                       __ZN4ASMP14MeasurementSet16SerializeOptionsC1Ev, __ZN4ASMP14MeasurementSet16SerializeOptionsC2EOS1_, 
                       __ZN4ASMP14MeasurementSet16SerializeOptionsC2ERKS1_, __ZN4ASMP14MeasurementSet16SerializeOptionsC2Ev, 
                       __ZN4ASMP14MeasurementSet16SerializeOptionsD1Ev, __ZN4ASMP14MeasurementSet16SerializeOptionsD2Ev, 
                       __ZN4ASMP14MeasurementSet16SerializeOptionsaSEOS1_, __ZN4ASMP14MeasurementSet16SerializeOptionsaSERKS1_, 
                       __ZN4ASMP14MeasurementSet17TraceQueryOptions20SetFilterEmptyTracesEb, 
                       __ZN4ASMP14MeasurementSet17TraceQueryOptionsC1EOS1_, __ZN4ASMP14MeasurementSet17TraceQueryOptionsC1ERKS1_, 
                       __ZN4ASMP14MeasurementSet17TraceQueryOptionsC1Ev, __ZN4ASMP14MeasurementSet17TraceQueryOptionsC2EOS1_, 
                       __ZN4ASMP14MeasurementSet17TraceQueryOptionsC2ERKS1_, __ZN4ASMP14MeasurementSet17TraceQueryOptionsC2Ev, 
                       __ZN4ASMP14MeasurementSet17TraceQueryOptionsD1Ev, __ZN4ASMP14MeasurementSet17TraceQueryOptionsD2Ev, 
                       __ZN4ASMP14MeasurementSet17TraceQueryOptionsaSEOS1_, __ZN4ASMP14MeasurementSet17TraceQueryOptionsaSERKS1_, 
                       __ZN4ASMP14MeasurementSet18DeserializeOptions18SetVerifyIntegrityEb, 
                       __ZN4ASMP14MeasurementSet18DeserializeOptions9SetFormatENS0_19SerializationFormatE, 
                       __ZN4ASMP14MeasurementSet18DeserializeOptionsC1EOS1_, __ZN4ASMP14MeasurementSet18DeserializeOptionsC1ERKS1_, 
                       __ZN4ASMP14MeasurementSet18DeserializeOptionsC1Ev, __ZN4ASMP14MeasurementSet18DeserializeOptionsC2EOS1_, 
                       __ZN4ASMP14MeasurementSet18DeserializeOptionsC2ERKS1_, __ZN4ASMP14MeasurementSet18DeserializeOptionsC2Ev, 
                       __ZN4ASMP14MeasurementSet18DeserializeOptionsD1Ev, __ZN4ASMP14MeasurementSet18DeserializeOptionsD2Ev, 
                       __ZN4ASMP14MeasurementSet18DeserializeOptionsaSEOS1_, __ZN4ASMP14MeasurementSet18DeserializeOptionsaSERKS1_, 
                       __ZN4ASMP14MeasurementSet5QueryERKNSt3__117basic_string_viewIcNS1_11char_traitsIcEEEERKNS0_17TraceQueryOptionsE, 
                       __ZN4ASMP14MeasurementSet7GetTagsERKNS_6SensorERKNS_7FixtureE, 
                       __ZN4ASMP14MeasurementSet7GetTagsEv, __ZN4ASMP14MeasurementSet9SerializeENSt3__117basic_string_viewIcNS1_11char_traitsIcEEEERKNS0_16SerializeOptionsE, 
                       __ZN4ASMP14MeasurementSet9SerializeERKNS0_16SerializeOptionsE, 
                       __ZN4ASMP14MeasurementSetC1ENSt3__117basic_string_viewIcNS1_11char_traitsIcEEEERKNS0_18DeserializeOptionsE, 
                       __ZN4ASMP14MeasurementSetC1ENSt3__16vectorIhNS1_9allocatorIhEEEERKNS0_18DeserializeOptionsE, 
                       __ZN4ASMP14MeasurementSetC1EOS0_, __ZN4ASMP14MeasurementSetC1Ev, 
                       __ZN4ASMP14MeasurementSetC2ENSt3__117basic_string_viewIcNS1_11char_traitsIcEEEERKNS0_18DeserializeOptionsE, 
                       __ZN4ASMP14MeasurementSetC2ENSt3__16vectorIhNS1_9allocatorIhEEEERKNS0_18DeserializeOptionsE, 
                       __ZN4ASMP14MeasurementSetC2EOS0_, __ZN4ASMP14MeasurementSetC2Ev, 
                       __ZN4ASMP14MeasurementSetaSEOS0_, __ZN4ASMP14SampleIteratorC1EOS0_, 
                       __ZN4ASMP14SampleIteratorC1ERKS0_, __ZN4ASMP14SampleIteratorC1Ev, 
                       __ZN4ASMP14SampleIteratorC2EOS0_, __ZN4ASMP14SampleIteratorC2ERKS0_, 
                       __ZN4ASMP14SampleIteratorC2Ev, __ZN4ASMP14SampleIteratorD1Ev, 
                       __ZN4ASMP14SampleIteratorD2Ev, __ZN4ASMP14SampleIteratoraSEOS0_, 
                       __ZN4ASMP14SampleIteratoraSERKS0_, __ZN4ASMP14SampleIteratorppEi, 
                       __ZN4ASMP14SampleIteratorppEv, __ZN4ASMP14StoredResource13GetStoredImplEv, 
                       __ZN4ASMP14StoredResourceC2ENSt3__110shared_ptrINS_22StoredResourceImplBaseEEE, 
                       __ZN4ASMP14StoredResourceC2EOS0_, __ZN4ASMP14StoredResourceC2ERKS0_, 
                       __ZN4ASMP14StoredResourceC2Ev, __ZN4ASMP14StoredResourceD0Ev, 
                       __ZN4ASMP14StoredResourceD1Ev, __ZN4ASMP14StoredResourceD2Ev, 
                       __ZN4ASMP14StoredResourceaSEOS0_, __ZN4ASMP14StoredResourceaSERKS0_, 
                       __ZN4ASMP14ThreeAxisTrace17SetSourceFilenameENSt3__117basic_string_viewIcNS1_11char_traitsIcEEEE, 
                       __ZN4ASMP14ThreeAxisTrace9AddSampleERKNS_15ThreeAxisSampleE, 
                       __ZN4ASMP14ThreeAxisTrace9AddSampleEdddd, __ZN4ASMP14ThreeAxisTraceC1ENSt3__110shared_ptrINS_5Trace4ImplEEE, 
                       __ZN4ASMP14ThreeAxisTraceC1EOS0_, __ZN4ASMP14ThreeAxisTraceC1ERKS0_, 
                       __ZN4ASMP14ThreeAxisTraceC2ENSt3__110shared_ptrINS_5Trace4ImplEEE, 
                       __ZN4ASMP14ThreeAxisTraceC2EOS0_, __ZN4ASMP14ThreeAxisTraceC2ERKS0_, 
                       __ZN4ASMP14ThreeAxisTraceaSEOS0_, __ZN4ASMP14ThreeAxisTraceaSERKS0_, 
                       __ZN4ASMP15ProcessIteratorC1EOS0_, __ZN4ASMP15ProcessIteratorC1ERKS0_, 
                       __ZN4ASMP15ProcessIteratorC1Ev, __ZN4ASMP15ProcessIteratorC2EOS0_, 
                       __ZN4ASMP15ProcessIteratorC2ERKS0_, __ZN4ASMP15ProcessIteratorC2Ev, 
                       __ZN4ASMP15ProcessIteratorD1Ev, __ZN4ASMP15ProcessIteratorD2Ev, 
                       __ZN4ASMP15ProcessIteratoraSEOS0_, __ZN4ASMP15ProcessIteratoraSERKS0_, 
                       __ZN4ASMP15ProcessIteratorppEi, __ZN4ASMP15ProcessIteratorppEv, 
                       __ZN4ASMP15ThreeAxisSample8SetValueERKNS0_13ThreeAxisTypeE, 
                       __ZN4ASMP15ThreeAxisSampleC1EOS0_, __ZN4ASMP15ThreeAxisSampleC1ERKS0_, 
                       __ZN4ASMP15ThreeAxisSampleC1Ev, __ZN4ASMP15ThreeAxisSampleC2EOS0_, 
                       __ZN4ASMP15ThreeAxisSampleC2ERKS0_, __ZN4ASMP15ThreeAxisSampleC2Ev, 
                       __ZN4ASMP15ThreeAxisSampleaSEOS0_, __ZN4ASMP15ThreeAxisSampleaSERKS0_, 
                       __ZN4ASMP16ConstTagIteratorC1EOS0_, __ZN4ASMP16ConstTagIteratorC1ERKS0_, 
                       __ZN4ASMP16ConstTagIteratorC1Ev, __ZN4ASMP16ConstTagIteratorC2EOS0_, 
                       __ZN4ASMP16ConstTagIteratorC2ERKS0_, __ZN4ASMP16ConstTagIteratorC2Ev, 
                       __ZN4ASMP16ConstTagIteratorD1Ev, __ZN4ASMP16ConstTagIteratorD2Ev, 
                       __ZN4ASMP16ConstTagIteratoraSEOS0_, __ZN4ASMP16ConstTagIteratoraSERKS0_, 
                       __ZN4ASMP16ConstTagIteratorppEi, __ZN4ASMP16ConstTagIteratorppEv, 
                       __ZN4ASMP16ResourceIteratorC1EOS0_, __ZN4ASMP16ResourceIteratorC1ERKS0_, 
                       __ZN4ASMP16ResourceIteratorC1Ev, __ZN4ASMP16ResourceIteratorC2EOS0_, 
                       __ZN4ASMP16ResourceIteratorC2ERKS0_, __ZN4ASMP16ResourceIteratorC2Ev, 
                       __ZN4ASMP16ResourceIteratorD1Ev, __ZN4ASMP16ResourceIteratorD2Ev, 
                       __ZN4ASMP16ResourceIteratoraSEOS0_, __ZN4ASMP16ResourceIteratoraSERKS0_, 
                       __ZN4ASMP16ResourceIteratorppEi, __ZN4ASMP16ResourceIteratorppEv, 
                       __ZN4ASMP16SingleValueTrace17SetSourceFilenameENSt3__117basic_string_viewIcNS1_11char_traitsIcEEEE, 
                       __ZN4ASMP16SingleValueTrace9AddSampleERKNS_17SingleValueSampleE, 
                       __ZN4ASMP16SingleValueTrace9AddSampleEdd, __ZN4ASMP16SingleValueTraceC1ENSt3__110shared_ptrINS_5Trace4ImplEEE, 
                       __ZN4ASMP16SingleValueTraceC1EOS0_, __ZN4ASMP16SingleValueTraceC1ERKS0_, 
                       __ZN4ASMP16SingleValueTraceC2ENSt3__110shared_ptrINS_5Trace4ImplEEE, 
                       __ZN4ASMP16SingleValueTraceC2EOS0_, __ZN4ASMP16SingleValueTraceC2ERKS0_, 
                       __ZN4ASMP16SingleValueTraceaSEOS0_, __ZN4ASMP16SingleValueTraceaSERKS0_, 
                       __ZN4ASMP17GetLibraryVersionEv, __ZN4ASMP17MetadataContainer13ConstIteratorC1ERKS1_, 
                       __ZN4ASMP17MetadataContainer13ConstIteratorC1Ev, __ZN4ASMP17MetadataContainer13ConstIteratorC2ERKS1_, 
                       __ZN4ASMP17MetadataContainer13ConstIteratorC2Ev, __ZN4ASMP17MetadataContainer13ConstIteratorD1Ev, 
                       __ZN4ASMP17MetadataContainer13ConstIteratorD2Ev, __ZN4ASMP17MetadataContainer13ConstIteratoraSERKS1_, 
                       __ZN4ASMP17MetadataContainer13ConstIteratorppEi, __ZN4ASMP17MetadataContainer13ConstIteratorppEv, 
                       __ZN4ASMP17MetadataContainer3AddENSt3__117basic_string_viewIcNS1_11char_traitsIcEEEERKNS_8MetadataE, 
                       __ZN4ASMP17MetadataContainer3GetENSt3__117basic_string_viewIcNS1_11char_traitsIcEEEE, 
                       __ZN4ASMP17MetadataContainer3endEv, __ZN4ASMP17MetadataContainer5beginEv, 
                       __ZN4ASMP17MetadataContainer6RemoveENSt3__117basic_string_viewIcNS1_11char_traitsIcEEEE, 
                       __ZN4ASMP17MetadataContainer8IteratorC1ERKS1_, __ZN4ASMP17MetadataContainer8IteratorC1Ev, 
                       __ZN4ASMP17MetadataContainer8IteratorC2ERKS1_, __ZN4ASMP17MetadataContainer8IteratorC2Ev, 
                       __ZN4ASMP17MetadataContainer8IteratorD1Ev, __ZN4ASMP17MetadataContainer8IteratorD2Ev, 
                       __ZN4ASMP17MetadataContainer8IteratoraSERKS1_, __ZN4ASMP17MetadataContainer8IteratorppEi, 
                       __ZN4ASMP17MetadataContainer8IteratorppEv, __ZN4ASMP17MetadataContainerC1EOS0_, 
                       __ZN4ASMP17MetadataContainerC1ERKS0_, __ZN4ASMP17MetadataContainerC1Ev, 
                       __ZN4ASMP17MetadataContainerC2EOS0_, __ZN4ASMP17MetadataContainerC2ERKS0_, 
                       __ZN4ASMP17MetadataContainerC2Ev, __ZN4ASMP17MetadataContainerD1Ev, 
                       __ZN4ASMP17MetadataContainerD2Ev, __ZN4ASMP17MetadataContaineraSEOS0_, 
                       __ZN4ASMP17MetadataContaineraSERKS0_, __ZN4ASMP17OpticalSampleBase10SetSphereXEdNS_4UnitE, 
                       __ZN4ASMP17OpticalSampleBase10SetSphereYEdNS_4UnitE, __ZN4ASMP17OpticalSampleBase11SetLensTempEdNS_4UnitE, 
                       __ZN4ASMP17OpticalSampleBase12SetZestimateEdNS_4UnitE, __ZN4ASMP17OpticalSampleBase13SetSensorTempEdNS_4UnitE, 
                       __ZN4ASMP17OpticalSampleBase17SetSourceFilenameENSt3__117basic_string_viewIcNS1_11char_traitsIcEEEE, 
                       __ZN4ASMP17OpticalSampleBaseC1EOS0_, __ZN4ASMP17OpticalSampleBaseC1ERKS0_, 
                       __ZN4ASMP17OpticalSampleBaseC1Ev, __ZN4ASMP17OpticalSampleBaseC2EOS0_, 
                       __ZN4ASMP17OpticalSampleBaseC2ERKS0_, __ZN4ASMP17OpticalSampleBaseC2Ev, 
                       __ZN4ASMP17OpticalSampleBaseD0Ev, __ZN4ASMP17OpticalSampleBaseD1Ev, 
                       __ZN4ASMP17OpticalSampleBaseD2Ev, __ZN4ASMP17OpticalSampleBaseaSEOS0_, 
                       __ZN4ASMP17OpticalSampleBaseaSERKS0_, __ZN4ASMP17ProcessInvocation10SetVersionENSt3__117basic_string_viewIcNS1_11char_traitsIcEEEE, 
                       __ZN4ASMP17ProcessInvocation11AddArgumentENSt3__117basic_string_viewIcNS1_11char_traitsIcEEEE, 
                       __ZN4ASMP17ProcessInvocation13SetBinaryNameENSt3__117basic_string_viewIcNS1_11char_traitsIcEEEE, 
                       __ZN4ASMP17ProcessInvocation13SetBinaryPathENSt3__117basic_string_viewIcNS1_11char_traitsIcEEEE, 
                       __ZN4ASMP17ProcessInvocation14SetCommandLineENSt3__117basic_string_viewIcNS1_11char_traitsIcEEEE, 
                       __ZN4ASMP17ProcessInvocation16SetEnvironmentOSENSt3__117basic_string_viewIcNS1_11char_traitsIcEEEE, 
                       __ZN4ASMP17ProcessInvocation22SetEnvironmentHostnameENSt3__117basic_string_viewIcNS1_11char_traitsIcEEEE, 
                       __ZN4ASMP17ProcessInvocation23SetEnvironmentOSVersionENSt3__117basic_string_viewIcNS1_11char_traitsIcEEEE, 
                       __ZN4ASMP17ProcessInvocation26SetEnvironmentArchitectureENSt3__117basic_string_viewIcNS1_11char_traitsIcEEEE, 
                       __ZN4ASMP17ProcessInvocationC1EOS0_, __ZN4ASMP17ProcessInvocationC1ERKS0_, 
                       __ZN4ASMP17ProcessInvocationC1Ev, __ZN4ASMP17ProcessInvocationC2EOS0_, 
                       __ZN4ASMP17ProcessInvocationC2ERKS0_, __ZN4ASMP17ProcessInvocationC2Ev, 
                       __ZN4ASMP17ProcessInvocationD1Ev, __ZN4ASMP17ProcessInvocationD2Ev, 
                       __ZN4ASMP17ProcessInvocationaSEOS0_, __ZN4ASMP17ProcessInvocationaSERKS0_, 
                       __ZN4ASMP17RunProcessDetails10AddFixtureERKNS_7FixtureE, __ZN4ASMP17RunProcessDetails11AddResourceERKNS_8ResourceE, 
                       __ZN4ASMP17RunProcessDetails11GetMetadataEv, __ZN4ASMP17RunProcessDetails11TableSchema12FromMetadataERKNS_8MetadataE, 
                       __ZN4ASMP17RunProcessDetails11TableSchema13SetPrimaryKeyENSt3__117basic_string_viewIcNS2_11char_traitsIcEEEE, 
                       __ZN4ASMP17RunProcessDetails11TableSchema8AddFieldENSt3__117basic_string_viewIcNS2_11char_traitsIcEEEES6_, 
                       __ZN4ASMP17RunProcessDetails11TableSchema8AddFieldENSt3__117basic_string_viewIcNS2_11char_traitsIcEEEES6_S6_, 
                       __ZN4ASMP17RunProcessDetails11TableSchema8FromJsonENSt3__117basic_string_viewIcNS2_11char_traitsIcEEEE, 
                       __ZN4ASMP17RunProcessDetails11TableSchemaC1EOS1_, __ZN4ASMP17RunProcessDetails11TableSchemaC1ERKS1_, 
                       __ZN4ASMP17RunProcessDetails11TableSchemaC1Ev, __ZN4ASMP17RunProcessDetails11TableSchemaC2EOS1_, 
                       __ZN4ASMP17RunProcessDetails11TableSchemaC2ERKS1_, __ZN4ASMP17RunProcessDetails11TableSchemaC2Ev, 
                       __ZN4ASMP17RunProcessDetails11TableSchemaD1Ev, __ZN4ASMP17RunProcessDetails11TableSchemaD2Ev, 
                       __ZN4ASMP17RunProcessDetails11TableSchemaaSEOS1_, __ZN4ASMP17RunProcessDetails11TableSchemaaSERKS1_, 
                       __ZN4ASMP17RunProcessDetails12GetResourcesEv, __ZN4ASMP17RunProcessDetails13GetInvocationEv, 
                       __ZN4ASMP17RunProcessDetails14SetPackageNameENSt3__117basic_string_viewIcNS1_11char_traitsIcEEEE, 
                       __ZN4ASMP17RunProcessDetails15AddDataResourceENSt3__117basic_string_viewIcNS1_11char_traitsIcEEEERKNS_4FileERKNS0_11TableSchemaE, 
                       __ZN4ASMP17RunProcessDetails17AddRelatedProcessENSt3__117basic_string_viewIcNS1_11char_traitsIcEEEENS_19ProcessRelationshipE, 
                       __ZN4ASMP17RunProcessDetails17SetPackageVersionENSt3__117basic_string_viewIcNS1_11char_traitsIcEEEE, 
                       __ZN4ASMP17RunProcessDetails6AddTagENSt3__117basic_string_viewIcNS1_11char_traitsIcEEEE, 
                       __ZN4ASMP17RunProcessDetails7GetTagsEv, __ZN4ASMP17RunProcessDetails8AddTraceERKNS_5TraceE, 
                       __ZN4ASMP17RunProcessDetails9AddSensorERKNS_6SensorE, __ZN4ASMP17RunProcessDetailsC1EOS0_, 
                       __ZN4ASMP17RunProcessDetailsC1ERKS0_, __ZN4ASMP17RunProcessDetailsC1Ev, 
                       __ZN4ASMP17RunProcessDetailsC2EOS0_, __ZN4ASMP17RunProcessDetailsC2ERKS0_, 
                       __ZN4ASMP17RunProcessDetailsC2Ev, __ZN4ASMP17RunProcessDetailsD1Ev, 
                       __ZN4ASMP17RunProcessDetailsD2Ev, __ZN4ASMP17RunProcessDetailsaSEOS0_, 
                       __ZN4ASMP17RunProcessDetailsaSERKS0_, __ZN4ASMP17SingleValueSample8SetValueEd, 
                       __ZN4ASMP17SingleValueSampleC1EOS0_, __ZN4ASMP17SingleValueSampleC1ERKS0_, 
                       __ZN4ASMP17SingleValueSampleC1Ev, __ZN4ASMP17SingleValueSampleC2EOS0_, 
                       __ZN4ASMP17SingleValueSampleC2ERKS0_, __ZN4ASMP17SingleValueSampleC2Ev, 
                       __ZN4ASMP17SingleValueSampleaSEOS0_, __ZN4ASMP17SingleValueSampleaSERKS0_, 
                       __ZN4ASMP18OpticalSampleRangeC1ENSt3__110shared_ptrINS_22OpticalSampleRangeImplEEE, 
                       __ZN4ASMP18OpticalSampleRangeC1Ev, __ZN4ASMP18OpticalSampleRangeC2ENSt3__110shared_ptrINS_22OpticalSampleRangeImplEEE, 
                       __ZN4ASMP18OpticalSampleRangeC2Ev, __ZN4ASMP18StoredResourceInfo13GetStoredImplEv, 
                       __ZN4ASMP18StoredResourceInfoC1ENSt3__112basic_stringIcNS1_11char_traitsIcEENS1_9allocatorIcEEEExxxS7_, 
                       __ZN4ASMP18StoredResourceInfoC1EOS0_, __ZN4ASMP18StoredResourceInfoC1ERKS0_, 
                       __ZN4ASMP18StoredResourceInfoC1Ev, __ZN4ASMP18StoredResourceInfoC2ENSt3__112basic_stringIcNS1_11char_traitsIcEENS1_9allocatorIcEEEExxxS7_, 
                       __ZN4ASMP18StoredResourceInfoC2EOS0_, __ZN4ASMP18StoredResourceInfoC2ERKS0_, 
                       __ZN4ASMP18StoredResourceInfoC2Ev, __ZN4ASMP18StoredResourceInfoD0Ev, 
                       __ZN4ASMP18StoredResourceInfoD1Ev, __ZN4ASMP18StoredResourceInfoD2Ev, 
                       __ZN4ASMP18StoredResourceInfoaSEOS0_, __ZN4ASMP18StoredResourceInfoaSERKS0_, 
                       __ZN4ASMP19ProcessRelationship4PostEv, __ZN4ASMP19ProcessRelationship7RelatedEv, 
                       __ZN4ASMP19ProcessRelationship8PreviousEv, __ZN4ASMP19ProcessRelationshipC1EOS0_, 
                       __ZN4ASMP19ProcessRelationshipC1ERKS0_, __ZN4ASMP19ProcessRelationshipC1Ev, 
                       __ZN4ASMP19ProcessRelationshipC2EOS0_, __ZN4ASMP19ProcessRelationshipC2ERKS0_, 
                       __ZN4ASMP19ProcessRelationshipC2Ev, __ZN4ASMP19ProcessRelationshipD1Ev, 
                       __ZN4ASMP19ProcessRelationshipD2Ev, __ZN4ASMP19ProcessRelationshipaSEOS0_, 
                       __ZN4ASMP19ProcessRelationshipaSERKS0_, __ZN4ASMP20ThreeAxisSampleRangeC1ENSt3__110shared_ptrINS_24ThreeAxisSampleRangeImplEEE, 
                       __ZN4ASMP20ThreeAxisSampleRangeC1Ev, __ZN4ASMP20ThreeAxisSampleRangeC2ENSt3__110shared_ptrINS_24ThreeAxisSampleRangeImplEEE, 
                       __ZN4ASMP20ThreeAxisSampleRangeC2Ev, __ZN4ASMP21OpticalSampleIteratorC1EOS0_, 
                       __ZN4ASMP21OpticalSampleIteratorC1ERKS0_, __ZN4ASMP21OpticalSampleIteratorC1Ev, 
                       __ZN4ASMP21OpticalSampleIteratorC2EOS0_, __ZN4ASMP21OpticalSampleIteratorC2ERKS0_, 
                       __ZN4ASMP21OpticalSampleIteratorC2Ev, __ZN4ASMP21OpticalSampleIteratorD1Ev, 
                       __ZN4ASMP21OpticalSampleIteratorD2Ev, __ZN4ASMP21OpticalSampleIteratoraSEOS0_, 
                       __ZN4ASMP21OpticalSampleIteratoraSERKS0_, __ZN4ASMP21OpticalSampleIteratorppEi, 
                       __ZN4ASMP21OpticalSampleIteratorppEv, __ZN4ASMP22SingleValueSampleRangeC1ENSt3__110shared_ptrINS_26SingleValueSampleRangeImplEEE, 
                       __ZN4ASMP22SingleValueSampleRangeC1Ev, __ZN4ASMP22SingleValueSampleRangeC2ENSt3__110shared_ptrINS_26SingleValueSampleRangeImplEEE, 
                       __ZN4ASMP22SingleValueSampleRangeC2Ev, __ZN4ASMP23CaptureConditionsRecordC1EOS0_, 
                       __ZN4ASMP23CaptureConditionsRecordC1ERKS0_, __ZN4ASMP23CaptureConditionsRecordC1EdNS_4UnitE, 
                       __ZN4ASMP23CaptureConditionsRecordC1Ev, __ZN4ASMP23CaptureConditionsRecordC2EOS0_, 
                       __ZN4ASMP23CaptureConditionsRecordC2ERKS0_, __ZN4ASMP23CaptureConditionsRecordC2EdNS_4UnitE, 
                       __ZN4ASMP23CaptureConditionsRecordC2Ev, __ZN4ASMP23CaptureConditionsRecordD1Ev, 
                       __ZN4ASMP23CaptureConditionsRecordD2Ev, __ZN4ASMP23CaptureConditionsRecordaSEOS0_, 
                       __ZN4ASMP23CaptureConditionsRecordaSERKS0_, __ZN4ASMP23ThreeAxisSampleIteratorC1EOS0_, 
                       __ZN4ASMP23ThreeAxisSampleIteratorC1ERKS0_, __ZN4ASMP23ThreeAxisSampleIteratorC1Ev, 
                       __ZN4ASMP23ThreeAxisSampleIteratorC2EOS0_, __ZN4ASMP23ThreeAxisSampleIteratorC2ERKS0_, 
                       __ZN4ASMP23ThreeAxisSampleIteratorC2Ev, __ZN4ASMP23ThreeAxisSampleIteratorD1Ev, 
                       __ZN4ASMP23ThreeAxisSampleIteratorD2Ev, __ZN4ASMP23ThreeAxisSampleIteratoraSEOS0_, 
                       __ZN4ASMP23ThreeAxisSampleIteratoraSERKS0_, __ZN4ASMP23ThreeAxisSampleIteratorppEi, 
                       __ZN4ASMP23ThreeAxisSampleIteratorppEv, __ZN4ASMP25SingleValueSampleIteratorC1EOS0_, 
                       __ZN4ASMP25SingleValueSampleIteratorC1ERKS0_, __ZN4ASMP25SingleValueSampleIteratorC1Ev, 
                       __ZN4ASMP25SingleValueSampleIteratorC2EOS0_, __ZN4ASMP25SingleValueSampleIteratorC2ERKS0_, 
                       __ZN4ASMP25SingleValueSampleIteratorC2Ev, __ZN4ASMP25SingleValueSampleIteratorD1Ev, 
                       __ZN4ASMP25SingleValueSampleIteratorD2Ev, __ZN4ASMP25SingleValueSampleIteratoraSEOS0_, 
                       __ZN4ASMP25SingleValueSampleIteratoraSERKS0_, __ZN4ASMP25SingleValueSampleIteratorppEi, 
                       __ZN4ASMP25SingleValueSampleIteratorppEv, __ZN4ASMP4File7ExtractENSt3__117basic_string_viewIcNS1_11char_traitsIcEEEE, 
                       __ZN4ASMP4File7GetImplEv, __ZN4ASMP4FileC1EOS0_, __ZN4ASMP4FileC1ERKS0_, 
                       __ZN4ASMP4FileC1Ev, __ZN4ASMP4FileC2EOS0_, __ZN4ASMP4FileC2ERKS0_, 
                       __ZN4ASMP4FileC2Ev, __ZN4ASMP4FileD0Ev, __ZN4ASMP4FileD1Ev, 
                       __ZN4ASMP4FileD2Ev, __ZN4ASMP4FileaSEOS0_, __ZN4ASMP4FileaSERKS0_, 
                       __ZN4ASMP4Unit10CentimeterEv, __ZN4ASMP4Unit10FahrenheitEv, 
                       __ZN4ASMP4Unit10MicrometerEv, __ZN4ASMP4Unit10MillimeterEv, 
                       __ZN4ASMP4Unit12MilligravityEv, __ZN4ASMP4Unit15DegreePerSecondEv, 
                       __ZN4ASMP4Unit15RadianPerSecondEv, __ZN4ASMP4Unit22MetersPerSecondSquaredEv, 
                       __ZN4ASMP4Unit3NanEv, __ZN4ASMP4Unit4FootEv, __ZN4ASMP4Unit4GramEv, 
                       __ZN4ASMP4Unit4InchEv, __ZN4ASMP4Unit4StepEv, __ZN4ASMP4Unit5MeterEv, 
                       __ZN4ASMP4Unit5PixelEv, __ZN4ASMP4Unit6DegreeEv, __ZN4ASMP4Unit6KelvinEv, 
                       __ZN4ASMP4Unit6PoundsEv, __ZN4ASMP4Unit6RadianEv, __ZN4ASMP4Unit7CelsiusEv, 
                       __ZN4ASMP4Unit7GravityEv, __ZN4ASMP4Unit7UnknownEv, __ZN4ASMP4Unit8KilogramEv, 
                       __ZN4ASMP4Unit9MilligramEv, __ZN4ASMP4UnitC1EOS0_, __ZN4ASMP4UnitC1ERKS0_, 
                       __ZN4ASMP4UnitC1Ev, __ZN4ASMP4UnitC2EOS0_, __ZN4ASMP4UnitC2ERKS0_, 
                       __ZN4ASMP4UnitC2Ev, __ZN4ASMP4UnitD1Ev, __ZN4ASMP4UnitD2Ev, 
                       __ZN4ASMP4UnitaSEOS0_, __ZN4ASMP4UnitaSERKS0_, __ZN4ASMP5Group11AddResourceERKNS_8ResourceE, 
                       __ZN4ASMP5Group11AddResourceERKNS_8ResourceENSt3__117basic_string_viewIcNS4_11char_traitsIcEEEE, 
                       __ZN4ASMP5Group3endEv, __ZN4ASMP5Group5beginEv, __ZN4ASMP5Group7ExtractENSt3__117basic_string_viewIcNS1_11char_traitsIcEEEE, 
                       __ZN4ASMP5Group7GetImplEv, __ZN4ASMP5GroupC1EOS0_, __ZN4ASMP5GroupC1ERKS0_, 
                       __ZN4ASMP5GroupC1Ev, __ZN4ASMP5GroupC2EOS0_, __ZN4ASMP5GroupC2ERKS0_, 
                       __ZN4ASMP5GroupC2Ev, __ZN4ASMP5GroupD0Ev, __ZN4ASMP5GroupD1Ev, 
                       __ZN4ASMP5GroupD2Ev, __ZN4ASMP5GroupaSEOS0_, __ZN4ASMP5GroupaSERKS0_, 
                       __ZN4ASMP5Trace10GetSamplesERKNS0_19SampleFilterOptionsE, 
                       __ZN4ASMP5Trace15GetSourceSensorEv, __ZN4ASMP5Trace16GetSourceFixtureEv, 
                       __ZN4ASMP5Trace19SampleFilterOptions9SetByTimeEdd, __ZN4ASMP5Trace19SampleFilterOptionsC1EOS1_, 
                       __ZN4ASMP5Trace19SampleFilterOptionsC1ERKS1_, __ZN4ASMP5Trace19SampleFilterOptionsC1Ev, 
                       __ZN4ASMP5Trace19SampleFilterOptionsC2EOS1_, __ZN4ASMP5Trace19SampleFilterOptionsC2ERKS1_, 
                       __ZN4ASMP5Trace19SampleFilterOptionsC2Ev, __ZN4ASMP5Trace19SampleFilterOptionsD1Ev, 
                       __ZN4ASMP5Trace19SampleFilterOptionsD2Ev, __ZN4ASMP5Trace19SampleFilterOptionsaSEOS1_, 
                       __ZN4ASMP5Trace19SampleFilterOptionsaSERKS1_, __ZN4ASMP5Trace6AddTagENSt3__117basic_string_viewIcNS1_11char_traitsIcEEEE, 
                       __ZN4ASMP5Trace7SetUnitENS_4UnitE, __ZN4ASMP5TraceC2ENSt3__110shared_ptrINS0_4ImplEEE, 
                       __ZN4ASMP5TraceC2EOS0_, __ZN4ASMP5TraceC2ERKS0_, __ZN4ASMP5TraceD0Ev, 
                       __ZN4ASMP5TraceD1Ev, __ZN4ASMP5TraceD2Ev, __ZN4ASMP5TraceaSEOS0_, 
                       __ZN4ASMP5TraceaSERKS0_, __ZN4ASMP6Sample12SetTimestampEd, 
                       __ZN4ASMP6SampleC1EOS0_, __ZN4ASMP6SampleC1ERKS0_, __ZN4ASMP6SampleC1Ev, 
                       __ZN4ASMP6SampleC2EOS0_, __ZN4ASMP6SampleC2ERKS0_, __ZN4ASMP6SampleC2Ev, 
                       __ZN4ASMP6SampleD0Ev, __ZN4ASMP6SampleD1Ev, __ZN4ASMP6SampleD2Ev, 
                       __ZN4ASMP6SampleaSEOS0_, __ZN4ASMP6SampleaSERKS0_, __ZN4ASMP6Sensor11GetMetadataEv, 
                       __ZN4ASMP6Sensor11RemoveTraceERNS_5TraceE, __ZN4ASMP6Sensor9GetTracesEv, 
                       __ZN4ASMP6SensorC2ENSt3__112basic_stringIcNS1_11char_traitsIcEENS1_9allocatorIcEEEE, 
                       __ZN4ASMP6SensorC2EOS0_, __ZN4ASMP6SensorC2ERKS0_, __ZN4ASMP6SensorD0Ev, 
                       __ZN4ASMP6SensorD1Ev, __ZN4ASMP6SensorD2Ev, __ZN4ASMP6SensoraSEOS0_, 
                       __ZN4ASMP6SensoraSERKS0_, __ZN4ASMP7Encoder8AddTraceERKNS_7FixtureE, 
                       __ZN4ASMP7EncoderC1ENSt3__112basic_stringIcNS1_11char_traitsIcEENS1_9allocatorIcEEEE, 
                       __ZN4ASMP7EncoderC1EOS0_, __ZN4ASMP7EncoderC1ERKS0_, __ZN4ASMP7EncoderC2ENSt3__112basic_stringIcNS1_11char_traitsIcEENS1_9allocatorIcEEEE, 
                       __ZN4ASMP7EncoderC2EOS0_, __ZN4ASMP7EncoderC2ERKS0_, __ZN4ASMP7EncoderaSEOS0_, 
                       __ZN4ASMP7EncoderaSERKS0_, __ZN4ASMP7Fixture7SetSlotEi, __ZN4ASMP7FixtureC1ENSt3__112basic_stringIcNS1_11char_traitsIcEENS1_9allocatorIcEEEE, 
                       __ZN4ASMP7FixtureC1EOS0_, __ZN4ASMP7FixtureC1ERKS0_, __ZN4ASMP7FixtureC2ENSt3__112basic_stringIcNS1_11char_traitsIcEENS1_9allocatorIcEEEE, 
                       __ZN4ASMP7FixtureC2EOS0_, __ZN4ASMP7FixtureC2ERKS0_, __ZN4ASMP7FixtureaSEOS0_, 
                       __ZN4ASMP7FixtureaSERKS0_, __ZN4ASMP7Storage11CreateGroupEv, 
                       __ZN4ASMP7Storage12QueryOptions15SetResourceTypeENS1_13ResourceTypesE, 
                       __ZN4ASMP7Storage12QueryOptions9SetSortByENS1_11SortMethodsE, 
                       __ZN4ASMP7Storage12QueryOptionsC1EOS1_, __ZN4ASMP7Storage12QueryOptionsC1ERKS1_, 
                       __ZN4ASMP7Storage12QueryOptionsC1Ev, __ZN4ASMP7Storage12QueryOptionsC2EOS1_, 
                       __ZN4ASMP7Storage12QueryOptionsC2ERKS1_, __ZN4ASMP7Storage12QueryOptionsC2Ev, 
                       __ZN4ASMP7Storage12QueryOptionsD1Ev, __ZN4ASMP7Storage12QueryOptionsD2Ev, 
                       __ZN4ASMP7Storage12QueryOptionsaSEOS1_, __ZN4ASMP7Storage12QueryOptionsaSERKS1_, 
                       __ZN4ASMP7Storage18RegisterFutureFileENSt3__117basic_string_viewIcNS1_11char_traitsIcEEEE, 
                       __ZN4ASMP7Storage19SetWorkingDirectoryENSt3__117basic_string_viewIcNS1_11char_traitsIcEEEE, 
                       __ZN4ASMP7Storage5QueryERKNSt3__117basic_string_viewIcNS1_11char_traitsIcEEEERKNS0_12QueryOptionsE, 
                       __ZN4ASMP7Storage7AddFileENSt3__117basic_string_viewIcNS1_11char_traitsIcEEEE, 
                       __ZN4ASMP7Storage7AddFileERKNSt3__16vectorIhNS1_9allocatorIhEEEENS1_17basic_string_viewIcNS1_11char_traitsIcEEEE, 
                       __ZN4ASMP7Storage8AddGroupENSt3__117basic_string_viewIcNS1_11char_traitsIcEEEES5_b, 
                       __ZN4ASMP7StorageC1EOS0_, __ZN4ASMP7StorageC1ERKS0_, __ZN4ASMP7StorageC1Ev, 
                       __ZN4ASMP7StorageC2EOS0_, __ZN4ASMP7StorageC2ERKS0_, __ZN4ASMP7StorageC2Ev, 
                       __ZN4ASMP7StorageD1Ev, __ZN4ASMP7StorageD2Ev, __ZN4ASMP7StorageaSEOS0_, 
                       __ZN4ASMP7StorageaSERKS0_, __ZN4ASMP8Metadata4BlobENSt3__16vectorIhNS1_9allocatorIhEEEE, 
                       __ZN4ASMP8Metadata4BlobENSt3__16vectorIhNS1_9allocatorIhEEEENS1_17basic_string_viewIcNS1_11char_traitsIcEEEE, 
                       __ZN4ASMP8Metadata4NullEv, __ZN4ASMP8Metadata5ArrayENSt3__16vectorIS0_NS1_9allocatorIS0_EEEE, 
                       __ZN4ASMP8Metadata5ArrayEv, __ZN4ASMP8Metadata6ObjectEv, __ZN4ASMP8Metadata7AsArrayEv, 
                       __ZN4ASMP8MetadataC1ENSt3__112basic_stringIcNS1_11char_traitsIcEENS1_9allocatorIcEEEE, 
                       __ZN4ASMP8MetadataC1ENSt3__16vectorIhNS1_9allocatorIhEEEE, 
                       __ZN4ASMP8MetadataC1EOS0_, __ZN4ASMP8MetadataC1ERKS0_, __ZN4ASMP8MetadataC1Eb, 
                       __ZN4ASMP8MetadataC1Ed, __ZN4ASMP8MetadataC1Ei, __ZN4ASMP8MetadataC1Ev, 
                       __ZN4ASMP8MetadataC1Ex, __ZN4ASMP8MetadataC2ENSt3__112basic_stringIcNS1_11char_traitsIcEENS1_9allocatorIcEEEE, 
                       __ZN4ASMP8MetadataC2ENSt3__16vectorIhNS1_9allocatorIhEEEE, 
                       __ZN4ASMP8MetadataC2EOS0_, __ZN4ASMP8MetadataC2ERKS0_, __ZN4ASMP8MetadataC2Eb, 
                       __ZN4ASMP8MetadataC2Ed, __ZN4ASMP8MetadataC2Ei, __ZN4ASMP8MetadataC2Ev, 
                       __ZN4ASMP8MetadataC2Ex, __ZN4ASMP8MetadataD1Ev, __ZN4ASMP8MetadataD2Ev, 
                       __ZN4ASMP8MetadataaSEOS0_, __ZN4ASMP8MetadataaSERKS0_, __ZN4ASMP8MetadataixENSt3__117basic_string_viewIcNS1_11char_traitsIcEEEE, 
                       __ZN4ASMP8MetadataixEm, __ZN4ASMP8Resource10AddFixtureERKNS_7FixtureE, 
                       __ZN4ASMP8Resource11GetMetadataEv, __ZN4ASMP8Resource6AddTagENSt3__117basic_string_viewIcNS1_11char_traitsIcEEEE, 
                       __ZN4ASMP8Resource7GetTagsEv, __ZN4ASMP8Resource9AddSensorERKNS_6SensorE, 
                       __ZN4ASMP8ResourceC2ENSt3__110shared_ptrINS_16ResourceImplBaseEEE, 
                       __ZN4ASMP8ResourceC2EOS0_, __ZN4ASMP8ResourceC2ERKS0_, __ZN4ASMP8ResourceC2Ev, 
                       __ZN4ASMP8ResourceD0Ev, __ZN4ASMP8ResourceD1Ev, __ZN4ASMP8ResourceD2Ev, 
                       __ZN4ASMP8ResourceaSEOS0_, __ZN4ASMP8ResourceaSERKS0_, __ZN4ASMP8TagRangeC1ENSt3__110shared_ptrINS_12TagRangeImplEEE, 
                       __ZN4ASMP8TagRangeC1Ev, __ZN4ASMP8TagRangeC2ENSt3__110shared_ptrINS_12TagRangeImplEEE, 
                       __ZN4ASMP8TagRangeC2Ev, __ZN4ASMP9ExceptionC1ERKNSt3__112basic_stringIcNS1_11char_traitsIcEENS1_9allocatorIcEEEE, 
                       __ZN4ASMP9ExceptionC2ERKNSt3__112basic_stringIcNS1_11char_traitsIcEENS1_9allocatorIcEEEE, 
                       __ZN4ASMP9ExceptionD0Ev, __ZN4ASMP9ExceptionD1Ev, __ZN4ASMP9ExceptionD2Ev, 
                       __ZN4ASMP9Gyroscope8AddTraceERKNS_7FixtureE, __ZN4ASMP9GyroscopeC1ENSt3__112basic_stringIcNS1_11char_traitsIcEENS1_9allocatorIcEEEE, 
                       __ZN4ASMP9GyroscopeC1EOS0_, __ZN4ASMP9GyroscopeC1ERKS0_, __ZN4ASMP9GyroscopeC2ENSt3__112basic_stringIcNS1_11char_traitsIcEENS1_9allocatorIcEEEE, 
                       __ZN4ASMP9GyroscopeC2EOS0_, __ZN4ASMP9GyroscopeC2ERKS0_, __ZN4ASMP9GyroscopeaSEOS0_, 
                       __ZN4ASMP9GyroscopeaSERKS0_, __ZN4ASMP9TraceType11SingleValueEv, 
                       __ZN4ASMP9TraceType7OpticalEv, __ZN4ASMP9TraceType9ThreeAxisEv, 
                       __ZN4ASMP9TraceTypeC1EOS0_, __ZN4ASMP9TraceTypeC1ERKS0_, __ZN4ASMP9TraceTypeC1Ev, 
                       __ZN4ASMP9TraceTypeC2EOS0_, __ZN4ASMP9TraceTypeC2ERKS0_, __ZN4ASMP9TraceTypeC2Ev, 
                       __ZN4ASMP9TraceTypeD1Ev, __ZN4ASMP9TraceTypeD2Ev, __ZN4ASMP9TraceTypeaSEOS0_, 
                       __ZN4ASMP9TraceTypeaSERKS0_, __ZNK4ASMP10Covariance11IsIsotropicEv, 
                       __ZNK4ASMP10Covariance12CovarianceXYEv, __ZNK4ASMP10Covariance12CovarianceXZEv, 
                       __ZNK4ASMP10Covariance12CovarianceYZEv, __ZNK4ASMP10Covariance14IsUncorrelatedEv, 
                       __ZNK4ASMP10Covariance7IsEmptyEv, __ZNK4ASMP10Covariance9DimensionEv, 
                       __ZNK4ASMP10Covariance9VarianceXEv, __ZNK4ASMP10Covariance9VarianceYEv, 
                       __ZNK4ASMP10Covariance9VarianceZEv, __ZNK4ASMP10CovarianceclEmm, 
                       __ZNK4ASMP10CovarianceeqERKS0_, __ZNK4ASMP10CovarianceneERKS0_, 
                       __ZNK4ASMP10FutureFile10IsCapturedEv, __ZNK4ASMP10FutureFile13GetSourcePathEv, 
                       __ZNK4ASMP10FutureFile7GetImplEv, __ZNK4ASMP10FutureFile7GetTypeEv, 
                       __ZNK4ASMP10GridLabels4GetXEv, __ZNK4ASMP10GridLabels4GetYEv, 
                       __ZNK4ASMP10GridLabels8HasValueEv, __ZNK4ASMP10GridLabelseqERKS0_, 
                       __ZNK4ASMP10GridLabelsneERKS0_, __ZNK4ASMP10SensorType8ToStringEv, 
                       __ZNK4ASMP10SensorTypeeqERKS0_, __ZNK4ASMP10SensorTypeneERKS0_, 
                       __ZNK4ASMP10TraceRange3endEv, __ZNK4ASMP10TraceRange5beginEv, 
                       __ZNK4ASMP11SampleRange3endEv, __ZNK4ASMP11SampleRange5beginEv, 
                       __ZNK4ASMP11Thermometer7GetTypeEv, __ZNK4ASMP12OpticalTrace15GetTypedSamplesERKNS_5Trace19SampleFilterOptionsE, 
                       __ZNK4ASMP12OpticalTrace7GetTypeEv, __ZNK4ASMP12QueryBuilder5BuildEv, 
                       __ZNK4ASMP12ResourceInfo15GetAddedUtcTimeEv, __ZNK4ASMP12ResourceInfo15GetOriginalNameEv, 
                       __ZNK4ASMP12ResourceInfo15GetOriginalPathEv, __ZNK4ASMP12ResourceInfo22GetLastModifiedUtcTimeEv, 
                       __ZNK4ASMP12ResourceType8ToStringEv, __ZNK4ASMP12ResourceTypeeqERKS0_, 
                       __ZNK4ASMP12ResourceTypeneERKS0_, __ZNK4ASMP13Accelerometer7GetTypeEv, 
                       __ZNK4ASMP13OpticalSample14OpticalFeature10GetChartIdEv, __ZNK4ASMP13OpticalSample14OpticalFeature10HasChartIdEv, 
                       __ZNK4ASMP13OpticalSample14OpticalFeature13GetCovarianceEv, 
                       __ZNK4ASMP13OpticalSample14OpticalFeature13GetGridLabelsEv, 
                       __ZNK4ASMP13OpticalSample14OpticalFeature13HasCovarianceEv, 
                       __ZNK4ASMP13OpticalSample14OpticalFeature13HasGridLabelsEv, 
                       __ZNK4ASMP13OpticalSample14OpticalFeature4GetXEv, __ZNK4ASMP13OpticalSample14OpticalFeature4GetYEv, 
                       __ZNK4ASMP13OpticalSample14OpticalFeature5GetIdEv, __ZNK4ASMP13OpticalSample14OpticalFeature8GetDepthEv, 
                       __ZNK4ASMP13OpticalSample14OpticalFeature8HasDepthEv, __ZNK4ASMP13OpticalSample14OpticalFeatureeqERKS1_, 
                       __ZNK4ASMP13OpticalSample14OpticalFeatureneERKS1_, __ZNK4ASMP13OpticalSample8GetValueEv, 
                       __ZNK4ASMP13OpticalSensor7GetTypeEv, __ZNK4ASMP13TraceIteratordeEv, 
                       __ZNK4ASMP13TraceIteratoreqERKS0_, __ZNK4ASMP13TraceIteratorneERKS0_, 
                       __ZNK4ASMP13TraceIteratorptEv, __ZNK4ASMP14MeasurementSet10GetStorageEv, 
                       __ZNK4ASMP14MeasurementSet10HasFixtureENSt3__117basic_string_viewIcNS1_11char_traitsIcEEEE, 
                       __ZNK4ASMP14MeasurementSet11GetMetadataEv, __ZNK4ASMP14MeasurementSet14SensorIteratordeEv, 
                       __ZNK4ASMP14MeasurementSet14SensorIteratoreqERKS1_, __ZNK4ASMP14MeasurementSet14SensorIteratorneERKS1_, 
                       __ZNK4ASMP14MeasurementSet14SensorIteratorptEv, __ZNK4ASMP14MeasurementSet15FixtureIteratordeEv, 
                       __ZNK4ASMP14MeasurementSet15FixtureIteratoreqERKS1_, __ZNK4ASMP14MeasurementSet15FixtureIteratorneERKS1_, 
                       __ZNK4ASMP14MeasurementSet15FixtureIteratorptEv, __ZNK4ASMP14MeasurementSet16SerializeOptions17GetMaxArchiveSizeEv, 
                       __ZNK4ASMP14MeasurementSet16SerializeOptions18GetFileUriSelectorEv, 
                       __ZNK4ASMP14MeasurementSet16SerializeOptions21GetIncludeFileStorageEv, 
                       __ZNK4ASMP14MeasurementSet16SerializeOptions25GetEnsureStorageNotCopiedEv, 
                       __ZNK4ASMP14MeasurementSet16SerializeOptions26GetEnsureFileTagsAreUniqueEv, 
                       __ZNK4ASMP14MeasurementSet16SerializeOptions27GetEnsureTraceTagsAreUniqueEv, 
                       __ZNK4ASMP14MeasurementSet16SerializeOptions28GetEnsureAllFilesHaveFixtureEv, 
                       __ZNK4ASMP14MeasurementSet17TraceQueryOptions20GetFilterEmptyTracesEv, 
                       __ZNK4ASMP14MeasurementSet18DeserializeOptions18GetVerifyIntegrityEv, 
                       __ZNK4ASMP14MeasurementSet18DeserializeOptions9GetFormatEv, 
                       __ZNK4ASMP14MeasurementSet19CopyWithStorageViewEv, __ZNK4ASMP14MeasurementSet5CloneEv, 
                       __ZNK4ASMP14MeasurementSet9HasSensorENSt3__117basic_string_viewIcNS1_11char_traitsIcEEEE, 
                       __ZNK4ASMP14MeasurementSeteqERKS0_, __ZNK4ASMP14MeasurementSetneERKS0_, 
                       __ZNK4ASMP14SampleIteratordeEv, __ZNK4ASMP14SampleIteratoreqERKS0_, 
                       __ZNK4ASMP14SampleIteratorneERKS0_, __ZNK4ASMP14SampleIteratorptEv, 
                       __ZNK4ASMP14StoredResource13GetStoredImplEv, __ZNK4ASMP14StoredResource7GetInfoEv, 
                       __ZNK4ASMP14ThreeAxisTrace15GetTypedSamplesERKNS_5Trace19SampleFilterOptionsE, 
                       __ZNK4ASMP14ThreeAxisTrace17GetSourceFilenameEv, __ZNK4ASMP14ThreeAxisTrace7GetTypeEv, 
                       __ZNK4ASMP15ProcessIteratordeEv, __ZNK4ASMP15ProcessIteratoreqERKS0_, 
                       __ZNK4ASMP15ProcessIteratorneERKS0_, __ZNK4ASMP15ProcessIteratorptEv, 
                       __ZNK4ASMP15ThreeAxisSample4GetXEv, __ZNK4ASMP15ThreeAxisSample4GetYEv, 
                       __ZNK4ASMP15ThreeAxisSample4GetZEv, __ZNK4ASMP15ThreeAxisSample8GetValueEv, 
                       __ZNK4ASMP16ConstTagIteratordeEv, __ZNK4ASMP16ConstTagIteratoreqERKS0_, 
                       __ZNK4ASMP16ConstTagIteratorneERKS0_, __ZNK4ASMP16ConstTagIteratorptEv, 
                       __ZNK4ASMP16ResourceIteratordeEv, __ZNK4ASMP16ResourceIteratoreqERKS0_, 
                       __ZNK4ASMP16ResourceIteratorneERKS0_, __ZNK4ASMP16ResourceIteratorptEv, 
                       __ZNK4ASMP16SingleValueTrace15GetTypedSamplesERKNS_5Trace19SampleFilterOptionsE, 
                       __ZNK4ASMP16SingleValueTrace17GetSourceFilenameEv, __ZNK4ASMP16SingleValueTrace7GetTypeEv, 
                       __ZNK4ASMP17MetadataContainer13ConstIterator3keyEv, __ZNK4ASMP17MetadataContainer13ConstIteratordeEv, 
                       __ZNK4ASMP17MetadataContainer13ConstIteratoreqERKS1_, __ZNK4ASMP17MetadataContainer13ConstIteratorneERKS1_, 
                       __ZNK4ASMP17MetadataContainer13ConstIteratorptEv, __ZNK4ASMP17MetadataContainer3GetENSt3__117basic_string_viewIcNS1_11char_traitsIcEEEE, 
                       __ZNK4ASMP17MetadataContainer4cendEv, __ZNK4ASMP17MetadataContainer6cbeginEv, 
                       __ZNK4ASMP17MetadataContainer7GetSizeEv, __ZNK4ASMP17MetadataContainer7IsEmptyEv, 
                       __ZNK4ASMP17MetadataContainer8ContainsENSt3__117basic_string_viewIcNS1_11char_traitsIcEEEE, 
                       __ZNK4ASMP17MetadataContainer8Iterator3keyEv, __ZNK4ASMP17MetadataContainer8IteratordeEv, 
                       __ZNK4ASMP17MetadataContainer8IteratoreqERKS1_, __ZNK4ASMP17MetadataContainer8IteratorneERKS1_, 
                       __ZNK4ASMP17MetadataContainer8IteratorptEv, __ZNK4ASMP17MetadataContainereqERKS0_, 
                       __ZNK4ASMP17MetadataContainerneERKS0_, __ZNK4ASMP17OpticalSampleBase10GetSphereXEv, 
                       __ZNK4ASMP17OpticalSampleBase10GetSphereYEv, __ZNK4ASMP17OpticalSampleBase11GetLensTempEv, 
                       __ZNK4ASMP17OpticalSampleBase12GetZestimateEv, __ZNK4ASMP17OpticalSampleBase13GetSensorTempEv, 
                       __ZNK4ASMP17OpticalSampleBase17GetSourceFilenameEv, __ZNK4ASMP17ProcessInvocation10GetVersionEv, 
                       __ZNK4ASMP17ProcessInvocation12GetArgumentsEv, __ZNK4ASMP17ProcessInvocation13GetBinaryNameEv, 
                       __ZNK4ASMP17ProcessInvocation13GetBinaryPathEv, __ZNK4ASMP17ProcessInvocation14GetCommandLineEv, 
                       __ZNK4ASMP17ProcessInvocation16GetEnvironmentOSEv, __ZNK4ASMP17ProcessInvocation22GetEnvironmentHostnameEv, 
                       __ZNK4ASMP17ProcessInvocation23GetEnvironmentOSVersionEv, 
                       __ZNK4ASMP17ProcessInvocation26GetEnvironmentArchitectureEv, 
                       __ZNK4ASMP17ProcessInvocationeqERKS0_, __ZNK4ASMP17ProcessInvocationneERKS0_, 
                       __ZNK4ASMP17RunProcessDetails11GetMetadataEv, __ZNK4ASMP17RunProcessDetails11TableSchema10ToMetadataEv, 
                       __ZNK4ASMP17RunProcessDetails11TableSchema13GetFieldNamesEv, 
                       __ZNK4ASMP17RunProcessDetails11TableSchema19GetFieldDescriptionENSt3__117basic_string_viewIcNS2_11char_traitsIcEEEE, 
                       __ZNK4ASMP17RunProcessDetails11TableSchema6ToJsonEv, __ZNK4ASMP17RunProcessDetails11TableSchema8HasFieldENSt3__117basic_string_viewIcNS2_11char_traitsIcEEEE, 
                       __ZNK4ASMP17RunProcessDetails12GetProcessIdEv, __ZNK4ASMP17RunProcessDetails13GetInvocationEv, 
                       __ZNK4ASMP17RunProcessDetails14GetPackageNameEv, __ZNK4ASMP17RunProcessDetails15GetRunTimestampEv, 
                       __ZNK4ASMP17RunProcessDetails16GetDataResourcesEv, __ZNK4ASMP17RunProcessDetails17GetPackageVersionEv, 
                       __ZNK4ASMP17RunProcessDetails7GetTagsEv, __ZNK4ASMP17RunProcessDetails7IsValidEv, 
                       __ZNK4ASMP17RunProcessDetails9GetTracesEv, __ZNK4ASMP17SingleValueSample8GetValueEv, 
                       __ZNK4ASMP18OpticalSampleRange3endEv, __ZNK4ASMP18OpticalSampleRange5beginEv, 
                       __ZNK4ASMP18StoredResourceInfo12GetSizeBytesEv, __ZNK4ASMP18StoredResourceInfo13GetStoredImplEv, 
                       __ZNK4ASMP18StoredResourceInfo7GetHashEv, __ZNK4ASMP19ProcessRelationship7GetNameEv, 
                       __ZNK4ASMP19ProcessRelationshipeqERKS0_, __ZNK4ASMP19ProcessRelationshipneERKS0_, 
                       __ZNK4ASMP20ThreeAxisSampleRange3endEv, __ZNK4ASMP20ThreeAxisSampleRange5beginEv, 
                       __ZNK4ASMP21OpticalSampleIteratordeEv, __ZNK4ASMP21OpticalSampleIteratoreqERKS0_, 
                       __ZNK4ASMP21OpticalSampleIteratorneERKS0_, __ZNK4ASMP21OpticalSampleIteratorptEv, 
                       __ZNK4ASMP22SingleValueSampleRange3endEv, __ZNK4ASMP22SingleValueSampleRange5beginEv, 
                       __ZNK4ASMP23CaptureConditionsRecord7GetUnitEv, __ZNK4ASMP23CaptureConditionsRecord8GetValueEv, 
                       __ZNK4ASMP23CaptureConditionsRecordeqERKS0_, __ZNK4ASMP23CaptureConditionsRecordneERKS0_, 
                       __ZNK4ASMP23ThreeAxisSampleIteratordeEv, __ZNK4ASMP23ThreeAxisSampleIteratoreqERKS0_, 
                       __ZNK4ASMP23ThreeAxisSampleIteratorneERKS0_, __ZNK4ASMP23ThreeAxisSampleIteratorptEv, 
                       __ZNK4ASMP25SingleValueSampleIteratordeEv, __ZNK4ASMP25SingleValueSampleIteratoreqERKS0_, 
                       __ZNK4ASMP25SingleValueSampleIteratorneERKS0_, __ZNK4ASMP25SingleValueSampleIteratorptEv, 
                       __ZNK4ASMP4File7GetImplEv, __ZNK4ASMP4File7GetTypeEv, __ZNK4ASMP4Unit11GetCategoryEv, 
                       __ZNK4ASMP4Unit16IsCompatibleWithERKS0_, __ZNK4ASMP4Unit8ToStringEv, 
                       __ZNK4ASMP4Unit9ConvertToERKS0_d, __ZNK4ASMP4Unit9GetSymbolEv, 
                       __ZNK4ASMP4UniteqERKS0_, __ZNK4ASMP4UnitneERKS0_, __ZNK4ASMP5Group7GetImplEv, 
                       __ZNK4ASMP5Group7GetInfoEv, __ZNK4ASMP5Group7GetTypeEv, __ZNK4ASMP5Trace14GetSampleCountEv, 
                       __ZNK4ASMP5Trace15GetInstanceUuidEv, __ZNK4ASMP5Trace15GetSourceSensorEv, 
                       __ZNK4ASMP5Trace16GetSourceFixtureEv, __ZNK4ASMP5Trace6HasTagENSt3__117basic_string_viewIcNS1_11char_traitsIcEEEE, 
                       __ZNK4ASMP5Trace7GetTagsEv, __ZNK4ASMP5Trace7GetUnitEv, __ZNK4ASMP5Trace7IsValidEv, 
                       __ZNK4ASMP6Sample12GetTimestampEv, __ZNK4ASMP6Sensor11GetMetadataEv, 
                       __ZNK4ASMP6Sensor7GetNameEv, __ZNK4ASMP6Sensor7IsValidEv, 
                       __ZNK4ASMP7Encoder7GetTypeEv, __ZNK4ASMP7Fixture7GetNameEv, 
                       __ZNK4ASMP7Fixture7GetSlotEv, __ZNK4ASMP7Fixture7IsValidEv, 
                       __ZNK4ASMP7Storage12IsAccessibleEv, __ZNK4ASMP7Storage12QueryOptions15GetResourceTypeEv, 
                       __ZNK4ASMP7Storage12QueryOptions9GetSortByEv, __ZNK4ASMP7Storage19GetWorkingDirectoryEv, 
                       __ZNK4ASMP7Storage7GetImplEv, __ZNK4ASMP7Version8ToStringEv, 
                       __ZNK4ASMP7VersioneqERKS0_, __ZNK4ASMP7VersiongeERKS0_, __ZNK4ASMP7VersiongtERKS0_, 
                       __ZNK4ASMP7VersionleERKS0_, __ZNK4ASMP7VersionltERKS0_, __ZNK4ASMP7VersionneERKS0_, 
                       __ZNK4ASMP8Metadata15GetBlobTypeNameEv, __ZNK4ASMP8Metadata5AsIntEv, 
                       __ZNK4ASMP8Metadata5IsIntEv, __ZNK4ASMP8Metadata6AsBlobEv, 
                       __ZNK4ASMP8Metadata6AsBoolEv, __ZNK4ASMP8Metadata6IsBlobEv, 
                       __ZNK4ASMP8Metadata6IsBoolEv, __ZNK4ASMP8Metadata6IsNullEv, 
                       __ZNK4ASMP8Metadata7AsArrayEv, __ZNK4ASMP8Metadata7GetKeysEv, 
                       __ZNK4ASMP8Metadata7GetTypeEv, __ZNK4ASMP8Metadata7IsArrayEv, 
                       __ZNK4ASMP8Metadata8AsDoubleEv, __ZNK4ASMP8Metadata8AsStringEv, 
                       __ZNK4ASMP8Metadata8ContainsENSt3__117basic_string_viewIcNS1_11char_traitsIcEEEE, 
                       __ZNK4ASMP8Metadata8IsDoubleEv, __ZNK4ASMP8Metadata8IsObjectEv, 
                       __ZNK4ASMP8Metadata8IsStringEv, __ZNK4ASMP8MetadataeqERKS0_, 
                       __ZNK4ASMP8MetadataixENSt3__117basic_string_viewIcNS1_11char_traitsIcEEEE, 
                       __ZNK4ASMP8MetadataixEm, __ZNK4ASMP8MetadataneERKS0_, __ZNK4ASMP8Resource11GetMetadataEv, 
                       __ZNK4ASMP8Resource15GetInstanceUuidEv, __ZNK4ASMP8Resource6HasTagENSt3__117basic_string_viewIcNS1_11char_traitsIcEEEE, 
                       __ZNK4ASMP8Resource7GetInfoEv, __ZNK4ASMP8Resource7GetTagsEv, 
                       __ZNK4ASMP8Resource7IsGroupEv, __ZNK4ASMP8Resource7IsValidEv, 
                       __ZNK4ASMP8ResourceeqERKS0_, __ZNK4ASMP8ResourceltERKS0_, 
                       __ZNK4ASMP8TagRange3endEv, __ZNK4ASMP8TagRange5beginEv, __ZNK4ASMP9Gyroscope7GetTypeEv, 
                       __ZNK4ASMP9TraceType8ToStringEv, __ZNK4ASMP9TraceTypeeqERKS0_, 
                       __ZNK4ASMP9TraceTypeneERKS0_, __ZTIN4ASMP10FutureFileE, __ZTIN4ASMP11ThermometerE, 
                       __ZTIN4ASMP12OpticalTraceE, __ZTIN4ASMP12ResourceInfoE, __ZTIN4ASMP13AccelerometerE, 
                       __ZTIN4ASMP13OpticalSensorE, __ZTIN4ASMP14StoredResourceE, 
                       __ZTIN4ASMP14ThreeAxisTraceE, __ZTIN4ASMP16SingleValueTraceE, 
                       __ZTIN4ASMP17OpticalSampleBaseE, __ZTIN4ASMP18StoredResourceInfoE, 
                       __ZTIN4ASMP4FileE, __ZTIN4ASMP5GroupE, __ZTIN4ASMP5TraceE, 
                       __ZTIN4ASMP6SampleE, __ZTIN4ASMP6SensorE, __ZTIN4ASMP7EncoderE, 
                       __ZTIN4ASMP8ResourceE, __ZTIN4ASMP9ExceptionE, __ZTIN4ASMP9GyroscopeE, 
                       __ZTSN4ASMP10FutureFileE, __ZTSN4ASMP11ThermometerE, __ZTSN4ASMP12OpticalTraceE, 
                       __ZTSN4ASMP12ResourceInfoE, __ZTSN4ASMP13AccelerometerE, __ZTSN4ASMP13OpticalSensorE, 
                       __ZTSN4ASMP14StoredResourceE, __ZTSN4ASMP14ThreeAxisTraceE, 
                       __ZTSN4ASMP16SingleValueTraceE, __ZTSN4ASMP17OpticalSampleBaseE, 
                       __ZTSN4ASMP18StoredResourceInfoE, __ZTSN4ASMP4FileE, __ZTSN4ASMP5GroupE, 
                       __ZTSN4ASMP5TraceE, __ZTSN4ASMP6SampleE, __ZTSN4ASMP6SensorE, 
                       __ZTSN4ASMP7EncoderE, __ZTSN4ASMP8ResourceE, __ZTSN4ASMP9ExceptionE, 
                       __ZTSN4ASMP9GyroscopeE, __ZTVN4ASMP10FutureFileE, __ZTVN4ASMP11ThermometerE, 
                       __ZTVN4ASMP12OpticalTraceE, __ZTVN4ASMP12ResourceInfoE, __ZTVN4ASMP13AccelerometerE, 
                       __ZTVN4ASMP13OpticalSensorE, __ZTVN4ASMP14StoredResourceE, 
                       __ZTVN4ASMP14ThreeAxisTraceE, __ZTVN4ASMP16SingleValueTraceE, 
                       __ZTVN4ASMP17OpticalSampleBaseE, __ZTVN4ASMP18StoredResourceInfoE, 
                       __ZTVN4ASMP4FileE, __ZTVN4ASMP5GroupE, __ZTVN4ASMP5TraceE, 
                       __ZTVN4ASMP6SampleE, __ZTVN4ASMP6SensorE, __ZTVN4ASMP7EncoderE, 
                       __ZTVN4ASMP8ResourceE, __ZTVN4ASMP9ExceptionE, __ZTVN4ASMP9GyroscopeE ]
...
