--- !tapi-tbd-v3
archs:                 [ armv7, armv7s, arm64, arm64e ]
platform:              ios
flags:                 [ flat_namespace ]
install-name:          /System/Library/PrivateFrameworks/AppleSARHelper.framework/AppleSARHelper
current-version:       0
compatibility-version: 1
exports:
  - archs:                [ armv7, armv7s, arm64, arm64e ]
    symbols:              [ __Z15GetOsLogContextv,
                            __ZN14AppleSARHelper18processPTDCallbackEPyj,
                            __ZN14AppleSARHelper20callUserClientMethodEjPKyjPKvmPyPjPvm,
                            __ZN14AppleSARHelper21create_default_globalEv,
                            __ZN14AppleSARHelper25getSPMIEventTrackingArrayEPN3sar25BasebandSPMIEventTrackingEm,
                            __ZN14AppleSARHelper26registerPTDServiceCallbackENS_21PTDRegistrationConfigE,
                            __ZN14AppleSARHelper26registerSARServiceCallbackEN8dispatch5blockIU13block_pointerFvPyjEEENS0_5queueE,
                            __ZN14AppleSARHelper28unregisterPTDServiceCallbackENS_23PTDUnregistrationConfigE,
                            __ZN14AppleSARHelper4initEv,
                            __ZN14AppleSARHelper8callbackEPviPyj,
                            __ZN14AppleSARHelperC1Ev, __ZN14AppleSARHelperC2Ev,
                            __ZN14AppleSARHelperD1Ev, __ZN14AppleSARHelperD2Ev,
                            __ZN3sar10safeAppendEPcmPKc,
                            __ZN3sar10toOBDStateEPKc,
                            __ZN3sar17toStringAccessoryEj,
                            __ZN3sar19convertToWattsPerKgE6HFloatS0_,
                            __ZN3sar21toRegulatoryRegionMPEEPKc,
                            __ZN3sar21toRegulatoryRegionSAREPKc,
                            __ZN3sar23toOBDStateWithRFSensingEPKc,
                            __ZN3sar25toRegulatoryAveragingModeEPKc,
                            __ZN3sar8toStringENS_10AudioInputE,
                            __ZN3sar8toStringENS_10DataActionE,
                            __ZN3sar8toStringENS_10TunerStateE,
                            __ZN3sar8toStringENS_11AudioOutputE,
                            __ZN3sar8toStringENS_11OrientationE,
                            __ZN3sar8toStringENS_11ProductTypeE,
                            __ZN3sar8toStringENS_12VSWROnlyModeE,
                            __ZN3sar8toStringENS_14SARRequestTypeE,
                            __ZN3sar8toStringENS_16DeltaAngleBucketE,
                            __ZN3sar8toStringENS_16FrontCameraStateE,
                            __ZN3sar8toStringENS_16HSARSubErrorCodeE,
                            __ZN3sar8toStringENS_17UEFacingDirectionE,
                            __ZN3sar8toStringENS_19AppleSARMessageTypeE,
                            __ZN3sar8toStringENS_19RegulatoryRegionMPEE,
                            __ZN3sar8toStringENS_19RegulatoryRegionSARE,
                            __ZN3sar8toStringENS_20CellularSARBoostModeE,
                            __ZN3sar8toStringENS_21FDDistanceDeltaBucketE,
                            __ZN3sar8toStringENS_21OBDStateWithRFSensingE,
                            __ZN3sar8toStringENS_21RFSensingSensorConfigE,
                            __ZN3sar8toStringENS_23RegulatoryAveragingModeE,
                            __ZN3sar8toStringENS_23USBConnectorOrientationE,
                            __ZN3sar8toStringENS_27RegulatorySARMPEFeatureFlagE,
                            __ZN3sar8toStringENS_7SARModeE,
                            __ZN3sar8toStringENS_7StateABE,
                            __ZN3sar8toStringENS_7TASModeE,
                            __ZN3sar8toStringENS_8OBDStateE,
                            __ZN3sar9toTASModeEPKc,
                            __ZN3saraNERNS_21RFSensingSensorConfigES0_,
                            __ZN3saraNERNS_27RegulatorySARMPEFeatureFlagES0_,
                            __ZN3saranENS_21RFSensingSensorConfigES0_,
                            __ZN3saranENS_27RegulatorySARMPEFeatureFlagES0_,
                            __ZN3sarcoENS_21RFSensingSensorConfigE,
                            __ZN3sarcoENS_27RegulatorySARMPEFeatureFlagE,
                            __ZN3sareOERNS_21RFSensingSensorConfigES0_,
                            __ZN3sareOERNS_27RegulatorySARMPEFeatureFlagES0_,
                            __ZN3sareoENS_21RFSensingSensorConfigES0_,
                            __ZN3sareoENS_27RegulatorySARMPEFeatureFlagES0_,
                            __ZN3saroRERNS_21RFSensingSensorConfigES0_,
                            __ZN3saroRERNS_27RegulatorySARMPEFeatureFlagES0_,
                            __ZN3sarorENS_21RFSensingSensorConfigES0_,
                            __ZN3sarorENS_27RegulatorySARMPEFeatureFlagES0_,
                            __ZN6HFloat3strEv, __ZN6HFloatmIERKS_,
                            __ZN6HFloatpLERKS_, __ZNK6HFloatdvERKS_,
                            __ZNK6HFloatmiERKS_, __ZNK6HFloatmlERKS_,
                            __ZNK6HFloatplERKS_ ]
    weak-def-symbols:     [ __ZGVN3ctu9SingletonI14AppleSARHelperS1_NS_23PthreadMutexGuardPolicyIS1_EEE9sInstanceE,
                            __ZN3ctu9SingletonI14AppleSARHelperS1_NS_23PthreadMutexGuardPolicyIS1_EEE9sInstanceE,
                            __ZNSt3__119piecewise_constructE,
                            __ZZN3sar22toStringBitMaskGenericINS_21RFSensingSensorConfigEEEPKcT_PKNS_9EnumEntryIS4_EEmE6buffer,
                            __ZZN3sar22toStringBitMaskGenericINS_27RegulatorySARMPEFeatureFlagEEEPKcT_PKNS_9EnumEntryIS4_EEmE6buffer ]
...
