--- !tapi-tbd
tbd-version:     4
targets:         [ x86_64-macos, arm64e-macos ]
install-name:    '/System/Library/PrivateFrameworks/AppleSplatRendering.framework/Versions/A/AppleSplatRendering'
current-version: 0
compatibility-version: 0
reexported-libraries:
  - targets:         [ x86_64-macos, arm64e-macos ]
    libraries:       [ '/System/Library/PrivateFrameworks/CoreRE3DGSFoundation.framework/Versions/A/CoreRE3DGSFoundation', 
                       '/System/Library/PrivateFrameworks/Vista.framework/Versions/A/Vista' ]
exports:
  - targets:         [ x86_64-macos, arm64e-macos ]
    symbols:         [ _AppleSplatRenderingVersionNumber, _AppleSplatRenderingVersionString, 
                       __Z21ASRVersionNumberMajorv, __Z21ASRVersionNumberMinorv, 
                       __Z21ASRVersionNumberPatchv ]
--- !tapi-tbd
tbd-version:     4
targets:         [ x86_64-macos, arm64e-macos ]
install-name:    '/System/Library/PrivateFrameworks/CoreRE3DGSFoundation.framework/Versions/A/CoreRE3DGSFoundation'
current-version: 0
compatibility-version: 0
exports:
  - targets:         [ x86_64-macos ]
    weak-symbols:    [ __ZTIN4avir13CImageResizerINS_11fpclass_defIffNS_27CImageResizerDithererDefINLIfEEEEE11CThreadDataIhhEE, 
                       __ZTIN4avir23CImageResizerThreadPool9CWorkloadE, __ZTIN4avir23CImageResizerThreadPoolE, 
                       __ZTIN6happly13TypedPropertyIaEE, __ZTIN6happly13TypedPropertyIdEE, 
                       __ZTIN6happly13TypedPropertyIfEE, __ZTIN6happly13TypedPropertyIhEE, 
                       __ZTIN6happly13TypedPropertyIiEE, __ZTIN6happly13TypedPropertyIjEE, 
                       __ZTIN6happly13TypedPropertyIsEE, __ZTIN6happly13TypedPropertyItEE, 
                       __ZTIN6happly17TypedListPropertyIaEE, __ZTIN6happly17TypedListPropertyIdEE, 
                       __ZTIN6happly17TypedListPropertyIfEE, __ZTIN6happly17TypedListPropertyIhEE, 
                       __ZTIN6happly17TypedListPropertyIiEE, __ZTIN6happly17TypedListPropertyIjEE, 
                       __ZTIN6happly17TypedListPropertyIsEE, __ZTIN6happly17TypedListPropertyItEE, 
                       __ZTIN6happly8PropertyE, __ZTIN8nlohmann16json_abi_v3_11_36detail10type_errorE, 
                       __ZTIN8nlohmann16json_abi_v3_11_36detail11parse_errorE, __ZTIN8nlohmann16json_abi_v3_11_36detail12out_of_rangeE, 
                       __ZTIN8nlohmann16json_abi_v3_11_36detail16invalid_iteratorE, 
                       __ZTIN8nlohmann16json_abi_v3_11_36detail21output_string_adapterIcNSt3__112basic_stringIcNS3_11char_traitsIcEENS3_9allocatorIcEEEEEE, 
                       __ZTIN8nlohmann16json_abi_v3_11_36detail23output_adapter_protocolIcEE, 
                       __ZTIN8nlohmann16json_abi_v3_11_36detail9exceptionE, __ZTIN9apple3dgs11ISortWorkerE, 
                       __ZTIN9apple3dgs12DeferredPassE, __ZTIN9apple3dgs7ISorterE, 
                       __ZTINSt3__110__function6__baseIFbPU34objcproto23MTLRenderCommandEncoder11objc_objectN9apple3dgs18DeferredUniformsFSEP23MTLRenderPassDescriptorjPU15__autoreleasingP7NSErrorEEE, 
                       __ZTINSt3__110__function6__baseIFvPU27objcproto16MTLCommandBuffer11objc_objectjN9apple3dgs14ConvertMXIFaceEPU21objcproto10MTLTexture11objc_objectS7_N4simd8float4x4EEEE, 
                       __ZTINSt3__110__function6__baseIFvRN4cv3d9aspenbase11concurrency12AsyncManager13ThreadContextEEEE, 
                       __ZTINSt3__110__function6__baseIFvmEEE, __ZTINSt3__110__function6__baseIFvmRN4cv3d9aspenbase11concurrency12AsyncManager13ThreadContextEEEE, 
                       __ZTINSt3__110__function6__baseIFvvEEE, __ZTINSt3__110__function6__funcINS_6__bindIRNS_8functionIFvmRN4cv3d9aspenbase11concurrency12AsyncManager13ThreadContextEEEEJRmRKNS_12placeholders4__phILi1EEEEEEFvS9_EEE, 
                       __ZTINSt3__118__weak_result_typeINS_8functionIFvmRN4cv3d9aspenbase11concurrency12AsyncManager13ThreadContextEEEEEE, 
                       __ZTINSt3__120__shared_ptr_emplaceI12MetalContextNS_9allocatorIS1_EEEE, 
                       __ZTINSt3__120__shared_ptr_emplaceIKN9apple3dgs16SorterDescriptorENS_9allocatorIS2_EEEE, 
                       __ZTINSt3__120__shared_ptr_emplaceIN4cv3d9aspenbase11concurrency12AsyncManager13ThreadContextENS_9allocatorIS5_EEEE, 
                       __ZTINSt3__120__shared_ptr_emplaceIN4cv3d9aspenbase11concurrency6ThreadENS_9allocatorIS4_EEEE, 
                       __ZTINSt3__120__shared_ptr_emplaceIN4cv3d9aspenbase11concurrency7ChannelINS_8functionIFvRNS3_12AsyncManager13ThreadContextEEEEEENS_9allocatorISB_EEEE, 
                       __ZTINSt3__120__shared_ptr_emplaceIN4cv3d9aspenbase11concurrency7ChannelIbEENS_9allocatorIS5_EEEE, 
                       __ZTINSt3__120__shared_ptr_emplaceIN8nlohmann16json_abi_v3_11_36detail21output_string_adapterIcNS_12basic_stringIcNS_11char_traitsIcEENS_9allocatorIcEEEEEENS8_ISB_EEEE, 
                       __ZTINSt3__120__shared_ptr_emplaceIN9apple3dgs11MOVExporter6WriterENS_9allocatorIS3_EEEE, 
                       __ZTINSt3__120__shared_ptr_emplaceIN9apple3dgs11MOVExporterENS_9allocatorIS2_EEEE, 
                       __ZTINSt3__120__shared_ptr_emplaceIN9apple3dgs11PeeledAssetENS_9allocatorIS2_EEEE, 
                       __ZTINSt3__120__shared_ptr_emplaceIN9apple3dgs14PeeledRendererENS_9allocatorIS2_EEEE, 
                       __ZTINSt3__120__shared_ptr_emplaceIN9apple3dgs14PostAlphaBlendENS_9allocatorIS2_EEEE, 
                       __ZTINSt3__120__shared_ptr_emplaceIN9apple3dgs16IOSurfaceTextureENS_9allocatorIS2_EEEE, 
                       __ZTINSt3__120__shared_ptr_emplaceIN9apple3dgs16RenderDescriptorENS_9allocatorIS2_EEEE, 
                       __ZTINSt3__120__shared_ptr_emplaceIN9apple3dgs16SorterDescriptorENS_9allocatorIS2_EEEE, 
                       __ZTINSt3__120__shared_ptr_emplaceIN9apple3dgs16SplatVideoLoaderENS_9allocatorIS2_EEEE, 
                       __ZTINSt3__120__shared_ptr_emplaceIN9apple3dgs17MultiLayerOptionsENS_9allocatorIS2_EEEE, 
                       __ZTINSt3__120__shared_ptr_emplaceIN9apple3dgs22PeeledRenderDescriptorENS_9allocatorIS2_EEEE, 
                       __ZTINSt3__120__shared_ptr_emplaceIN9apple3dgs24PeeledMultiLayerRendererENS_9allocatorIS2_EEEE, 
                       __ZTINSt3__120__shared_ptr_emplaceIN9apple3dgs29PlanarSliceMultiLayerRendererENS_9allocatorIS2_EEEE, 
                       __ZTINSt3__120__shared_ptr_emplaceIN9apple3dgs5AOTFRENS_9allocatorIS2_EEEE, 
                       __ZTINSt3__120__shared_ptr_emplaceIN9apple3dgs5AssetENS_9allocatorIS2_EEEE, 
                       __ZTINSt3__120__shared_ptr_emplaceIN9apple3dgs6SorterENS_9allocatorIS2_EEEE, 
                       __ZTINSt3__120__shared_ptr_emplaceIN9apple3dgs8RendererENS_9allocatorIS2_EEEE, 
                       __ZTINSt3__122__weak_result_type_impINS_8functionIFvmRN4cv3d9aspenbase11concurrency12AsyncManager13ThreadContextEEEELb1EEE, 
                       __ZTINSt3__134__binary_function_keep_layout_baseImRN4cv3d9aspenbase11concurrency12AsyncManager13ThreadContextEvEE, 
                       __ZTINSt3__134__maybe_derive_from_unary_functionINS_8functionIFvmRN4cv3d9aspenbase11concurrency12AsyncManager13ThreadContextEEEELb0EEE, 
                       __ZTINSt3__135__maybe_derive_from_binary_functionINS_8functionIFvmRN4cv3d9aspenbase11concurrency12AsyncManager13ThreadContextEEEELb1EEE, 
                       __ZTINSt3__16__bindIRNS_8functionIFvmRN4cv3d9aspenbase11concurrency12AsyncManager13ThreadContextEEEEJRmRKNS_12placeholders4__phILi1EEEEEE, 
                       __ZTSN4avir13CImageResizerINS_11fpclass_defIffNS_27CImageResizerDithererDefINLIfEEEEE11CThreadDataIhhEE, 
                       __ZTSN4avir23CImageResizerThreadPool9CWorkloadE, __ZTSN4avir23CImageResizerThreadPoolE, 
                       __ZTSN6happly13TypedPropertyIaEE, __ZTSN6happly13TypedPropertyIdEE, 
                       __ZTSN6happly13TypedPropertyIfEE, __ZTSN6happly13TypedPropertyIhEE, 
                       __ZTSN6happly13TypedPropertyIiEE, __ZTSN6happly13TypedPropertyIjEE, 
                       __ZTSN6happly13TypedPropertyIsEE, __ZTSN6happly13TypedPropertyItEE, 
                       __ZTSN6happly17TypedListPropertyIaEE, __ZTSN6happly17TypedListPropertyIdEE, 
                       __ZTSN6happly17TypedListPropertyIfEE, __ZTSN6happly17TypedListPropertyIhEE, 
                       __ZTSN6happly17TypedListPropertyIiEE, __ZTSN6happly17TypedListPropertyIjEE, 
                       __ZTSN6happly17TypedListPropertyIsEE, __ZTSN6happly17TypedListPropertyItEE, 
                       __ZTSN6happly8PropertyE, __ZTSN8nlohmann16json_abi_v3_11_36detail10type_errorE, 
                       __ZTSN8nlohmann16json_abi_v3_11_36detail11parse_errorE, __ZTSN8nlohmann16json_abi_v3_11_36detail12out_of_rangeE, 
                       __ZTSN8nlohmann16json_abi_v3_11_36detail16invalid_iteratorE, 
                       __ZTSN8nlohmann16json_abi_v3_11_36detail21output_string_adapterIcNSt3__112basic_stringIcNS3_11char_traitsIcEENS3_9allocatorIcEEEEEE, 
                       __ZTSN8nlohmann16json_abi_v3_11_36detail23output_adapter_protocolIcEE, 
                       __ZTSN8nlohmann16json_abi_v3_11_36detail9exceptionE, __ZTSN9apple3dgs11ISortWorkerE, 
                       __ZTSN9apple3dgs12DeferredPassE, __ZTSN9apple3dgs7ISorterE, 
                       __ZTSNSt3__110__function6__baseIFbPU34objcproto23MTLRenderCommandEncoder11objc_objectN9apple3dgs18DeferredUniformsFSEP23MTLRenderPassDescriptorjPU15__autoreleasingP7NSErrorEEE, 
                       __ZTSNSt3__110__function6__baseIFvPU27objcproto16MTLCommandBuffer11objc_objectjN9apple3dgs14ConvertMXIFaceEPU21objcproto10MTLTexture11objc_objectS7_N4simd8float4x4EEEE, 
                       __ZTSNSt3__110__function6__baseIFvRN4cv3d9aspenbase11concurrency12AsyncManager13ThreadContextEEEE, 
                       __ZTSNSt3__110__function6__baseIFvmEEE, __ZTSNSt3__110__function6__baseIFvmRN4cv3d9aspenbase11concurrency12AsyncManager13ThreadContextEEEE, 
                       __ZTSNSt3__110__function6__baseIFvvEEE, __ZTSNSt3__110__function6__funcINS_6__bindIRNS_8functionIFvmRN4cv3d9aspenbase11concurrency12AsyncManager13ThreadContextEEEEJRmRKNS_12placeholders4__phILi1EEEEEEFvS9_EEE, 
                       __ZTSNSt3__118__weak_result_typeINS_8functionIFvmRN4cv3d9aspenbase11concurrency12AsyncManager13ThreadContextEEEEEE, 
                       __ZTSNSt3__120__shared_ptr_emplaceI12MetalContextNS_9allocatorIS1_EEEE, 
                       __ZTSNSt3__120__shared_ptr_emplaceIKN9apple3dgs16SorterDescriptorENS_9allocatorIS2_EEEE, 
                       __ZTSNSt3__120__shared_ptr_emplaceIN4cv3d9aspenbase11concurrency12AsyncManager13ThreadContextENS_9allocatorIS5_EEEE, 
                       __ZTSNSt3__120__shared_ptr_emplaceIN4cv3d9aspenbase11concurrency6ThreadENS_9allocatorIS4_EEEE, 
                       __ZTSNSt3__120__shared_ptr_emplaceIN4cv3d9aspenbase11concurrency7ChannelINS_8functionIFvRNS3_12AsyncManager13ThreadContextEEEEEENS_9allocatorISB_EEEE, 
                       __ZTSNSt3__120__shared_ptr_emplaceIN4cv3d9aspenbase11concurrency7ChannelIbEENS_9allocatorIS5_EEEE, 
                       __ZTSNSt3__120__shared_ptr_emplaceIN8nlohmann16json_abi_v3_11_36detail21output_string_adapterIcNS_12basic_stringIcNS_11char_traitsIcEENS_9allocatorIcEEEEEENS8_ISB_EEEE, 
                       __ZTSNSt3__120__shared_ptr_emplaceIN9apple3dgs11MOVExporter6WriterENS_9allocatorIS3_EEEE, 
                       __ZTSNSt3__120__shared_ptr_emplaceIN9apple3dgs11MOVExporterENS_9allocatorIS2_EEEE, 
                       __ZTSNSt3__120__shared_ptr_emplaceIN9apple3dgs11PeeledAssetENS_9allocatorIS2_EEEE, 
                       __ZTSNSt3__120__shared_ptr_emplaceIN9apple3dgs14PeeledRendererENS_9allocatorIS2_EEEE, 
                       __ZTSNSt3__120__shared_ptr_emplaceIN9apple3dgs14PostAlphaBlendENS_9allocatorIS2_EEEE, 
                       __ZTSNSt3__120__shared_ptr_emplaceIN9apple3dgs16IOSurfaceTextureENS_9allocatorIS2_EEEE, 
                       __ZTSNSt3__120__shared_ptr_emplaceIN9apple3dgs16RenderDescriptorENS_9allocatorIS2_EEEE, 
                       __ZTSNSt3__120__shared_ptr_emplaceIN9apple3dgs16SorterDescriptorENS_9allocatorIS2_EEEE, 
                       __ZTSNSt3__120__shared_ptr_emplaceIN9apple3dgs16SplatVideoLoaderENS_9allocatorIS2_EEEE, 
                       __ZTSNSt3__120__shared_ptr_emplaceIN9apple3dgs17MultiLayerOptionsENS_9allocatorIS2_EEEE, 
                       __ZTSNSt3__120__shared_ptr_emplaceIN9apple3dgs22PeeledRenderDescriptorENS_9allocatorIS2_EEEE, 
                       __ZTSNSt3__120__shared_ptr_emplaceIN9apple3dgs24PeeledMultiLayerRendererENS_9allocatorIS2_EEEE, 
                       __ZTSNSt3__120__shared_ptr_emplaceIN9apple3dgs29PlanarSliceMultiLayerRendererENS_9allocatorIS2_EEEE, 
                       __ZTSNSt3__120__shared_ptr_emplaceIN9apple3dgs5AOTFRENS_9allocatorIS2_EEEE, 
                       __ZTSNSt3__120__shared_ptr_emplaceIN9apple3dgs5AssetENS_9allocatorIS2_EEEE, 
                       __ZTSNSt3__120__shared_ptr_emplaceIN9apple3dgs6SorterENS_9allocatorIS2_EEEE, 
                       __ZTSNSt3__120__shared_ptr_emplaceIN9apple3dgs8RendererENS_9allocatorIS2_EEEE, 
                       __ZTSNSt3__122__weak_result_type_impINS_8functionIFvmRN4cv3d9aspenbase11concurrency12AsyncManager13ThreadContextEEEELb1EEE, 
                       __ZTSNSt3__134__binary_function_keep_layout_baseImRN4cv3d9aspenbase11concurrency12AsyncManager13ThreadContextEvEE, 
                       __ZTSNSt3__134__maybe_derive_from_unary_functionINS_8functionIFvmRN4cv3d9aspenbase11concurrency12AsyncManager13ThreadContextEEEELb0EEE, 
                       __ZTSNSt3__135__maybe_derive_from_binary_functionINS_8functionIFvmRN4cv3d9aspenbase11concurrency12AsyncManager13ThreadContextEEEELb1EEE, 
                       __ZTSNSt3__16__bindIRNS_8functionIFvmRN4cv3d9aspenbase11concurrency12AsyncManager13ThreadContextEEEEJRmRKNS_12placeholders4__phILi1EEEEEE ]
  - targets:         [ x86_64-macos, arm64e-macos ]
    symbols:         [ _CoreRE3DGSFoundationVersionNumber, _CoreRE3DGSFoundationVersionString, 
                       __Z13GSVersionHashv, __Z17GetDefaultArchivePU19objcproto9MTLDevice11objc_objectPU15__autoreleasingP7NSError, 
                       __Z17GetDefaultLibraryPU19objcproto9MTLDevice11objc_objectPU15__autoreleasingP7NSError, 
                       __Z18GetRenderingBundlePKc, __Z20GSVersionNumberMajorv, __Z20GSVersionNumberMinorv, 
                       __Z20GSVersionNumberPatchv, __ZN12MetalContext19renderPipelineStateERKNSt3__112basic_stringIcNS0_11char_traitsIcEENS0_9allocatorIcEEEES8_, 
                       __ZN12MetalContext20computePipelineStateERKNSt3__112basic_stringIcNS0_11char_traitsIcEENS0_9allocatorIcEEEENS0_8optionalIU8__strongP29MTLStageInputOutputDescriptorEENS9_IU8__strongP25MTLFunctionConstantValuesEE, 
                       __ZN12MetalContextC1EPU19objcproto9MTLDevice11objc_objectb, 
                       __ZN12MetalContextC2EPU19objcproto9MTLDevice11objc_objectb, 
                       __ZN4cv3d9aspenbase11concurrency10ThreadPool4WaitEv, __ZN4cv3d9aspenbase11concurrency10ThreadPoolD1Ev, 
                       __ZN4cv3d9aspenbase11concurrency10ThreadPoolD2Ev, __ZN4cv3d9aspenbase11concurrency12AsyncManager6ConfigC1ERKNS1_6Thread6ConfigE, 
                       __ZN4cv3d9aspenbase11concurrency12AsyncManager6ConfigC1Em, 
                       __ZN4cv3d9aspenbase11concurrency12AsyncManager6ConfigC1EmRKNS1_6Thread6ConfigE, 
                       __ZN4cv3d9aspenbase11concurrency12AsyncManager6ConfigC1EmmRKNS1_6Thread6ConfigE, 
                       __ZN4cv3d9aspenbase11concurrency12AsyncManager6ConfigC2ERKNS1_6Thread6ConfigE, 
                       __ZN4cv3d9aspenbase11concurrency12AsyncManager6ConfigC2Em, 
                       __ZN4cv3d9aspenbase11concurrency12AsyncManager6ConfigC2EmRKNS1_6Thread6ConfigE, 
                       __ZN4cv3d9aspenbase11concurrency12AsyncManager6ConfigC2EmmRKNS1_6Thread6ConfigE, 
                       __ZN4cv3d9aspenbase11concurrency12AsyncManagerC1ERKNS2_6ConfigE, 
                       __ZN4cv3d9aspenbase11concurrency12AsyncManagerC1Ejm, __ZN4cv3d9aspenbase11concurrency12AsyncManagerC2ERKNS2_6ConfigE, 
                       __ZN4cv3d9aspenbase11concurrency12AsyncManagerC2Ejm, __ZN4cv3d9aspenbase11concurrency12AsyncManagerD1Ev, 
                       __ZN4cv3d9aspenbase11concurrency12AsyncManagerD2Ev, __ZN4cv3d9aspenbase11concurrency18GetLogicalCPUCountEv, 
                       __ZN4cv3d9aspenbase11concurrency5Mutex11CreateMutexEv, __ZN4cv3d9aspenbase11concurrency5Mutex4LockEv, 
                       __ZN4cv3d9aspenbase11concurrency5Mutex6UnlockEv, __ZN4cv3d9aspenbase11concurrency5Mutex7TryLockEv, 
                       __ZN4cv3d9aspenbase11concurrency5MutexC1Ev, __ZN4cv3d9aspenbase11concurrency5MutexC2Ev, 
                       __ZN4cv3d9aspenbase11concurrency5MutexD1Ev, __ZN4cv3d9aspenbase11concurrency5MutexD2Ev, 
                       __ZN4cv3d9aspenbase11concurrency6Locker4LockEv, __ZN4cv3d9aspenbase11concurrency6Locker5RlockEv, 
                       __ZN4cv3d9aspenbase11concurrency6Locker6UnlockEv, __ZN4cv3d9aspenbase11concurrency6Locker7UnrlockEv, 
                       __ZN4cv3d9aspenbase11concurrency6LockerC1Ev, __ZN4cv3d9aspenbase11concurrency6LockerC2Ev, 
                       __ZN4cv3d9aspenbase11concurrency6LockerD1Ev, __ZN4cv3d9aspenbase11concurrency6LockerD2Ev, 
                       __ZN4cv3d9aspenbase11concurrency6Thread11thread_funcEPv, __ZN4cv3d9aspenbase11concurrency6Thread19StartOnCallerThreadEv, 
                       __ZN4cv3d9aspenbase11concurrency6Thread19ThreadFuncInterfaceD0Ev, 
                       __ZN4cv3d9aspenbase11concurrency6Thread19ThreadFuncInterfaceD1Ev, 
                       __ZN4cv3d9aspenbase11concurrency6Thread19ThreadFuncInterfaceD2Ev, 
                       __ZN4cv3d9aspenbase11concurrency6Thread3RunEv, __ZN4cv3d9aspenbase11concurrency6Thread4WaitEv, 
                       __ZN4cv3d9aspenbase11concurrency6Thread5SleepEm, __ZN4cv3d9aspenbase11concurrency6Thread5StartEv, 
                       __ZN4cv3d9aspenbase11concurrency6ThreadC1ERKNS2_6ConfigE, 
                       __ZN4cv3d9aspenbase11concurrency6ThreadC1ERKNSt3__112basic_stringIcNS3_11char_traitsIcEENS3_9allocatorIcEEEE, 
                       __ZN4cv3d9aspenbase11concurrency6ThreadC1Ev, __ZN4cv3d9aspenbase11concurrency6ThreadC2ERKNS2_6ConfigE, 
                       __ZN4cv3d9aspenbase11concurrency6ThreadC2ERKNSt3__112basic_stringIcNS3_11char_traitsIcEENS3_9allocatorIcEEEE, 
                       __ZN4cv3d9aspenbase11concurrency6ThreadC2Ev, __ZN4cv3d9aspenbase11concurrency6ThreadD0Ev, 
                       __ZN4cv3d9aspenbase11concurrency6ThreadD1Ev, __ZN4cv3d9aspenbase11concurrency6ThreadD2Ev, 
                       __ZN4cv3d9aspenbase11concurrency8SpinLock4LockEv, __ZN4cv3d9aspenbase11concurrency8SpinLock6UnlockEv, 
                       __ZN4cv3d9aspenbase11concurrency8SpinLock7TryLockEv, __ZN4cv3d9aspenbase11concurrency8SpinLockC1Ev, 
                       __ZN4cv3d9aspenbase11concurrency8SpinLockC2Ev, __ZN4cv3d9aspenbase11concurrency8SpinLockD1Ev, 
                       __ZN4cv3d9aspenbase11concurrency8SpinLockD2Ev, __ZN4cv3d9aspenbase11concurrency9Semaphore4InitEj, 
                       __ZN4cv3d9aspenbase11concurrency9Semaphore4PostEj, __ZN4cv3d9aspenbase11concurrency9Semaphore4PostEv, 
                       __ZN4cv3d9aspenbase11concurrency9Semaphore4WaitEd, __ZN4cv3d9aspenbase11concurrency9Semaphore4WaitEv, 
                       __ZN4cv3d9aspenbase11concurrency9Semaphore7TryWaitEv, __ZN4cv3d9aspenbase11concurrency9SemaphoreC1Ej, 
                       __ZN4cv3d9aspenbase11concurrency9SemaphoreC1Ev, __ZN4cv3d9aspenbase11concurrency9SemaphoreC2Ej, 
                       __ZN4cv3d9aspenbase11concurrency9SemaphoreC2Ev, __ZN4cv3d9aspenbase11concurrency9SemaphoreD1Ev, 
                       __ZN4cv3d9aspenbase11concurrency9SemaphoreD2Ev, __ZN9apple3dgs10CheckAllocEPU8__strongPU19objcproto9MTLBuffer11objc_objectmPU19objcproto9MTLDevice11objc_objectm, 
                       __ZN9apple3dgs10CheckAllocEPU8__strongPU21objcproto10MTLTexture11objc_object14MTLPixelFormatjjmPU19objcproto9MTLDevice11objc_object, 
                       __ZN9apple3dgs10ToCIFormatE14MTLPixelFormat, __ZN9apple3dgs10scaleImageEfjRNSt3__16vectorIhNS0_9allocatorIhEEEERjS6_, 
                       __ZN9apple3dgs11CopyTextureER12MetalContextPU27objcproto16MTLCommandBuffer11objc_objectPU21objcproto10MTLTexture11objc_objectS5_, 
                       __ZN9apple3dgs11CopyTextureER12MetalContextPU35objcproto24MTLComputeCommandEncoder11objc_objectPU21objcproto10MTLTexture11objc_objectS5_, 
                       __ZN9apple3dgs11ErrorDomainEv, __ZN9apple3dgs11ISortWorker10NeedCreateERNSt3__110unique_ptrIS0_NS1_14default_deleteIS0_EEEERKNS_16SorterDescriptorE, 
                       __ZN9apple3dgs11ISortWorker16SetInstanceCountEj, __ZN9apple3dgs11ISortWorker20UpdateIndirectBufferEPU27objcproto16MTLCommandBuffer11objc_objectRKDv2_f, 
                       __ZN9apple3dgs11ISortWorker6CreateEPU19objcproto9MTLDevice11objc_objectRKNS_16SorterDescriptorERKNS0_10ParametersEj, 
                       __ZN9apple3dgs11ISortWorker8AllocateEj, __ZN9apple3dgs11ISortWorkerC2EPU19objcproto9MTLDevice11objc_objectRKNS0_10ParametersEj, 
                       __ZN9apple3dgs11MOVExporter12CaptureFrameERKNSt3__112basic_stringIcNS1_11char_traitsIcEENS1_9allocatorIcEEEEP10__CVBufferdRKNS1_8optionalINS1_6vectorIN4simd8float4x4ENS5_ISF_EEEEEE, 
                       __ZN9apple3dgs11MOVExporter15SetFileMetadataERKNSt3__112basic_stringIcNS1_11char_traitsIcEENS1_9allocatorIcEEEERKN8nlohmann16json_abi_v3_11_310basic_jsonINS1_3mapENS1_6vectorES7_bxydS5_NSB_14adl_serializerENSE_IhNS5_IhEEEEvEE, 
                       __ZN9apple3dgs11MOVExporter18FlushFrameMetadataEd, __ZN9apple3dgs11MOVExporter19CaptureSampleBufferERKNSt3__112basic_stringIcNS1_11char_traitsIcEENS1_9allocatorIcEEEEP20opaqueCMSampleBufferd, 
                       __ZN9apple3dgs11MOVExporter5StartEv, __ZN9apple3dgs11MOVExporter8AddTrackERKNSt3__112basic_stringIcNS1_11char_traitsIcEENS1_9allocatorIcEEEEjjjRK14MTLPixelFormatRKNS_13LayerMetadataEbbfNS1_8optionalIjEESH_, 
                       __ZN9apple3dgs11MOVExporterC1ERKNSt3__14__fs10filesystem4pathERKNS1_3mapINS1_12basic_stringIcNS1_11char_traitsIcEENS1_9allocatorIcEEEESD_NS1_4lessISD_EENSB_INS1_4pairIKSD_SD_EEEEEE, 
                       __ZN9apple3dgs11MOVExporterC2ERKNSt3__14__fs10filesystem4pathERKNS1_3mapINS1_12basic_stringIcNS1_11char_traitsIcEENS1_9allocatorIcEEEESD_NS1_4lessISD_EENSB_INS1_4pairIKSD_SD_EEEEEE, 
                       __ZN9apple3dgs11MOVExporterD0Ev, __ZN9apple3dgs11MOVExporterD1Ev, 
                       __ZN9apple3dgs11MOVExporterD2Ev, __ZN9apple3dgs11PeeledAsset16PostProcessDepthEPU27objcproto16MTLCommandBuffer11objc_object, 
                       __ZN9apple3dgs11PeeledAsset8SetLayerEjPU21objcproto10MTLTexture11objc_objectS2_13simd_float4x4PU27objcproto16MTLCommandBuffer11objc_object, 
                       __ZN9apple3dgs11RadixSorter11ClearBufferEPU35objcproto24MTLComputeCommandEncoder11objc_objectPU19objcproto9MTLBuffer11objc_objectjj, 
                       __ZN9apple3dgs11RadixSorter11InitIndicesEPU35objcproto24MTLComputeCommandEncoder11objc_objectPU19objcproto9MTLBuffer11objc_objectj, 
                       __ZN9apple3dgs11RadixSorter16ComputeHistogramEPU35objcproto24MTLComputeCommandEncoder11objc_objectPU19objcproto9MTLBuffer11objc_objectS4_jj, 
                       __ZN9apple3dgs11RadixSorter19PrefixSumSinglePassEPU35objcproto24MTLComputeCommandEncoder11objc_objectPU19objcproto9MTLBuffer11objc_objectS4_j, 
                       __ZN9apple3dgs11RadixSorter22CheckInternalDataAllocEj, __ZN9apple3dgs11RadixSorter4SortEPU27objcproto16MTLCommandBuffer11objc_objectPU19objcproto9MTLBuffer11objc_objectS4_j, 
                       __ZN9apple3dgs11RadixSorter4SortEPU35objcproto24MTLComputeCommandEncoder11objc_objectPU19objcproto9MTLBuffer11objc_objectS4_j, 
                       __ZN9apple3dgs11RadixSorter7ReorderEPU35objcproto24MTLComputeCommandEncoder11objc_objectPU19objcproto9MTLBuffer11objc_objectS4_S4_S4_S4_jj, 
                       __ZN9apple3dgs11RadixSorter9PrefixSumEPU35objcproto24MTLComputeCommandEncoder11objc_objectPU19objcproto9MTLBuffer11objc_objectS4_S4_S4_j, 
                       __ZN9apple3dgs11RadixSorterC1ER12MetalContextjbb, __ZN9apple3dgs11RadixSorterC2ER12MetalContextjbb, 
                       __ZN9apple3dgs11StopCaptureEPU26objcproto15MTLCaptureScope11objc_object, 
                       __ZN9apple3dgs11ToMTLFormatEi, __ZN9apple3dgs12CIImageToMTLEP7CIImagePU19objcproto9MTLDevice11objc_objectP20MTLTextureDescriptorP12CGColorSpace, 
                       __ZN9apple3dgs12ComputeEigenERKN4simd8float3x3E, __ZN9apple3dgs12FreetimeData11ParseHeaderERNSt3__113basic_istreamIcNS1_11char_traitsIcEEEE, 
                       __ZN9apple3dgs12FreetimeData8LoadFileERKNSt3__14__fs10filesystem4pathE, 
                       __ZN9apple3dgs12FreetimeDataC1ERKNSt3__14__fs10filesystem4pathE, 
                       __ZN9apple3dgs12FreetimeDataC2ERKNSt3__14__fs10filesystem4pathE, 
                       __ZN9apple3dgs12GetTrackNameEPK12AVAssetTrack, __ZN9apple3dgs12StartCaptureEPU8__strongPU26objcproto15MTLCaptureScope11objc_object, 
                       __ZN9apple3dgs12TextureCache18GetOrCreateTextureEP10__CVBuffer14MTLPixelFormatm, 
                       __ZN9apple3dgs12TextureCache5FlushENSt3__16chrono8durationIxNS1_5ratioILl1ELl1000EEEEE, 
                       __ZN9apple3dgs12TextureCacheC1EPU19objcproto9MTLDevice11objc_object, 
                       __ZN9apple3dgs12TextureCacheC2EPU19objcproto9MTLDevice11objc_object, 
                       __ZN9apple3dgs12UniqueSorter13EncodeSortingEPU27objcproto16MTLCommandBuffer11objc_objectNSt3__14spanIKNS3_10shared_ptrIKNS_5AssetEEELm18446744073709551615EEENS5_IKNS_16SorterDescriptorEEENS5_IKNS_16RenderDescriptorEEEPU15__autoreleasingP7NSError, 
                       __ZN9apple3dgs12UniqueSorterC1EPU19objcproto9MTLDevice11objc_objectRKNS_11ISortWorker10ParametersEj, 
                       __ZN9apple3dgs12UniqueSorterC2EPU19objcproto9MTLDevice11objc_objectRKNS_11ISortWorker10ParametersEj, 
                       __ZN9apple3dgs12loadFreetimeERKNSt3__14__fs10filesystem4pathEPU19objcproto9MTLDevice11objc_objectRKNS_5Asset19AttributeDescriptorEPU15__autoreleasingP7NSError, 
                       __ZN9apple3dgs12updateFromTvERNS_5AssetERKNSt3__14__fs10filesystem4pathEjPU15__autoreleasingP7NSError, 
                       __ZN9apple3dgs13CPUSortWorker11StopCPUSortEv, __ZN9apple3dgs13CPUSortWorker12StartCPUSortEv, 
                       __ZN9apple3dgs13CPUSortWorker12StartRunningEv, __ZN9apple3dgs13CPUSortWorker4LockEv, 
                       __ZN9apple3dgs13CPUSortWorker4SortEPU27objcproto16MTLCommandBuffer11objc_objectNS_11ISortWorker3JobE, 
                       __ZN9apple3dgs13CPUSortWorker6UnlockEv, __ZN9apple3dgs13CPUSortWorker7ProcessERKNS_11ISortWorker3JobE, 
                       __ZN9apple3dgs13CPUSortWorker8AllocateEj, __ZN9apple3dgs13CPUSortWorker9AddJobCPUERKNS_11ISortWorker3JobE, 
                       __ZN9apple3dgs13CPUSortWorkerC1EPU19objcproto9MTLDevice11objc_objectRKNS_11ISortWorker10ParametersEj, 
                       __ZN9apple3dgs13CPUSortWorkerC2EPU19objcproto9MTLDevice11objc_objectRKNS_11ISortWorker10ParametersEj, 
                       __ZN9apple3dgs13CPUSortWorkerD0Ev, __ZN9apple3dgs13CPUSortWorkerD1Ev, 
                       __ZN9apple3dgs13CPUSortWorkerD2Ev, __ZN9apple3dgs13GPUSortWorker26GetPrecomputePipelineStateERKNS_5AssetEj, 
                       __ZN9apple3dgs13GPUSortWorker4SortEPU27objcproto16MTLCommandBuffer11objc_objectNS_11ISortWorker3JobE, 
                       __ZN9apple3dgs13GPUSortWorkerC1EPU19objcproto9MTLDevice11objc_objectRKNS_11ISortWorker10ParametersEj, 
                       __ZN9apple3dgs13GPUSortWorkerC2EPU19objcproto9MTLDevice11objc_objectRKNS_11ISortWorker10ParametersEj, 
                       __ZN9apple3dgs13GetFileFormatERKNSt3__14__fs10filesystem4pathE, 
                       __ZN9apple3dgs13MaxAreaFilterEPU21objcproto10MTLTexture11objc_objectS1_S1_iR12MetalContextPU27objcproto16MTLCommandBuffer11objc_object, 
                       __ZN9apple3dgs13MinAreaFilterER12MetalContextPU35objcproto24MTLComputeCommandEncoder11objc_objectPU21objcproto10MTLTexture11objc_objectS5_i, 
                       __ZN9apple3dgs13NdcProjectionERKN4simd8float3x3Eff, __ZN9apple3dgs13RGBDPanoToMPIER12MetalContextPU27objcproto16MTLCommandBuffer11objc_objectRKNS_8RGBDPanoERKN4simd8float4x4EfRNS_8DenseMPIE, 
                       __ZN9apple3dgs13SetActivationERNS_5AssetENS_14ActivationTypeES2_, 
                       __ZN9apple3dgs13VRRDensityMap6UpdateEPU27objcproto16MTLCommandBuffer11objc_objectPU34objcproto23MTLRasterizationRateMap11objc_objectj, 
                       __ZN9apple3dgs13VRRDensityMapC1EPU19objcproto9MTLDevice11objc_objectj, 
                       __ZN9apple3dgs13VRRDensityMapC2EPU19objcproto9MTLDevice11objc_objectj, 
                       __ZN9apple3dgs14CFStringEqualsEPK10__CFStringS2_, __ZN9apple3dgs14DescriptorLikeEPU21objcproto10MTLTexture11objc_object, 
                       __ZN9apple3dgs14GetMetadataKeyERKNSt3__112basic_stringIcNS0_11char_traitsIcEENS0_9allocatorIcEEEE, 
                       __ZN9apple3dgs14MaxLinearScaleERKN4simd8float4x4E, __ZN9apple3dgs14MultiLayerData20GetTextureFromBufferEjjj14MTLPixelFormatPU19objcproto9MTLBuffer11objc_object, 
                       __ZN9apple3dgs14MultiLayerData22GetTexture2DDescriptorEjj14MTLPixelFormatm, 
                       __ZN9apple3dgs14MultiLayerData27GetTexture2DArrayDescriptorEjjj14MTLPixelFormatm, 
                       __ZN9apple3dgs14MultiLayerDataC1EPU19objcproto9MTLDevice11objc_objectRKNS_17MultiLayerOptionsE14MTLPixelFormatS6_, 
                       __ZN9apple3dgs14MultiLayerDataC2EPU19objcproto9MTLDevice11objc_objectRKNS_17MultiLayerOptionsE14MTLPixelFormatS6_, 
                       __ZN9apple3dgs14PeeledRenderer16BuildODTPipelineEPU21objcproto10MTLLibrary11objc_objectPU27objcproto16MTLBinaryArchive11objc_object14MTLPixelFormatS5_PU15__autoreleasingP7NSErrorm, 
                       __ZN9apple3dgs14PeeledRenderer18BuildBlendPipelineEPU21objcproto10MTLLibrary11objc_objectPU27objcproto16MTLBinaryArchive11objc_object14MTLPixelFormatS5_PU15__autoreleasingP7NSErrorm, 
                       __ZN9apple3dgs14PeeledRenderer23BuildImageblockPipelineEPU21objcproto10MTLLibrary11objc_objectPU27objcproto16MTLBinaryArchive11objc_object14MTLPixelFormatPU15__autoreleasingP7NSErrorm, 
                       __ZN9apple3dgs14PeeledRenderer24BuildTransparentPipelineEPU21objcproto10MTLLibrary11objc_objectPU27objcproto16MTLBinaryArchive11objc_object14MTLPixelFormatS5_PU15__autoreleasingP7NSErrorm, 
                       __ZN9apple3dgs14PeeledRenderer26createRenderPassDescriptorEPU21objcproto10MTLTexture11objc_objectS2_PU34objcproto23MTLRasterizationRateMap11objc_object, 
                       __ZN9apple3dgs14PeeledRendererC1EPU19objcproto9MTLDevice11objc_object14MTLPixelFormatS3_PU15__autoreleasingP7NSError, 
                       __ZN9apple3dgs14PeeledRendererC2EPU19objcproto9MTLDevice11objc_object14MTLPixelFormatS3_PU15__autoreleasingP7NSError, 
                       __ZN9apple3dgs14PowerIterationERKN4simd8float3x3Ej, __ZN9apple3dgs15CheckAllocArrayEPU8__strongPU21objcproto10MTLTexture11objc_object14MTLPixelFormatjjjmPU19objcproto9MTLDevice11objc_object, 
                       __ZN9apple3dgs15FinalizeAOTFRV1ER12MetalContextPU27objcproto16MTLCommandBuffer11objc_objectPU21objcproto10MTLTexture11objc_objectS5_, 
                       __ZN9apple3dgs15FinalizeAOTFRV2ER12MetalContextPU27objcproto16MTLCommandBuffer11objc_objectPU21objcproto10MTLTexture11objc_objectS5_S5_, 
                       __ZN9apple3dgs15FreetimeBuilder12PackRotationEDv4_f, __ZN9apple3dgs15FreetimeBuilder12Pack_8_8_8_8EDv4_f, 
                       __ZN9apple3dgs15FreetimeBuilder13Pack_11_10_11EDv3_f, __ZN9apple3dgs15FreetimeBuilder14UnpackRotationEj, 
                       __ZN9apple3dgs15FreetimeBuilder14Unpack_8_8_8_8Ej, __ZN9apple3dgs15FreetimeBuilder15Unpack_11_10_11Ej, 
                       __ZN9apple3dgs15FreetimeBuilderC1Ejj, __ZN9apple3dgs15FreetimeBuilderC2Ejj, 
                       __ZN9apple3dgs15ImportToCIImageERKNSt3__14__fs10filesystem4pathE, 
                       __ZN9apple3dgs15LinearRGBToSRGBEDv3_f, __ZN9apple3dgs15LoadLinearImageENSt3__14__fs10filesystem4pathEPU19objcproto9MTLDevice11objc_object14MTLPixelFormat, 
                       __ZN9apple3dgs15RenderDataCache19CreateDepthBuffer2DEv, __ZN9apple3dgs15SHCoeffToDegreeEj, 
                       __ZN9apple3dgs15SRGBToLinearRGBEDv3_f, __ZN9apple3dgs15TextureExporter12CopyRGBToYUVEPU27objcproto16MTLCommandBuffer11objc_objectPU21objcproto10MTLTexture11objc_objectP11__IOSurface, 
                       __ZN9apple3dgs15TextureExporter12GetTrackTimeENS0_9TrackInfoEd, 
                       __ZN9apple3dgs15TextureExporter17CaptureMetalFrameERKNSt3__112basic_stringIcNS1_11char_traitsIcEENS1_9allocatorIcEEEEPU21objcproto10MTLTexture11objc_objectPU26objcproto15MTLCommandQueue11objc_objectdRKNS1_8optionalINS1_6vectorIN4simd8float4x4ENS5_ISH_EEEEEE, 
                       __ZN9apple3dgs15TextureExporter18SetFrameProjectionERKNSt3__112basic_stringIcNS1_11char_traitsIcEENS1_9allocatorIcEEEERKNS1_6vectorIN4simd8float4x4ENS5_ISC_EEEE, 
                       __ZN9apple3dgs15TextureExporter8AddTrackERKNSt3__112basic_stringIcNS1_11char_traitsIcEENS1_9allocatorIcEEEEjjjRK14MTLPixelFormatRKNS_13LayerMetadataEbbfNS1_8optionalIjEESH_, 
                       __ZN9apple3dgs15TextureExporterC2ERKNSt3__14__fs10filesystem4pathE, 
                       __ZN9apple3dgs15TextureExporterD0Ev, __ZN9apple3dgs15TextureExporterD1Ev, 
                       __ZN9apple3dgs15TextureExporterD2Ev, __ZN9apple3dgs15loadDepthPeeledERKNSt3__14__fs10filesystem4pathEPU19objcproto9MTLDevice11objc_objectPU15__autoreleasingP7NSError, 
                       __ZN9apple3dgs16GetFrustumPlanesERKN4simd8float4x4E, __ZN9apple3dgs16GetMinimumStrideE18MTLAttributeFormat, 
                       __ZN9apple3dgs16LoadCubeMapImageERKNSt3__15arrayINS0_4__fs10filesystem4pathELm6EEEPU19objcproto9MTLDevice11objc_object14MTLPixelFormat, 
                       __ZN9apple3dgs16PerformReductionEPU19objcproto9MTLBuffer11objc_objectS1_mj18MTLAttributeFormatjNS_10ReduceModeER12MetalContextPU27objcproto16MTLCommandBuffer11objc_objectjj, 
                       __ZN9apple3dgs16PostprocessDepthEPU21objcproto10MTLTexture11objc_objectS1_S1_S1_R12MetalContextPU27objcproto16MTLCommandBuffer11objc_object, 
                       __ZN9apple3dgs16SplatVideoLoader10IsSplatMOVEP10AVURLAsset, 
                       __ZN9apple3dgs16SplatVideoLoader12ResetReadersE6CMTime, __ZN9apple3dgs16SplatVideoLoader13ReadNextFrameEPU26objcproto15MTLCommandQueue11objc_objectRNS_5AssetE, 
                       __ZN9apple3dgs16SplatVideoLoader16GetFrameMetadataEv, __ZN9apple3dgs16SplatVideoLoader7ReadTexEPU19objcproto9MTLDevice11objc_objectRKNSt3__112basic_stringIcNS3_11char_traitsIcEENS3_9allocatorIcEEEE14MTLPixelFormat, 
                       __ZN9apple3dgs16SplatVideoLoaderC1EPU19objcproto9MTLDevice11objc_objectP10AVURLAsset, 
                       __ZN9apple3dgs16SplatVideoLoaderC1EPU19objcproto9MTLDevice11objc_objectP5NSURL, 
                       __ZN9apple3dgs16SplatVideoLoaderC2EPU19objcproto9MTLDevice11objc_objectP10AVURLAsset, 
                       __ZN9apple3dgs16SplatVideoLoaderC2EPU19objcproto9MTLDevice11objc_objectP5NSURL, 
                       __ZN9apple3dgs16SplatVideoLoaderD1Ev, __ZN9apple3dgs16SplatVideoLoaderD2Ev, 
                       __ZN9apple3dgs16saveTvFromAssetsERKNSt3__14__fs10filesystem4pathERKNS0_6vectorINS_5AssetENS0_9allocatorIS7_EEEEfi, 
                       __ZN9apple3dgs17CreateSimpleAssetEPU26objcproto15MTLCommandQueue11objc_objectRKNS_5Asset19AttributeDescriptorEjb, 
                       __ZN9apple3dgs17CreateTextureFromEPU21objcproto10MTLTexture11objc_object14MTLPixelFormat14MTLStorageModem, 
                       __ZN9apple3dgs18ComputeColorFromSHER12MetalContextjPU27objcproto16MTLCommandBuffer11objc_objectPU19objcproto9MTLBuffer11objc_objectS5_Dv3_fjjS5_, 
                       __ZN9apple3dgs18ComputeColorFromSHERKNSt3__16vectorIDv3_fNS0_9allocatorIS2_EEEERKS2_S9_jb, 
                       __ZN9apple3dgs18DeepCopyAttributesERKNS_5Asset10AttributesEPU19objcproto9MTLDevice11objc_objectRS1_, 
                       __ZN9apple3dgs18GetTrackColorSpaceEPK12AVAssetTrack, __ZN9apple3dgs18MultiLayerRenderer10CheckAllocERKNS_17MultiLayerOptionsE, 
                       __ZN9apple3dgs18MultiLayerRenderer11RenderDepthEPU27objcproto16MTLCommandBuffer11objc_objectNSt3__110shared_ptrIKNS_5AssetEEERNS_15RenderDataCacheENS4_INS_16RenderDescriptorEEENS4_INS_16SorterDescriptorEEEPU15__autoreleasingP7NSError, 
                       __ZN9apple3dgs18MultiLayerRenderer16StopWarmUpThreadEv, __ZN9apple3dgs18MultiLayerRenderer17StartWarmUpThreadEPU26objcproto15MTLCommandQueue11objc_objectNSt3__18functionIFvPU27objcproto16MTLCommandBuffer11objc_objectjNS_14ConvertMXIFaceEPU21objcproto10MTLTexture11objc_objectS9_N4simd8float4x4EEEENS3_6chrono8durationIxNS3_5ratioILl1ELl1000EEEEE, 
                       __ZN9apple3dgs18MultiLayerRenderer20ComputeNearFarPlanesEPU26objcproto15MTLCommandQueue11objc_objectNSt3__110shared_ptrIKNS_5AssetEEENS_17MultiLayerOptionsEPU15__autoreleasingP7NSError, 
                       __ZN9apple3dgs18MultiLayerRenderer22AllocateRenderTexturesERKNS_17MultiLayerOptionsERKDv2_jS6_, 
                       __ZN9apple3dgs18MultiLayerRenderer29CreateRenderSorterDescriptorsENSt3__110shared_ptrIKNS_5AssetEEENS_17MultiLayerOptionsE, 
                       __ZN9apple3dgs18MultiLayerRenderer6RenderEPU27objcproto16MTLCommandBuffer11objc_objectNSt3__110shared_ptrIKNS_5AssetEEENS_17MultiLayerOptionsENS3_8functionIFvS2_jNS_14ConvertMXIFaceEPU21objcproto10MTLTexture11objc_objectSC_N4simd8float4x4EEEEPU15__autoreleasingP7NSError, 
                       __ZN9apple3dgs18MultiLayerRendererC2EPU19objcproto9MTLDevice11objc_object14MTLPixelFormatS3_PU15__autoreleasingP7NSError, 
                       __ZN9apple3dgs18MultiLayerRendererC2EPU19objcproto9MTLDevice11objc_objectNS_17MultiLayerOptionsE14MTLPixelFormatS4_PU15__autoreleasingP7NSError, 
                       __ZN9apple3dgs18MultiLayerRendererD0Ev, __ZN9apple3dgs18MultiLayerRendererD1Ev, 
                       __ZN9apple3dgs18MultiLayerRendererD2Ev, __ZN9apple3dgs18RowMajorToColMajorERKNSt3__16vectorIfNS0_9allocatorIfEEEERN4simd8float3x3E, 
                       __ZN9apple3dgs18RowMajorToColMajorERKNSt3__16vectorIfNS0_9allocatorIfEEEERN4simd8float4x4E, 
                       __ZN9apple3dgs18SplatVideoExporter12EncodeSplatsEPU26objcproto15MTLCommandQueue11objc_objectRKNS_5AssetEd, 
                       __ZN9apple3dgs18SplatVideoExporterC1EPU19objcproto9MTLDevice11objc_objectRKNSt3__14__fs10filesystem4pathERKNS0_7OptionsE, 
                       __ZN9apple3dgs18SplatVideoExporterC2EPU19objcproto9MTLDevice11objc_objectRKNSt3__14__fs10filesystem4pathERKNS0_7OptionsE, 
                       __ZN9apple3dgs18ToLinearColorSpaceEDv3_fNS_16TransferFunctionE, 
                       __ZN9apple3dgs18TransformGaussiansERDv3_fRDv4_fS1_RKN4simd8float4x4E, 
                       __ZN9apple3dgs18TransformGaussiansERKNS_9AttributeES2_S2_mRKN4simd8float4x4ENS_14ActivationTypeERS0_S8_S8_, 
                       __ZN9apple3dgs19CFDictionaryGetBoolEPK14__CFDictionaryPKv, 
                       __ZN9apple3dgs19EstimateBoundingBoxEPU19objcproto9MTLBuffer11objc_objectjRDv3_fS3_, 
                       __ZN9apple3dgs19FlipYAxisMTLTextureEPU21objcproto10MTLTexture11objc_objectS1_R12MetalContextPU27objcproto16MTLCommandBuffer11objc_object, 
                       __ZN9apple3dgs19GetTrackPixelFormatEP12AVAssetTrack, __ZN9apple3dgs19NDCDepthToRealDepthEPU21objcproto10MTLTexture11objc_objectS1_RK13simd_float4x4R12MetalContextPU27objcproto16MTLCommandBuffer11objc_object, 
                       __ZN9apple3dgs19NDCDepthToRealDepthEfRK13simd_float4x4, __ZN9apple3dgs19RealDepthToNDCDepthEfRK13simd_float4x4, 
                       __ZN9apple3dgs20CFDictionaryGetFloatEPK14__CFDictionaryPKv, 
                       __ZN9apple3dgs20GetRequiredAlignmentE18MTLAttributeFormat, 
                       __ZN9apple3dgs20TessellationEdgeSyncEPU19objcproto9MTLBuffer11objc_objectRKDv2_jR12MetalContextPU35objcproto24MTLComputeCommandEncoder11objc_object, 
                       __ZN9apple3dgs20UpdateIndirectBufferER12MetalContextPU27objcproto16MTLCommandBuffer11objc_objectPU19objcproto9MTLBuffer11objc_objectRK34MTLDrawPrimitivesIndirectArguments, 
                       __ZN9apple3dgs20UpdateIndirectBufferER12MetalContextPU27objcproto16MTLCommandBuffer11objc_objectPU19objcproto9MTLBuffer11objc_objectS5_, 
                       __ZN9apple3dgs20UpdateIndirectBufferER12MetalContextPU35objcproto24MTLComputeCommandEncoder11objc_objectPU19objcproto9MTLBuffer11objc_objectRK34MTLDrawPrimitivesIndirectArguments, 
                       __ZN9apple3dgs20UpdateIndirectBufferER12MetalContextPU35objcproto24MTLComputeCommandEncoder11objc_objectPU19objcproto9MTLBuffer11objc_objectS5_, 
                       __ZN9apple3dgs21CFDictionaryGetStringEPK14__CFDictionaryPKv, 
                       __ZN9apple3dgs21CreateNontrivialAssetEPU26objcproto15MTLCommandQueue11objc_objectjj, 
                       __ZN9apple3dgs21GetTemporaryDirectoryEv, __ZN9apple3dgs21ReduceThreadgroupSizeER12MetalContextSt16initializer_listI18MTLAttributeFormatES2_INS_10ReduceModeEE, 
                       __ZN9apple3dgs21ReduceThreadgroupSizeER12MetalContextbSt16initializer_listINS_10ReduceModeEE, 
                       __ZN9apple3dgs21TransformGaussiansGPUER12MetalContextPU27objcproto16MTLCommandBuffer11objc_objectRKNS_9AttributeES6_S6_mRKN4simd8float4x4ENS_14ActivationTypeERS4_SC_SC_m, 
                       __ZN9apple3dgs22FrontWeightedQuantilesEjff, __ZN9apple3dgs22SetTessellationFactorsEPU19objcproto9MTLBuffer11objc_objectRKDv2_jDF16_R12MetalContextPU35objcproto24MTLComputeCommandEncoder11objc_object, 
                       __ZN9apple3dgs23ComputePrimitiveIndicesER12MetalContextPU27objcproto16MTLCommandBuffer11objc_objectPU19objcproto9MTLBuffer11objc_objectS5_S5_j, 
                       __ZN9apple3dgs23ComputePrimitiveIndicesER12MetalContextPU35objcproto24MTLComputeCommandEncoder11objc_objectPU19objcproto9MTLBuffer11objc_objectS5_S5_j, 
                       __ZN9apple3dgs23ComputeRefinementWeightER12MetalContextPU27objcproto16MTLCommandBuffer11objc_objectPU21objcproto10MTLTexture11objc_objectS5_S5_b, 
                       __ZN9apple3dgs23CreateMemoryLessTextureEPU19objcproto9MTLDevice11objc_object14MTLPixelFormatDv2_jj, 
                       __ZN9apple3dgs23FindMetadataValueForKeyEPK7NSArrayRKNSt3__112basic_stringIcNS3_11char_traitsIcEENS3_9allocatorIcEEEE, 
                       __ZN9apple3dgs23PackTessellationFactorsEPU19objcproto9MTLBuffer11objc_objectPU21objcproto10MTLTexture11objc_objectRKDv2_jR12MetalContextPU35objcproto24MTLComputeCommandEncoder11objc_object, 
                       __ZN9apple3dgs24PeeledMultiLayerRenderer10RenderFaceEPU27objcproto16MTLCommandBuffer11objc_objectNSt3__110shared_ptrINS_5AssetEEERKNS_17MultiLayerOptionsERNS_15RenderDataCacheENS3_8functionIFvS2_jNS_14ConvertMXIFaceEPU21objcproto10MTLTexture11objc_objectSF_N4simd8float4x4EEEESD_NS4_INS_16RenderDescriptorEEENS4_INS_16SorterDescriptorEEEPU15__autoreleasingP7NSError, 
                       __ZN9apple3dgs24PeeledMultiLayerRenderer22AllocateRenderTexturesERKNS_17MultiLayerOptionsERKDv2_jS6_, 
                       __ZN9apple3dgs24PeeledMultiLayerRendererC1EPU19objcproto9MTLDevice11objc_object14MTLPixelFormatS3_PU15__autoreleasingP7NSError, 
                       __ZN9apple3dgs24PeeledMultiLayerRendererC1EPU19objcproto9MTLDevice11objc_objectNS_17MultiLayerOptionsE14MTLPixelFormatS4_PU15__autoreleasingP7NSError, 
                       __ZN9apple3dgs24PeeledMultiLayerRendererC2EPU19objcproto9MTLDevice11objc_object14MTLPixelFormatS3_PU15__autoreleasingP7NSError, 
                       __ZN9apple3dgs24PeeledMultiLayerRendererC2EPU19objcproto9MTLDevice11objc_objectNS_17MultiLayerOptionsE14MTLPixelFormatS4_PU15__autoreleasingP7NSError, 
                       __ZN9apple3dgs25GetRegularDepthBoundariesEjRKN4simd8float4x4E, 
                       __ZN9apple3dgs25TransformGaussiansInPlaceERNS_9AttributeES1_S1_mRKN4simd8float4x4ENS_14ActivationTypeE, 
                       __ZN9apple3dgs25UnpackTessellationFactorsEPU21objcproto10MTLTexture11objc_objectPU19objcproto9MTLBuffer11objc_objectbR12MetalContextPU35objcproto24MTLComputeCommandEncoder11objc_object, 
                       __ZN9apple3dgs25UpdateTessellationFactorsEPU19objcproto9MTLBuffer11objc_objectRKDv2_jS1_S1_jjfR12MetalContextPU35objcproto24MTLComputeCommandEncoder11objc_object, 
                       __ZN9apple3dgs26BestFitTessellationFactorsEPU21objcproto10MTLTexture11objc_objectS1_RKN4simd8float4x4EPU19objcproto9MTLBuffer11objc_objectS7_S7_S1_jjfR12MetalContextPU27objcproto16MTLCommandBuffer11objc_object, 
                       __ZN9apple3dgs26GetTrackProjectionMetadataEPK12AVAssetTrack, 
                       __ZN9apple3dgs27GetTrackCalibrationMetadataEPK12AVAssetTrack, 
                       __ZN9apple3dgs28GetMergedStereoFrustumPlanesERKNS_16RenderDescriptorE, 
                       __ZN9apple3dgs28TransformGaussiansInPlaceGPUER12MetalContextPU27objcproto16MTLCommandBuffer11objc_objectRNS_9AttributeERKS4_S7_mRKN4simd8float4x4ENS_14ActivationTypeES5_S5_m, 
                       __ZN9apple3dgs29PlanarSliceMultiLayerRenderer10RenderFaceEPU27objcproto16MTLCommandBuffer11objc_objectNSt3__110shared_ptrINS_5AssetEEERKNS_17MultiLayerOptionsERNS_15RenderDataCacheENS3_8functionIFvS2_jNS_14ConvertMXIFaceEPU21objcproto10MTLTexture11objc_objectSF_N4simd8float4x4EEEESD_NS4_INS_16RenderDescriptorEEENS4_INS_16SorterDescriptorEEEPU15__autoreleasingP7NSError, 
                       __ZN9apple3dgs29PlanarSliceMultiLayerRendererC1EPU19objcproto9MTLDevice11objc_object14MTLPixelFormatS3_PU15__autoreleasingP7NSError, 
                       __ZN9apple3dgs29PlanarSliceMultiLayerRendererC1EPU19objcproto9MTLDevice11objc_objectNS_17MultiLayerOptionsE14MTLPixelFormatS4_PU15__autoreleasingP7NSError, 
                       __ZN9apple3dgs29PlanarSliceMultiLayerRendererC2EPU19objcproto9MTLDevice11objc_object14MTLPixelFormatS3_PU15__autoreleasingP7NSError, 
                       __ZN9apple3dgs29PlanarSliceMultiLayerRendererC2EPU19objcproto9MTLDevice11objc_objectNS_17MultiLayerOptionsE14MTLPixelFormatS4_PU15__autoreleasingP7NSError, 
                       __ZN9apple3dgs31CGColorSpaceGetTransferFunctionEP12CGColorSpace, 
                       __ZN9apple3dgs31PlaneFitTessellationSubdivisionEPU21objcproto10MTLTexture11objc_objectS1_RKNS_25TessellationErrorUniformsEPU19objcproto9MTLBuffer11objc_objectS6_S6_R12MetalContextPU35objcproto24MTLComputeCommandEncoder11objc_object, 
                       __ZN9apple3dgs32CreateDepthBoundaryNearFarPlanesERKNSt3__16vectorIfNS0_9allocatorIfEEEE, 
                       __ZN9apple3dgs34CGColorSpaceCreateCopyWithSameNameEP12CGColorSpace, 
                       __ZN9apple3dgs34CGColorSpaceToRenderedCGColorSpaceEP12CGColorSpace, 
                       __ZN9apple3dgs34GetColorPropertiesFromCGColorSpaceEP12CGColorSpace, 
                       __ZN9apple3dgs36GetPixelTransformationFromMPIToImageERKN4simd8float3x3ES3_RKDv2_fS6_, 
                       __ZN9apple3dgs41ComputeDepthBoundariesFromUniformSamplingEjRKN4simd8float4x4E, 
                       __ZN9apple3dgs47CGColorSpaceCreateSRGBGamutWithTransferFunctionENS_16TransferFunctionE, 
                       __ZN9apple3dgs4det2Effff, __ZN9apple3dgs4det3ERKN4simd8float3x3E, 
                       __ZN9apple3dgs5Asset12TransformGPUEPU27objcproto16MTLCommandBuffer11objc_objectRKN4simd8float4x4EmPU15__autoreleasingP7NSError, 
                       __ZN9apple3dgs5Asset15ComputeCentroidEv, __ZN9apple3dgs5Asset18ComputeCentroidGPUEPU27objcproto16MTLCommandBuffer11objc_object, 
                       __ZN9apple3dgs5Asset21DecompressFreetimeGPUEPU27objcproto16MTLCommandBuffer11objc_objectf, 
                       __ZN9apple3dgs5Asset22UpdateFromCachedTvDataEv, __ZN9apple3dgs5Asset24ValidateAttributesFiniteEPU15__autoreleasingP7NSError, 
                       __ZN9apple3dgs5Asset26RecomputeAnimationDurationEv, __ZN9apple3dgs5Asset26ValidateAttributeAlignmentEPU15__autoreleasingP7NSError, 
                       __ZN9apple3dgs5Asset7PrepareENS_16ExtraPrepareStepEPU27objcproto16MTLCommandBuffer11objc_objectPU15__autoreleasingP7NSErrorb, 
                       __ZN9apple3dgs5Asset7PrepareEPU27objcproto16MTLCommandBuffer11objc_objectPU15__autoreleasingP7NSError, 
                       __ZN9apple3dgs5Asset9TransformEPU27objcproto16MTLCommandBuffer11objc_objectRKN4simd8float4x4EPU15__autoreleasingP7NSError, 
                       __ZN9apple3dgs5scopeE, __ZN9apple3dgs6Sorter13EncodeSortingEPU27objcproto16MTLCommandBuffer11objc_objectNSt3__14spanIKNS3_10shared_ptrIKNS_5AssetEEELm18446744073709551615EEENS5_IKNS_16SorterDescriptorEEENS5_IKNS_16RenderDescriptorEEEPU15__autoreleasingP7NSError, 
                       __ZN9apple3dgs6SorterC1EPU19objcproto9MTLDevice11objc_objectNSt3__14spanIKNS3_10shared_ptrIKNS_5AssetEEELm18446744073709551615EEENS5_IKNS_16SorterDescriptorEEERKNS_11ISortWorker10ParametersE, 
                       __ZN9apple3dgs6SorterC2EPU19objcproto9MTLDevice11objc_objectNSt3__14spanIKNS3_10shared_ptrIKNS_5AssetEEELm18446744073709551615EEENS5_IKNS_16SorterDescriptorEEERKNS_11ISortWorker10ParametersE, 
                       __ZN9apple3dgs6TVData7ParseTvERNSt3__113basic_istreamIcNS1_11char_traitsIcEEEEbb, 
                       __ZN9apple3dgs6TVData9LoadFrameEjPc, __ZN9apple3dgs6TVDataC1ERKNSt3__112basic_stringIcNS1_11char_traitsIcEENS1_9allocatorIcEEEEbib, 
                       __ZN9apple3dgs6TVDataC1ERKNSt3__112basic_stringIcNS1_11char_traitsIcEENS1_9allocatorIcEEEEjj, 
                       __ZN9apple3dgs6TVDataC2ERKNSt3__112basic_stringIcNS1_11char_traitsIcEENS1_9allocatorIcEEEEbib, 
                       __ZN9apple3dgs6TVDataC2ERKNSt3__112basic_stringIcNS1_11char_traitsIcEENS1_9allocatorIcEEEEjj, 
                       __ZN9apple3dgs6loadTvERKNSt3__14__fs10filesystem4pathEjPU19objcproto9MTLDevice11objc_objectRKNS_5Asset19AttributeDescriptorEPU15__autoreleasingP7NSError, 
                       __ZN9apple3dgs6resizeERKNSt3__16vectorIhNS0_9allocatorIhEEEEjjjjjRS4_, 
                       __ZN9apple3dgs7details14GetMetadataKeyERKNSt3__112basic_stringIcNS1_11char_traitsIcEENS1_9allocatorIcEEEE, 
                       __ZN9apple3dgs7details16GenerateMetadataERKN8nlohmann16json_abi_v3_11_310basic_jsonINSt3__13mapENS4_6vectorENS4_12basic_stringIcNS4_11char_traitsIcEENS4_9allocatorIcEEEEbxydSA_NS2_14adl_serializerENS6_IhNSA_IhEEEEvEERKSC_, 
                       __ZN9apple3dgs7details17AVStringForOSTypeEj, __ZN9apple3dgs7details21GenerateTimedMetadataERKN8nlohmann16json_abi_v3_11_310basic_jsonINSt3__13mapENS4_6vectorENS4_12basic_stringIcNS4_11char_traitsIcEENS4_9allocatorIcEEEEbxydSA_NS2_14adl_serializerENS6_IhNSA_IhEEEEvEERKSC_6CMTime, 
                       __ZN9apple3dgs7details23CreateTextureFromBufferEPU19objcproto9MTLDevice11objc_objectP10__CVBuffermm14MTLPixelFormat, 
                       __ZN9apple3dgs7details23stringForVideoCodecTypeEj, __ZN9apple3dgs7details24GetCvFormatFromMTLFormatERK14MTLPixelFormatPb, 
                       __ZN9apple3dgs7loadPlyERKNSt3__14__fs10filesystem4pathEPU19objcproto9MTLDevice11objc_objectRKNS_5Asset19AttributeDescriptorEPU15__autoreleasingP7NSError, 
                       __ZN9apple3dgs7savePlyERKNSt3__14__fs10filesystem4pathERKNS_5AssetE, 
                       __ZN9apple3dgs8Renderer12EncodeRenderEPU34objcproto23MTLRenderCommandEncoder11objc_objectRNS_7ISorterEP23MTLRenderPassDescriptorRKNS_16RenderDescriptorEPU15__autoreleasingP7NSError, 
                       __ZN9apple3dgs8Renderer15EncodeSplattingEPU27objcproto16MTLCommandBuffer11objc_objectRNS_7ISorterEP23MTLRenderPassDescriptorRKNS_16RenderDescriptorEPU15__autoreleasingP7NSError, 
                       __ZN9apple3dgs8Renderer16EncodeMeshRenderEPU34objcproto23MTLRenderCommandEncoder11objc_objectRNS_7ISorterEP23MTLRenderPassDescriptorRKNS_16RenderDescriptorEPU15__autoreleasingP7NSError, 
                       __ZN9apple3dgs8Renderer18UpdateViewMatricesERKNSt3__15arrayIN4simd8float4x4ELm2EEE, 
                       __ZN9apple3dgs8Renderer19BuildRenderPipelineERKNSt3__16vectorINS_15BlendingVariantENS1_9allocatorIS3_EEEEPU15__autoreleasingP7NSError, 
                       __ZN9apple3dgs8Renderer21BuildBlendingPipelineEPU21objcproto10MTLLibrary11objc_objectPU27objcproto16MTLBinaryArchive11objc_objectRKNSt3__16vectorINS_15BlendingVariantENS5_9allocatorIS7_EEEE14MTLPixelFormatSD_PU15__autoreleasingP7NSErrorm, 
                       __ZN9apple3dgs8Renderer25BuildMeshBlendingPipelineEPU21objcproto10MTLLibrary11objc_objectPU27objcproto16MTLBinaryArchive11objc_objectRKNSt3__16vectorINS_15BlendingVariantENS5_9allocatorIS7_EEEE14MTLPixelFormatSD_PU15__autoreleasingP7NSErrorm, 
                       __ZN9apple3dgs8RendererC1EPU19objcproto9MTLDevice11objc_object14MTLPixelFormatS3_mbPU15__autoreleasingP7NSError, 
                       __ZN9apple3dgs8RendererC1EPU19objcproto9MTLDevice11objc_objectRKNS0_10ParametersEPU15__autoreleasingP7NSError, 
                       __ZN9apple3dgs8RendererC1EPU19objcproto9MTLDevice11objc_objectRKNSt3__16vectorINS_15BlendingVariantENS3_9allocatorIS5_EEEERKNS0_10ParametersEPU15__autoreleasingP7NSError, 
                       __ZN9apple3dgs8RendererC2EPU19objcproto9MTLDevice11objc_object14MTLPixelFormatS3_mbPU15__autoreleasingP7NSError, 
                       __ZN9apple3dgs8RendererC2EPU19objcproto9MTLDevice11objc_objectRKNS0_10ParametersEPU15__autoreleasingP7NSError, 
                       __ZN9apple3dgs8RendererC2EPU19objcproto9MTLDevice11objc_objectRKNSt3__16vectorINS_15BlendingVariantENS3_9allocatorIS5_EEEERKNS0_10ParametersEPU15__autoreleasingP7NSError, 
                       __ZN9apple3dgs9BoxFilterER12MetalContextPU35objcproto24MTLComputeCommandEncoder11objc_objectPU21objcproto10MTLTexture11objc_objectS5_i, 
                       __ZN9apple3dgs9FindTrackEPK7NSArrayRKNSt3__112basic_stringIcNS3_11char_traitsIcEENS3_9allocatorIcEEEE, 
                       __ZN9apple3dgs9LoadImageEP7CIImagePU19objcproto9MTLDevice11objc_object14MTLPixelFormatP12CGColorSpace, 
                       __ZN9apple3dgs9MPSSorterC1E11MPSDataTypeb, __ZN9apple3dgs9MPSSorterC2E11MPSDataTypeb, 
                       __ZN9apple3dgs9SaveImageEPU21objcproto10MTLTexture11objc_objectP5NSURLNS_11kFileFormatEP12CGColorSpaceP7NSError, 
                       __ZN9apple3dgs9SaveImageEPU21objcproto10MTLTexture11objc_objectRKNSt3__14__fs10filesystem4pathEP12CGColorSpaceP7NSError, 
                       __ZN9apple3dgs9TVBuilder12SetFrameDataEjjRKNS_12TVGaussianV1E, 
                       __ZN9apple3dgs9TVBuilder17UpdateDepthBoundsEf, __ZN9apple3dgs9TVBuilder18SetStaticColorDataEjRKNSt3__15arrayIDF16_Lm3EEE, 
                       __ZN9apple3dgs9TVBuilder8SaveFileERKNSt3__112basic_stringIcNS1_11char_traitsIcEENS1_9allocatorIcEEEEj, 
                       __ZN9apple3dgs9TVBuilder9SetCameraERKNS_8TVCameraE, __ZN9apple3dgs9TVBuilderC1Ejjf, 
                       __ZN9apple3dgs9TVBuilderC1Ejjfj, __ZN9apple3dgs9TVBuilderC2Ejjf, 
                       __ZN9apple3dgs9TVBuilderC2Ejjfj, __ZN9apple3dgslsERNSt3__113basic_ostreamIcNS0_11char_traitsIcEEEERKDv3_DF16_, 
                       __ZN9apple3dgslsERNSt3__113basic_ostreamIcNS0_11char_traitsIcEEEERKDv3_f, 
                       __ZN9apple3dgslsERNSt3__113basic_ostreamIcNS0_11char_traitsIcEEEERKDv4_DF16_, 
                       __ZN9apple3dgslsERNSt3__113basic_ostreamIcNS0_11char_traitsIcEEEERKDv4_f, 
                       __ZN9apple3dgslsERNSt3__113basic_ostreamIcNS0_11char_traitsIcEEEERKN4simd8float3x3E, 
                       __ZN9apple3dgslsERNSt3__113basic_ostreamIcNS0_11char_traitsIcEEEERKN4simd8float4x4E, 
                       __ZN9apple3dgslsERNSt3__113basic_ostreamIcNS0_11char_traitsIcEEEERKNS_16RenderDescriptorE, 
                       __ZN9apple3dgslsERNSt3__113basic_ostreamIcNS0_11char_traitsIcEEEERKNS_16SorterDescriptorE, 
                       __ZN9apple3dgslsERNSt3__113basic_ostreamIcNS0_11char_traitsIcEEEERKNS_17MultiLayerOptionsE, 
                       __ZN9apple3dgslsERNSt3__113basic_ostreamIcNS0_11char_traitsIcEEEERKNS_5Asset10PropertiesE, 
                       __ZN9apple3dgslsERNSt3__113basic_ostreamIcNS0_11char_traitsIcEEEERKNS_5Asset8DefaultsE, 
                       __ZN9apple3dgslsERNSt3__113basic_ostreamIcNS0_11char_traitsIcEEEERKNS_5AssetE, 
                       __ZNK4cv3d9aspenbase11concurrency12AsyncManager3ForEmNSt3__18functionIFvmEEEm, 
                       __ZNK4cv3d9aspenbase11concurrency12AsyncManager3ForEmNSt3__18functionIFvmRNS2_13ThreadContextEEEEm, 
                       __ZNK4cv3d9aspenbase11concurrency12AsyncManager4WaitEv, __ZNK4cv3d9aspenbase11concurrency12AsyncManager5FlushEv, 
                       __ZNK4cv3d9aspenbase11concurrency12AsyncManager5StartEm, __ZNK4cv3d9aspenbase11concurrency12AsyncManager8AsyncForEmNSt3__18functionIFvmEEEm, 
                       __ZNK4cv3d9aspenbase11concurrency12AsyncManager8AsyncForEmNSt3__18functionIFvmRNS2_13ThreadContextEEEEm, 
                       __ZNK9apple3dgs11ISortWorker16GetInstanceCountEv, __ZNK9apple3dgs11ISortWorker19GetRenderingBuffersEv, 
                       __ZNK9apple3dgs11PeeledAsset14GetAspectRatioEv, __ZNK9apple3dgs11PeeledAsset14GetVerticalFOVEv, 
                       __ZNK9apple3dgs12FreetimeData10UnpackTimeEjRKNSt3__15arrayIfLm2EEES5_, 
                       __ZNK9apple3dgs12FreetimeData11UnpackColorEjRKNSt3__15arrayIfLm3EEES5_, 
                       __ZNK9apple3dgs12FreetimeData11UnpackScaleEjRKNSt3__15arrayIfLm3EEES5_, 
                       __ZNK9apple3dgs12FreetimeData13UpdateOpacityEfff, __ZNK9apple3dgs12FreetimeData14UnpackPositionEjRKNSt3__15arrayIfLm3EEES5_, 
                       __ZNK9apple3dgs12FreetimeData14UnpackRotationEj, __ZNK9apple3dgs12FreetimeData14UnpackVelocityEjRKNSt3__15arrayIfLm3EEES5_, 
                       __ZNK9apple3dgs12FreetimeData14UpdatePositionEfRKDv3_fS3_f, 
                       __ZNK9apple3dgs12FreetimeData18GetGaussiansAtTimeEf, __ZNK9apple3dgs13VRRDensityMap10GetTextureEv, 
                       __ZNK9apple3dgs14MultiLayerData12GetRealDepthEjj, __ZNK9apple3dgs14MultiLayerData13GetColorArrayEjjj, 
                       __ZNK9apple3dgs14MultiLayerData13GetDepthArrayEjjj, __ZNK9apple3dgs14MultiLayerData17GetHeapDescriptorERKNS_17MultiLayerOptionsE, 
                       __ZNK9apple3dgs14MultiLayerData20GetColorIntermediateEjj, 
                       __ZNK9apple3dgs14MultiLayerData20GetDepthIntermediateEjj, 
                       __ZNK9apple3dgs14MultiLayerData22GetRGBAArrayDescriptorEjjj, 
                       __ZNK9apple3dgs14MultiLayerData22GetRealDepthDescriptorEjj, 
                       __ZNK9apple3dgs14MultiLayerData22GetRefinementWeightmapEjj, 
                       __ZNK9apple3dgs14MultiLayerData23GetDepthArrayDescriptorEjjj, 
                       __ZNK9apple3dgs14MultiLayerData25GetColorArrayIntermediateEjjj, 
                       __ZNK9apple3dgs14MultiLayerData25GetDepthArrayIntermediateEjjj, 
                       __ZNK9apple3dgs14MultiLayerData29GetRGBAIntermediateDescriptorEjj, 
                       __ZNK9apple3dgs14MultiLayerData30GetDepthIntermediateDescriptorEjj, 
                       __ZNK9apple3dgs14MultiLayerData32GetRefinementWeightmapDescriptorEjj, 
                       __ZNK9apple3dgs14MultiLayerData34GetRGBAIntermediateArrayDescriptorEjjj, 
                       __ZNK9apple3dgs14MultiLayerData35GetDepthIntermediateArrayDescriptorEjjj, 
                       __ZNK9apple3dgs14PeeledRenderer12EncodeRenderEPU27objcproto16MTLCommandBuffer11objc_objectRNS_11PeeledAssetEP23MTLRenderPassDescriptor13simd_float4x4RKNS_22PeeledRenderDescriptorE, 
                       __ZNK9apple3dgs14PeeledRenderer21EncodeTransparentPassEPU34objcproto23MTLRenderCommandEncoder11objc_objectRNS_11PeeledAssetEP23MTLRenderPassDescriptor13simd_float4x4RKNS_22PeeledRenderDescriptorE, 
                       __ZNK9apple3dgs14PeeledRenderer25GetImageblockSampleLengthEv, 
                       __ZNK9apple3dgs14PostAlphaBlend6EncodeEPU34objcproto23MTLRenderCommandEncoder11objc_objectRKNS_18DeferredUniformsFSERKNS_16RenderDescriptorEP23MTLRenderPassDescriptorjPU15__autoreleasingP7NSError, 
                       __ZNK9apple3dgs15BlendingVariant20GetFunctionConstantsEv, 
                       __ZNK9apple3dgs15FreetimeBuilder16GetExpectedColorEj, __ZNK9apple3dgs15FreetimeBuilder16GetExpectedScaleEj, 
                       __ZNK9apple3dgs15FreetimeBuilder18GetExpectedOpacityEj, __ZNK9apple3dgs15FreetimeBuilder19GetExpectedPositionEj, 
                       __ZNK9apple3dgs15FreetimeBuilder19GetExpectedRotationEj, __ZNK9apple3dgs15FreetimeBuilder8SaveFileERKNSt3__112basic_stringIcNS1_11char_traitsIcEENS1_9allocatorIcEEEE, 
                       __ZNK9apple3dgs15TextureExporter8HasTrackERKNSt3__112basic_stringIcNS1_11char_traitsIcEENS1_9allocatorIcEEEE, 
                       __ZNK9apple3dgs16SplatVideoLoader11GetDurationEv, __ZNK9apple3dgs16SplatVideoLoader18GetDurationSecondsEv, 
                       __ZNK9apple3dgs16SplatVideoLoader6GetFPSERKNSt3__112basic_stringIcNS1_11char_traitsIcEENS1_9allocatorIcEEEE, 
                       __ZNK9apple3dgs16SplatVideoLoader7GetSizeERKNSt3__112basic_stringIcNS1_11char_traitsIcEENS1_9allocatorIcEEEE, 
                       __ZNK9apple3dgs17PostAlphaBlendSim6EncodeEPU34objcproto23MTLRenderCommandEncoder11objc_objectRKNS_18DeferredUniformsFSERKNS_16RenderDescriptorEP23MTLRenderPassDescriptorjPU15__autoreleasingP7NSError, 
                       __ZNK9apple3dgs19PostBlendingVariant20GetFunctionConstantsEv, 
                       __ZNK9apple3dgs5AOTFR6EncodeEPU34objcproto23MTLRenderCommandEncoder11objc_objectRKNS_18DeferredUniformsFSERKNS_16RenderDescriptorEP23MTLRenderPassDescriptorjPU15__autoreleasingP7NSError, 
                       __ZNK9apple3dgs5Asset13CreateAtlasesEPU27objcproto16MTLCommandBuffer11objc_objectRNSt3__15arrayIU8__strongPU21objcproto10MTLTexture11objc_objectLm2EEE, 
                       __ZNK9apple3dgs5Asset13UnPackAtlasesEPU27objcproto16MTLCommandBuffer11objc_objectRKNSt3__15arrayIU8__strongPU21objcproto10MTLTexture11objc_objectLm2EEE, 
                       __ZNK9apple3dgs5Asset8DeepCopyEPU15__autoreleasingP7NSError, 
                       __ZNK9apple3dgs8Renderer16EncodePostRenderEPU34objcproto23MTLRenderCommandEncoder11objc_objectRNS_7ISorterEP23MTLRenderPassDescriptorRKNS_16RenderDescriptorEPU15__autoreleasingP7NSError, 
                       __ZNK9apple3dgs8Renderer17UpdateSorterRangeEPU27objcproto16MTLCommandBuffer11objc_objectRNS_7ISorterERKNS_16RenderDescriptorE, 
                       __ZNK9apple3dgs8Renderer26CreateRenderPassDescriptorEPU21objcproto10MTLTexture11objc_objectS2_PU34objcproto23MTLRasterizationRateMap11objc_object13MTLLoadActionS5_, 
                       __ZNK9apple3dgs8Renderer26CreateRenderPassDescriptorEPU21objcproto10MTLTexture11objc_objectS2_S2_S2_PU34objcproto23MTLRasterizationRateMap11objc_object13MTLLoadActionS5_, 
                       __ZNK9apple3dgs8Renderer28CreateDeferredRenderPipelineEPU27objcproto16MTLBinaryArchive11objc_objectPU22objcproto11MTLFunction11objc_objectS4_RKNS_19PostBlendingVariantEPU15__autoreleasingP7NSError, 
                       __ZNK9apple3dgs8Renderer37CreateAOTFRMaskedRenderPassDescriptorEPU21objcproto10MTLTexture11objc_objectS2_PU34objcproto23MTLRasterizationRateMap11objc_object13MTLLoadActionS5_, 
                       __ZNK9apple3dgs9MPSSorter7ArgSortEPU27objcproto16MTLCommandBuffer11objc_objectPU19objcproto9MTLBuffer11objc_objectS4_j, 
                       __ZNK9apple3dgs9TVBuilder14GetFrameDataV1Ejj, __ZNK9apple3dgs9TVBuilder14GetFrameDataV2Ejj, 
                       __ZNK9apple3dgs9TVBuilder18GetStaticColorDataEj, __ZTIN4cv3d9aspenbase11concurrency6Thread19ThreadFuncInterfaceE, 
                       __ZTIN4cv3d9aspenbase11concurrency6ThreadE, __ZTIN9apple3dgs11MOVExporterE, 
                       __ZTIN9apple3dgs12UniqueSorterE, __ZTIN9apple3dgs13CPUSortWorkerE, 
                       __ZTIN9apple3dgs13GPUSortWorkerE, __ZTIN9apple3dgs14PostAlphaBlendE, 
                       __ZTIN9apple3dgs15TextureExporterE, __ZTIN9apple3dgs17PostAlphaBlendSimE, 
                       __ZTIN9apple3dgs18MultiLayerRendererE, __ZTIN9apple3dgs24PeeledMultiLayerRendererE, 
                       __ZTIN9apple3dgs29PlanarSliceMultiLayerRendererE, __ZTIN9apple3dgs5AOTFRE, 
                       __ZTIN9apple3dgs6SorterE, __ZTSN4cv3d9aspenbase11concurrency6Thread19ThreadFuncInterfaceE, 
                       __ZTSN4cv3d9aspenbase11concurrency6ThreadE, __ZTSN9apple3dgs11MOVExporterE, 
                       __ZTSN9apple3dgs12UniqueSorterE, __ZTSN9apple3dgs13CPUSortWorkerE, 
                       __ZTSN9apple3dgs13GPUSortWorkerE, __ZTSN9apple3dgs14PostAlphaBlendE, 
                       __ZTSN9apple3dgs15TextureExporterE, __ZTSN9apple3dgs17PostAlphaBlendSimE, 
                       __ZTSN9apple3dgs18MultiLayerRendererE, __ZTSN9apple3dgs24PeeledMultiLayerRendererE, 
                       __ZTSN9apple3dgs29PlanarSliceMultiLayerRendererE, __ZTSN9apple3dgs5AOTFRE, 
                       __ZTSN9apple3dgs6SorterE, __ZTVN4cv3d9aspenbase11concurrency6Thread19ThreadFuncInterfaceE, 
                       __ZTVN4cv3d9aspenbase11concurrency6ThreadE, __ZTVN9apple3dgs11MOVExporterE, 
                       __ZTVN9apple3dgs12UniqueSorterE, __ZTVN9apple3dgs13CPUSortWorkerE, 
                       __ZTVN9apple3dgs13GPUSortWorkerE, __ZTVN9apple3dgs14PostAlphaBlendE, 
                       __ZTVN9apple3dgs15TextureExporterE, __ZTVN9apple3dgs17PostAlphaBlendSimE, 
                       __ZTVN9apple3dgs18MultiLayerRendererE, __ZTVN9apple3dgs24PeeledMultiLayerRendererE, 
                       __ZTVN9apple3dgs29PlanarSliceMultiLayerRendererE, __ZTVN9apple3dgs5AOTFRE, 
                       __ZTVN9apple3dgs6SorterE, __gs_log ]
    objc-classes:    [ GSAsset, GSConvertMXIOption, GSLayerData, GSLayeredBakingOptions, 
                       GSLayeredExporter, GSLayeredImageSaver, GSLayeredVideoRecorder, 
                       GSMultiLayerRenderer, GSPeeledAsset, GSPeeledRenderDescriptor, 
                       GSPeeledRenderer, GSRenderDescriptor, GSRenderer, GSSorter, 
                       GSSorterDescriptor, GSSplatVideoExporter, GSSplatVideoExporterOptions, 
                       LayerData, RendererDummy ]
    weak-symbols:    [ __ZN9apple3dgs18GetDepthBoundariesIfEENSt3__16vectorIDv2_fNS1_9allocatorIS3_EEEENS_27AdaptiveLayerSamplingMethodEjRKN4simd8float4x4ERKNS_8Buffer2DIT_EEff, 
                       __ZN9apple3dgs19SplatVideoConstants7kSplat0E, __ZN9apple3dgs3SVDIdEENSt3__15tupleIJN4simd6MatrixIT_Lm3ELm3EE4typeENS3_6VectorIS5_Lm3EE4typeES7_EEERKS7_, 
                       __ZN9apple3dgs3SVDIfEENSt3__15tupleIJN4simd6MatrixIT_Lm3ELm3EE4typeENS3_6VectorIS5_Lm3EE4typeES7_EEERKS7_, 
                       __ZN9apple3dgs44ComputeDepthBoundariesFromImportanceSamplingIfEENSt3__16vectorIfNS1_9allocatorIfEEEEjRKN4simd8float4x4ERKNS_8Buffer2DIT_EEff, 
                       __ZN9apple3dgs9TextureIO10kImageSizeE, __ZN9apple3dgs9TextureIO10kNearPlaneE, 
                       __ZN9apple3dgs9TextureIO11kAOTFRTrackE, __ZN9apple3dgs9TextureIO11kColorSpaceE, 
                       __ZN9apple3dgs9TextureIO12kPixelFormatE, __ZN9apple3dgs9TextureIO14kMetadataTrackE, 
                       __ZN9apple3dgs9TextureIO17kProjectionMatrixE, __ZN9apple3dgs9TextureIO18kOriginalTimestampE, 
                       __ZN9apple3dgs9TextureIO19kEncodedPixelFormatE, __ZN9apple3dgs9TextureIO9kFarPlaneE, 
                       __ZNSt3__119piecewise_constructE ]
--- !tapi-tbd
tbd-version:     4
targets:         [ x86_64-macos, arm64e-macos ]
install-name:    '/System/Library/PrivateFrameworks/Vista.framework/Versions/A/Vista'
current-version: 0
compatibility-version: 0
exports:
  - targets:         [ x86_64-macos ]
    weak-symbols:    [ __ZTIN3vst4core17OffScreenRendererE, __ZTIN3vst5splat12BaseRendererE, 
                       __ZTIN3vst5splat19PrimitiveRasterizerE, __ZTINSt3__120__shared_ptr_emplaceIN3vst4core14DebugQueueImplENS_9allocatorIS3_EEEE, 
                       __ZTINSt3__120__shared_ptr_emplaceIN3vst5splat10VolumeDataENS_9allocatorIS3_EEEE, 
                       __ZTINSt3__120__shared_ptr_emplaceIN3vst5splat11TextureDataENS_9allocatorIS3_EEEE, 
                       __ZTINSt3__120__shared_ptr_pointerIPN3vst4core10DebugQueueENS_10shared_ptrIS3_E27__shared_ptr_default_deleteIS3_S3_EENS_9allocatorIS3_EEEE, 
                       __ZTSN3vst4core17OffScreenRendererE, __ZTSN3vst5splat12BaseRendererE, 
                       __ZTSN3vst5splat19PrimitiveRasterizerE, __ZTSNSt3__110shared_ptrIN3vst4core10DebugQueueEE27__shared_ptr_default_deleteIS3_S3_EE, 
                       __ZTSNSt3__120__shared_ptr_emplaceIN3vst4core14DebugQueueImplENS_9allocatorIS3_EEEE, 
                       __ZTSNSt3__120__shared_ptr_emplaceIN3vst5splat10VolumeDataENS_9allocatorIS3_EEEE, 
                       __ZTSNSt3__120__shared_ptr_emplaceIN3vst5splat11TextureDataENS_9allocatorIS3_EEEE, 
                       __ZTSNSt3__120__shared_ptr_pointerIPN3vst4core10DebugQueueENS_10shared_ptrIS3_E27__shared_ptr_default_deleteIS3_S3_EENS_9allocatorIS3_EEEE ]
  - targets:         [ x86_64-macos, arm64e-macos ]
    symbols:         [ _VSTForceMissingSymbolsToBeLinked, _VistaVersionNumber, _VistaVersionString, 
                       __Z26__VSTCoreLogSharedInstancev, __Z28__VSTCoreLogVerboseSignpostsv, 
                       __ZN3vst10controller10ServerImpl11_checkQueryERKNS0_5QueryE, 
                       __ZN3vst10controller10ServerImpl12processQueryERKNS0_5QueryE, 
                       __ZN3vst10controller10ServerImpl13_fetchUpdatesEP5NSSetIP8NSStringE, 
                       __ZN3vst10controller10ServerImpl15_applyOverridesEP12NSDictionary, 
                       __ZN3vst10controller10ServerImpl15connectToClientEv, __ZN3vst10controller10ServerImpl19_updateClientStatusERKNS0_5QueryE, 
                       __ZN3vst10controller10ServerImpl20disconnectFromClientEP8NSString, 
                       __ZN3vst10controller10ServerImpl4initEv, __ZN3vst10controller10ServerImpl9_pollLoopEv, 
                       __ZN3vst10controller10ServerImplD1Ev, __ZN3vst10controller10ServerImplD2Ev, 
                       __ZN3vst10controller13CLIClientImpl11pollUpdatesEv, __ZN3vst10controller13CLIClientImpl13onServerReplyERKNS0_5ReplyE, 
                       __ZN3vst10controller13CLIClientImpl16_checkCreateInfoERKNS0_9CLIClient10CreateInfoE, 
                       __ZN3vst10controller13CLIClientImpl20_pollIncomingQueriesEv, 
                       __ZN3vst10controller13CLIClientImpl22_updateConnectionStateEP12NSDictionary, 
                       __ZN3vst10controller13CLIClientImpl4initERKNS0_9CLIClient10CreateInfoE, 
                       __ZN3vst10controller13LiteHUDClient13onServerReplyEP12NSDictionary, 
                       __ZN3vst10controller13LiteHUDClient6createEv, __ZN3vst10controller13LiteHUDClientC1Ev, 
                       __ZN3vst10controller13LiteHUDClientC2Ev, __ZN3vst10controller13LiteHUDClientD1Ev, 
                       __ZN3vst10controller13LiteHUDClientD2Ev, __ZN3vst10controller17LiteHUDClientImpl13onServerReplyEP12NSDictionary, 
                       __ZN3vst10controller17LiteHUDClientImpl17_connectToLiteHUDEPNS0_6UnsafeE, 
                       __ZN3vst10controller17LiteHUDClientImpl17_resumeConnectionEv, 
                       __ZN3vst10controller17LiteHUDClientImpl18_suspendConnectionEv, 
                       __ZN3vst10controller17LiteHUDClientImpl20_onUpdateClientStateEP7NSArray, 
                       __ZN3vst10controller17LiteHUDClientImpl21_onClientDisconnectedEP8NSString, 
                       __ZN3vst10controller17LiteHUDClientImpl21_onNewClientConnectedEP8NSString, 
                       __ZN3vst10controller17LiteHUDClientImpl4initEv, __ZN3vst10controller17LiteHUDClientImplD1Ev, 
                       __ZN3vst10controller17LiteHUDClientImplD2Ev, __ZN3vst10controller26ProxyRendererCreateOptionseqERKS1_, 
                       __ZN3vst10controller28encodeUpdateDataToDictionaryERKNS0_23ProxyRendererUpdateDataE, 
                       __ZN3vst10controller29makeDrawOptionsFromDictionaryEP12NSDictionary, 
                       __ZN3vst10controller30decodeUpdateDataFromDictionaryEP12NSDictionary, 
                       __ZN3vst10controller31makeCreateOptionsFromDictionaryEP12NSDictionary, 
                       __ZN3vst10controller34makeRecordingOptionsFromDictionaryEP12NSDictionary, 
                       __ZN3vst10controller6Server12processQueryERKNS0_5QueryE, __ZN3vst10controller6Server15connectToClientEv, 
                       __ZN3vst10controller6Server20disconnectFromClientEP8NSString, 
                       __ZN3vst10controller6Server6createEv, __ZN3vst10controller6ServerC1Ev, 
                       __ZN3vst10controller6ServerC2Ev, __ZN3vst10controller6ServerD1Ev, 
                       __ZN3vst10controller6ServerD2Ev, __ZN3vst10controller9CLIClient11pollUpdatesEv, 
                       __ZN3vst10controller9CLIClient13onServerReplyERKNS0_5ReplyE, 
                       __ZN3vst10controller9CLIClient6createERKNS1_10CreateInfoE, 
                       __ZN3vst10controller9CLIClientC1Ev, __ZN3vst10controller9CLIClientC2Ev, 
                       __ZN3vst10controller9CLIClientD1Ev, __ZN3vst10controller9CLIClientD2Ev, 
                       __ZN3vst3api13makeLayerDataEP25VSTProxyRendererLayerData, 
                       __ZN3vst3api17makeCreateInfoAPIERKNS_5splat13ProxyRenderer10CreateInfoEP8NSStringm, 
                       __ZN3vst3api17makeTextureBoundsEP29VSTProxyRendererTextureBounds, 
                       __ZN3vst3api17makeUpdateInfoAPIERKNS_5splat13ProxyRenderer10UpdateInfoEb, 
                       __ZN3vst3api17makeVisibleSplatsEP29VSTProxyRendererVisibleSplats, 
                       __ZN3vst3api18applyToDrawOptionsERKNS_10controller24ProxyRendererDrawOptionsERNS_5splat12BaseRenderer11DrawOptionsE, 
                       __ZN3vst3api20applyToCreateOptionsERKNS_10controller26ProxyRendererCreateOptionsERNS_5splat13ProxyRenderer10CreateInfoE, 
                       __ZN3vst3api21applyToCullingOptionsERKNS_10controller24ProxyRendererDrawOptionsERNS_5splat12BaseRenderer14CullingOptionsE, 
                       __ZN3vst3api23applyToSplattingOptionsERKNS_10controller24ProxyRendererDrawOptionsERNS_5splat13ProxyRenderer16SplattingOptionsE, 
                       __ZN3vst4core10DebugQueue11addTriangleERKNS1_13DebugTriangleE, 
                       __ZN3vst4core10DebugQueue14add3DTransformERKNS1_16Debug3DTransformE, 
                       __ZN3vst4core10DebugQueue16addConeWireframeERKNS1_9DebugConeE, 
                       __ZN3vst4core10DebugQueue5clearEv, __ZN3vst4core10DebugQueue6addBoxERKNS1_8DebugBoxE, 
                       __ZN3vst4core10DebugQueue6createERKNS1_10CreateInfoE, __ZN3vst4core10DebugQueue7addLineERKNS1_9DebugLineE, 
                       __ZN3vst4core10DebugQueue8addErrorERKNS1_10DebugErrorE, __ZN3vst4core10DebugQueue8addPointERKNS1_10DebugPointE, 
                       __ZN3vst4core10DebugQueue9addCameraERKNS1_11DebugCameraE, 
                       __ZN3vst4core10DebugQueue9addSphereERKNS1_11DebugSphereE, 
                       __ZN3vst4core10DebugQueueC1Ev, __ZN3vst4core10DebugQueueC2Ev, 
                       __ZN3vst4core10DebugQueueD1Ev, __ZN3vst4core10DebugQueueD2Ev, 
                       __ZN3vst4core11memoryUsageEv, __ZN3vst4core12MemoryBuffer5_initEPcS2_, 
                       __ZN3vst4core12MemoryBuffer7seekoffExNSt3__18ios_base7seekdirEj, 
                       __ZN3vst4core12MemoryBuffer7seekposENSt3__14fposI11__mbstate_tEEj, 
                       __ZN3vst4core12MemoryBufferC1EP6NSData, __ZN3vst4core12MemoryBufferC1EPcS2_, 
                       __ZN3vst4core12MemoryBufferC2EP6NSData, __ZN3vst4core12MemoryBufferC2EPcS2_, 
                       __ZN3vst4core12extractZNearERKN4simd8float4x4E, __ZN3vst4core13DebugRenderer6createERKNS1_10CreateInfoE, 
                       __ZN3vst4core13DebugRenderer6updateERKNS1_10UpdateInfoE, __ZN3vst4core13DebugRendererC1Ev, 
                       __ZN3vst4core13DebugRendererC2Ev, __ZN3vst4core13DebugRendererD1Ev, 
                       __ZN3vst4core13DebugRendererD2Ev, __ZN3vst4core13getCounterSetEPU19objcproto9MTLDevice11objc_objectP8NSString, 
                       __ZN3vst4core13mergeFrustumsEN4simd8float4x4EDv2_fRKNSt3__14spanIKNS0_11FrustumInfoELm18446744073709551615EEE, 
                       __ZN3vst4core14DebugQueueImpl11addTriangleERKNS0_10DebugQueue13DebugTriangleE, 
                       __ZN3vst4core14DebugQueueImpl12_addBoxSolidERKNS0_10DebugQueue8DebugBoxE, 
                       __ZN3vst4core14DebugQueueImpl13_reserveLinesEm, __ZN3vst4core14DebugQueueImpl14_reservePointsEm, 
                       __ZN3vst4core14DebugQueueImpl14add3DTransformERKNS0_10DebugQueue16Debug3DTransformE, 
                       __ZN3vst4core14DebugQueueImpl15_addSphereSolidERKNS0_10DebugQueue11DebugSphereE, 
                       __ZN3vst4core14DebugQueueImpl16_addBoxWireframeERKNS0_10DebugQueue8DebugBoxE, 
                       __ZN3vst4core14DebugQueueImpl16_addPolygonStripERKNSt3__14spanI13packed_float3Lm18446744073709551615EEEDv4_f, 
                       __ZN3vst4core14DebugQueueImpl16_checkCreateInfoERKNS0_10DebugQueue10CreateInfoE, 
                       __ZN3vst4core14DebugQueueImpl16addConeWireframeERKNS0_10DebugQueue9DebugConeE, 
                       __ZN3vst4core14DebugQueueImpl17_reserveTrianglesEm, __ZN3vst4core14DebugQueueImpl18_resizeBufferToFitEPU19objcproto9MTLDevice11objc_objectPU19objcproto9MTLBuffer11objc_objectm, 
                       __ZN3vst4core14DebugQueueImpl19_addSphereWireframeERKNS0_10DebugQueue11DebugSphereE, 
                       __ZN3vst4core14DebugQueueImpl4initERKNS0_10DebugQueue10CreateInfoE, 
                       __ZN3vst4core14DebugQueueImpl5clearEv, __ZN3vst4core14DebugQueueImpl6addBoxERKNS0_10DebugQueue8DebugBoxE, 
                       __ZN3vst4core14DebugQueueImpl7addLineERKNS0_10DebugQueue9DebugLineE, 
                       __ZN3vst4core14DebugQueueImpl8addErrorERKNS0_10DebugQueue10DebugErrorE, 
                       __ZN3vst4core14DebugQueueImpl8addPointERKNS0_10DebugQueue10DebugPointE, 
                       __ZN3vst4core14DebugQueueImpl9addCameraERKNS0_10DebugQueue11DebugCameraE, 
                       __ZN3vst4core14DebugQueueImpl9addSphereERKNS0_10DebugQueue11DebugSphereE, 
                       __ZN3vst4core14makeProjectionERKNS0_17ProjectionInfoFOVE, 
                       __ZN3vst4core14makeProjectionERKNS0_22ProjectionInfoTangentsE, 
                       __ZN3vst4core15MemoryFootprint5toMiBEy, __ZN3vst4core15computeViewportERKN4simd8float4x4EfRKDv2_tS7_, 
                       __ZN3vst4core15dumpDebugObjectEP11objc_objectP8NSStringS4_b, 
                       __ZN3vst4core15dumpDebugObjectEP11objc_objectP8NSStringb, 
                       __ZN3vst4core15extractTangentsERKN4simd8float4x4E, __ZN3vst4core15getMetalLibraryEPU19objcproto9MTLDevice11objc_object, 
                       __ZN3vst4core16MetalBufferCache6bufferEP9IOSurfacePU19objcproto9MTLDevice11objc_object, 
                       __ZN3vst4core16MetalBufferCacheC1Em, __ZN3vst4core16MetalBufferCacheC2Em, 
                       __ZN3vst4core16computeBoxZRangeERKDv3_fS3_RKN4simd8float4x4E, 
                       __ZN3vst4core17DebugRendererImpl14_checkDrawInfoERKNS0_13DebugRenderer8DrawInfoE, 
                       __ZN3vst4core17DebugRendererImpl16_checkCreateInfoERKNS0_13DebugRenderer10CreateInfoE, 
                       __ZN3vst4core17DebugRendererImpl16_checkUpdateInfoERKNS0_13DebugRenderer10UpdateInfoEjNS0_17OffScreenRenderer6LayoutE, 
                       __ZN3vst4core17DebugRendererImpl21_createRenderPipelineEPU21objcproto10MTLLibrary11objc_object14MTLPixelFormatS4_NS1_13PrimitiveTypeE, 
                       __ZN3vst4core17DebugRendererImpl4initERKNS0_13DebugRenderer10CreateInfoE, 
                       __ZN3vst4core17DebugRendererImpl6updateERKNS0_13DebugRenderer10UpdateInfoE, 
                       __ZN3vst4core17OffScreenRenderer14_checkViewInfoERKNS1_8ViewInfoE, 
                       __ZN3vst4core17OffScreenRenderer16_checkStaticInfoERKNS1_10StaticInfoE, 
                       __ZN3vst4core17OffScreenRenderer16_checkUpdateInfoERKNS1_10UpdateInfoE, 
                       __ZN3vst4core17OffScreenRenderer22_checkRenderTargetInfoERKNS1_16RenderTargetInfoE, 
                       __ZN3vst4core17PipelineStateDump13FunctionCacheC1Ev, __ZN3vst4core17PipelineStateDump13FunctionCacheC2Ev, 
                       __ZN3vst4core17PipelineStateDump17addRenderPipelineERKNS0_29MetalRenderPipelineDescriptorEP8NSString, 
                       __ZN3vst4core17PipelineStateDump18addComputePipelineERKNS0_30MetalComputePipelineDescriptorEP8NSString, 
                       __ZN3vst4core17PipelineStateDump20_addVertexDescriptorEP19MTLVertexDescriptor, 
                       __ZN3vst4core17PipelineStateDump20addFunctionConstantsERKNS0_21FunctionConstantsDumpEP8NSString, 
                       __ZN3vst4core17PipelineStateDump21addTileRenderPipelineERKNS0_33MetalTileRenderPipelineDescriptorEP8NSString, 
                       __ZN3vst4core17PipelineStateDump23_addSpecializedFunctionEP8NSStringS3_, 
                       __ZN3vst4core17PipelineStateDumpC1Ev, __ZN3vst4core17PipelineStateDumpC2Ev, 
                       __ZN3vst4core17createMetalBufferEPU19objcproto9MTLDevice11objc_objectRKNS0_21MetalBufferCreateInfoE, 
                       __ZN3vst4core17createMetalBufferEPU19objcproto9MTLDevice11objc_objectRKNS0_34MetalBufferCreateFromIOSurfaceInfoE, 
                       __ZN3vst4core17is_internal_buildEv, __ZN3vst4core17linearPixelFormatE14MTLPixelFormat, 
                       __ZN3vst4core18TextureRegionCache5clearEv, __ZN3vst4core18TextureRegionCache6insertEPU21objcproto10MTLTexture11objc_objectS3_Dv2_fS4_, 
                       __ZN3vst4core18TextureRegionCacheC1Em, __ZN3vst4core18TextureRegionCacheC2Em, 
                       __ZN3vst4core18computeBoxNDCRangeERKDv3_fS3_RKN4simd8float4x4ES7_, 
                       __ZN3vst4core18createMetalTextureEPU19objcproto9MTLDevice11objc_objectRKNS0_22MetalTextureCreateInfoE, 
                       __ZN3vst4core18createMetalTextureEPU19objcproto9MTLDevice11objc_objectRKNS0_35MetalTextureCreateFromIOSurfaceInfoE, 
                       __ZN3vst4core18createMetalTextureEPU19objcproto9MTLDevice11objc_objectRKNS0_36MetalTextureCreateFromDescriptorInfoE, 
                       __ZN3vst4core18getMemoryFootprintEv, __ZN3vst4core19GPUTimestampSampler10samplePassEP23MTLRenderPassDescriptor, 
                       __ZN3vst4core19GPUTimestampSampler10samplePassEP24MTLComputePassDescriptor, 
                       __ZN3vst4core19GPUTimestampSampler14resolveSamplesEv, __ZN3vst4core19GPUTimestampSampler14syncTimestampsEv, 
                       __ZN3vst4core19GPUTimestampSampler15nextSampleIndexENS1_11SampleStageE, 
                       __ZN3vst4core19GPUTimestampSampler6createEPU19objcproto9MTLDevice11objc_objectm, 
                       __ZN3vst4core19computeConeNDCRangeERKDv3_fS3_fRKDv2_fRKN4simd8float4x4ESA_, 
                       __ZN3vst4core19createCounterBufferEPU19objcproto9MTLDevice11objc_objectPU24objcproto13MTLCounterSet11objc_objectm, 
                       __ZN3vst4core19createMetalFunctionEPU21objcproto10MTLLibrary11objc_objectRKNS0_23MetalFunctionCreateInfoE, 
                       __ZN3vst4core20MetalBufferAllocator10startFrameEv, __ZN3vst4core20MetalBufferAllocator15AllocationRange5mergeERKS2_, 
                       __ZN3vst4core20MetalBufferAllocator8allocateEj, __ZN3vst4core20MetalBufferAllocatorC1EPU19objcproto9MTLDevice11objc_objectj, 
                       __ZN3vst4core20MetalBufferAllocatorC2EPU19objcproto9MTLDevice11objc_objectj, 
                       __ZN3vst4core20computeBoxDepthRangeERKDv3_fS3_RKN4simd8float4x4ES7_, 
                       __ZN3vst4core20sphericalToCartesianEDv3_ffff, __ZN3vst4core21FunctionConstantsDump7setBoolEbm, 
                       __ZN3vst4core21FunctionConstantsDump7setUIntEjm, __ZN3vst4core21FunctionConstantsDump8setFloatEfm, 
                       __ZN3vst4core21FunctionConstantsDumpC1Ev, __ZN3vst4core21FunctionConstantsDumpC2Ev, 
                       __ZN3vst4core21MetalTextureViewCache4viewEPU21objcproto10MTLTexture11objc_object, 
                       __ZN3vst4core21MetalTextureViewCache5clearEv, __ZN3vst4core21MetalTextureViewCacheC1E14MTLPixelFormatm, 
                       __ZN3vst4core21MetalTextureViewCacheC1ERKNS1_14ViewDescriptorEm, 
                       __ZN3vst4core21MetalTextureViewCacheC2E14MTLPixelFormatm, 
                       __ZN3vst4core21MetalTextureViewCacheC2ERKNS1_14ViewDescriptorEm, 
                       __ZN3vst4core21VertexAttributeBuffer15checkCreateInfoERKNS1_10CreateInfoE, 
                       __ZN3vst4core21VertexAttributeBuffer23makeIOSurfacePropertiesE15MTLVertexFormatmP8NSString, 
                       __ZN3vst4core21VertexAttributeBuffer6createERKNS1_10CreateInfoE, 
                       __ZN3vst4core21computeTransformedBoxERKDv3_fS3_RKN4simd8float4x4E, 
                       __ZN3vst4core21getMetalBinaryArchiveEPU19objcproto9MTLDevice11objc_object, 
                       __ZN3vst4core21unarchiveDumpedObjectEP10objc_classP8NSString, 
                       __ZN3vst4core23computeFrustumFromQuadsEN4simd8float4x4ERKNS0_8QuadInfoES5_, 
                       __ZN3vst4core23dumpDebugObjectWithPathEP11objc_objectP8NSStringb, 
                       __ZN3vst4core25createMetalRenderPipelineEPU21objcproto10MTLLibrary11objc_objectRKNS0_29MetalRenderPipelineDescriptorE, 
                       __ZN3vst4core25intersectFrustumWithPlaneEN4simd8float4x4ES2_Dv3_fS3_, 
                       __ZN3vst4core26createMetalComputePipelineEPU21objcproto10MTLLibrary11objc_objectP8NSStringP25MTLFunctionConstantValues, 
                       __ZN3vst4core26createMetalComputePipelineEPU21objcproto10MTLLibrary11objc_objectRKNS0_30MetalComputePipelineDescriptorE, 
                       __ZN3vst4core27RasterizationRateController16createDescriptorERKDv2_tm, 
                       __ZN3vst4core27RasterizationRateController6createERKNS1_10CreateInfoE, 
                       __ZN3vst4core27RasterizationRateController6createERKNS1_34CreateWithRasterizationRateMapInfoE, 
                       __ZN3vst4core27RasterizationRateController6updateERKNS1_10UpdateInfoE, 
                       __ZN3vst4core27RasterizationRateControllerC1Ev, __ZN3vst4core27RasterizationRateControllerC2Ev, 
                       __ZN3vst4core27RasterizationRateControllerD1Ev, __ZN3vst4core27RasterizationRateControllerD2Ev, 
                       __ZN3vst4core27createMetalVertexDescriptorERKNSt3__14spanIK15MTLVertexFormatLm18446744073709551615EEE, 
                       __ZN3vst4core28createMetalTextureDescriptorERKNS0_22MetalTextureDescriptorE, 
                       __ZN3vst4core28deserializedObjectFromObjectEP11objc_object, 
                       __ZN3vst4core28viewSpaceBoxToPhysicalCoordsERKNS0_5Box2DERKDv2_fPU34objcproto23MTLRasterizationRateMap11objc_objectj, 
                       __ZN3vst4core29bytesPerElementForPixelFormatE14MTLPixelFormat, 
                       __ZN3vst4core29createMetalTileRenderPipelineEPU21objcproto10MTLLibrary11objc_objectRKNS0_33MetalTileRenderPipelineDescriptorE, 
                       __ZN3vst4core31RasterizationRateControllerImpl16_checkCreateInfoERKNS0_27RasterizationRateController10CreateInfoE, 
                       __ZN3vst4core31RasterizationRateControllerImpl16_checkCreateInfoERKNS0_27RasterizationRateController34CreateWithRasterizationRateMapInfoE, 
                       __ZN3vst4core31RasterizationRateControllerImpl16_checkUpdateInfoERKNS0_27RasterizationRateController10UpdateInfoEj, 
                       __ZN3vst4core31RasterizationRateControllerImpl4initERKNS0_27RasterizationRateController10CreateInfoE, 
                       __ZN3vst4core31RasterizationRateControllerImpl4initERKNS0_27RasterizationRateController34CreateWithRasterizationRateMapInfoE, 
                       __ZN3vst4core31RasterizationRateControllerImpl6updateERKNS0_27RasterizationRateController10UpdateInfoE, 
                       __ZN3vst4core32computeTileAlignedPaddedNDCRangeERKNS0_18TileAlignedBoxInfoE, 
                       __ZN3vst4core34createIndirectComputeCommandBufferEPU19objcproto9MTLDevice11objc_objectRKNS0_36MetalIndirectCommandBufferCreateInfoE, 
                       __ZN3vst4core35computeMetalDispatchThreadgroupSizeEPU34objcproto23MTLComputePipelineState11objc_objectDv2_ts, 
                       __ZN3vst4core35computeMetalDispatchThreadgroupSizeEPU34objcproto23MTLComputePipelineState11objc_objectm, 
                       __ZN3vst4core39logicalCoordinatesToPhysicalCoordinatesERKNS0_5Box2DEPU34objcproto23MTLRasterizationRateMap11objc_objectj, 
                       __ZN3vst4core39physicalCoordinatesToLogicalCoordinatesERKNS0_5Box2DEPU34objcproto23MTLRasterizationRateMap11objc_objectj, 
                       __ZN3vst4core3obj27uniqueVertexFromObjContentsERKNS0_11ObjContentsE, 
                       __ZN3vst4core3obj4readEPKcb, __ZN3vst4core3obj4readERNSt3__113basic_istreamIcNS2_11char_traitsIcEEEEb, 
                       __ZN3vst4core3obj5writeERKNS0_11ObjContentsEPKc, __ZN3vst4core3obj5writeERKNS0_11ObjContentsERNSt3__113basic_ostreamIcNS5_11char_traitsIcEEEE, 
                       __ZN3vst4core3ply4readERNSt3__113basic_istreamIcNS2_11char_traitsIcEEEE, 
                       __ZN3vst4core3ply5writeERNSt3__113basic_ostreamIcNS2_11char_traitsIcEEEERKNS2_6vectorINS1_7ElementENS2_9allocatorIS9_EEEE, 
                       __ZN3vst4core41computeNonUniformMetalDispatchThreadsSizeEPU34objcproto23MTLComputePipelineState11objc_objectDv2_ts, 
                       __ZN3vst4core41computeNonUniformMetalDispatchThreadsSizeEPU34objcproto23MTLComputePipelineState11objc_objectm, 
                       __ZN3vst4core41createMetalRasterizationRateMapDescriptorERKNS0_35MetalRasterizationRateMapDescriptorE, 
                       __ZN3vst4core4timeEv, __ZN3vst4core9Transform10fromMatrixERKN4simd8float4x4E, 
                       __ZN3vst4core9Transform4lerpERKS1_S3_f, __ZN3vst4core9algorithm11clearBufferEPU35objcproto24MTLComputeCommandEncoder11objc_objectPU19objcproto9MTLBuffer11objc_objectPU34objcproto23MTLComputePipelineState11objc_objectjm, 
                       __ZN3vst4core9algorithm17dispatchRadixSortEPU35objcproto24MTLComputeCommandEncoder11objc_objectRKNS1_13RadixSortArgsERKNS1_18PrefixSumPipelinesERKNS1_18RadixSortPipelinesE, 
                       __ZN3vst4core9algorithm20dispatchExclusiveSumEPU35objcproto24MTLComputeCommandEncoder11objc_objectRKNS1_16ExclusiveSumArgsERKNS1_18PrefixSumPipelinesE, 
                       __ZN3vst4core9algorithm24createPrefixSumPipelinesEPU21objcproto10MTLLibrary11objc_object, 
                       __ZN3vst4core9algorithm24createRadixSortPipelinesEPU21objcproto10MTLLibrary11objc_objectj, 
                       __ZN3vst4core9algorithm32createDecoupledFallbackPipelinesEPU21objcproto10MTLLibrary11objc_object, 
                       __ZN3vst4core9algorithm34dispatchRadixSortDecoupledFallbackEPU35objcproto24MTLComputeCommandEncoder11objc_objectRKNS1_30RadixSortDecoupledFallbackArgsERKNS1_35PrefixSumPipelinesDecoupledFallbackERKNS1_18RadixSortPipelinesE, 
                       __ZN3vst4core9algorithm37dispatchExclusiveSumDecoupledFallbackEPU35objcproto24MTLComputeCommandEncoder11objc_objectRKNS1_41DecoupledFallbackExclusiveSumIndirectArgsERKNS1_35PrefixSumPipelinesDecoupledFallbackE, 
                       __ZN3vst5splat10VolumeData13dumpPipelinesEP8NSString, __ZN3vst5splat10VolumeData17updateBoundingBoxEv, 
                       __ZN3vst5splat10VolumeData19isSupportedFileTypeEP8NSString, 
                       __ZN3vst5splat10VolumeData21prepareMetalResourcesEPU19objcproto9MTLDevice11objc_objectb, 
                       __ZN3vst5splat10VolumeData6createERKNS1_18CreateFromBlobInfoE, 
                       __ZN3vst5splat10VolumeData6createERKNS1_18CreateFromDumpInfoE, 
                       __ZN3vst5splat10VolumeData6createERKNS1_21CreateFromBuffersInfoE, 
                       __ZN3vst5splat10VolumeData6createERKNS1_23CreateFromFloatDataInfoE, 
                       __ZN3vst5splat10VolumeData6createERKNS1_24CreateFromAttributesInfoE, 
                       __ZN3vst5splat10VolumeData6createERKNS1_32CreateFromPersonaCompressionInfoE, 
                       __ZN3vst5splat10VolumeData6createERKNS1_32CreateFromPersonaModelOutputInfoE, 
                       __ZN3vst5splat10VolumeData6setBoxERKNSt3__15tupleIJDv3_fS4_EEE, 
                       __ZN3vst5splat10VolumeData6updateERKNS1_32UpdateFromPersonaModelOutputInfoE, 
                       __ZN3vst5splat10VolumeData9sharedPtrEv, __ZN3vst5splat10VolumeDataC1ENS1_7PrivateE, 
                       __ZN3vst5splat10VolumeDataC2ENS1_7PrivateE, __ZN3vst5splat10VolumeDataD1Ev, 
                       __ZN3vst5splat10VolumeDataD2Ev, __ZN3vst5splat11TextureData19isSupportedFileTypeEP8NSString, 
                       __ZN3vst5splat11TextureData19prepareMetalTextureEPU19objcproto9MTLDevice11objc_object, 
                       __ZN3vst5splat11TextureData6createERKNS1_18CreateFromBlobInfoE, 
                       __ZN3vst5splat11TextureData6createERKNS1_23CreateFromIOSurfaceInfoE, 
                       __ZN3vst5splat11TextureData9sharedPtrEv, __ZN3vst5splat11TextureDataC1ENS1_7PrivateE, 
                       __ZN3vst5splat11TextureDataC2ENS1_7PrivateE, __ZN3vst5splat11TextureDataD1Ev, 
                       __ZN3vst5splat11TextureDataD2Ev, __ZN3vst5splat12BaseRenderer13dumpPipelinesERKNS1_8DumpInfoE, 
                       __ZN3vst5splat12BaseRenderer14_checkCullInfoERKNS1_8CullInfoE, 
                       __ZN3vst5splat12BaseRenderer14_checkDrawInfoERKNS1_8DrawInfoE, 
                       __ZN3vst5splat12BaseRenderer16_checkCreateInfoERKNS1_10CreateInfoE, 
                       __ZN3vst5splat12BaseRenderer16_checkUpdateInfoERKNS1_10UpdateInfoEmmNS_4core17OffScreenRenderer6LayoutENS1_9TechniqueEjbbNS0_14packing_shared6MethodEb, 
                       __ZN3vst5splat12BaseRenderer17_checkDrawOptionsERKNS1_11DrawOptionsE, 
                       __ZN3vst5splat12BaseRenderer18_checkTextureBoundERKNS1_13TextureBoundsEm, 
                       __ZN3vst5splat12BaseRenderer20_checkCullingOptionsERKNS1_14CullingOptionsERKNS0_10VolumeDataE, 
                       __ZN3vst5splat12BaseRenderer23_checkVisibleSplatsInfoERKNS1_17VisibleSplatsInfoERKNS0_10VolumeDataEb, 
                       __ZN3vst5splat12BaseRenderer26_checkGridRenderTargetInfoERKNS_4core17OffScreenRenderer16RenderTargetInfoERKNS1_20GridRenderTargetInfoE, 
                       __ZN3vst5splat12BaseRenderer28renderTargetSizeFromViewportEDv2_f, 
                       __ZN3vst5splat12BaseRenderer34_checkCustomParamsRenderTargetInfoERKNS_4core17OffScreenRenderer16RenderTargetInfoERKNS1_28CustomParamsRenderTargetInfoE, 
                       __ZN3vst5splat12BaseRenderer6createERKNS1_10CreateInfoE, __ZN3vst5splat12HWRasterizer13PipelineCache13findAndInsertEjm, 
                       __ZN3vst5splat12HWRasterizer13PipelineCacheC1Ev, __ZN3vst5splat12HWRasterizer13PipelineCacheC2Ev, 
                       __ZN3vst5splat12HWRasterizer13_findPipelineEj, __ZN3vst5splat12HWRasterizer13dumpPipelinesERKNS0_12BaseRenderer8DumpInfoE, 
                       __ZN3vst5splat12HWRasterizer14_checkCullInfoERKNS0_12BaseRenderer8CullInfoE, 
                       __ZN3vst5splat12HWRasterizer14_checkDrawInfoERKNS0_12BaseRenderer8DrawInfoE, 
                       __ZN3vst5splat12HWRasterizer16_checkCreateInfoERKNS0_12BaseRenderer10CreateInfoE, 
                       __ZN3vst5splat12HWRasterizer16_checkUpdateInfoERKNS0_12BaseRenderer10UpdateInfoEmmNS_4core17OffScreenRenderer6LayoutENS2_9TechniqueEjbbNS0_14packing_shared6MethodEb, 
                       __ZN3vst5splat12HWRasterizer16_makeCreateFlagsERKNS0_12BaseRenderer13CreateOptionsE, 
                       __ZN3vst5splat12HWRasterizer20_gridSizeForPipelineEj, __ZN3vst5splat12HWRasterizer21_checkComputePipelineEPU34objcproto23MTLComputePipelineState11objc_object, 
                       __ZN3vst5splat12HWRasterizer26_computePhysicalTileRegionERKDv3_fS4_RKN4simd8float4x4ERKNS_4core17OffScreenRenderer8ViewInfoERKNSA_16RenderTargetInfoE, 
                       __ZN3vst5splat12HWRasterizer27_dumpFunctionConstantValuesEjNS0_6shared9PrimitiveENS_4core22color_utilities_shared10ColorSpaceEjj, 
                       __ZN3vst5splat12HWRasterizer28_recreateSortBuffersIfNeededEjj, 
                       __ZN3vst5splat12HWRasterizer29_createFunctionConstantValuesEjNS0_6shared9PrimitiveENS_4core22color_utilities_shared10ColorSpaceEjj, 
                       __ZN3vst5splat12HWRasterizer31_updateTileDepthTextureIfNeededEDv2_t14MTLTextureTypemj, 
                       __ZN3vst5splat12HWRasterizer33_recreateDebuggingBuffersIfNeededEDv3_tj, 
                       __ZN3vst5splat12HWRasterizer35_recreateVisibleSplatBitSetIfNeededEjj, 
                       __ZN3vst5splat12HWRasterizer39_computeRecordedPixelFragmentArrayStatsEPU19objcproto9MTLBuffer11objc_objectS3_, 
                       __ZN3vst5splat12HWRasterizer39_recreateMemorylessDepthTextureIfNeededEDv2_t14MTLTextureTypemj, 
                       __ZN3vst5splat12HWRasterizer41_recreateMemorylessStencilTextureIfNeededEDv2_t14MTLTextureTypemj, 
                       __ZN3vst5splat12HWRasterizer4initERKNS0_12BaseRenderer10CreateInfoE, 
                       __ZN3vst5splat12HWRasterizer56_recreateInternalMaxVisibilityContributionBufferIfNeededEjj, 
                       __ZN3vst5splat12HWRasterizer6updateERKNS0_12BaseRenderer10UpdateInfoE, 
                       __ZN3vst5splat12MeshDataImpl16_checkCreateInfoERKNS0_8MeshData18CreateFromBlobInfoE, 
                       __ZN3vst5splat12MeshDataImpl16_checkCreateInfoERKNS0_8MeshData21CreateFromBuffersInfoE, 
                       __ZN3vst5splat12MeshDataImpl16_checkCreateInfoERKNS0_8MeshData37CreateFromCompactVertexAttributesInfoE, 
                       __ZN3vst5splat12MeshDataImpl19prepareMetalBuffersEPU19objcproto9MTLDevice11objc_object, 
                       __ZN3vst5splat12MeshDataImpl4initERKNS0_8MeshData18CreateFromBlobInfoE, 
                       __ZN3vst5splat12MeshDataImpl4initERKNS0_8MeshData21CreateFromBuffersInfoE, 
                       __ZN3vst5splat12MeshDataImpl4initERKNS0_8MeshData37CreateFromCompactVertexAttributesInfoE, 
                       __ZN3vst5splat12MeshDataImpl8_loadObjEP6NSData, __ZN3vst5splat12MeshDataImplC1Ev, 
                       __ZN3vst5splat12MeshDataImplC2Ev, __ZN3vst5splat12MeshRenderer6createERKNS1_10CreateInfoE, 
                       __ZN3vst5splat12MeshRenderer6updateERKNS1_10UpdateInfoE, __ZN3vst5splat12MeshRendererC1Ev, 
                       __ZN3vst5splat12MeshRendererC2Ev, __ZN3vst5splat12MeshRendererD1Ev, 
                       __ZN3vst5splat12MeshRendererD2Ev, __ZN3vst5splat12SWRasterizer14_checkCullInfoERKNS0_12BaseRenderer8CullInfoE, 
                       __ZN3vst5splat12SWRasterizer14_checkDrawInfoERKNS0_12BaseRenderer8DrawInfoE, 
                       __ZN3vst5splat12SWRasterizer16_checkCreateInfoERKNS0_12BaseRenderer10CreateInfoE, 
                       __ZN3vst5splat12SWRasterizer16_checkUpdateInfoERKNS0_12BaseRenderer10UpdateInfoEj, 
                       __ZN3vst5splat12SWRasterizer21_checkComputePipelineEPU34objcproto23MTLComputePipelineState11objc_object, 
                       __ZN3vst5splat12SWRasterizer24_recreateBuffersIfNeededEj, 
                       __ZN3vst5splat12SWRasterizer4initERKNS0_12BaseRenderer10CreateInfoE, 
                       __ZN3vst5splat12SWRasterizer6updateERKNS0_12BaseRenderer10UpdateInfoE, 
                       __ZN3vst5splat13ProxyRenderer15checkUpdateInfoERKNS1_10UpdateInfoEmNS_4core17OffScreenRenderer6LayoutEb, 
                       __ZN3vst5splat13ProxyRenderer6createERKNS1_10CreateInfoE, 
                       __ZN3vst5splat13ProxyRenderer6updateERKNS1_10UpdateInfoE, 
                       __ZN3vst5splat13ProxyRendererC1Ev, __ZN3vst5splat13ProxyRendererC2Ev, 
                       __ZN3vst5splat13ProxyRendererD1Ev, __ZN3vst5splat13ProxyRendererD2Ev, 
                       __ZN3vst5splat14VolumeDataImpl10_loadPListEP6NSData, __ZN3vst5splat14VolumeDataImpl10_loadQuiltEPKDhRKNS1_15QuiltDescriptorEPK12packed_half4RKNSt3__18optionalINS0_10VolumeData19ActiveSplatDataInfoEEENS0_14packing_shared6MethodE, 
                       __ZN3vst5splat14VolumeDataImpl13_numSHVectorsEmm, __ZN3vst5splat14VolumeDataImpl13dumpPipelinesEP8NSString, 
                       __ZN3vst5splat14VolumeDataImpl16_checkCreateInfoERKNS0_10VolumeData18CreateFromBlobInfoE, 
                       __ZN3vst5splat14VolumeDataImpl16_checkCreateInfoERKNS0_10VolumeData18CreateFromDumpInfoE, 
                       __ZN3vst5splat14VolumeDataImpl16_checkCreateInfoERKNS0_10VolumeData21CreateFromBuffersInfoE, 
                       __ZN3vst5splat14VolumeDataImpl16_checkCreateInfoERKNS0_10VolumeData23CreateFromFloatDataInfoE, 
                       __ZN3vst5splat14VolumeDataImpl16_checkCreateInfoERKNS0_10VolumeData32CreateFromPersonaCompressionInfoE, 
                       __ZN3vst5splat14VolumeDataImpl16_checkCreateInfoERKNS0_10VolumeData32CreateFromPersonaModelOutputInfoE, 
                       __ZN3vst5splat14VolumeDataImpl16_checkUpdateInfoERKNS0_10VolumeData32UpdateFromPersonaModelOutputInfoEm, 
                       __ZN3vst5splat14VolumeDataImpl16_load3DGSFromPlyERKNS0_12FormatTraitsILNS0_10VolumeData6FormatE0EE16VertexDescriptorE, 
                       __ZN3vst5splat14VolumeDataImpl17updateBoundingBoxEv, __ZN3vst5splat14VolumeDataImpl19_loadReduced3DGSPlyENSt3__14spanIKNS_4core3ply7ElementELm18446744073709551615EEE, 
                       __ZN3vst5splat14VolumeDataImpl21prepareMetalResourcesEPU19objcproto9MTLDevice11objc_objectb, 
                       __ZN3vst5splat14VolumeDataImpl22_createUpdatePipelinesEPU19objcproto9MTLDevice11objc_objectb, 
                       __ZN3vst5splat14VolumeDataImpl22_loadBetaSplatsFromPlyERKNS0_12FormatTraitsILNS0_10VolumeData6FormatE3EE16VertexDescriptorE, 
                       __ZN3vst5splat14VolumeDataImpl23_deduceVolumeDataFormatERKNS_4core3ply7ElementE, 
                       __ZN3vst5splat14VolumeDataImpl27_trisplatsUpdateBoundingBoxEv, 
                       __ZN3vst5splat14VolumeDataImpl29_reduced3DGSUpdateBoundingBoxEv, 
                       __ZN3vst5splat14VolumeDataImpl4initEONS0_14DataBetaSplatsE, 
                       __ZN3vst5splat14VolumeDataImpl4initEONS0_8Data3DGSE, __ZN3vst5splat14VolumeDataImpl4initERKNS0_10VolumeData18CreateFromBlobInfoE, 
                       __ZN3vst5splat14VolumeDataImpl4initERKNS0_10VolumeData18CreateFromDumpInfoE, 
                       __ZN3vst5splat14VolumeDataImpl4initERKNS0_10VolumeData21CreateFromBuffersInfoE, 
                       __ZN3vst5splat14VolumeDataImpl4initERKNS0_10VolumeData23CreateFromFloatDataInfoE, 
                       __ZN3vst5splat14VolumeDataImpl4initERKNS0_10VolumeData24CreateFromAttributesInfoE, 
                       __ZN3vst5splat14VolumeDataImpl4initERKNS0_10VolumeData32CreateFromPersonaCompressionInfoE, 
                       __ZN3vst5splat14VolumeDataImpl4initERKNS0_10VolumeData32CreateFromPersonaModelOutputInfoE, 
                       __ZN3vst5splat14VolumeDataImpl6updateERKNS0_10VolumeData32UpdateFromPersonaModelOutputInfoE, 
                       __ZN3vst5splat14VolumeDataImpl8_loadPlyEP6NSData, __ZN3vst5splat14VolumeDataImplC1Ev, 
                       __ZN3vst5splat14VolumeDataImplC2Ev, __ZN3vst5splat15LayerCompositor6createERKNS1_10CreateInfoE, 
                       __ZN3vst5splat15LayerCompositor6updateERKNS1_10UpdateInfoE, 
                       __ZN3vst5splat15LayerCompositorC1Ev, __ZN3vst5splat15LayerCompositorC2Ev, 
                       __ZN3vst5splat15LayerCompositorD1Ev, __ZN3vst5splat15LayerCompositorD2Ev, 
                       __ZN3vst5splat15TextureDataImpl16_checkCreateInfoERKNS0_11TextureData18CreateFromBlobInfoE, 
                       __ZN3vst5splat15TextureDataImpl16_checkCreateInfoERKNS0_11TextureData23CreateFromIOSurfaceInfoE, 
                       __ZN3vst5splat15TextureDataImpl19prepareMetalTextureEPU19objcproto9MTLDevice11objc_object, 
                       __ZN3vst5splat15TextureDataImpl4initERKNS0_11TextureData18CreateFromBlobInfoE, 
                       __ZN3vst5splat15TextureDataImpl4initERKNS0_11TextureData23CreateFromIOSurfaceInfoE, 
                       __ZN3vst5splat15TextureDataImpl8_loadPngEP6NSDatab, __ZN3vst5splat15TextureDataImplC1Ev, 
                       __ZN3vst5splat15TextureDataImplC2Ev, __ZN3vst5splat16MeshRendererImpl14_checkDrawInfoERKNS0_12MeshRenderer8DrawInfoE, 
                       __ZN3vst5splat16MeshRendererImpl16_checkCreateInfoERKNS0_12MeshRenderer10CreateInfoE, 
                       __ZN3vst5splat16MeshRendererImpl16_checkUpdateInfoERKNS0_12MeshRenderer10UpdateInfoEm, 
                       __ZN3vst5splat16MeshRendererImpl21_createRenderPipelineEPU21objcproto10MTLLibrary11objc_objectNS0_12MeshRenderer9TechniqueE14MTLPixelFormatS6_b, 
                       __ZN3vst5splat16MeshRendererImpl4initERKNS0_12MeshRenderer10CreateInfoE, 
                       __ZN3vst5splat16MeshRendererImpl6updateERKNS0_12MeshRenderer10UpdateInfoE, 
                       __ZN3vst5splat17ProxyRendererImpl14_checkCullInfoERKNS0_13ProxyRenderer8CullInfoE, 
                       __ZN3vst5splat17ProxyRendererImpl14_checkDrawInfoERKNS0_13ProxyRenderer8DrawInfoE, 
                       __ZN3vst5splat17ProxyRendererImpl15checkUpdateInfoERKNS0_13ProxyRenderer10UpdateInfoEmNS_4core17OffScreenRenderer6LayoutEb, 
                       __ZN3vst5splat17ProxyRendererImpl16_checkCreateInfoERKNS0_13ProxyRenderer10CreateInfoE, 
                       __ZN3vst5splat17ProxyRendererImpl19_updateRenderTargetERKNS0_13ProxyRenderer12RenderTargetEjRKNSt3__18optionalINS2_21RasterizationRateInfoEEE, 
                       __ZN3vst5splat17ProxyRendererImpl20_updateVisibleSplatsERKNS0_10VolumeDataEjb, 
                       __ZN3vst5splat17ProxyRendererImpl22_checkSplattingOptionsERKNS0_13ProxyRenderer16SplattingOptionsE, 
                       __ZN3vst5splat17ProxyRendererImpl25_updateVolumeProxyBuffersERKNS0_13ProxyRenderer18VolumeProxyBuffersEjj, 
                       __ZN3vst5splat17ProxyRendererImpl28_checkRenderTargetScreenSizeERKDv2_t, 
                       __ZN3vst5splat17ProxyRendererImpl29_recreateRenderTargetIfNeededENSt3__14spanIKNS1_30ViewInfosForRenderTargetUpdateELm18446744073709551615EEEjRKNS2_8optionalINS0_13ProxyRenderer21RasterizationRateInfoEEENS0_12BaseRenderer12GridTileSizeE, 
                       __ZN3vst5splat17ProxyRendererImpl31_updateRasterizationRateOptionsERKNS0_29ProxyRendererImplRenderTargetERKNS0_13ProxyRenderer21RasterizationRateInfoENSt3__14spanIKNS1_30ViewInfosForRenderTargetUpdateELm18446744073709551615EEENSA_IKNS1_32VolumeInfosForRenderTargetUpdateELm18446744073709551615EEE, 
                       __ZN3vst5splat17ProxyRendererImpl35_checkRenderTargetDescriptorOptionsERKNS0_13ProxyRenderer26RenderTargetDescriptorInfoE, 
                       __ZN3vst5splat17ProxyRendererImpl35_recreateVolumeProxyBuffersIfNeededENSt3__14spanIKNS1_30ViewInfosForRenderTargetUpdateELm18446744073709551615EEENS3_IKNS1_32VolumeInfosForRenderTargetUpdateELm18446744073709551615EEEjNS0_12BaseRenderer12GridTileSizeEt, 
                       __ZN3vst5splat17ProxyRendererImpl4initERKNS0_13ProxyRenderer10CreateInfoE, 
                       __ZN3vst5splat17ProxyRendererImpl6updateERKNS0_13ProxyRenderer10UpdateInfoE, 
                       __ZN3vst5splat19LayerCompositorImpl14_checkDrawInfoERKNS0_15LayerCompositor8DrawInfoE, 
                       __ZN3vst5splat19LayerCompositorImpl16_checkCreateInfoERKNS0_15LayerCompositor10CreateInfoE, 
                       __ZN3vst5splat19LayerCompositorImpl16_checkUpdateInfoERKNS0_15LayerCompositor10UpdateInfoEmmNS2_9TechniqueE, 
                       __ZN3vst5splat19LayerCompositorImpl21_createRenderPipelineEPU21objcproto10MTLLibrary11objc_object14MTLPixelFormatS4_NS0_15LayerCompositor9TechniqueEbNS_4core17OffScreenRenderer6LayoutEb, 
                       __ZN3vst5splat19LayerCompositorImpl28_recreateQuadBuffersIfNeededEj, 
                       __ZN3vst5splat19LayerCompositorImpl4initERKNS0_15LayerCompositor10CreateInfoE, 
                       __ZN3vst5splat19LayerCompositorImpl6updateERKNS0_15LayerCompositor10UpdateInfoE, 
                       __ZN3vst5splat19PrimitiveRasterizer13dumpPipelinesERNS_4core17PipelineStateDumpERKNS1_8DumpInfoE, 
                       __ZN3vst5splat19PrimitiveRasterizer6createERKNS1_10CreateInfoE, 
                       __ZN3vst5splat23GaussianSplatRasterizer13PipelineCache13findAndInsertEjm, 
                       __ZN3vst5splat23GaussianSplatRasterizer13PipelineCacheC1Ev, 
                       __ZN3vst5splat23GaussianSplatRasterizer13PipelineCacheC2Ev, 
                       __ZN3vst5splat23GaussianSplatRasterizer13dumpPipelinesERNS_4core17PipelineStateDumpERKNS0_19PrimitiveRasterizer8DumpInfoE, 
                       __ZN3vst5splat23GaussianSplatRasterizer16_checkCreateInfoERKNS0_19PrimitiveRasterizer10CreateInfoE, 
                       __ZN3vst5splat23GaussianSplatRasterizer16_makeCreateFlagsERKNS0_19PrimitiveRasterizer10CreateInfoE, 
                       __ZN3vst5splat23GaussianSplatRasterizer27_dumpFunctionConstantValuesENS_4core17OffScreenRenderer6LayoutEjNS0_6shared9PrimitiveEjj, 
                       __ZN3vst5splat23GaussianSplatRasterizer29_createFunctionConstantValuesENS_4core17OffScreenRenderer6LayoutEjNS0_6shared9PrimitiveEjj, 
                       __ZN3vst5splat23GaussianSplatRasterizer31_createRenderPipelineDescriptorE14MTLPixelFormatNS0_19PrimitiveRasterizer16ImageBlockOutputENS0_6shared9PrimitiveENS0_10VolumeData6FormatEj, 
                       __ZN3vst5splat23GaussianSplatRasterizer33_createOccluderPipelineDescriptorE14MTLPixelFormatNS0_19PrimitiveRasterizer16ImageBlockOutputEj, 
                       __ZN3vst5splat23GaussianSplatRasterizer4initERKNS0_19PrimitiveRasterizer10CreateInfoE, 
                       __ZN3vst5splat23GaussianSplatRasterizer6updateERKNS0_19PrimitiveRasterizer10UpdateInfoE, 
                       __ZN3vst5splat23TriangleSplatRasterizer16_checkCreateInfoERKNS0_19PrimitiveRasterizer10CreateInfoE, 
                       __ZN3vst5splat23TriangleSplatRasterizer29_createFunctionConstantValuesENS_4core17OffScreenRenderer6LayoutEjbbbj, 
                       __ZN3vst5splat23TriangleSplatRasterizer31_createRenderPipelineDescriptorE14MTLPixelFormatNS0_19PrimitiveRasterizer16ImageBlockOutputEj, 
                       __ZN3vst5splat23TriangleSplatRasterizer4initERKNS0_19PrimitiveRasterizer10CreateInfoE, 
                       __ZN3vst5splat23TriangleSplatRasterizer6updateERKNS0_19PrimitiveRasterizer10UpdateInfoE, 
                       __ZN3vst5splat2io12writePlyFileERKNS0_10VolumeDataEP8NSStringRKNS2_15PlyWriteOptionsE, 
                       __ZN3vst5splat2io29makePlyElementsFromVolumeDataERKNS0_10VolumeDataERKNS2_15PlyWriteOptionsE, 
                       __ZN3vst5splat8MeshData19isSupportedFileTypeEP8NSString, __ZN3vst5splat8MeshData19prepareMetalBuffersEPU19objcproto9MTLDevice11objc_object, 
                       __ZN3vst5splat8MeshData6createERKNS1_18CreateFromBlobInfoE, 
                       __ZN3vst5splat8MeshData6createERKNS1_21CreateFromBuffersInfoE, 
                       __ZN3vst5splat8MeshData6createERKNS1_37CreateFromCompactVertexAttributesInfoE, 
                       __ZN3vst5splat8MeshDataC1Ev, __ZN3vst5splat8MeshDataC2Ev, 
                       __ZN3vst5splat8MeshDataD1Ev, __ZN3vst5splat8MeshDataD2Ev, 
                       __ZNK3vst10controller13LiteHUDClient18isConnectionActiveEv, 
                       __ZNK3vst10controller17LiteHUDClientImpl18isConnectionActiveEv, 
                       __ZNK3vst4core10DebugQueue12metalBuffersEv, __ZNK3vst4core10DebugQueue15numLineVerticesEv, 
                       __ZNK3vst4core10DebugQueue16numPointVerticesEv, __ZNK3vst4core10DebugQueue19numTriangleVerticesEv, 
                       __ZNK3vst4core10DebugQueue7isEmptyEv, __ZNK3vst4core13DebugRenderer4drawERKNS1_8DrawInfoE, 
                       __ZNK3vst4core14DebugQueueImpl12metalBuffersEv, __ZNK3vst4core14DebugQueueImpl15numLineVerticesEv, 
                       __ZNK3vst4core14DebugQueueImpl16numPointVerticesEv, __ZNK3vst4core14DebugQueueImpl19numTriangleVerticesEv, 
                       __ZNK3vst4core14DebugQueueImpl7isEmptyEv, __ZNK3vst4core15MemoryFootprint7isValidEv, 
                       __ZNK3vst4core17DebugRendererImpl22_renderDebugPrimitivesEPU34objcproto23MTLRenderCommandEncoder11objc_objectjj, 
                       __ZNK3vst4core17DebugRendererImpl4drawERKNS0_13DebugRenderer8DrawInfoE, 
                       __ZNK3vst4core17PipelineStateDump4dumpEP8NSString, __ZNK3vst4core20MetalBufferAllocator4Page19contiguousFreeSpaceEj, 
                       __ZNK3vst4core20MetalBufferAllocator8endFrameEPU27objcproto16MTLCommandBuffer11objc_object, 
                       __ZNK3vst4core21FunctionConstantsDump4dumpEv, __ZNK3vst4core21VertexAttributeBuffer14makeDumpObjectEv, 
                       __ZNK3vst4core21VertexAttributeBuffer15bytesPerElementEv, 
                       __ZNK3vst4core21VertexAttributeBuffer17matchesPropertiesERKS1_, 
                       __ZNK3vst4core21VertexAttributeBuffer19iosurfacePropertiesEv, 
                       __ZNK3vst4core21VertexAttributeBuffer5cloneEv, __ZNK3vst4core21VertexAttributeBuffer8numBytesEv, 
                       __ZNK3vst4core21VertexAttributeBuffer9emptyLikeEv, __ZNK3vst4core27RasterizationRateController3mapEv, 
                       __ZNK3vst4core9Transform8toMatrixEv, __ZNK3vst5splat10VolumeData10attributesEv, 
                       __ZNK3vst5splat10VolumeData10colorSpaceEv, __ZNK3vst5splat10VolumeData11splatColorsEv, 
                       __ZNK3vst5splat10VolumeData11splatScalesEv, __ZNK3vst5splat10VolumeData12splatNormalsEv, 
                       __ZNK3vst5splat10VolumeData13packingMethodEv, __ZNK3vst5splat10VolumeData14makeDumpObjectEv, 
                       __ZNK3vst5splat10VolumeData14metalResourcesEv, __ZNK3vst5splat10VolumeData14splatPositionsEv, 
                       __ZNK3vst5splat10VolumeData14splatRotationsEv, __ZNK3vst5splat10VolumeData16makePackedVolumeENS0_14packing_shared6MethodE, 
                       __ZNK3vst5splat10VolumeData16supportedSHOrderEv, __ZNK3vst5splat10VolumeData17splatCustomParamsEv, 
                       __ZNK3vst5splat10VolumeData18makeUnpackedVolumeEv, __ZNK3vst5splat10VolumeData22makePersonaModelOutputERKNS1_26MakePersonaModelOutputInfoE, 
                       __ZNK3vst5splat10VolumeData3boxEv, __ZNK3vst5splat10VolumeData6formatEv, 
                       __ZNK3vst5splat10VolumeData8centroidEv, __ZNK3vst5splat10VolumeData8splatSHsEv, 
                       __ZNK3vst5splat10VolumeData8writePlyEP8NSStringNS1_15PlyWriteOptionsE, 
                       __ZNK3vst5splat10VolumeData9numSplatsEv, __ZNK3vst5splat10VolumeData9sharedPtrEv, 
                       __ZNK3vst5splat11TextureData12metalTextureEv, __ZNK3vst5splat11TextureData4sizeEv, 
                       __ZNK3vst5splat11TextureData9iosurfaceEv, __ZNK3vst5splat11TextureData9sharedPtrEv, 
                       __ZNK3vst5splat12HWRasterizer11_clearTilesEPU34objcproto23MTLRenderCommandEncoder11objc_objectjjj, 
                       __ZNK3vst5splat12HWRasterizer11_cullSplatsEPU35objcproto24MTLComputeCommandEncoder11objc_object, 
                       __ZNK3vst5splat12HWRasterizer11_sortSplatsEPU35objcproto24MTLComputeCommandEncoder11objc_object, 
                       __ZNK3vst5splat12HWRasterizer12_clearBufferEPU35objcproto24MTLComputeCommandEncoder11objc_objectPU19objcproto9MTLBuffer11objc_objectj, 
                       __ZNK3vst5splat12HWRasterizer12_clearBufferEPU35objcproto24MTLComputeCommandEncoder11objc_objectPU19objcproto9MTLBuffer11objc_objectjjj, 
                       __ZNK3vst5splat12HWRasterizer13_clearTextureEPU35objcproto24MTLComputeCommandEncoder11objc_objectPU21objcproto10MTLTexture11objc_objectDv4_f, 
                       __ZNK3vst5splat12HWRasterizer13_renderSplatsEPU34objcproto23MTLRenderCommandEncoder11objc_objectj, 
                       __ZNK3vst5splat12HWRasterizer16_smoothTileDepthEPU35objcproto24MTLComputeCommandEncoder11objc_objectjjj, 
                       __ZNK3vst5splat12HWRasterizer17_postProcessColorEPU35objcproto24MTLComputeCommandEncoder11objc_objectjjj, 
                       __ZNK3vst5splat12HWRasterizer18_generateProxyMeshEPU35objcproto24MTLComputeCommandEncoder11objc_objectjjj, 
                       __ZNK3vst5splat12HWRasterizer20_convertDepthToColorEPU35objcproto24MTLComputeCommandEncoder11objc_objectjjj, 
                       __ZNK3vst5splat12HWRasterizer21_computeBlendingStatsEPU35objcproto24MTLComputeCommandEncoder11objc_objectj, 
                       __ZNK3vst5splat12HWRasterizer21_resolveColorAndDepthEPU34objcproto23MTLRenderCommandEncoder11objc_objectjjj, 
                       __ZNK3vst5splat12HWRasterizer33_resolveMaxVisibilityContributionEPU35objcproto24MTLComputeCommandEncoder11objc_objectj, 
                       __ZNK3vst5splat12HWRasterizer4cullERKNS0_12BaseRenderer8CullInfoE, 
                       __ZNK3vst5splat12HWRasterizer4drawERKNS0_12BaseRenderer8DrawInfoE, 
                       __ZNK3vst5splat12MeshDataImpl12metalBuffersEv, __ZNK3vst5splat12MeshRenderer4drawERKNS1_8DrawInfoE, 
                       __ZNK3vst5splat12SWRasterizer13_generateKeysEPU35objcproto24MTLComputeCommandEncoder11objc_objectjj, 
                       __ZNK3vst5splat12SWRasterizer14_projectSplatsEPU35objcproto24MTLComputeCommandEncoder11objc_objectjj, 
                       __ZNK3vst5splat12SWRasterizer16_rasterizeSplatsEPU35objcproto24MTLComputeCommandEncoder11objc_objectPU19objcproto9MTLBuffer11objc_objectj, 
                       __ZNK3vst5splat12SWRasterizer17_computeKeyRangesEPU35objcproto24MTLComputeCommandEncoder11objc_objectPU19objcproto9MTLBuffer11objc_object, 
                       __ZNK3vst5splat12SWRasterizer18_computeKeyOffsetsEPU35objcproto24MTLComputeCommandEncoder11objc_object, 
                       __ZNK3vst5splat12SWRasterizer4cullERKNS0_12BaseRenderer8CullInfoE, 
                       __ZNK3vst5splat12SWRasterizer4drawERKNS0_12BaseRenderer8DrawInfoE, 
                       __ZNK3vst5splat12SWRasterizer9_sortKeysEPU35objcproto24MTLComputeCommandEncoder11objc_object, 
                       __ZNK3vst5splat13ProxyRenderer26makeRenderTargetDescriptorERKDv2_tNS0_12BaseRenderer12GridTileSizeE, 
                       __ZNK3vst5splat13ProxyRenderer26makeRenderTargetDescriptorERKNS1_26RenderTargetDescriptorInfoE, 
                       __ZNK3vst5splat13ProxyRenderer27makeProxyBuffersDescriptorsERKNS1_25ProxyBufferDescriptorInfoE, 
                       __ZNK3vst5splat13ProxyRenderer4cullERKNS1_8CullInfoE, __ZNK3vst5splat13ProxyRenderer4drawERKNS1_8DrawInfoE, 
                       __ZNK3vst5splat14VolumeDataImpl14makeDumpObjectEv, __ZNK3vst5splat14VolumeDataImpl14makePackedDataENS0_14packing_shared6MethodE, 
                       __ZNK3vst5splat14VolumeDataImpl14metalResourcesEv, __ZNK3vst5splat14VolumeDataImpl16makeUnpackedDataEv, 
                       __ZNK3vst5splat14VolumeDataImpl21_inferQuiltDescriptorEP9IOSurface, 
                       __ZNK3vst5splat14VolumeDataImpl21_inferQuiltDescriptorEP9IOSurfacePKDv2_tS4_, 
                       __ZNK3vst5splat14VolumeDataImpl21_inferQuiltDescriptorEm, 
                       __ZNK3vst5splat14VolumeDataImpl22makePersonaModelOutputERKNS0_10VolumeData26MakePersonaModelOutputInfoE, 
                       __ZNK3vst5splat15LayerCompositor4drawERKNS1_8DrawInfoE, __ZNK3vst5splat15TextureDataImpl12metalTextureEv, 
                       __ZNK3vst5splat16MeshRendererImpl11_renderMeshEPU34objcproto23MTLRenderCommandEncoder11objc_objectj, 
                       __ZNK3vst5splat16MeshRendererImpl4drawERKNS0_12MeshRenderer8DrawInfoE, 
                       __ZNK3vst5splat17ProxyRendererImpl28createRenderTargetDescriptorEDv2_tNS0_12BaseRenderer12GridTileSizeES2_, 
                       __ZNK3vst5splat17ProxyRendererImpl28createRenderTargetDescriptorERKNS0_13ProxyRenderer26RenderTargetDescriptorInfoE, 
                       __ZNK3vst5splat17ProxyRendererImpl29_createRenderTargetDescriptorERKDv2_tS4_S4_S4_, 
                       __ZNK3vst5splat17ProxyRendererImpl29createProxyBuffersDescriptorsEDv3_fS2_RKDv2_ttNS0_12BaseRenderer12GridTileSizeENSt3__14spanIKNS0_37ProxyRendererImplViewProxyBuffersInfoELm18446744073709551615EEENS6_9TechniqueE, 
                       __ZNK3vst5splat17ProxyRendererImpl29createProxyBuffersDescriptorsERKNS0_13ProxyRenderer25ProxyBufferDescriptorInfoE, 
                       __ZNK3vst5splat17ProxyRendererImpl4cullERKNS0_13ProxyRenderer8CullInfoE, 
                       __ZNK3vst5splat17ProxyRendererImpl4drawERKNS0_13ProxyRenderer8DrawInfoE, 
                       __ZNK3vst5splat19LayerCompositorImpl14_composeLayersEPU34objcproto23MTLRenderCommandEncoder11objc_objectj, 
                       __ZNK3vst5splat19LayerCompositorImpl4drawERKNS0_15LayerCompositor8DrawInfoE, 
                       __ZNK3vst5splat23GaussianSplatRasterizer10cullVolumeERKNS0_19PrimitiveRasterizer8CullInfoEj, 
                       __ZNK3vst5splat23GaussianSplatRasterizer12preRasterizeERKNS0_19PrimitiveRasterizer13RasterizeInfoE, 
                       __ZNK3vst5splat23GaussianSplatRasterizer13postRasterizeEv, 
                       __ZNK3vst5splat23GaussianSplatRasterizer15rasterizeVolumeERKNS0_19PrimitiveRasterizer13RasterizeInfoEjj, 
                       __ZNK3vst5splat23GaussianSplatRasterizer7preCullERKNS0_19PrimitiveRasterizer8CullInfoE, 
                       __ZNK3vst5splat23TriangleSplatRasterizer10cullVolumeERKNS0_19PrimitiveRasterizer8CullInfoEj, 
                       __ZNK3vst5splat23TriangleSplatRasterizer12preRasterizeERKNS0_19PrimitiveRasterizer13RasterizeInfoE, 
                       __ZNK3vst5splat23TriangleSplatRasterizer13postRasterizeEv, 
                       __ZNK3vst5splat23TriangleSplatRasterizer15rasterizeVolumeERKNS0_19PrimitiveRasterizer13RasterizeInfoEjj, 
                       __ZNK3vst5splat23TriangleSplatRasterizer7preCullERKNS0_19PrimitiveRasterizer8CullInfoE, 
                       __ZNK3vst5splat8MeshData10numIndicesEv, __ZNK3vst5splat8MeshData11numVerticesEv, 
                       __ZNK3vst5splat8MeshData12metalBuffersEv, __ZNK3vst5splat8MeshData3boxEv, 
                       __ZNK3vst5splat8MeshData3uvsEv, __ZNK3vst5splat8MeshData7indicesEv, 
                       __ZNK3vst5splat8MeshData9positionsEv, __ZTIN3vst4core12MemoryBufferE, 
                       __ZTIN3vst5splat12HWRasterizerE, __ZTIN3vst5splat12SWRasterizerE, 
                       __ZTIN3vst5splat23GaussianSplatRasterizerE, __ZTIN3vst5splat23TriangleSplatRasterizerE, 
                       __ZTSN3vst4core12MemoryBufferE, __ZTSN3vst5splat12HWRasterizerE, 
                       __ZTSN3vst5splat12SWRasterizerE, __ZTSN3vst5splat23GaussianSplatRasterizerE, 
                       __ZTSN3vst5splat23TriangleSplatRasterizerE, __ZTVN3vst4core12MemoryBufferE, 
                       __ZTVN3vst5splat12HWRasterizerE, __ZTVN3vst5splat12SWRasterizerE, 
                       __ZTVN3vst5splat23GaussianSplatRasterizerE, __ZTVN3vst5splat23TriangleSplatRasterizerE ]
    objc-classes:    [ VSTBundle, VSTControllerConnection, VSTControllerServer, VSTCoreVertexAttributeBufferDump, 
                       VSTProxyRenderer, VSTProxyRendererBoxDump, VSTProxyRendererBufferDescriptor, 
                       VSTProxyRendererCommandDump, VSTProxyRendererCreateInfo, VSTProxyRendererCreateOptions, 
                       VSTProxyRendererCullInfo, VSTProxyRendererCullingOptions, 
                       VSTProxyRendererDescriptorInfo, VSTProxyRendererDrawInfo, 
                       VSTProxyRendererDynamicPrimitiveScalingOptions, VSTProxyRendererFrameStats, 
                       VSTProxyRendererLayerData, VSTProxyRendererLayerQuad, VSTProxyRendererLayerStack, 
                       VSTProxyRendererPrimitiveOptions, VSTProxyRendererProxyBuffers, 
                       VSTProxyRendererProxyBuffersDescriptor, VSTProxyRendererProxyData, 
                       VSTProxyRendererProxyMeshOptions, VSTProxyRendererRasterizationRateBoxInfo, 
                       VSTProxyRendererRasterizationRateBoxInfoDump, VSTProxyRendererRasterizationRateConeInfo, 
                       VSTProxyRendererRasterizationRateConeInfoDump, VSTProxyRendererRasterizationRateInfo, 
                       VSTProxyRendererRasterizationRateInfoDump, VSTProxyRendererRectangle, 
                       VSTProxyRendererRenderTarget, VSTProxyRendererRenderTargetDescriptor, 
                       VSTProxyRendererResolutionOptions, VSTProxyRendererTextureBounds, 
                       VSTProxyRendererTextureBoundsDump, VSTProxyRendererTextureInfo, 
                       VSTProxyRendererUpdateInfo, VSTProxyRendererUpdateState, VSTProxyRendererViewExtent, 
                       VSTProxyRendererViewInfo, VSTProxyRendererVisibleSplats, VSTProxyRendererVolumeBounds, 
                       VSTProxyRendererVolumeInfo, VSTProxyRendererVolumeProxyBuffers, 
                       VSTSplatBaseRendererCullingOptionsDump, VSTSplatBaseRendererDrawOptionsDump, 
                       VSTSplatBaseRendererDynamicPrimitiveScalingOptionsDump, VSTSplatProxyRendererCreateInfoDump, 
                       VSTSplatProxyRendererCreateOptionsDump, VSTSplatProxyRendererFrameStatsDump, 
                       VSTSplatProxyRendererLayerDataDump, VSTSplatProxyRendererLayerQuadDump, 
                       VSTSplatProxyRendererLayerStackDump, VSTSplatProxyRendererProxyBuffersDump, 
                       VSTSplatProxyRendererProxyDataDump, VSTSplatProxyRendererRenderTargetDump, 
                       VSTSplatProxyRendererSplattingOptionsDump, VSTSplatProxyRendererTextureInfoDump, 
                       VSTSplatProxyRendererUpdateInfoDump, VSTSplatProxyRendererViewInfoDump, 
                       VSTSplatProxyRendererVisibleSplatsDump, VSTSplatProxyRendererVolumeInfoDump, 
                       VSTSplatTextureDataDump, VSTSplatVersionDump, VSTSplatVolumeDataDump, 
                       VSTTextureData, VSTTextureDataCreateFromIOSurfaceInfo, VSTVolumeData, 
                       VSTVolumeDataCreateFromBlobInfo, VSTVolumeDataCreateFromCapacityInfo, 
                       VSTVolumeDataCreateFromFloatInfo, VSTVolumeDataCreateFromPersonaModelOutputInfo, 
                       VSTVolumeDataCreateFromQuantizedInfo, VSTVolumeDataUpdateFromPersonaModelOutputInfo ]
    weak-symbols:    [ __ZN3vst4core16SharedRingBufferINS_5splat29ProxyRendererImplRenderTargetEE19kDefaultConstructorMUlvE_8__invokeEv, 
                       __ZN3vst4core16SharedRingBufferINS_5splat30ProxyRendererImplVisibleSplatsEE19kDefaultConstructorMUlvE_8__invokeEv, 
                       __ZN3vst4core16SharedRingBufferINS_5splat35ProxyRendererImplVolumeProxyBuffersEE19kDefaultConstructorMUlvE_8__invokeEv, 
                       __ZN3vst4core8LRUCacheINSt3__14pairIU6__weakPU21objcproto10MTLTexture11objc_objectS6_EENS3_IDv2_fS8_EEE10kEndOfListE, 
                       __ZN3vst4core8LRUCacheINSt3__14pairIU6__weakPU21objcproto10MTLTexture11objc_objectS6_EENS3_IDv2_fS8_EEE14clearFromIndexEj, 
                       __ZN3vst4core8LRUCacheINSt3__14pairIU6__weakPU21objcproto10MTLTexture11objc_objectS6_EENS3_IDv2_fS8_EEE17clearStaleEntriesEy, 
                       __ZN3vst4core8LRUCacheINSt3__14pairIU6__weakPU21objcproto10MTLTexture11objc_objectS6_EENS3_IDv2_fS8_EEE4findERKS7_, 
                       __ZN3vst4core8LRUCacheINSt3__14pairIU6__weakPU21objcproto10MTLTexture11objc_objectS6_EENS3_IDv2_fS8_EEE5clearEv, 
                       __ZN3vst4core8LRUCacheINSt3__14pairIU6__weakPU21objcproto10MTLTexture11objc_objectS6_EENS3_IDv2_fS8_EEE6insertERKS7_RKS9_, 
                       __ZN3vst4core8LRUCacheINSt3__14pairIU6__weakPU21objcproto10MTLTexture11objc_objectS6_EENS3_IDv2_fS8_EEEC1Em, 
                       __ZN3vst4core8LRUCacheINSt3__14pairIU6__weakPU21objcproto10MTLTexture11objc_objectS6_EENS3_IDv2_fS8_EEEC2Em, 
                       __ZN3vst4core8LRUCacheIU6__weakPU21objcproto10MTLTexture11objc_objectU8__strongS3_E10kEndOfListE, 
                       __ZN3vst4core8LRUCacheIU6__weakPU21objcproto10MTLTexture11objc_objectU8__strongS3_E14clearFromIndexEj, 
                       __ZN3vst4core8LRUCacheIU6__weakPU21objcproto10MTLTexture11objc_objectU8__strongS3_E17clearStaleEntriesEy, 
                       __ZN3vst4core8LRUCacheIU6__weakPU21objcproto10MTLTexture11objc_objectU8__strongS3_E4findERU6__weakKS3_, 
                       __ZN3vst4core8LRUCacheIU6__weakPU21objcproto10MTLTexture11objc_objectU8__strongS3_E5clearEv, 
                       __ZN3vst4core8LRUCacheIU6__weakPU21objcproto10MTLTexture11objc_objectU8__strongS3_E6insertERU6__weakKS3_RU8__strongKS3_, 
                       __ZN3vst4core8LRUCacheIU6__weakPU21objcproto10MTLTexture11objc_objectU8__strongS3_EC1Em, 
                       __ZN3vst4core8LRUCacheIU6__weakPU21objcproto10MTLTexture11objc_objectU8__strongS3_EC2Em, 
                       __ZN3vst4core8LRUCacheIU8__strongP9IOSurfaceU8__strongPU19objcproto9MTLBuffer11objc_objectE10kEndOfListE, 
                       __ZN3vst4core8LRUCacheIU8__strongP9IOSurfaceU8__strongPU19objcproto9MTLBuffer11objc_objectE14clearFromIndexEj, 
                       __ZN3vst4core8LRUCacheIU8__strongP9IOSurfaceU8__strongPU19objcproto9MTLBuffer11objc_objectE17clearStaleEntriesEy, 
                       __ZN3vst4core8LRUCacheIU8__strongP9IOSurfaceU8__strongPU19objcproto9MTLBuffer11objc_objectE4findERU8__strongKS3_, 
                       __ZN3vst4core8LRUCacheIU8__strongP9IOSurfaceU8__strongPU19objcproto9MTLBuffer11objc_objectE5clearEv, 
                       __ZN3vst4core8LRUCacheIU8__strongP9IOSurfaceU8__strongPU19objcproto9MTLBuffer11objc_objectE6insertERU8__strongKS3_RU8__strongKS6_, 
                       __ZN3vst4core8LRUCacheIU8__strongP9IOSurfaceU8__strongPU19objcproto9MTLBuffer11objc_objectEC1Em, 
                       __ZN3vst4core8LRUCacheIU8__strongP9IOSurfaceU8__strongPU19objcproto9MTLBuffer11objc_objectEC2Em, 
                       __ZN3vst4core8LRUCacheIjjE10kEndOfListE, __ZN3vst4core8LRUCacheIjjE14clearFromIndexEj, 
                       __ZN3vst4core8LRUCacheIjjE17clearStaleEntriesEy, __ZN3vst4core8LRUCacheIjjE4findERKj, 
                       __ZN3vst4core8LRUCacheIjjE5clearEv, __ZN3vst4core8LRUCacheIjjE6insertERKjS4_, 
                       __ZN3vst4core8LRUCacheIjjEC1Em, __ZN3vst4core8LRUCacheIjjEC2Em, 
                       __ZN3vst5splat10VolumeData44kPersonaCompressionQuiltSplatAttributeCoordsE, 
                       __ZN3vst5splat10VolumeData44kPersonaModelOutputQuiltSplatAttributeCoordsE, 
                       __ZN3vst5splat12HWRasterizer17kAllPipelineFlagsE, __ZN3vst5splat23GaussianSplatRasterizer17kAllPipelineFlagsE, 
                       __ZN3vst5splat23TriangleSplatRasterizer17kAllPipelineFlagsE, 
                       __ZZN3vst5splat24getAspenVertexPropertiesENSt3__14spanIKNS_4core3ply7ElementELm18446744073709551615EEEE28kSupportedColorSpaceProperty ]
...
