--- !tapi-tbd-v3
archs:                 [ armv7, armv7s, arm64, arm64e ]
platform:              ios
flags:                 [ flat_namespace ]
install-name:          /System/Library/PrivateFrameworks/AudioServerDriverTransports_IOP.framework/AudioServerDriverTransports_IOP
current-version:       1
compatibility-version: 1
objc-constraint:       retain_release
exports:
  - archs:                [ armv7, armv7s, arm64, arm64e ]
    symbols:              [ _ASDTIOPLogType,
                            __ZN19RTKitAudioFramework11gLogChannelE,
                            __ZN19RTKitAudioFramework12RingBufferV211setItemSizeEj,
                            __ZN19RTKitAudioFramework12RingBufferV216writeAtomicIndexERNS0_11AtomicIndexE,
                            __ZN19RTKitAudioFramework12RingBufferV217writeControlBlockERKNS0_11AtomicIndexERKNS0_12ControlBlockE,
                            __ZN19RTKitAudioFramework12RingBufferV24initEv,
                            __ZN19RTKitAudioFramework12RingBufferV25resetEv,
                            __ZN19RTKitAudioFramework12RingBufferV25writeERKNS_8IOBufferEPNS_12ElementArrayIS1_EE,
                            __ZN19RTKitAudioFramework12RingBufferV2C1ERNS_6BufferES2_S2_jj,
                            __ZN19RTKitAudioFramework12RingBufferV2C2ERNS_6BufferES2_S2_jj,
                            __ZN19RTKitAudioFramework13getLogChannelEv,
                            __ZN19RTKitAudioFramework13setLogChannelEP8os_log_s,
                            __ZN19RTKitAudioFramework14initLogChannelEv,
                            __ZN19RTKitAudioFramework15XnuMappedBuffer5unmapEv,
                            __ZN19RTKitAudioFramework15XnuMappedBuffer5writeERKNS_8IOBufferEj,
                            __ZN19RTKitAudioFramework15XnuMappedBuffer8mapLocalEPvm,
                            __ZN19RTKitAudioFramework15XnuMappedBuffer9mapByNameEym,
                            __ZN19RTKitAudioFramework15XnuMappedBuffer9mapRemoteEmm,
                            __ZN19RTKitAudioFramework15XnuMappedBufferC1ERNS0_6ConfigE,
                            __ZN19RTKitAudioFramework15XnuMappedBufferC2ERNS0_6ConfigE,
                            __ZN19RTKitAudioFramework15XnuMappedBufferD0Ev,
                            __ZN19RTKitAudioFramework15XnuMappedBufferD1Ev,
                            __ZN19RTKitAudioFramework15XnuMappedBufferD2Ev,
                            __ZN19RTKitAudioFramework16gLogChannelIsSetE,
                            __ZN19RTKitAudioFramework17AudioOutputWriter13_doTSTrackingERKNS_23AudioOutputRingBufferV213TimestampDataERS2_,
                            __ZN19RTKitAudioFramework17AudioOutputWriter15getDMATimestampERNS_23AudioOutputRingBufferV213TimestampDataE,
                            __ZN19RTKitAudioFramework17AudioOutputWriter17getWriteTimestampERNS_23AudioOutputRingBufferV213TimestampDataE,
                            __ZN19RTKitAudioFramework17AudioOutputWriter4initEv,
                            __ZN19RTKitAudioFramework17AudioOutputWriter5resetEv,
                            __ZN19RTKitAudioFramework17AudioOutputWriter5writeERKNS_8IOBufferE,
                            __ZN19RTKitAudioFramework17AudioOutputWriter5writeEyRKNS_8IOBufferE,
                            __ZN19RTKitAudioFramework17AudioOutputWriterC1ERNS_23AudioOutputRingBufferV2ERNS_13TimeGeneratorEjj,
                            __ZN19RTKitAudioFramework17AudioOutputWriterC2ERNS_23AudioOutputRingBufferV2ERNS_13TimeGeneratorEjj,
                            __ZN19RTKitAudioFramework17AudioRingBufferV220setStreamDescriptionERKNS_17StreamDescriptionE,
                            __ZN19RTKitAudioFramework17AudioRingBufferV24initEv,
                            __ZN19RTKitAudioFramework17AudioRingBufferV25resetEv,
                            __ZN19RTKitAudioFramework18RingBufferV2Reader21_getCurrentReaderInfoERNS0_10ReaderInfoE,
                            __ZN19RTKitAudioFramework18RingBufferV2Reader23_resetCurrentReaderInfoERNS0_10ReaderInfoE,
                            __ZN19RTKitAudioFramework18RingBufferV2Reader4initEv,
                            __ZN19RTKitAudioFramework18RingBufferV2Reader4readEPvm,
                            __ZN19RTKitAudioFramework18RingBufferV2Reader4readERNS_8IOBufferERm,
                            __ZN19RTKitAudioFramework18RingBufferV2Reader4readEyRNS_8IOBufferERm,
                            __ZN19RTKitAudioFramework18RingBufferV2Reader5_readERyRjjRNS_8IOBufferERm,
                            __ZN19RTKitAudioFramework18RingBufferV2Reader5resetEj,
                            __ZN19RTKitAudioFramework18RingBufferV2Reader6_resetERNS_12RingBufferV212ControlBlockEj,
                            __ZN19RTKitAudioFramework18RingBufferV2ReaderC1ERNS_12RingBufferV2Ej,
                            __ZN19RTKitAudioFramework18RingBufferV2ReaderC2ERNS_12RingBufferV2Ej,
                            __ZN19RTKitAudioFramework18RingBufferV2Writer11setItemSizeEm,
                            __ZN19RTKitAudioFramework18RingBufferV2Writer16setWritePositionEy,
                            __ZN19RTKitAudioFramework18RingBufferV2Writer22incrementWritePositionEm,
                            __ZN19RTKitAudioFramework18RingBufferV2Writer4initEv,
                            __ZN19RTKitAudioFramework18RingBufferV2Writer5resetEv,
                            __ZN19RTKitAudioFramework18RingBufferV2Writer5writeENS_12RingBufferV212ControlBlockERKNS_8IOBufferEPNS_12ElementArrayIS3_EE,
                            __ZN19RTKitAudioFramework18RingBufferV2Writer5writeEPvm,
                            __ZN19RTKitAudioFramework18RingBufferV2Writer5writeERKNS_8IOBufferEPNS_12ElementArrayIS1_EE,
                            __ZN19RTKitAudioFramework18RingBufferV2Writer5writeEyRKNS_8IOBufferEPNS_12ElementArrayIS1_EE,
                            __ZN19RTKitAudioFramework18RingBufferV2WriterC1ERNS_12RingBufferV2E,
                            __ZN19RTKitAudioFramework18RingBufferV2WriterC2ERNS_12RingBufferV2E,
                            __ZN19RTKitAudioFramework20MappedSubrangeBuffer10clearStateEv,
                            __ZN19RTKitAudioFramework20MappedSubrangeBuffer11setSubRangeEjm,
                            __ZN19RTKitAudioFramework20MappedSubrangeBuffer5writeERKNS_8IOBufferEj,
                            __ZN19RTKitAudioFramework20MappedSubrangeBufferC1ERNS_13IMappedBufferE,
                            __ZN19RTKitAudioFramework20MappedSubrangeBufferC2ERNS_13IMappedBufferE,
                            __ZN19RTKitAudioFramework23AudioOutputRingBufferV213readTimestampEjRNS0_13TimestampDataE,
                            __ZN19RTKitAudioFramework23AudioOutputRingBufferV214writeTimestampERKNS0_13TimestampDataE,
                            __ZN19RTKitAudioFramework23AudioOutputRingBufferV24initEv,
                            __ZN19RTKitAudioFramework23AudioOutputRingBufferV25resetEv,
                            __ZN19RTKitAudioFramework23AudioOutputRingBufferV25writeERKNS_8IOBufferE,
                            __ZN19RTKitAudioFramework23AudioPacketRingBufferV24initEv,
                            __ZN19RTKitAudioFramework23AudioPacketRingBufferV25resetEv,
                            __ZN19RTKitAudioFramework29AudioPacketRingBufferV2Reader13readAllCommonEPNS_9Interface12Audio3PacketERmbNS_12RingBufferV214CacheOperationEb,
                            __ZN19RTKitAudioFramework29AudioPacketRingBufferV2Reader13readForPacketERKNS_9Interface12Audio3PacketENS_8IOBufferERm,
                            __ZN19RTKitAudioFramework29AudioPacketRingBufferV2Reader4initEv,
                            __ZN19RTKitAudioFramework29AudioPacketRingBufferV2Reader4readERNS_9Interface12Audio3PacketENS_12RingBufferV214CacheOperationE,
                            __ZN19RTKitAudioFramework29AudioPacketRingBufferV2Reader4readERNS_9Interface12Audio3PacketENS_8IOBufferE,
                            __ZN19RTKitAudioFramework29AudioPacketRingBufferV2Reader4readEyNS_8IOBufferERm,
                            __ZN19RTKitAudioFramework29AudioPacketRingBufferV2Reader5resetEj,
                            __ZN19RTKitAudioFramework29AudioPacketRingBufferV2Reader7peekAllEPNS_9Interface12Audio3PacketERmbNS_12RingBufferV214CacheOperationE,
                            __ZN19RTKitAudioFramework29AudioPacketRingBufferV2Reader7readAllEPNS_9Interface12Audio3PacketERmbNS_12RingBufferV214CacheOperationE,
                            __ZN19RTKitAudioFramework6Buffer3setEjmh,
                            __ZN19RTKitAudioFramework6Buffer4initEPvm,
                            __ZN19RTKitAudioFramework6Buffer5writeERKNS_8IOBufferEj,
                            __ZN19RTKitAudioFramework6BufferC1ERS0_jm,
                            __ZN19RTKitAudioFramework6BufferC2ERS0_jm,
                            __ZN19RTKitAudioFramework8IOBuffer11setItemSizeEm,
                            __ZN19RTKitAudioFramework8IOBuffer3setEPvmm,
                            __ZN19RTKitAudioFramework8IOBufferC1EPKvmm,
                            __ZN19RTKitAudioFramework8IOBufferC2EPKvmm,
                            __ZN19RTKitAudioFramework8IOBufferpLEm,
                            __ZN19RTKitAudioFramework8IOPAudio13BufferMapping10readyCheckEv,
                            __ZN19RTKitAudioFramework8IOPAudio13BufferMapping13setBufferSpecERKNS_10BufferSpecE,
                            __ZN19RTKitAudioFramework8IOPAudio13BufferMapping3mapEv,
                            __ZN19RTKitAudioFramework8IOPAudio13BufferMapping4_mapEv,
                            __ZN19RTKitAudioFramework8IOPAudio13BufferMapping5unmapEv,
                            __ZN19RTKitAudioFramework8IOPAudio13BufferMappingC1ERNS1_6ConfigE,
                            __ZN19RTKitAudioFramework8IOPAudio13BufferMappingC2ERNS1_6ConfigE,
                            __ZN19RTKitAudioFramework8IOPAudio16XnuBufferMapping10readyCheckEv,
                            __ZN19RTKitAudioFramework8IOPAudio16XnuBufferMapping3mapEv,
                            __ZN19RTKitAudioFramework8IOPAudio16XnuBufferMapping5unmapEv,
                            __ZN19RTKitAudioFramework8IOPAudio16XnuBufferMappingC1ENS_15XnuMappedBuffer6ConfigERNS0_23PacketRingBufferMappingE,
                            __ZN19RTKitAudioFramework8IOPAudio16XnuBufferMappingC2ENS_15XnuMappedBuffer6ConfigERNS0_23PacketRingBufferMappingE,
                            __ZN19RTKitAudioFramework8IOPAudio18InputBufferMapping21_setStreamDescriptionERKNS_17StreamDescriptionE,
                            __ZN19RTKitAudioFramework8IOPAudio18InputBufferMappingC1ERNS0_23PacketRingBufferMapping6ConfigERKNS_17StreamDescriptionE,
                            __ZN19RTKitAudioFramework8IOPAudio18InputBufferMappingC2ERNS0_23PacketRingBufferMapping6ConfigERKNS_17StreamDescriptionE,
                            __ZN19RTKitAudioFramework8IOPAudio19OutputBufferMapping21_setStreamDescriptionERKNS_17StreamDescriptionE,
                            __ZN19RTKitAudioFramework8IOPAudio19OutputBufferMappingC1ERNS0_23PacketRingBufferMapping6ConfigERKNS_17StreamDescriptionE,
                            __ZN19RTKitAudioFramework8IOPAudio19OutputBufferMappingC2ERNS0_23PacketRingBufferMapping6ConfigERKNS_17StreamDescriptionE,
                            __ZN19RTKitAudioFramework8IOPAudio21XnuInputBufferMappingC1EPvmRKNS_17StreamDescriptionE,
                            __ZN19RTKitAudioFramework8IOPAudio21XnuInputBufferMappingC2EPvmRKNS_17StreamDescriptionE,
                            __ZN19RTKitAudioFramework8IOPAudio22XnuOutputBufferMappingC1EPvmjRKNS_17StreamDescriptionERNS_13TimeGeneratorE,
                            __ZN19RTKitAudioFramework8IOPAudio22XnuOutputBufferMappingC2EPvmjRKNS_17StreamDescriptionERNS_13TimeGeneratorE,
                            __ZN19RTKitAudioFramework8IOPAudio23PacketRingBufferMapping10mapAsOwnerEv,
                            __ZN19RTKitAudioFramework8IOPAudio23PacketRingBufferMapping10readyCheckEv,
                            __ZN19RTKitAudioFramework8IOPAudio23PacketRingBufferMapping13mapAsConsumerEv,
                            __ZN19RTKitAudioFramework8IOPAudio23PacketRingBufferMapping19setupDataRingBufferEv,
                            __ZN19RTKitAudioFramework8IOPAudio23PacketRingBufferMapping20setStreamDescriptionERKNS_17StreamDescriptionE,
                            __ZN19RTKitAudioFramework8IOPAudio23PacketRingBufferMapping20setupSubrangeBuffersEv,
                            __ZN19RTKitAudioFramework8IOPAudio23PacketRingBufferMapping5unmapEv,
                            __ZN19RTKitAudioFramework8IOPAudio23PacketRingBufferMapping9getHeaderEv,
                            __ZN19RTKitAudioFramework8IOPAudio23PacketRingBufferMappingC2ERNS1_6ConfigE,
                            __ZN4ASDT8IOPAudio11AlgInjector10SetUseCaseEN19RTKitAudioFramework8IOPAudio9Tightbeam7UseCaseE,
                            __ZN4ASDT8IOPAudio11AlgInjector10_GetBufferEmRKN19RTKitAudioFramework8IOPAudio8Provider21DataStreamDescriptionERNSt3__13mapImNS8_6vectorIhNS8_9allocatorIhEEEENS8_4lessImEENSB_INS8_4pairIKmSD_EEEEEE,
                            __ZN4ASDT8IOPAudio11AlgInjector10_WriteDataEmPKvm,
                            __ZN4ASDT8IOPAudio11AlgInjector13ReadAudioDataEmPvRm,
                            __ZN4ASDT8IOPAudio11AlgInjector13ReadEventDataEmPvRm,
                            __ZN4ASDT8IOPAudio11AlgInjector14GetInputBufferEm,
                            __ZN4ASDT8IOPAudio11AlgInjector14GetInputsCountEv,
                            __ZN4ASDT8IOPAudio11AlgInjector14SetPayloadSizeEj,
                            __ZN4ASDT8IOPAudio11AlgInjector14WriteAudioDataEmRKN19RTKitAudioFramework12ElementArrayIhEE,
                            __ZN4ASDT8IOPAudio11AlgInjector14WriteEventDataEmRKN19RTKitAudioFramework12ElementArrayIhEE,
                            __ZN4ASDT8IOPAudio11AlgInjector15GetOutputBufferEm,
                            __ZN4ASDT8IOPAudio11AlgInjector15GetOutputsCountEv,
                            __ZN4ASDT8IOPAudio11AlgInjector15_GetInputsCountEv,
                            __ZN4ASDT8IOPAudio11AlgInjector16_GetOutputsCountEv,
                            __ZN4ASDT8IOPAudio11AlgInjector18GetInputStreamInfoEm,
                            __ZN4ASDT8IOPAudio11AlgInjector19GetOutputStreamInfoEm,
                            __ZN4ASDT8IOPAudio11AlgInjector20SetProviderServiceIDEj,
                            __ZN4ASDT8IOPAudio11AlgInjector29GetInputDataStreamDescriptionEm,
                            __ZN4ASDT8IOPAudio11AlgInjector30GetOutputDataStreamDescriptionEm,
                            __ZN4ASDT8IOPAudio11AlgInjector30_GetInputDataStreamDescriptionEm,
                            __ZN4ASDT8IOPAudio11AlgInjector31_GetOutputDataStreamDescriptionEm,
                            __ZN4ASDT8IOPAudio11AlgInjector5SetupEN19RTKitAudioFramework8IOPAudio9Tightbeam7UseCaseEj,
                            __ZN4ASDT8IOPAudio11AlgInjector7CleanupEv,
                            __ZN4ASDT8IOPAudio11AlgInjector7ProcessEv,
                            __ZN4ASDT8IOPAudio11AlgInjector9_ReadDataEmPvRm,
                            __ZN4ASDT8IOPAudio11AlgInjectorC1Ej,
                            __ZN4ASDT8IOPAudio11AlgInjectorC2Ej,
                            __ZN4ASDT8IOPAudio12VoiceTrigger10UserClient12VTSharedLockEv,
                            __ZN4ASDT8IOPAudio12VoiceTrigger10UserClient15MoveDataMembersERS2_,
                            __ZN4ASDT8IOPAudio12VoiceTrigger10UserClient15VTExclusiveLockEv,
                            __ZN4ASDT8IOPAudio12VoiceTrigger10UserClient20InterestNotificationEjPv,
                            __ZN4ASDT8IOPAudio12VoiceTrigger10UserClient20SetConfigurationInfoERKN10applesauce2CF13DictionaryRefE,
                            __ZN4ASDT8IOPAudio12VoiceTrigger10UserClient25SetPhraseDetectEventBlockEU13block_pointerFvvE,
                            __ZN4ASDT8IOPAudio12VoiceTrigger10UserClient4OpenEv,
                            __ZN4ASDT8IOPAudio12VoiceTrigger10UserClient5CloseEv,
                            __ZN4ASDT8IOPAudio12VoiceTrigger10UserClientC1EOS2_,
                            __ZN4ASDT8IOPAudio12VoiceTrigger10UserClientC2EOS2_,
                            __ZN4ASDT8IOPAudio12VoiceTrigger10UserClientD0Ev,
                            __ZN4ASDT8IOPAudio12VoiceTrigger10UserClientD1Ev,
                            __ZN4ASDT8IOPAudio12VoiceTrigger10UserClientD2Ev,
                            __ZN4ASDT8IOPAudio12VoiceTrigger10UserClientaSEOS2_,
                            __ZN4ASDT8IOPAudio13BufferMapping13timeForFramesEj,
                            __ZN4ASDT8IOPAudio13BufferMapping16getZeroTimestampERNS1_9TimestampE,
                            __ZN4ASDT8IOPAudio13BufferMapping18calculateZTSPeriodEv,
                            __ZN4ASDT8IOPAudio13BufferMapping6createEbRNS_13TimeInterfaceEPvjjjjRK27AudioStreamBasicDescription,
                            __ZN4ASDT8IOPAudio13BufferMapping9checkSeedEj,
                            __ZN4ASDT8IOPAudio13BufferMappingC2ERNS_13TimeInterfaceEjj,
                            __ZN4ASDT8IOPAudio13ClientManager10UserClient14GetEnableStateERb,
                            __ZN4ASDT8IOPAudio13ClientManager10UserClient15GetNodePropertyEjRjPv,
                            __ZN4ASDT8IOPAudio13ClientManager10UserClient15SetNodePropertyEjjPKv,
                            __ZN4ASDT8IOPAudio13ClientManager10UserClient16MakePowerRequestERKN8IOPAudio19ClientManagerDevice12PowerRequestE,
                            __ZN4ASDT8IOPAudio13ClientManager10UserClient20GetCurrentPowerStateERj,
                            __ZN4ASDT8IOPAudio13ClientManager10UserClient6EnableEj,
                            __ZN4ASDT8IOPAudio13ClientManager10UserClient7DisableEj,
                            __ZN4ASDT8IOPAudio14AlgInjectorMap3endEv,
                            __ZN4ASDT8IOPAudio14AlgInjectorMap4findERKNSt3__112basic_stringIcNS2_11char_traitsIcEENS2_9allocatorIcEEEE,
                            __ZN4ASDT8IOPAudio14AlgInjectorMap5beginEv,
                            __ZN4ASDT8IOPAudio14AlgInjectorMapC1Ev,
                            __ZN4ASDT8IOPAudio14AlgInjectorMapC2Ev,
                            __ZN4ASDT8IOPAudio16IsolatedIOBuffer10UserClient10TeardownIOEv,
                            __ZN4ASDT8IOPAudio16IsolatedIOBuffer10UserClient13SetupClientIOEyj,
                            __ZN4ASDT8IOPAudio16IsolatedIOBuffer10UserClient16TeardownClientIOEy,
                            __ZN4ASDT8IOPAudio16IsolatedIOBuffer10UserClient20GetStreamDescriptionER27AudioStreamBasicDescription,
                            __ZN4ASDT8IOPAudio16IsolatedIOBuffer10UserClient20SetStreamDescriptionERK27AudioStreamBasicDescriptionj,
                            __ZN4ASDT8IOPAudio16IsolatedIOBuffer10UserClient7SetupIOEv,
                            __ZN4ASDT8IOPAudio16IsolatedIOBuffer10UserClient9ReadInputEyyj,
                            __ZN4ASDT8IOPAudio18InputBufferMapping12getTimestampERNS0_13BufferMapping9TimestampE,
                            __ZN4ASDT8IOPAudio18InputBufferMapping19updateAvailableDataEv,
                            __ZN4ASDT8IOPAudio18InputBufferMapping4initEv,
                            __ZN4ASDT8IOPAudio18InputBufferMapping4readEyjPv,
                            __ZN4ASDT8IOPAudio18InputBufferMapping7prepareEv,
                            __ZN4ASDT8IOPAudio18InputBufferMappingC1ERNS_13TimeInterfaceEPvjjjRKN19RTKitAudioFramework17StreamDescriptionE,
                            __ZN4ASDT8IOPAudio18InputBufferMappingC2ERNS_13TimeInterfaceEPvjjjRKN19RTKitAudioFramework17StreamDescriptionE,
                            __ZN4ASDT8IOPAudio19OutputBufferMapping12getTimestampERNS0_13BufferMapping9TimestampE,
                            __ZN4ASDT8IOPAudio19OutputBufferMapping4initEv,
                            __ZN4ASDT8IOPAudio19OutputBufferMapping5writeEyjPKv,
                            __ZN4ASDT8IOPAudio19OutputBufferMapping7prepareEv,
                            __ZN4ASDT8IOPAudio19OutputBufferMappingC1ERNS_13TimeInterfaceEPvjjjjRKN19RTKitAudioFramework17StreamDescriptionE,
                            __ZN4ASDT8IOPAudio19OutputBufferMappingC2ERNS_13TimeInterfaceEPvjjjjRKN19RTKitAudioFramework17StreamDescriptionE,
                            __ZN4ASDT8IOPAudio5LPMic10UserClient13SetSampleRateEj,
                            __ZN4ASDT8IOPAudio5LPMic10UserClient15GetControlValueEN8IOPAudio11LPMicDevice7ControlERj,
                            __ZN4ASDT8IOPAudio5LPMic10UserClient15MapEngineStatusEv,
                            __ZN4ASDT8IOPAudio5LPMic10UserClient15SetControlValueEN8IOPAudio11LPMicDevice7ControlEj,
                            __ZN4ASDT8IOPAudio5LPMic10UserClient21GetEnabledChannelMaskERj,
                            __ZN4ASDT8IOPAudio5LPMic10UserClient21SetEnabledChannelMaskEj,
                            __ZN4ASDT8IOPAudio5LPMic10UserClient23GetSupportedChannelMaskERj,
                            __ZN4ASDT8IOPAudio5LPMic10UserClient6StopIOEv,
                            __ZN4ASDT8IOPAudio5LPMic10UserClient7StartIOEv,
                            __ZN4ASDT8IOPAudio8IOBuffer10UserClient11MapIOBufferEv,
                            __ZN4ASDT8IOPAudio8StreamCM10UserClient11MapIOBufferEN19RTKitAudioFramework16StreamIdentifierE,
                            __ZN4ASDT8IOPAudio8StreamCM10UserClient14CopyStreamInfoEv,
                            __ZN4ASDT8IOPAudio8StreamCM10UserClient14GetClockDomainEv,
                            __ZN4ASDT8IOPAudio8StreamCM10UserClient16ConvertTimestampEyRy,
                            __ZN4ASDT8IOPAudio8StreamCM10UserClient17GetBooleanControlEN19RTKitAudioFramework8IOPAudio9Tightbeam17ControlIdentifierERb,
                            __ZN4ASDT8IOPAudio8StreamCM10UserClient17SetBooleanControlEN19RTKitAudioFramework8IOPAudio9Tightbeam17ControlIdentifierEb,
                            __ZN4ASDT8IOPAudio8StreamCM10UserClient23SelectStreamDescriptionEN19RTKitAudioFramework16StreamIdentifierEj,
                            __ZN4ASDT8IOPAudio8StreamCM10UserClient26MapTypeAndOptionsForStreamEN19RTKitAudioFramework16StreamIdentifierERjS5_,
                            __ZNK19RTKitAudioFramework12RingBufferV214getAtomicIndexERNS0_11AtomicIndexE,
                            __ZNK19RTKitAudioFramework12RingBufferV215advancePositionERji,
                            __ZNK19RTKitAudioFramework12RingBufferV215getControlBlockERKNS0_11AtomicIndexERNS0_12ControlBlockE,
                            __ZNK19RTKitAudioFramework12RingBufferV221positionToVirtAddressEy,
                            __ZNK19RTKitAudioFramework12RingBufferV24peekEjjRNS_12ElementArrayINS_8IOBufferEEE,
                            __ZNK19RTKitAudioFramework12RingBufferV24readEjRNS_8IOBufferE,
                            __ZNK19RTKitAudioFramework12RingBufferV26assumeEym,
                            __ZNK19RTKitAudioFramework12RingBufferV27releaseEym,
                            __ZNK19RTKitAudioFramework15XnuMappedBuffer15_assumeSubrangeEjm,
                            __ZNK19RTKitAudioFramework15XnuMappedBuffer16_releaseSubrangeEjm,
                            __ZNK19RTKitAudioFramework15XnuMappedBuffer4peekEjRNS_8IOBufferE,
                            __ZNK19RTKitAudioFramework15XnuMappedBuffer4readEjRNS_8IOBufferE,
                            __ZNK19RTKitAudioFramework18RingBufferV2Reader16_validateSessionERNS_12RingBufferV212ControlBlockE,
                            __ZNK19RTKitAudioFramework18RingBufferV2Reader21_validateReadPositionERNS_12RingBufferV212ControlBlockE,
                            __ZNK19RTKitAudioFramework18RingBufferV2Reader22getCurrentControlBlockERNS_12RingBufferV212ControlBlockE,
                            __ZNK19RTKitAudioFramework18RingBufferV2Reader4peekEjRNS_12ElementArrayINS_8IOBufferEEE,
                            __ZNK19RTKitAudioFramework18RingBufferV2Reader5_peekERNS_12RingBufferV212ControlBlockEjRNS_12ElementArrayINS_8IOBufferEEE,
                            __ZNK19RTKitAudioFramework20MappedSubrangeBuffer11getPhysAddrEv,
                            __ZNK19RTKitAudioFramework20MappedSubrangeBuffer14assumeSubrangeEjm,
                            __ZNK19RTKitAudioFramework20MappedSubrangeBuffer14getAlignedSizeEv,
                            __ZNK19RTKitAudioFramework20MappedSubrangeBuffer15releaseSubrangeEjm,
                            __ZNK19RTKitAudioFramework20MappedSubrangeBuffer4peekEjRNS_8IOBufferE,
                            __ZNK19RTKitAudioFramework20MappedSubrangeBuffer4readEjRNS_8IOBufferE,
                            __ZNK19RTKitAudioFramework20MappedSubrangeBuffer7isValidEv,
                            __ZNK19RTKitAudioFramework23AudioPacketRingBufferV26assumeERKNS_9Interface12Audio3PacketE,
                            __ZNK19RTKitAudioFramework23AudioPacketRingBufferV26assumeEym,
                            __ZNK19RTKitAudioFramework6Buffer14assumeSubrangeEjm,
                            __ZNK19RTKitAudioFramework6Buffer15releaseSubrangeEjm,
                            __ZNK19RTKitAudioFramework6Buffer4peekEjRNS_8IOBufferE,
                            __ZNK19RTKitAudioFramework6Buffer4readEjRNS_8IOBufferE,
                            __ZNK19RTKitAudioFramework8IOPAudio13BufferMapping13getBufferSpecEv,
                            __ZNK4ASDT8IOPAudio12VoiceTrigger10UserClient11GetModelCRCERj,
                            __ZNK4ASDT8IOPAudio12VoiceTrigger10UserClient13CopyEventInfoEv,
                            __ZNK4ASDT8IOPAudio12VoiceTrigger10UserClient14CopyIdentifierEv,
                            __ZNK4ASDT8IOPAudio12VoiceTrigger10UserClient15GetControlValueEN8IOPAudio18VoiceTriggerDevice12ControlValueERj,
                            __ZNK4ASDT8IOPAudio12VoiceTrigger10UserClient15GetDebugEnabledERj,
                            __ZNK4ASDT8IOPAudio12VoiceTrigger10UserClient15GetIsConfiguredEv,
                            __ZNK4ASDT8IOPAudio12VoiceTrigger10UserClient15SetControlValueEN8IOPAudio18VoiceTriggerDevice12ControlValueEj,
                            __ZNK4ASDT8IOPAudio12VoiceTrigger10UserClient15SetDebugEnabledEj,
                            __ZNK4ASDT8IOPAudio12VoiceTrigger10UserClient20GetActiveChannelMaskERj,
                            __ZNK4ASDT8IOPAudio12VoiceTrigger10UserClient21CopyConfigurationInfoEv,
                            __ZNK4ASDT8IOPAudio12VoiceTrigger10UserClient22GetVoiceTriggerEnabledERj,
                            __ZNK4ASDT8IOPAudio12VoiceTrigger10UserClient22SetVoiceTriggerEnabledEj,
                            __ZNK4ASDT8IOPAudio12VoiceTrigger10UserClient32ShouldEnableInterestNotificationEv,
                            __ZNK4ASDT8IOPAudio13ClientManager10UserClient14CopyIdentifierEv,
                            __ZNK4ASDT8IOPAudio14AlgInjectorMap3endEv,
                            __ZNK4ASDT8IOPAudio14AlgInjectorMap4findERKNSt3__112basic_stringIcNS2_11char_traitsIcEENS2_9allocatorIcEEEE,
                            __ZNK4ASDT8IOPAudio14AlgInjectorMap4sizeEv,
                            __ZNK4ASDT8IOPAudio14AlgInjectorMap5beginEv,
                            __ZNK4ASDT8IOPAudio14AlgInjectorMap5emptyEv,
                            __ZNK4ASDT8IOPAudio16IsolatedIOBuffer10UserClient14CopyIdentifierEv,
                            __ZNK4ASDT8IOPAudio5LPMic10UserClient14CopyIdentifierEv,
                            __ZNK4ASDT8IOPAudio5LPMic10UserClient14GetClockDomainEv,
                            __ZNK4ASDT8IOPAudio5LPMic10UserClient17GetRingBufferSizeEv,
                            __ZNK4ASDT8IOPAudio5LPMic10UserClient20GetStreamDescriptionERNS1_17StreamDescriptionE,
                            __ZNK4ASDT8IOPAudio5LPMic10UserClient24GetHistoricDataSupportedEv,
                            __ZNK4ASDT8IOPAudio5LPMic10UserClient24GetZeroTimeStampIntervalEv,
                            __ZNK4ASDT8IOPAudio5LPMic12EngineStatus8SnapshotERS2_,
                            __ZNK4ASDT8IOPAudio8IOBuffer10UserClient14CopyIdentifierEv,
                            __ZTIN4ASDT8IOPAudio12VoiceTrigger10UserClientE,
                            __ZTIN4ASDT8IOPAudio18InputBufferMappingE,
                            __ZTIN4ASDT8IOPAudio19OutputBufferMappingE,
                            __ZTSN4ASDT8IOPAudio12VoiceTrigger10UserClientE,
                            __ZTSN4ASDT8IOPAudio18InputBufferMappingE,
                            __ZTSN4ASDT8IOPAudio19OutputBufferMappingE,
                            __ZTVN19RTKitAudioFramework15XnuMappedBufferE,
                            __ZTVN19RTKitAudioFramework18RingBufferV2ReaderE,
                            __ZTVN19RTKitAudioFramework18RingBufferV2WriterE,
                            __ZTVN19RTKitAudioFramework20MappedSubrangeBufferE,
                            __ZTVN19RTKitAudioFramework23AudioOutputRingBufferV2E,
                            __ZTVN19RTKitAudioFramework23AudioPacketRingBufferV2E,
                            __ZTVN19RTKitAudioFramework6BufferE,
                            __ZTVN19RTKitAudioFramework8IOPAudio13BufferMappingE,
                            __ZTVN19RTKitAudioFramework8IOPAudio18InputBufferMappingE,
                            __ZTVN19RTKitAudioFramework8IOPAudio19OutputBufferMappingE,
                            __ZTVN19RTKitAudioFramework8IOPAudio23PacketRingBufferMappingE,
                            __ZTVN4ASDT8IOPAudio12VoiceTrigger10UserClientE,
                            __ZTVN4ASDT8IOPAudio18InputBufferMappingE,
                            __ZTVN4ASDT8IOPAudio19OutputBufferMappingE,
                            _kASDTIOPAudioConfigKeyCMEnablePropertyDirection,
                            _kASDTIOPAudioConfigKeyCMPowerStatePropertyDirection,
                            _kASDTIOPAudioConfigKeyCMPowerStatePropertyDisabled,
                            _kASDTIOPAudioConfigKeyCMPowerStatePropertyEnabled,
                            _kASDTIOPAudioConfigLPMicDeviceUID ]
    objc-classes:         [ ASDTIOPAudioCMDevice, ASDTIOPAudioCMEnableProperty,
                            ASDTIOPAudioCMPowerStateProperty,
                            ASDTIOPAudioCMServiceManager,
                            ASDTIOPAudioIOBufferDevice,
                            ASDTIOPAudioIOBufferServiceManager,
                            ASDTIOPAudioIsolatedIOBufferDevice,
                            ASDTIOPAudioIsolatedIOBufferServiceManager,
                            ASDTIOPAudioLPMicDevice,
                            ASDTIOPAudioLPMicDeviceFactory,
                            ASDTIOPAudioLPMicServiceManager,
                            ASDTIOPAudioLPMicStream,
                            ASDTIOPAudioLPMicUInt32Property,
                            ASDTIOPAudioStreamCMDevice,
                            ASDTIOPAudioStreamCMDeviceFactory,
                            ASDTIOPAudioStreamCMService,
                            ASDTIOPAudioStreamCMServiceManager,
                            ASDTIOPAudioStreamCMStream,
                            ASDTIOPAudioVTActiveChannelMaskProperty,
                            ASDTIOPAudioVTAvailableProperty,
                            ASDTIOPAudioVTConfigurationProperty,
                            ASDTIOPAudioVTDebugProperty, ASDTIOPAudioVTDevice,
                            ASDTIOPAudioVTEnableProperty,
                            ASDTIOPAudioVTModelCRCProperty,
                            ASDTIOPAudioVTOccurredProperty,
                            ASDTIOPAudioVTProperty, ASDTIOPAudioVTServiceManager,
                            ASDTIOPAudioVTUInt32Property ]
    objc-ivars:           [ ASDTIOPAudioCMDevice._userClient,
                            ASDTIOPAudioCMEnableProperty._clientManager,
                            ASDTIOPAudioCMEnableProperty._enableDirection,
                            ASDTIOPAudioCMPowerStateProperty._clientManager,
                            ASDTIOPAudioCMPowerStateProperty._powerStateDirection,
                            ASDTIOPAudioCMPowerStateProperty._powerStateDisabled,
                            ASDTIOPAudioCMPowerStateProperty._powerStateEnabled,
                            ASDTIOPAudioIOBufferDevice._memoryMap,
                            ASDTIOPAudioIOBufferDevice._userClient,
                            ASDTIOPAudioIsolatedIOBufferDevice._userClient,
                            ASDTIOPAudioLPMicDevice._exclavesStatusTracker,
                            ASDTIOPAudioLPMicDevice._exclavesStatusTrackerOnce,
                            ASDTIOPAudioLPMicDevice._initialSampleTime,
                            ASDTIOPAudioLPMicDevice._inputStream,
                            ASDTIOPAudioLPMicDevice._lpMicEngineStatus,
                            ASDTIOPAudioLPMicDevice._lpMicUserClient,
                            ASDTIOPAudioLPMicDevice._nonSecureInputEnableProperty,
                            ASDTIOPAudioLPMicStream._ioBufferDevice,
                            ASDTIOPAudioLPMicStream._ioBufferMap,
                            ASDTIOPAudioLPMicStream._ioBufferSize,
                            ASDTIOPAudioLPMicStream._isolatedIOBufferDevice,
                            ASDTIOPAudioStreamCMDevice._streamCMService,
                            ASDTIOPAudioStreamCMDevice._timeInterface,
                            ASDTIOPAudioStreamCMDevice._timestampMemoryMap,
                            ASDTIOPAudioStreamCMStream._bufferFrames,
                            ASDTIOPAudioStreamCMStream._bufferMapping,
                            ASDTIOPAudioStreamCMStream._bufferMemory,
                            ASDTIOPAudioStreamCMStream._getZeroTimestampBlock,
                            ASDTIOPAudioStreamCMStream._identifier,
                            ASDTIOPAudioStreamCMStream._packetCount,
                            ASDTIOPAudioVTDevice._openCount,
                            ASDTIOPAudioVTDevice._openLock,
                            ASDTIOPAudioVTDevice._userClient,
                            ASDTIOPAudioVTProperty._vtDevice ]
    weak-def-symbols:     [ __ZN19RTKitAudioFramework12RingBufferV211AtomicIndex6kMagicE,
                            __ZN19RTKitAudioFramework12RingBufferV212ControlBlock6kMagicE ]
...
