--- !tapi-tbd
tbd-version:     4
targets:         [ arm64e-macos ]
install-name:    '/System/Library/PrivateFrameworks/CoreUSDEdit.framework/Versions/A/Libraries/libIex.dylib'
current-version: 30.11.1
compatibility-version: 30
exports:
  - targets:         [ arm64e-macos ]
    symbols:         [ __Z13iex_debugTrapv, __ZN7Iex_3_110DivzeroExcC1EONSt3__112basic_stringIcNS1_11char_traitsIcEENS1_9allocatorIcEEEE, 
                       __ZN7Iex_3_110DivzeroExcC1EOS0_, __ZN7Iex_3_110DivzeroExcC1EPKc, 
                       __ZN7Iex_3_110DivzeroExcC1ERKNSt3__112basic_stringIcNS1_11char_traitsIcEENS1_9allocatorIcEEEE, 
                       __ZN7Iex_3_110DivzeroExcC1ERKS0_, __ZN7Iex_3_110DivzeroExcC1ERNSt3__118basic_stringstreamIcNS1_11char_traitsIcEENS1_9allocatorIcEEEE, 
                       __ZN7Iex_3_110DivzeroExcC1Ev, __ZN7Iex_3_110DivzeroExcC2EONSt3__112basic_stringIcNS1_11char_traitsIcEENS1_9allocatorIcEEEE, 
                       __ZN7Iex_3_110DivzeroExcC2EOS0_, __ZN7Iex_3_110DivzeroExcC2EPKc, 
                       __ZN7Iex_3_110DivzeroExcC2ERKNSt3__112basic_stringIcNS1_11char_traitsIcEENS1_9allocatorIcEEEE, 
                       __ZN7Iex_3_110DivzeroExcC2ERKS0_, __ZN7Iex_3_110DivzeroExcC2ERNSt3__118basic_stringstreamIcNS1_11char_traitsIcEENS1_9allocatorIcEEEE, 
                       __ZN7Iex_3_110DivzeroExcC2Ev, __ZN7Iex_3_110DivzeroExcD0Ev, 
                       __ZN7Iex_3_110DivzeroExcD1Ev, __ZN7Iex_3_110DivzeroExcD2Ev, 
                       __ZN7Iex_3_110DivzeroExcaSEOS0_, __ZN7Iex_3_110DivzeroExcaSERS0_, 
                       __ZN7Iex_3_110EbadmsgExcC1EONSt3__112basic_stringIcNS1_11char_traitsIcEENS1_9allocatorIcEEEE, 
                       __ZN7Iex_3_110EbadmsgExcC1EOS0_, __ZN7Iex_3_110EbadmsgExcC1EPKc, 
                       __ZN7Iex_3_110EbadmsgExcC1ERKNSt3__112basic_stringIcNS1_11char_traitsIcEENS1_9allocatorIcEEEE, 
                       __ZN7Iex_3_110EbadmsgExcC1ERKS0_, __ZN7Iex_3_110EbadmsgExcC1ERNSt3__118basic_stringstreamIcNS1_11char_traitsIcEENS1_9allocatorIcEEEE, 
                       __ZN7Iex_3_110EbadmsgExcC1Ev, __ZN7Iex_3_110EbadmsgExcC2EONSt3__112basic_stringIcNS1_11char_traitsIcEENS1_9allocatorIcEEEE, 
                       __ZN7Iex_3_110EbadmsgExcC2EOS0_, __ZN7Iex_3_110EbadmsgExcC2EPKc, 
                       __ZN7Iex_3_110EbadmsgExcC2ERKNSt3__112basic_stringIcNS1_11char_traitsIcEENS1_9allocatorIcEEEE, 
                       __ZN7Iex_3_110EbadmsgExcC2ERKS0_, __ZN7Iex_3_110EbadmsgExcC2ERNSt3__118basic_stringstreamIcNS1_11char_traitsIcEENS1_9allocatorIcEEEE, 
                       __ZN7Iex_3_110EbadmsgExcC2Ev, __ZN7Iex_3_110EbadmsgExcD0Ev, 
                       __ZN7Iex_3_110EbadmsgExcD1Ev, __ZN7Iex_3_110EbadmsgExcD2Ev, 
                       __ZN7Iex_3_110EbadmsgExcaSEOS0_, __ZN7Iex_3_110EbadmsgExcaSERS0_, 
                       __ZN7Iex_3_110EbadrqcExcC1EONSt3__112basic_stringIcNS1_11char_traitsIcEENS1_9allocatorIcEEEE, 
                       __ZN7Iex_3_110EbadrqcExcC1EOS0_, __ZN7Iex_3_110EbadrqcExcC1EPKc, 
                       __ZN7Iex_3_110EbadrqcExcC1ERKNSt3__112basic_stringIcNS1_11char_traitsIcEENS1_9allocatorIcEEEE, 
                       __ZN7Iex_3_110EbadrqcExcC1ERKS0_, __ZN7Iex_3_110EbadrqcExcC1ERNSt3__118basic_stringstreamIcNS1_11char_traitsIcEENS1_9allocatorIcEEEE, 
                       __ZN7Iex_3_110EbadrqcExcC1Ev, __ZN7Iex_3_110EbadrqcExcC2EONSt3__112basic_stringIcNS1_11char_traitsIcEENS1_9allocatorIcEEEE, 
                       __ZN7Iex_3_110EbadrqcExcC2EOS0_, __ZN7Iex_3_110EbadrqcExcC2EPKc, 
                       __ZN7Iex_3_110EbadrqcExcC2ERKNSt3__112basic_stringIcNS1_11char_traitsIcEENS1_9allocatorIcEEEE, 
                       __ZN7Iex_3_110EbadrqcExcC2ERKS0_, __ZN7Iex_3_110EbadrqcExcC2ERNSt3__118basic_stringstreamIcNS1_11char_traitsIcEENS1_9allocatorIcEEEE, 
                       __ZN7Iex_3_110EbadrqcExcC2Ev, __ZN7Iex_3_110EbadrqcExcD0Ev, 
                       __ZN7Iex_3_110EbadrqcExcD1Ev, __ZN7Iex_3_110EbadrqcExcD2Ev, 
                       __ZN7Iex_3_110EbadrqcExcaSEOS0_, __ZN7Iex_3_110EbadrqcExcaSERS0_, 
                       __ZN7Iex_3_110EbadsltExcC1EONSt3__112basic_stringIcNS1_11char_traitsIcEENS1_9allocatorIcEEEE, 
                       __ZN7Iex_3_110EbadsltExcC1EOS0_, __ZN7Iex_3_110EbadsltExcC1EPKc, 
                       __ZN7Iex_3_110EbadsltExcC1ERKNSt3__112basic_stringIcNS1_11char_traitsIcEENS1_9allocatorIcEEEE, 
                       __ZN7Iex_3_110EbadsltExcC1ERKS0_, __ZN7Iex_3_110EbadsltExcC1ERNSt3__118basic_stringstreamIcNS1_11char_traitsIcEENS1_9allocatorIcEEEE, 
                       __ZN7Iex_3_110EbadsltExcC1Ev, __ZN7Iex_3_110EbadsltExcC2EONSt3__112basic_stringIcNS1_11char_traitsIcEENS1_9allocatorIcEEEE, 
                       __ZN7Iex_3_110EbadsltExcC2EOS0_, __ZN7Iex_3_110EbadsltExcC2EPKc, 
                       __ZN7Iex_3_110EbadsltExcC2ERKNSt3__112basic_stringIcNS1_11char_traitsIcEENS1_9allocatorIcEEEE, 
                       __ZN7Iex_3_110EbadsltExcC2ERKS0_, __ZN7Iex_3_110EbadsltExcC2ERNSt3__118basic_stringstreamIcNS1_11char_traitsIcEENS1_9allocatorIcEEEE, 
                       __ZN7Iex_3_110EbadsltExcC2Ev, __ZN7Iex_3_110EbadsltExcD0Ev, 
                       __ZN7Iex_3_110EbadsltExcD1Ev, __ZN7Iex_3_110EbadsltExcD2Ev, 
                       __ZN7Iex_3_110EbadsltExcaSEOS0_, __ZN7Iex_3_110EbadsltExcaSERS0_, 
                       __ZN7Iex_3_110EdeadlkExcC1EONSt3__112basic_stringIcNS1_11char_traitsIcEENS1_9allocatorIcEEEE, 
                       __ZN7Iex_3_110EdeadlkExcC1EOS0_, __ZN7Iex_3_110EdeadlkExcC1EPKc, 
                       __ZN7Iex_3_110EdeadlkExcC1ERKNSt3__112basic_stringIcNS1_11char_traitsIcEENS1_9allocatorIcEEEE, 
                       __ZN7Iex_3_110EdeadlkExcC1ERKS0_, __ZN7Iex_3_110EdeadlkExcC1ERNSt3__118basic_stringstreamIcNS1_11char_traitsIcEENS1_9allocatorIcEEEE, 
                       __ZN7Iex_3_110EdeadlkExcC1Ev, __ZN7Iex_3_110EdeadlkExcC2EONSt3__112basic_stringIcNS1_11char_traitsIcEENS1_9allocatorIcEEEE, 
                       __ZN7Iex_3_110EdeadlkExcC2EOS0_, __ZN7Iex_3_110EdeadlkExcC2EPKc, 
                       __ZN7Iex_3_110EdeadlkExcC2ERKNSt3__112basic_stringIcNS1_11char_traitsIcEENS1_9allocatorIcEEEE, 
                       __ZN7Iex_3_110EdeadlkExcC2ERKS0_, __ZN7Iex_3_110EdeadlkExcC2ERNSt3__118basic_stringstreamIcNS1_11char_traitsIcEENS1_9allocatorIcEEEE, 
                       __ZN7Iex_3_110EdeadlkExcC2Ev, __ZN7Iex_3_110EdeadlkExcD0Ev, 
                       __ZN7Iex_3_110EdeadlkExcD1Ev, __ZN7Iex_3_110EdeadlkExcD2Ev, 
                       __ZN7Iex_3_110EdeadlkExcaSEOS0_, __ZN7Iex_3_110EdeadlkExcaSERS0_, 
                       __ZN7Iex_3_110EisconnExcC1EONSt3__112basic_stringIcNS1_11char_traitsIcEENS1_9allocatorIcEEEE, 
                       __ZN7Iex_3_110EisconnExcC1EOS0_, __ZN7Iex_3_110EisconnExcC1EPKc, 
                       __ZN7Iex_3_110EisconnExcC1ERKNSt3__112basic_stringIcNS1_11char_traitsIcEENS1_9allocatorIcEEEE, 
                       __ZN7Iex_3_110EisconnExcC1ERKS0_, __ZN7Iex_3_110EisconnExcC1ERNSt3__118basic_stringstreamIcNS1_11char_traitsIcEENS1_9allocatorIcEEEE, 
                       __ZN7Iex_3_110EisconnExcC1Ev, __ZN7Iex_3_110EisconnExcC2EONSt3__112basic_stringIcNS1_11char_traitsIcEENS1_9allocatorIcEEEE, 
                       __ZN7Iex_3_110EisconnExcC2EOS0_, __ZN7Iex_3_110EisconnExcC2EPKc, 
                       __ZN7Iex_3_110EisconnExcC2ERKNSt3__112basic_stringIcNS1_11char_traitsIcEENS1_9allocatorIcEEEE, 
                       __ZN7Iex_3_110EisconnExcC2ERKS0_, __ZN7Iex_3_110EisconnExcC2ERNSt3__118basic_stringstreamIcNS1_11char_traitsIcEENS1_9allocatorIcEEEE, 
                       __ZN7Iex_3_110EisconnExcC2Ev, __ZN7Iex_3_110EisconnExcD0Ev, 
                       __ZN7Iex_3_110EisconnExcD1Ev, __ZN7Iex_3_110EisconnExcD2Ev, 
                       __ZN7Iex_3_110EisconnExcaSEOS0_, __ZN7Iex_3_110EisconnExcaSERS0_, 
                       __ZN7Iex_3_110EjoinedExcC1EONSt3__112basic_stringIcNS1_11char_traitsIcEENS1_9allocatorIcEEEE, 
                       __ZN7Iex_3_110EjoinedExcC1EOS0_, __ZN7Iex_3_110EjoinedExcC1EPKc, 
                       __ZN7Iex_3_110EjoinedExcC1ERKNSt3__112basic_stringIcNS1_11char_traitsIcEENS1_9allocatorIcEEEE, 
                       __ZN7Iex_3_110EjoinedExcC1ERKS0_, __ZN7Iex_3_110EjoinedExcC1ERNSt3__118basic_stringstreamIcNS1_11char_traitsIcEENS1_9allocatorIcEEEE, 
                       __ZN7Iex_3_110EjoinedExcC1Ev, __ZN7Iex_3_110EjoinedExcC2EONSt3__112basic_stringIcNS1_11char_traitsIcEENS1_9allocatorIcEEEE, 
                       __ZN7Iex_3_110EjoinedExcC2EOS0_, __ZN7Iex_3_110EjoinedExcC2EPKc, 
                       __ZN7Iex_3_110EjoinedExcC2ERKNSt3__112basic_stringIcNS1_11char_traitsIcEENS1_9allocatorIcEEEE, 
                       __ZN7Iex_3_110EjoinedExcC2ERKS0_, __ZN7Iex_3_110EjoinedExcC2ERNSt3__118basic_stringstreamIcNS1_11char_traitsIcEENS1_9allocatorIcEEEE, 
                       __ZN7Iex_3_110EjoinedExcC2Ev, __ZN7Iex_3_110EjoinedExcD0Ev, 
                       __ZN7Iex_3_110EjoinedExcD1Ev, __ZN7Iex_3_110EjoinedExcD2Ev, 
                       __ZN7Iex_3_110EjoinedExcaSEOS0_, __ZN7Iex_3_110EjoinedExcaSERS0_, 
                       __ZN7Iex_3_110ElibaccExcC1EONSt3__112basic_stringIcNS1_11char_traitsIcEENS1_9allocatorIcEEEE, 
                       __ZN7Iex_3_110ElibaccExcC1EOS0_, __ZN7Iex_3_110ElibaccExcC1EPKc, 
                       __ZN7Iex_3_110ElibaccExcC1ERKNSt3__112basic_stringIcNS1_11char_traitsIcEENS1_9allocatorIcEEEE, 
                       __ZN7Iex_3_110ElibaccExcC1ERKS0_, __ZN7Iex_3_110ElibaccExcC1ERNSt3__118basic_stringstreamIcNS1_11char_traitsIcEENS1_9allocatorIcEEEE, 
                       __ZN7Iex_3_110ElibaccExcC1Ev, __ZN7Iex_3_110ElibaccExcC2EONSt3__112basic_stringIcNS1_11char_traitsIcEENS1_9allocatorIcEEEE, 
                       __ZN7Iex_3_110ElibaccExcC2EOS0_, __ZN7Iex_3_110ElibaccExcC2EPKc, 
                       __ZN7Iex_3_110ElibaccExcC2ERKNSt3__112basic_stringIcNS1_11char_traitsIcEENS1_9allocatorIcEEEE, 
                       __ZN7Iex_3_110ElibaccExcC2ERKS0_, __ZN7Iex_3_110ElibaccExcC2ERNSt3__118basic_stringstreamIcNS1_11char_traitsIcEENS1_9allocatorIcEEEE, 
                       __ZN7Iex_3_110ElibaccExcC2Ev, __ZN7Iex_3_110ElibaccExcD0Ev, 
                       __ZN7Iex_3_110ElibaccExcD1Ev, __ZN7Iex_3_110ElibaccExcD2Ev, 
                       __ZN7Iex_3_110ElibaccExcaSEOS0_, __ZN7Iex_3_110ElibaccExcaSERS0_, 
                       __ZN7Iex_3_110ElibbadExcC1EONSt3__112basic_stringIcNS1_11char_traitsIcEENS1_9allocatorIcEEEE, 
                       __ZN7Iex_3_110ElibbadExcC1EOS0_, __ZN7Iex_3_110ElibbadExcC1EPKc, 
                       __ZN7Iex_3_110ElibbadExcC1ERKNSt3__112basic_stringIcNS1_11char_traitsIcEENS1_9allocatorIcEEEE, 
                       __ZN7Iex_3_110ElibbadExcC1ERKS0_, __ZN7Iex_3_110ElibbadExcC1ERNSt3__118basic_stringstreamIcNS1_11char_traitsIcEENS1_9allocatorIcEEEE, 
                       __ZN7Iex_3_110ElibbadExcC1Ev, __ZN7Iex_3_110ElibbadExcC2EONSt3__112basic_stringIcNS1_11char_traitsIcEENS1_9allocatorIcEEEE, 
                       __ZN7Iex_3_110ElibbadExcC2EOS0_, __ZN7Iex_3_110ElibbadExcC2EPKc, 
                       __ZN7Iex_3_110ElibbadExcC2ERKNSt3__112basic_stringIcNS1_11char_traitsIcEENS1_9allocatorIcEEEE, 
                       __ZN7Iex_3_110ElibbadExcC2ERKS0_, __ZN7Iex_3_110ElibbadExcC2ERNSt3__118basic_stringstreamIcNS1_11char_traitsIcEENS1_9allocatorIcEEEE, 
                       __ZN7Iex_3_110ElibbadExcC2Ev, __ZN7Iex_3_110ElibbadExcD0Ev, 
                       __ZN7Iex_3_110ElibbadExcD1Ev, __ZN7Iex_3_110ElibbadExcD2Ev, 
                       __ZN7Iex_3_110ElibbadExcaSEOS0_, __ZN7Iex_3_110ElibbadExcaSERS0_, 
                       __ZN7Iex_3_110ElibmaxExcC1EONSt3__112basic_stringIcNS1_11char_traitsIcEENS1_9allocatorIcEEEE, 
                       __ZN7Iex_3_110ElibmaxExcC1EOS0_, __ZN7Iex_3_110ElibmaxExcC1EPKc, 
                       __ZN7Iex_3_110ElibmaxExcC1ERKNSt3__112basic_stringIcNS1_11char_traitsIcEENS1_9allocatorIcEEEE, 
                       __ZN7Iex_3_110ElibmaxExcC1ERKS0_, __ZN7Iex_3_110ElibmaxExcC1ERNSt3__118basic_stringstreamIcNS1_11char_traitsIcEENS1_9allocatorIcEEEE, 
                       __ZN7Iex_3_110ElibmaxExcC1Ev, __ZN7Iex_3_110ElibmaxExcC2EONSt3__112basic_stringIcNS1_11char_traitsIcEENS1_9allocatorIcEEEE, 
                       __ZN7Iex_3_110ElibmaxExcC2EOS0_, __ZN7Iex_3_110ElibmaxExcC2EPKc, 
                       __ZN7Iex_3_110ElibmaxExcC2ERKNSt3__112basic_stringIcNS1_11char_traitsIcEENS1_9allocatorIcEEEE, 
                       __ZN7Iex_3_110ElibmaxExcC2ERKS0_, __ZN7Iex_3_110ElibmaxExcC2ERNSt3__118basic_stringstreamIcNS1_11char_traitsIcEENS1_9allocatorIcEEEE, 
                       __ZN7Iex_3_110ElibmaxExcC2Ev, __ZN7Iex_3_110ElibmaxExcD0Ev, 
                       __ZN7Iex_3_110ElibmaxExcD1Ev, __ZN7Iex_3_110ElibmaxExcD2Ev, 
                       __ZN7Iex_3_110ElibmaxExcaSEOS0_, __ZN7Iex_3_110ElibmaxExcaSERS0_, 
                       __ZN7Iex_3_110ElibscnExcC1EONSt3__112basic_stringIcNS1_11char_traitsIcEENS1_9allocatorIcEEEE, 
                       __ZN7Iex_3_110ElibscnExcC1EOS0_, __ZN7Iex_3_110ElibscnExcC1EPKc, 
                       __ZN7Iex_3_110ElibscnExcC1ERKNSt3__112basic_stringIcNS1_11char_traitsIcEENS1_9allocatorIcEEEE, 
                       __ZN7Iex_3_110ElibscnExcC1ERKS0_, __ZN7Iex_3_110ElibscnExcC1ERNSt3__118basic_stringstreamIcNS1_11char_traitsIcEENS1_9allocatorIcEEEE, 
                       __ZN7Iex_3_110ElibscnExcC1Ev, __ZN7Iex_3_110ElibscnExcC2EONSt3__112basic_stringIcNS1_11char_traitsIcEENS1_9allocatorIcEEEE, 
                       __ZN7Iex_3_110ElibscnExcC2EOS0_, __ZN7Iex_3_110ElibscnExcC2EPKc, 
                       __ZN7Iex_3_110ElibscnExcC2ERKNSt3__112basic_stringIcNS1_11char_traitsIcEENS1_9allocatorIcEEEE, 
                       __ZN7Iex_3_110ElibscnExcC2ERKS0_, __ZN7Iex_3_110ElibscnExcC2ERNSt3__118basic_stringstreamIcNS1_11char_traitsIcEENS1_9allocatorIcEEEE, 
                       __ZN7Iex_3_110ElibscnExcC2Ev, __ZN7Iex_3_110ElibscnExcD0Ev, 
                       __ZN7Iex_3_110ElibscnExcD1Ev, __ZN7Iex_3_110ElibscnExcD2Ev, 
                       __ZN7Iex_3_110ElibscnExcaSEOS0_, __ZN7Iex_3_110ElibscnExcaSERS0_, 
                       __ZN7Iex_3_110EnavailExcC1EONSt3__112basic_stringIcNS1_11char_traitsIcEENS1_9allocatorIcEEEE, 
                       __ZN7Iex_3_110EnavailExcC1EOS0_, __ZN7Iex_3_110EnavailExcC1EPKc, 
                       __ZN7Iex_3_110EnavailExcC1ERKNSt3__112basic_stringIcNS1_11char_traitsIcEENS1_9allocatorIcEEEE, 
                       __ZN7Iex_3_110EnavailExcC1ERKS0_, __ZN7Iex_3_110EnavailExcC1ERNSt3__118basic_stringstreamIcNS1_11char_traitsIcEENS1_9allocatorIcEEEE, 
                       __ZN7Iex_3_110EnavailExcC1Ev, __ZN7Iex_3_110EnavailExcC2EONSt3__112basic_stringIcNS1_11char_traitsIcEENS1_9allocatorIcEEEE, 
                       __ZN7Iex_3_110EnavailExcC2EOS0_, __ZN7Iex_3_110EnavailExcC2EPKc, 
                       __ZN7Iex_3_110EnavailExcC2ERKNSt3__112basic_stringIcNS1_11char_traitsIcEENS1_9allocatorIcEEEE, 
                       __ZN7Iex_3_110EnavailExcC2ERKS0_, __ZN7Iex_3_110EnavailExcC2ERNSt3__118basic_stringstreamIcNS1_11char_traitsIcEENS1_9allocatorIcEEEE, 
                       __ZN7Iex_3_110EnavailExcC2Ev, __ZN7Iex_3_110EnavailExcD0Ev, 
                       __ZN7Iex_3_110EnavailExcD1Ev, __ZN7Iex_3_110EnavailExcD2Ev, 
                       __ZN7Iex_3_110EnavailExcaSEOS0_, __ZN7Iex_3_110EnavailExcaSERS0_, 
                       __ZN7Iex_3_110EnoattrExcC1EONSt3__112basic_stringIcNS1_11char_traitsIcEENS1_9allocatorIcEEEE, 
                       __ZN7Iex_3_110EnoattrExcC1EOS0_, __ZN7Iex_3_110EnoattrExcC1EPKc, 
                       __ZN7Iex_3_110EnoattrExcC1ERKNSt3__112basic_stringIcNS1_11char_traitsIcEENS1_9allocatorIcEEEE, 
                       __ZN7Iex_3_110EnoattrExcC1ERKS0_, __ZN7Iex_3_110EnoattrExcC1ERNSt3__118basic_stringstreamIcNS1_11char_traitsIcEENS1_9allocatorIcEEEE, 
                       __ZN7Iex_3_110EnoattrExcC1Ev, __ZN7Iex_3_110EnoattrExcC2EONSt3__112basic_stringIcNS1_11char_traitsIcEENS1_9allocatorIcEEEE, 
                       __ZN7Iex_3_110EnoattrExcC2EOS0_, __ZN7Iex_3_110EnoattrExcC2EPKc, 
                       __ZN7Iex_3_110EnoattrExcC2ERKNSt3__112basic_stringIcNS1_11char_traitsIcEENS1_9allocatorIcEEEE, 
                       __ZN7Iex_3_110EnoattrExcC2ERKS0_, __ZN7Iex_3_110EnoattrExcC2ERNSt3__118basic_stringstreamIcNS1_11char_traitsIcEENS1_9allocatorIcEEEE, 
                       __ZN7Iex_3_110EnoattrExcC2Ev, __ZN7Iex_3_110EnoattrExcD0Ev, 
                       __ZN7Iex_3_110EnoattrExcD1Ev, __ZN7Iex_3_110EnoattrExcD2Ev, 
                       __ZN7Iex_3_110EnoattrExcaSEOS0_, __ZN7Iex_3_110EnoattrExcaSERS0_, 
                       __ZN7Iex_3_110EnobufsExcC1EONSt3__112basic_stringIcNS1_11char_traitsIcEENS1_9allocatorIcEEEE, 
                       __ZN7Iex_3_110EnobufsExcC1EOS0_, __ZN7Iex_3_110EnobufsExcC1EPKc, 
                       __ZN7Iex_3_110EnobufsExcC1ERKNSt3__112basic_stringIcNS1_11char_traitsIcEENS1_9allocatorIcEEEE, 
                       __ZN7Iex_3_110EnobufsExcC1ERKS0_, __ZN7Iex_3_110EnobufsExcC1ERNSt3__118basic_stringstreamIcNS1_11char_traitsIcEENS1_9allocatorIcEEEE, 
                       __ZN7Iex_3_110EnobufsExcC1Ev, __ZN7Iex_3_110EnobufsExcC2EONSt3__112basic_stringIcNS1_11char_traitsIcEENS1_9allocatorIcEEEE, 
                       __ZN7Iex_3_110EnobufsExcC2EOS0_, __ZN7Iex_3_110EnobufsExcC2EPKc, 
                       __ZN7Iex_3_110EnobufsExcC2ERKNSt3__112basic_stringIcNS1_11char_traitsIcEENS1_9allocatorIcEEEE, 
                       __ZN7Iex_3_110EnobufsExcC2ERKS0_, __ZN7Iex_3_110EnobufsExcC2ERNSt3__118basic_stringstreamIcNS1_11char_traitsIcEENS1_9allocatorIcEEEE, 
                       __ZN7Iex_3_110EnobufsExcC2Ev, __ZN7Iex_3_110EnobufsExcD0Ev, 
                       __ZN7Iex_3_110EnobufsExcD1Ev, __ZN7Iex_3_110EnobufsExcD2Ev, 
                       __ZN7Iex_3_110EnobufsExcaSEOS0_, __ZN7Iex_3_110EnobufsExcaSERS0_, 
                       __ZN7Iex_3_110EnodataExcC1EONSt3__112basic_stringIcNS1_11char_traitsIcEENS1_9allocatorIcEEEE, 
                       __ZN7Iex_3_110EnodataExcC1EOS0_, __ZN7Iex_3_110EnodataExcC1EPKc, 
                       __ZN7Iex_3_110EnodataExcC1ERKNSt3__112basic_stringIcNS1_11char_traitsIcEENS1_9allocatorIcEEEE, 
                       __ZN7Iex_3_110EnodataExcC1ERKS0_, __ZN7Iex_3_110EnodataExcC1ERNSt3__118basic_stringstreamIcNS1_11char_traitsIcEENS1_9allocatorIcEEEE, 
                       __ZN7Iex_3_110EnodataExcC1Ev, __ZN7Iex_3_110EnodataExcC2EONSt3__112basic_stringIcNS1_11char_traitsIcEENS1_9allocatorIcEEEE, 
                       __ZN7Iex_3_110EnodataExcC2EOS0_, __ZN7Iex_3_110EnodataExcC2EPKc, 
                       __ZN7Iex_3_110EnodataExcC2ERKNSt3__112basic_stringIcNS1_11char_traitsIcEENS1_9allocatorIcEEEE, 
                       __ZN7Iex_3_110EnodataExcC2ERKS0_, __ZN7Iex_3_110EnodataExcC2ERNSt3__118basic_stringstreamIcNS1_11char_traitsIcEENS1_9allocatorIcEEEE, 
                       __ZN7Iex_3_110EnodataExcC2Ev, __ZN7Iex_3_110EnodataExcD0Ev, 
                       __ZN7Iex_3_110EnodataExcD1Ev, __ZN7Iex_3_110EnodataExcD2Ev, 
                       __ZN7Iex_3_110EnodataExcaSEOS0_, __ZN7Iex_3_110EnodataExcaSERS0_, 
                       __ZN7Iex_3_110EnoexecExcC1EONSt3__112basic_stringIcNS1_11char_traitsIcEENS1_9allocatorIcEEEE, 
                       __ZN7Iex_3_110EnoexecExcC1EOS0_, __ZN7Iex_3_110EnoexecExcC1EPKc, 
                       __ZN7Iex_3_110EnoexecExcC1ERKNSt3__112basic_stringIcNS1_11char_traitsIcEENS1_9allocatorIcEEEE, 
                       __ZN7Iex_3_110EnoexecExcC1ERKS0_, __ZN7Iex_3_110EnoexecExcC1ERNSt3__118basic_stringstreamIcNS1_11char_traitsIcEENS1_9allocatorIcEEEE, 
                       __ZN7Iex_3_110EnoexecExcC1Ev, __ZN7Iex_3_110EnoexecExcC2EONSt3__112basic_stringIcNS1_11char_traitsIcEENS1_9allocatorIcEEEE, 
                       __ZN7Iex_3_110EnoexecExcC2EOS0_, __ZN7Iex_3_110EnoexecExcC2EPKc, 
                       __ZN7Iex_3_110EnoexecExcC2ERKNSt3__112basic_stringIcNS1_11char_traitsIcEENS1_9allocatorIcEEEE, 
                       __ZN7Iex_3_110EnoexecExcC2ERKS0_, __ZN7Iex_3_110EnoexecExcC2ERNSt3__118basic_stringstreamIcNS1_11char_traitsIcEENS1_9allocatorIcEEEE, 
                       __ZN7Iex_3_110EnoexecExcC2Ev, __ZN7Iex_3_110EnoexecExcD0Ev, 
                       __ZN7Iex_3_110EnoexecExcD1Ev, __ZN7Iex_3_110EnoexecExcD2Ev, 
                       __ZN7Iex_3_110EnoexecExcaSEOS0_, __ZN7Iex_3_110EnoexecExcaSERS0_, 
                       __ZN7Iex_3_110EnolinkExcC1EONSt3__112basic_stringIcNS1_11char_traitsIcEENS1_9allocatorIcEEEE, 
                       __ZN7Iex_3_110EnolinkExcC1EOS0_, __ZN7Iex_3_110EnolinkExcC1EPKc, 
                       __ZN7Iex_3_110EnolinkExcC1ERKNSt3__112basic_stringIcNS1_11char_traitsIcEENS1_9allocatorIcEEEE, 
                       __ZN7Iex_3_110EnolinkExcC1ERKS0_, __ZN7Iex_3_110EnolinkExcC1ERNSt3__118basic_stringstreamIcNS1_11char_traitsIcEENS1_9allocatorIcEEEE, 
                       __ZN7Iex_3_110EnolinkExcC1Ev, __ZN7Iex_3_110EnolinkExcC2EONSt3__112basic_stringIcNS1_11char_traitsIcEENS1_9allocatorIcEEEE, 
                       __ZN7Iex_3_110EnolinkExcC2EOS0_, __ZN7Iex_3_110EnolinkExcC2EPKc, 
                       __ZN7Iex_3_110EnolinkExcC2ERKNSt3__112basic_stringIcNS1_11char_traitsIcEENS1_9allocatorIcEEEE, 
                       __ZN7Iex_3_110EnolinkExcC2ERKS0_, __ZN7Iex_3_110EnolinkExcC2ERNSt3__118basic_stringstreamIcNS1_11char_traitsIcEENS1_9allocatorIcEEEE, 
                       __ZN7Iex_3_110EnolinkExcC2Ev, __ZN7Iex_3_110EnolinkExcD0Ev, 
                       __ZN7Iex_3_110EnolinkExcD1Ev, __ZN7Iex_3_110EnolinkExcD2Ev, 
                       __ZN7Iex_3_110EnolinkExcaSEOS0_, __ZN7Iex_3_110EnolinkExcaSERS0_, 
                       __ZN7Iex_3_110EnoprocExcC1EONSt3__112basic_stringIcNS1_11char_traitsIcEENS1_9allocatorIcEEEE, 
                       __ZN7Iex_3_110EnoprocExcC1EOS0_, __ZN7Iex_3_110EnoprocExcC1EPKc, 
                       __ZN7Iex_3_110EnoprocExcC1ERKNSt3__112basic_stringIcNS1_11char_traitsIcEENS1_9allocatorIcEEEE, 
                       __ZN7Iex_3_110EnoprocExcC1ERKS0_, __ZN7Iex_3_110EnoprocExcC1ERNSt3__118basic_stringstreamIcNS1_11char_traitsIcEENS1_9allocatorIcEEEE, 
                       __ZN7Iex_3_110EnoprocExcC1Ev, __ZN7Iex_3_110EnoprocExcC2EONSt3__112basic_stringIcNS1_11char_traitsIcEENS1_9allocatorIcEEEE, 
                       __ZN7Iex_3_110EnoprocExcC2EOS0_, __ZN7Iex_3_110EnoprocExcC2EPKc, 
                       __ZN7Iex_3_110EnoprocExcC2ERKNSt3__112basic_stringIcNS1_11char_traitsIcEENS1_9allocatorIcEEEE, 
                       __ZN7Iex_3_110EnoprocExcC2ERKS0_, __ZN7Iex_3_110EnoprocExcC2ERNSt3__118basic_stringstreamIcNS1_11char_traitsIcEENS1_9allocatorIcEEEE, 
                       __ZN7Iex_3_110EnoprocExcC2Ev, __ZN7Iex_3_110EnoprocExcD0Ev, 
                       __ZN7Iex_3_110EnoprocExcD1Ev, __ZN7Iex_3_110EnoprocExcD2Ev, 
                       __ZN7Iex_3_110EnoprocExcaSEOS0_, __ZN7Iex_3_110EnoprocExcaSERS0_, 
                       __ZN7Iex_3_110EnotblkExcC1EONSt3__112basic_stringIcNS1_11char_traitsIcEENS1_9allocatorIcEEEE, 
                       __ZN7Iex_3_110EnotblkExcC1EOS0_, __ZN7Iex_3_110EnotblkExcC1EPKc, 
                       __ZN7Iex_3_110EnotblkExcC1ERKNSt3__112basic_stringIcNS1_11char_traitsIcEENS1_9allocatorIcEEEE, 
                       __ZN7Iex_3_110EnotblkExcC1ERKS0_, __ZN7Iex_3_110EnotblkExcC1ERNSt3__118basic_stringstreamIcNS1_11char_traitsIcEENS1_9allocatorIcEEEE, 
                       __ZN7Iex_3_110EnotblkExcC1Ev, __ZN7Iex_3_110EnotblkExcC2EONSt3__112basic_stringIcNS1_11char_traitsIcEENS1_9allocatorIcEEEE, 
                       __ZN7Iex_3_110EnotblkExcC2EOS0_, __ZN7Iex_3_110EnotblkExcC2EPKc, 
                       __ZN7Iex_3_110EnotblkExcC2ERKNSt3__112basic_stringIcNS1_11char_traitsIcEENS1_9allocatorIcEEEE, 
                       __ZN7Iex_3_110EnotblkExcC2ERKS0_, __ZN7Iex_3_110EnotblkExcC2ERNSt3__118basic_stringstreamIcNS1_11char_traitsIcEENS1_9allocatorIcEEEE, 
                       __ZN7Iex_3_110EnotblkExcC2Ev, __ZN7Iex_3_110EnotblkExcD0Ev, 
                       __ZN7Iex_3_110EnotblkExcD1Ev, __ZN7Iex_3_110EnotblkExcD2Ev, 
                       __ZN7Iex_3_110EnotblkExcaSEOS0_, __ZN7Iex_3_110EnotblkExcaSERS0_, 
                       __ZN7Iex_3_110EnotdirExcC1EONSt3__112basic_stringIcNS1_11char_traitsIcEENS1_9allocatorIcEEEE, 
                       __ZN7Iex_3_110EnotdirExcC1EOS0_, __ZN7Iex_3_110EnotdirExcC1EPKc, 
                       __ZN7Iex_3_110EnotdirExcC1ERKNSt3__112basic_stringIcNS1_11char_traitsIcEENS1_9allocatorIcEEEE, 
                       __ZN7Iex_3_110EnotdirExcC1ERKS0_, __ZN7Iex_3_110EnotdirExcC1ERNSt3__118basic_stringstreamIcNS1_11char_traitsIcEENS1_9allocatorIcEEEE, 
                       __ZN7Iex_3_110EnotdirExcC1Ev, __ZN7Iex_3_110EnotdirExcC2EONSt3__112basic_stringIcNS1_11char_traitsIcEENS1_9allocatorIcEEEE, 
                       __ZN7Iex_3_110EnotdirExcC2EOS0_, __ZN7Iex_3_110EnotdirExcC2EPKc, 
                       __ZN7Iex_3_110EnotdirExcC2ERKNSt3__112basic_stringIcNS1_11char_traitsIcEENS1_9allocatorIcEEEE, 
                       __ZN7Iex_3_110EnotdirExcC2ERKS0_, __ZN7Iex_3_110EnotdirExcC2ERNSt3__118basic_stringstreamIcNS1_11char_traitsIcEENS1_9allocatorIcEEEE, 
                       __ZN7Iex_3_110EnotdirExcC2Ev, __ZN7Iex_3_110EnotdirExcD0Ev, 
                       __ZN7Iex_3_110EnotdirExcD1Ev, __ZN7Iex_3_110EnotdirExcD2Ev, 
                       __ZN7Iex_3_110EnotdirExcaSEOS0_, __ZN7Iex_3_110EnotdirExcaSERS0_, 
                       __ZN7Iex_3_110EnotnamExcC1EONSt3__112basic_stringIcNS1_11char_traitsIcEENS1_9allocatorIcEEEE, 
                       __ZN7Iex_3_110EnotnamExcC1EOS0_, __ZN7Iex_3_110EnotnamExcC1EPKc, 
                       __ZN7Iex_3_110EnotnamExcC1ERKNSt3__112basic_stringIcNS1_11char_traitsIcEENS1_9allocatorIcEEEE, 
                       __ZN7Iex_3_110EnotnamExcC1ERKS0_, __ZN7Iex_3_110EnotnamExcC1ERNSt3__118basic_stringstreamIcNS1_11char_traitsIcEENS1_9allocatorIcEEEE, 
                       __ZN7Iex_3_110EnotnamExcC1Ev, __ZN7Iex_3_110EnotnamExcC2EONSt3__112basic_stringIcNS1_11char_traitsIcEENS1_9allocatorIcEEEE, 
                       __ZN7Iex_3_110EnotnamExcC2EOS0_, __ZN7Iex_3_110EnotnamExcC2EPKc, 
                       __ZN7Iex_3_110EnotnamExcC2ERKNSt3__112basic_stringIcNS1_11char_traitsIcEENS1_9allocatorIcEEEE, 
                       __ZN7Iex_3_110EnotnamExcC2ERKS0_, __ZN7Iex_3_110EnotnamExcC2ERNSt3__118basic_stringstreamIcNS1_11char_traitsIcEENS1_9allocatorIcEEEE, 
                       __ZN7Iex_3_110EnotnamExcC2Ev, __ZN7Iex_3_110EnotnamExcD0Ev, 
                       __ZN7Iex_3_110EnotnamExcD1Ev, __ZN7Iex_3_110EnotnamExcD2Ev, 
                       __ZN7Iex_3_110EnotnamExcaSEOS0_, __ZN7Iex_3_110EnotnamExcaSERS0_, 
                       __ZN7Iex_3_110EnotsupExcC1EONSt3__112basic_stringIcNS1_11char_traitsIcEENS1_9allocatorIcEEEE, 
                       __ZN7Iex_3_110EnotsupExcC1EOS0_, __ZN7Iex_3_110EnotsupExcC1EPKc, 
                       __ZN7Iex_3_110EnotsupExcC1ERKNSt3__112basic_stringIcNS1_11char_traitsIcEENS1_9allocatorIcEEEE, 
                       __ZN7Iex_3_110EnotsupExcC1ERKS0_, __ZN7Iex_3_110EnotsupExcC1ERNSt3__118basic_stringstreamIcNS1_11char_traitsIcEENS1_9allocatorIcEEEE, 
                       __ZN7Iex_3_110EnotsupExcC1Ev, __ZN7Iex_3_110EnotsupExcC2EONSt3__112basic_stringIcNS1_11char_traitsIcEENS1_9allocatorIcEEEE, 
                       __ZN7Iex_3_110EnotsupExcC2EOS0_, __ZN7Iex_3_110EnotsupExcC2EPKc, 
                       __ZN7Iex_3_110EnotsupExcC2ERKNSt3__112basic_stringIcNS1_11char_traitsIcEENS1_9allocatorIcEEEE, 
                       __ZN7Iex_3_110EnotsupExcC2ERKS0_, __ZN7Iex_3_110EnotsupExcC2ERNSt3__118basic_stringstreamIcNS1_11char_traitsIcEENS1_9allocatorIcEEEE, 
                       __ZN7Iex_3_110EnotsupExcC2Ev, __ZN7Iex_3_110EnotsupExcD0Ev, 
                       __ZN7Iex_3_110EnotsupExcD1Ev, __ZN7Iex_3_110EnotsupExcD2Ev, 
                       __ZN7Iex_3_110EnotsupExcaSEOS0_, __ZN7Iex_3_110EnotsupExcaSERS0_, 
                       __ZN7Iex_3_110EremchgExcC1EONSt3__112basic_stringIcNS1_11char_traitsIcEENS1_9allocatorIcEEEE, 
                       __ZN7Iex_3_110EremchgExcC1EOS0_, __ZN7Iex_3_110EremchgExcC1EPKc, 
                       __ZN7Iex_3_110EremchgExcC1ERKNSt3__112basic_stringIcNS1_11char_traitsIcEENS1_9allocatorIcEEEE, 
                       __ZN7Iex_3_110EremchgExcC1ERKS0_, __ZN7Iex_3_110EremchgExcC1ERNSt3__118basic_stringstreamIcNS1_11char_traitsIcEENS1_9allocatorIcEEEE, 
                       __ZN7Iex_3_110EremchgExcC1Ev, __ZN7Iex_3_110EremchgExcC2EONSt3__112basic_stringIcNS1_11char_traitsIcEENS1_9allocatorIcEEEE, 
                       __ZN7Iex_3_110EremchgExcC2EOS0_, __ZN7Iex_3_110EremchgExcC2EPKc, 
                       __ZN7Iex_3_110EremchgExcC2ERKNSt3__112basic_stringIcNS1_11char_traitsIcEENS1_9allocatorIcEEEE, 
                       __ZN7Iex_3_110EremchgExcC2ERKS0_, __ZN7Iex_3_110EremchgExcC2ERNSt3__118basic_stringstreamIcNS1_11char_traitsIcEENS1_9allocatorIcEEEE, 
                       __ZN7Iex_3_110EremchgExcC2Ev, __ZN7Iex_3_110EremchgExcD0Ev, 
                       __ZN7Iex_3_110EremchgExcD1Ev, __ZN7Iex_3_110EremchgExcD2Ev, 
                       __ZN7Iex_3_110EremchgExcaSEOS0_, __ZN7Iex_3_110EremchgExcaSERS0_, 
                       __ZN7Iex_3_110EremdevExcC1EONSt3__112basic_stringIcNS1_11char_traitsIcEENS1_9allocatorIcEEEE, 
                       __ZN7Iex_3_110EremdevExcC1EOS0_, __ZN7Iex_3_110EremdevExcC1EPKc, 
                       __ZN7Iex_3_110EremdevExcC1ERKNSt3__112basic_stringIcNS1_11char_traitsIcEENS1_9allocatorIcEEEE, 
                       __ZN7Iex_3_110EremdevExcC1ERKS0_, __ZN7Iex_3_110EremdevExcC1ERNSt3__118basic_stringstreamIcNS1_11char_traitsIcEENS1_9allocatorIcEEEE, 
                       __ZN7Iex_3_110EremdevExcC1Ev, __ZN7Iex_3_110EremdevExcC2EONSt3__112basic_stringIcNS1_11char_traitsIcEENS1_9allocatorIcEEEE, 
                       __ZN7Iex_3_110EremdevExcC2EOS0_, __ZN7Iex_3_110EremdevExcC2EPKc, 
                       __ZN7Iex_3_110EremdevExcC2ERKNSt3__112basic_stringIcNS1_11char_traitsIcEENS1_9allocatorIcEEEE, 
                       __ZN7Iex_3_110EremdevExcC2ERKS0_, __ZN7Iex_3_110EremdevExcC2ERNSt3__118basic_stringstreamIcNS1_11char_traitsIcEENS1_9allocatorIcEEEE, 
                       __ZN7Iex_3_110EremdevExcC2Ev, __ZN7Iex_3_110EremdevExcD0Ev, 
                       __ZN7Iex_3_110EremdevExcD1Ev, __ZN7Iex_3_110EremdevExcD2Ev, 
                       __ZN7Iex_3_110EremdevExcaSEOS0_, __ZN7Iex_3_110EremdevExcaSERS0_, 
                       __ZN7Iex_3_110EremoteExcC1EONSt3__112basic_stringIcNS1_11char_traitsIcEENS1_9allocatorIcEEEE, 
                       __ZN7Iex_3_110EremoteExcC1EOS0_, __ZN7Iex_3_110EremoteExcC1EPKc, 
                       __ZN7Iex_3_110EremoteExcC1ERKNSt3__112basic_stringIcNS1_11char_traitsIcEENS1_9allocatorIcEEEE, 
                       __ZN7Iex_3_110EremoteExcC1ERKS0_, __ZN7Iex_3_110EremoteExcC1ERNSt3__118basic_stringstreamIcNS1_11char_traitsIcEENS1_9allocatorIcEEEE, 
                       __ZN7Iex_3_110EremoteExcC1Ev, __ZN7Iex_3_110EremoteExcC2EONSt3__112basic_stringIcNS1_11char_traitsIcEENS1_9allocatorIcEEEE, 
                       __ZN7Iex_3_110EremoteExcC2EOS0_, __ZN7Iex_3_110EremoteExcC2EPKc, 
                       __ZN7Iex_3_110EremoteExcC2ERKNSt3__112basic_stringIcNS1_11char_traitsIcEENS1_9allocatorIcEEEE, 
                       __ZN7Iex_3_110EremoteExcC2ERKS0_, __ZN7Iex_3_110EremoteExcC2ERNSt3__118basic_stringstreamIcNS1_11char_traitsIcEENS1_9allocatorIcEEEE, 
                       __ZN7Iex_3_110EremoteExcC2Ev, __ZN7Iex_3_110EremoteExcD0Ev, 
                       __ZN7Iex_3_110EremoteExcD1Ev, __ZN7Iex_3_110EremoteExcD2Ev, 
                       __ZN7Iex_3_110EremoteExcaSEOS0_, __ZN7Iex_3_110EremoteExcaSERS0_, 
                       __ZN7Iex_3_110EtxtbsyExcC1EONSt3__112basic_stringIcNS1_11char_traitsIcEENS1_9allocatorIcEEEE, 
                       __ZN7Iex_3_110EtxtbsyExcC1EOS0_, __ZN7Iex_3_110EtxtbsyExcC1EPKc, 
                       __ZN7Iex_3_110EtxtbsyExcC1ERKNSt3__112basic_stringIcNS1_11char_traitsIcEENS1_9allocatorIcEEEE, 
                       __ZN7Iex_3_110EtxtbsyExcC1ERKS0_, __ZN7Iex_3_110EtxtbsyExcC1ERNSt3__118basic_stringstreamIcNS1_11char_traitsIcEENS1_9allocatorIcEEEE, 
                       __ZN7Iex_3_110EtxtbsyExcC1Ev, __ZN7Iex_3_110EtxtbsyExcC2EONSt3__112basic_stringIcNS1_11char_traitsIcEENS1_9allocatorIcEEEE, 
                       __ZN7Iex_3_110EtxtbsyExcC2EOS0_, __ZN7Iex_3_110EtxtbsyExcC2EPKc, 
                       __ZN7Iex_3_110EtxtbsyExcC2ERKNSt3__112basic_stringIcNS1_11char_traitsIcEENS1_9allocatorIcEEEE, 
                       __ZN7Iex_3_110EtxtbsyExcC2ERKS0_, __ZN7Iex_3_110EtxtbsyExcC2ERNSt3__118basic_stringstreamIcNS1_11char_traitsIcEENS1_9allocatorIcEEEE, 
                       __ZN7Iex_3_110EtxtbsyExcC2Ev, __ZN7Iex_3_110EtxtbsyExcD0Ev, 
                       __ZN7Iex_3_110EtxtbsyExcD1Ev, __ZN7Iex_3_110EtxtbsyExcD2Ev, 
                       __ZN7Iex_3_110EtxtbsyExcaSEOS0_, __ZN7Iex_3_110EtxtbsyExcaSERS0_, 
                       __ZN7Iex_3_110EucleanExcC1EONSt3__112basic_stringIcNS1_11char_traitsIcEENS1_9allocatorIcEEEE, 
                       __ZN7Iex_3_110EucleanExcC1EOS0_, __ZN7Iex_3_110EucleanExcC1EPKc, 
                       __ZN7Iex_3_110EucleanExcC1ERKNSt3__112basic_stringIcNS1_11char_traitsIcEENS1_9allocatorIcEEEE, 
                       __ZN7Iex_3_110EucleanExcC1ERKS0_, __ZN7Iex_3_110EucleanExcC1ERNSt3__118basic_stringstreamIcNS1_11char_traitsIcEENS1_9allocatorIcEEEE, 
                       __ZN7Iex_3_110EucleanExcC1Ev, __ZN7Iex_3_110EucleanExcC2EONSt3__112basic_stringIcNS1_11char_traitsIcEENS1_9allocatorIcEEEE, 
                       __ZN7Iex_3_110EucleanExcC2EOS0_, __ZN7Iex_3_110EucleanExcC2EPKc, 
                       __ZN7Iex_3_110EucleanExcC2ERKNSt3__112basic_stringIcNS1_11char_traitsIcEENS1_9allocatorIcEEEE, 
                       __ZN7Iex_3_110EucleanExcC2ERKS0_, __ZN7Iex_3_110EucleanExcC2ERNSt3__118basic_stringstreamIcNS1_11char_traitsIcEENS1_9allocatorIcEEEE, 
                       __ZN7Iex_3_110EucleanExcC2Ev, __ZN7Iex_3_110EucleanExcD0Ev, 
                       __ZN7Iex_3_110EucleanExcD1Ev, __ZN7Iex_3_110EucleanExcD2Ev, 
                       __ZN7Iex_3_110EucleanExcaSEOS0_, __ZN7Iex_3_110EucleanExcaSERS0_, 
                       __ZN7Iex_3_110EunatchExcC1EONSt3__112basic_stringIcNS1_11char_traitsIcEENS1_9allocatorIcEEEE, 
                       __ZN7Iex_3_110EunatchExcC1EOS0_, __ZN7Iex_3_110EunatchExcC1EPKc, 
                       __ZN7Iex_3_110EunatchExcC1ERKNSt3__112basic_stringIcNS1_11char_traitsIcEENS1_9allocatorIcEEEE, 
                       __ZN7Iex_3_110EunatchExcC1ERKS0_, __ZN7Iex_3_110EunatchExcC1ERNSt3__118basic_stringstreamIcNS1_11char_traitsIcEENS1_9allocatorIcEEEE, 
                       __ZN7Iex_3_110EunatchExcC1Ev, __ZN7Iex_3_110EunatchExcC2EONSt3__112basic_stringIcNS1_11char_traitsIcEENS1_9allocatorIcEEEE, 
                       __ZN7Iex_3_110EunatchExcC2EOS0_, __ZN7Iex_3_110EunatchExcC2EPKc, 
                       __ZN7Iex_3_110EunatchExcC2ERKNSt3__112basic_stringIcNS1_11char_traitsIcEENS1_9allocatorIcEEEE, 
                       __ZN7Iex_3_110EunatchExcC2ERKS0_, __ZN7Iex_3_110EunatchExcC2ERNSt3__118basic_stringstreamIcNS1_11char_traitsIcEENS1_9allocatorIcEEEE, 
                       __ZN7Iex_3_110EunatchExcC2Ev, __ZN7Iex_3_110EunatchExcD0Ev, 
                       __ZN7Iex_3_110EunatchExcD1Ev, __ZN7Iex_3_110EunatchExcD2Ev, 
                       __ZN7Iex_3_110EunatchExcaSEOS0_, __ZN7Iex_3_110EunatchExcaSERS0_, 
                       __ZN7Iex_3_110InexactExcC1EONSt3__112basic_stringIcNS1_11char_traitsIcEENS1_9allocatorIcEEEE, 
                       __ZN7Iex_3_110InexactExcC1EOS0_, __ZN7Iex_3_110InexactExcC1EPKc, 
                       __ZN7Iex_3_110InexactExcC1ERKNSt3__112basic_stringIcNS1_11char_traitsIcEENS1_9allocatorIcEEEE, 
                       __ZN7Iex_3_110InexactExcC1ERKS0_, __ZN7Iex_3_110InexactExcC1ERNSt3__118basic_stringstreamIcNS1_11char_traitsIcEENS1_9allocatorIcEEEE, 
                       __ZN7Iex_3_110InexactExcC1Ev, __ZN7Iex_3_110InexactExcC2EONSt3__112basic_stringIcNS1_11char_traitsIcEENS1_9allocatorIcEEEE, 
                       __ZN7Iex_3_110InexactExcC2EOS0_, __ZN7Iex_3_110InexactExcC2EPKc, 
                       __ZN7Iex_3_110InexactExcC2ERKNSt3__112basic_stringIcNS1_11char_traitsIcEENS1_9allocatorIcEEEE, 
                       __ZN7Iex_3_110InexactExcC2ERKS0_, __ZN7Iex_3_110InexactExcC2ERNSt3__118basic_stringstreamIcNS1_11char_traitsIcEENS1_9allocatorIcEEEE, 
                       __ZN7Iex_3_110InexactExcC2Ev, __ZN7Iex_3_110InexactExcD0Ev, 
                       __ZN7Iex_3_110InexactExcD1Ev, __ZN7Iex_3_110InexactExcD2Ev, 
                       __ZN7Iex_3_110InexactExcaSEOS0_, __ZN7Iex_3_110InexactExcaSERS0_, 
                       __ZN7Iex_3_111EalreadyExcC1EONSt3__112basic_stringIcNS1_11char_traitsIcEENS1_9allocatorIcEEEE, 
                       __ZN7Iex_3_111EalreadyExcC1EOS0_, __ZN7Iex_3_111EalreadyExcC1EPKc, 
                       __ZN7Iex_3_111EalreadyExcC1ERKNSt3__112basic_stringIcNS1_11char_traitsIcEENS1_9allocatorIcEEEE, 
                       __ZN7Iex_3_111EalreadyExcC1ERKS0_, __ZN7Iex_3_111EalreadyExcC1ERNSt3__118basic_stringstreamIcNS1_11char_traitsIcEENS1_9allocatorIcEEEE, 
                       __ZN7Iex_3_111EalreadyExcC1Ev, __ZN7Iex_3_111EalreadyExcC2EONSt3__112basic_stringIcNS1_11char_traitsIcEENS1_9allocatorIcEEEE, 
                       __ZN7Iex_3_111EalreadyExcC2EOS0_, __ZN7Iex_3_111EalreadyExcC2EPKc, 
                       __ZN7Iex_3_111EalreadyExcC2ERKNSt3__112basic_stringIcNS1_11char_traitsIcEENS1_9allocatorIcEEEE, 
                       __ZN7Iex_3_111EalreadyExcC2ERKS0_, __ZN7Iex_3_111EalreadyExcC2ERNSt3__118basic_stringstreamIcNS1_11char_traitsIcEENS1_9allocatorIcEEEE, 
                       __ZN7Iex_3_111EalreadyExcC2Ev, __ZN7Iex_3_111EalreadyExcD0Ev, 
                       __ZN7Iex_3_111EalreadyExcD1Ev, __ZN7Iex_3_111EalreadyExcD2Ev, 
                       __ZN7Iex_3_111EalreadyExcaSEOS0_, __ZN7Iex_3_111EalreadyExcaSERS0_, 
                       __ZN7Iex_3_111EbufsizeExcC1EONSt3__112basic_stringIcNS1_11char_traitsIcEENS1_9allocatorIcEEEE, 
                       __ZN7Iex_3_111EbufsizeExcC1EOS0_, __ZN7Iex_3_111EbufsizeExcC1EPKc, 
                       __ZN7Iex_3_111EbufsizeExcC1ERKNSt3__112basic_stringIcNS1_11char_traitsIcEENS1_9allocatorIcEEEE, 
                       __ZN7Iex_3_111EbufsizeExcC1ERKS0_, __ZN7Iex_3_111EbufsizeExcC1ERNSt3__118basic_stringstreamIcNS1_11char_traitsIcEENS1_9allocatorIcEEEE, 
                       __ZN7Iex_3_111EbufsizeExcC1Ev, __ZN7Iex_3_111EbufsizeExcC2EONSt3__112basic_stringIcNS1_11char_traitsIcEENS1_9allocatorIcEEEE, 
                       __ZN7Iex_3_111EbufsizeExcC2EOS0_, __ZN7Iex_3_111EbufsizeExcC2EPKc, 
                       __ZN7Iex_3_111EbufsizeExcC2ERKNSt3__112basic_stringIcNS1_11char_traitsIcEENS1_9allocatorIcEEEE, 
                       __ZN7Iex_3_111EbufsizeExcC2ERKS0_, __ZN7Iex_3_111EbufsizeExcC2ERNSt3__118basic_stringstreamIcNS1_11char_traitsIcEENS1_9allocatorIcEEEE, 
                       __ZN7Iex_3_111EbufsizeExcC2Ev, __ZN7Iex_3_111EbufsizeExcD0Ev, 
                       __ZN7Iex_3_111EbufsizeExcD1Ev, __ZN7Iex_3_111EbufsizeExcD2Ev, 
                       __ZN7Iex_3_111EbufsizeExcaSEOS0_, __ZN7Iex_3_111EbufsizeExcaSERS0_, 
                       __ZN7Iex_3_111EioresidExcC1EONSt3__112basic_stringIcNS1_11char_traitsIcEENS1_9allocatorIcEEEE, 
                       __ZN7Iex_3_111EioresidExcC1EOS0_, __ZN7Iex_3_111EioresidExcC1EPKc, 
                       __ZN7Iex_3_111EioresidExcC1ERKNSt3__112basic_stringIcNS1_11char_traitsIcEENS1_9allocatorIcEEEE, 
                       __ZN7Iex_3_111EioresidExcC1ERKS0_, __ZN7Iex_3_111EioresidExcC1ERNSt3__118basic_stringstreamIcNS1_11char_traitsIcEENS1_9allocatorIcEEEE, 
                       __ZN7Iex_3_111EioresidExcC1Ev, __ZN7Iex_3_111EioresidExcC2EONSt3__112basic_stringIcNS1_11char_traitsIcEENS1_9allocatorIcEEEE, 
                       __ZN7Iex_3_111EioresidExcC2EOS0_, __ZN7Iex_3_111EioresidExcC2EPKc, 
                       __ZN7Iex_3_111EioresidExcC2ERKNSt3__112basic_stringIcNS1_11char_traitsIcEENS1_9allocatorIcEEEE, 
                       __ZN7Iex_3_111EioresidExcC2ERKS0_, __ZN7Iex_3_111EioresidExcC2ERNSt3__118basic_stringstreamIcNS1_11char_traitsIcEENS1_9allocatorIcEEEE, 
                       __ZN7Iex_3_111EioresidExcC2Ev, __ZN7Iex_3_111EioresidExcD0Ev, 
                       __ZN7Iex_3_111EioresidExcD1Ev, __ZN7Iex_3_111EioresidExcD2Ev, 
                       __ZN7Iex_3_111EioresidExcaSEOS0_, __ZN7Iex_3_111EioresidExcaSERS0_, 
                       __ZN7Iex_3_111El2nsyncExcC1EONSt3__112basic_stringIcNS1_11char_traitsIcEENS1_9allocatorIcEEEE, 
                       __ZN7Iex_3_111El2nsyncExcC1EOS0_, __ZN7Iex_3_111El2nsyncExcC1EPKc, 
                       __ZN7Iex_3_111El2nsyncExcC1ERKNSt3__112basic_stringIcNS1_11char_traitsIcEENS1_9allocatorIcEEEE, 
                       __ZN7Iex_3_111El2nsyncExcC1ERKS0_, __ZN7Iex_3_111El2nsyncExcC1ERNSt3__118basic_stringstreamIcNS1_11char_traitsIcEENS1_9allocatorIcEEEE, 
                       __ZN7Iex_3_111El2nsyncExcC1Ev, __ZN7Iex_3_111El2nsyncExcC2EONSt3__112basic_stringIcNS1_11char_traitsIcEENS1_9allocatorIcEEEE, 
                       __ZN7Iex_3_111El2nsyncExcC2EOS0_, __ZN7Iex_3_111El2nsyncExcC2EPKc, 
                       __ZN7Iex_3_111El2nsyncExcC2ERKNSt3__112basic_stringIcNS1_11char_traitsIcEENS1_9allocatorIcEEEE, 
                       __ZN7Iex_3_111El2nsyncExcC2ERKS0_, __ZN7Iex_3_111El2nsyncExcC2ERNSt3__118basic_stringstreamIcNS1_11char_traitsIcEENS1_9allocatorIcEEEE, 
                       __ZN7Iex_3_111El2nsyncExcC2Ev, __ZN7Iex_3_111El2nsyncExcD0Ev, 
                       __ZN7Iex_3_111El2nsyncExcD1Ev, __ZN7Iex_3_111El2nsyncExcD2Ev, 
                       __ZN7Iex_3_111El2nsyncExcaSEOS0_, __ZN7Iex_3_111El2nsyncExcaSERS0_, 
                       __ZN7Iex_3_111ElibexecExcC1EONSt3__112basic_stringIcNS1_11char_traitsIcEENS1_9allocatorIcEEEE, 
                       __ZN7Iex_3_111ElibexecExcC1EOS0_, __ZN7Iex_3_111ElibexecExcC1EPKc, 
                       __ZN7Iex_3_111ElibexecExcC1ERKNSt3__112basic_stringIcNS1_11char_traitsIcEENS1_9allocatorIcEEEE, 
                       __ZN7Iex_3_111ElibexecExcC1ERKS0_, __ZN7Iex_3_111ElibexecExcC1ERNSt3__118basic_stringstreamIcNS1_11char_traitsIcEENS1_9allocatorIcEEEE, 
                       __ZN7Iex_3_111ElibexecExcC1Ev, __ZN7Iex_3_111ElibexecExcC2EONSt3__112basic_stringIcNS1_11char_traitsIcEENS1_9allocatorIcEEEE, 
                       __ZN7Iex_3_111ElibexecExcC2EOS0_, __ZN7Iex_3_111ElibexecExcC2EPKc, 
                       __ZN7Iex_3_111ElibexecExcC2ERKNSt3__112basic_stringIcNS1_11char_traitsIcEENS1_9allocatorIcEEEE, 
                       __ZN7Iex_3_111ElibexecExcC2ERKS0_, __ZN7Iex_3_111ElibexecExcC2ERNSt3__118basic_stringstreamIcNS1_11char_traitsIcEENS1_9allocatorIcEEEE, 
                       __ZN7Iex_3_111ElibexecExcC2Ev, __ZN7Iex_3_111ElibexecExcD0Ev, 
                       __ZN7Iex_3_111ElibexecExcD1Ev, __ZN7Iex_3_111ElibexecExcD2Ev, 
                       __ZN7Iex_3_111ElibexecExcaSEOS0_, __ZN7Iex_3_111ElibexecExcaSERS0_, 
                       __ZN7Iex_3_111EmsgsizeExcC1EONSt3__112basic_stringIcNS1_11char_traitsIcEENS1_9allocatorIcEEEE, 
                       __ZN7Iex_3_111EmsgsizeExcC1EOS0_, __ZN7Iex_3_111EmsgsizeExcC1EPKc, 
                       __ZN7Iex_3_111EmsgsizeExcC1ERKNSt3__112basic_stringIcNS1_11char_traitsIcEENS1_9allocatorIcEEEE, 
                       __ZN7Iex_3_111EmsgsizeExcC1ERKS0_, __ZN7Iex_3_111EmsgsizeExcC1ERNSt3__118basic_stringstreamIcNS1_11char_traitsIcEENS1_9allocatorIcEEEE, 
                       __ZN7Iex_3_111EmsgsizeExcC1Ev, __ZN7Iex_3_111EmsgsizeExcC2EONSt3__112basic_stringIcNS1_11char_traitsIcEENS1_9allocatorIcEEEE, 
                       __ZN7Iex_3_111EmsgsizeExcC2EOS0_, __ZN7Iex_3_111EmsgsizeExcC2EPKc, 
                       __ZN7Iex_3_111EmsgsizeExcC2ERKNSt3__112basic_stringIcNS1_11char_traitsIcEENS1_9allocatorIcEEEE, 
                       __ZN7Iex_3_111EmsgsizeExcC2ERKS0_, __ZN7Iex_3_111EmsgsizeExcC2ERNSt3__118basic_stringstreamIcNS1_11char_traitsIcEENS1_9allocatorIcEEEE, 
                       __ZN7Iex_3_111EmsgsizeExcC2Ev, __ZN7Iex_3_111EmsgsizeExcD0Ev, 
                       __ZN7Iex_3_111EmsgsizeExcD1Ev, __ZN7Iex_3_111EmsgsizeExcD2Ev, 
                       __ZN7Iex_3_111EmsgsizeExcaSEOS0_, __ZN7Iex_3_111EmsgsizeExcaSERS0_, 
                       __ZN7Iex_3_111EmustrunExcC1EONSt3__112basic_stringIcNS1_11char_traitsIcEENS1_9allocatorIcEEEE, 
                       __ZN7Iex_3_111EmustrunExcC1EOS0_, __ZN7Iex_3_111EmustrunExcC1EPKc, 
                       __ZN7Iex_3_111EmustrunExcC1ERKNSt3__112basic_stringIcNS1_11char_traitsIcEENS1_9allocatorIcEEEE, 
                       __ZN7Iex_3_111EmustrunExcC1ERKS0_, __ZN7Iex_3_111EmustrunExcC1ERNSt3__118basic_stringstreamIcNS1_11char_traitsIcEENS1_9allocatorIcEEEE, 
                       __ZN7Iex_3_111EmustrunExcC1Ev, __ZN7Iex_3_111EmustrunExcC2EONSt3__112basic_stringIcNS1_11char_traitsIcEENS1_9allocatorIcEEEE, 
                       __ZN7Iex_3_111EmustrunExcC2EOS0_, __ZN7Iex_3_111EmustrunExcC2EPKc, 
                       __ZN7Iex_3_111EmustrunExcC2ERKNSt3__112basic_stringIcNS1_11char_traitsIcEENS1_9allocatorIcEEEE, 
                       __ZN7Iex_3_111EmustrunExcC2ERKS0_, __ZN7Iex_3_111EmustrunExcC2ERNSt3__118basic_stringstreamIcNS1_11char_traitsIcEENS1_9allocatorIcEEEE, 
                       __ZN7Iex_3_111EmustrunExcC2Ev, __ZN7Iex_3_111EmustrunExcD0Ev, 
                       __ZN7Iex_3_111EmustrunExcD1Ev, __ZN7Iex_3_111EmustrunExcD2Ev, 
                       __ZN7Iex_3_111EmustrunExcaSEOS0_, __ZN7Iex_3_111EmustrunExcaSERS0_, 
                       __ZN7Iex_3_111EnetdownExcC1EONSt3__112basic_stringIcNS1_11char_traitsIcEENS1_9allocatorIcEEEE, 
                       __ZN7Iex_3_111EnetdownExcC1EOS0_, __ZN7Iex_3_111EnetdownExcC1EPKc, 
                       __ZN7Iex_3_111EnetdownExcC1ERKNSt3__112basic_stringIcNS1_11char_traitsIcEENS1_9allocatorIcEEEE, 
                       __ZN7Iex_3_111EnetdownExcC1ERKS0_, __ZN7Iex_3_111EnetdownExcC1ERNSt3__118basic_stringstreamIcNS1_11char_traitsIcEENS1_9allocatorIcEEEE, 
                       __ZN7Iex_3_111EnetdownExcC1Ev, __ZN7Iex_3_111EnetdownExcC2EONSt3__112basic_stringIcNS1_11char_traitsIcEENS1_9allocatorIcEEEE, 
                       __ZN7Iex_3_111EnetdownExcC2EOS0_, __ZN7Iex_3_111EnetdownExcC2EPKc, 
                       __ZN7Iex_3_111EnetdownExcC2ERKNSt3__112basic_stringIcNS1_11char_traitsIcEENS1_9allocatorIcEEEE, 
                       __ZN7Iex_3_111EnetdownExcC2ERKS0_, __ZN7Iex_3_111EnetdownExcC2ERNSt3__118basic_stringstreamIcNS1_11char_traitsIcEENS1_9allocatorIcEEEE, 
                       __ZN7Iex_3_111EnetdownExcC2Ev, __ZN7Iex_3_111EnetdownExcD0Ev, 
                       __ZN7Iex_3_111EnetdownExcD1Ev, __ZN7Iex_3_111EnetdownExcD2Ev, 
                       __ZN7Iex_3_111EnetdownExcaSEOS0_, __ZN7Iex_3_111EnetdownExcaSERS0_, 
                       __ZN7Iex_3_111EnoexistExcC1EONSt3__112basic_stringIcNS1_11char_traitsIcEENS1_9allocatorIcEEEE, 
                       __ZN7Iex_3_111EnoexistExcC1EOS0_, __ZN7Iex_3_111EnoexistExcC1EPKc, 
                       __ZN7Iex_3_111EnoexistExcC1ERKNSt3__112basic_stringIcNS1_11char_traitsIcEENS1_9allocatorIcEEEE, 
                       __ZN7Iex_3_111EnoexistExcC1ERKS0_, __ZN7Iex_3_111EnoexistExcC1ERNSt3__118basic_stringstreamIcNS1_11char_traitsIcEENS1_9allocatorIcEEEE, 
                       __ZN7Iex_3_111EnoexistExcC1Ev, __ZN7Iex_3_111EnoexistExcC2EONSt3__112basic_stringIcNS1_11char_traitsIcEENS1_9allocatorIcEEEE, 
                       __ZN7Iex_3_111EnoexistExcC2EOS0_, __ZN7Iex_3_111EnoexistExcC2EPKc, 
                       __ZN7Iex_3_111EnoexistExcC2ERKNSt3__112basic_stringIcNS1_11char_traitsIcEENS1_9allocatorIcEEEE, 
                       __ZN7Iex_3_111EnoexistExcC2ERKS0_, __ZN7Iex_3_111EnoexistExcC2ERNSt3__118basic_stringstreamIcNS1_11char_traitsIcEENS1_9allocatorIcEEEE, 
                       __ZN7Iex_3_111EnoexistExcC2Ev, __ZN7Iex_3_111EnoexistExcD0Ev, 
                       __ZN7Iex_3_111EnoexistExcD1Ev, __ZN7Iex_3_111EnoexistExcD2Ev, 
                       __ZN7Iex_3_111EnoexistExcaSEOS0_, __ZN7Iex_3_111EnoexistExcaSERS0_, 
                       __ZN7Iex_3_111EnologinExcC1EONSt3__112basic_stringIcNS1_11char_traitsIcEENS1_9allocatorIcEEEE, 
                       __ZN7Iex_3_111EnologinExcC1EOS0_, __ZN7Iex_3_111EnologinExcC1EPKc, 
                       __ZN7Iex_3_111EnologinExcC1ERKNSt3__112basic_stringIcNS1_11char_traitsIcEENS1_9allocatorIcEEEE, 
                       __ZN7Iex_3_111EnologinExcC1ERKS0_, __ZN7Iex_3_111EnologinExcC1ERNSt3__118basic_stringstreamIcNS1_11char_traitsIcEENS1_9allocatorIcEEEE, 
                       __ZN7Iex_3_111EnologinExcC1Ev, __ZN7Iex_3_111EnologinExcC2EONSt3__112basic_stringIcNS1_11char_traitsIcEENS1_9allocatorIcEEEE, 
                       __ZN7Iex_3_111EnologinExcC2EOS0_, __ZN7Iex_3_111EnologinExcC2EPKc, 
                       __ZN7Iex_3_111EnologinExcC2ERKNSt3__112basic_stringIcNS1_11char_traitsIcEENS1_9allocatorIcEEEE, 
                       __ZN7Iex_3_111EnologinExcC2ERKS0_, __ZN7Iex_3_111EnologinExcC2ERNSt3__118basic_stringstreamIcNS1_11char_traitsIcEENS1_9allocatorIcEEEE, 
                       __ZN7Iex_3_111EnologinExcC2Ev, __ZN7Iex_3_111EnologinExcD0Ev, 
                       __ZN7Iex_3_111EnologinExcD1Ev, __ZN7Iex_3_111EnologinExcD2Ev, 
                       __ZN7Iex_3_111EnologinExcaSEOS0_, __ZN7Iex_3_111EnologinExcaSERS0_, 
                       __ZN7Iex_3_111EnotconnExcC1EONSt3__112basic_stringIcNS1_11char_traitsIcEENS1_9allocatorIcEEEE, 
                       __ZN7Iex_3_111EnotconnExcC1EOS0_, __ZN7Iex_3_111EnotconnExcC1EPKc, 
                       __ZN7Iex_3_111EnotconnExcC1ERKNSt3__112basic_stringIcNS1_11char_traitsIcEENS1_9allocatorIcEEEE, 
                       __ZN7Iex_3_111EnotconnExcC1ERKS0_, __ZN7Iex_3_111EnotconnExcC1ERNSt3__118basic_stringstreamIcNS1_11char_traitsIcEENS1_9allocatorIcEEEE, 
                       __ZN7Iex_3_111EnotconnExcC1Ev, __ZN7Iex_3_111EnotconnExcC2EONSt3__112basic_stringIcNS1_11char_traitsIcEENS1_9allocatorIcEEEE, 
                       __ZN7Iex_3_111EnotconnExcC2EOS0_, __ZN7Iex_3_111EnotconnExcC2EPKc, 
                       __ZN7Iex_3_111EnotconnExcC2ERKNSt3__112basic_stringIcNS1_11char_traitsIcEENS1_9allocatorIcEEEE, 
                       __ZN7Iex_3_111EnotconnExcC2ERKS0_, __ZN7Iex_3_111EnotconnExcC2ERNSt3__118basic_stringstreamIcNS1_11char_traitsIcEENS1_9allocatorIcEEEE, 
                       __ZN7Iex_3_111EnotconnExcC2Ev, __ZN7Iex_3_111EnotconnExcD0Ev, 
                       __ZN7Iex_3_111EnotconnExcD1Ev, __ZN7Iex_3_111EnotconnExcD2Ev, 
                       __ZN7Iex_3_111EnotconnExcaSEOS0_, __ZN7Iex_3_111EnotconnExcaSERS0_, 
                       __ZN7Iex_3_111EnotsockExcC1EONSt3__112basic_stringIcNS1_11char_traitsIcEENS1_9allocatorIcEEEE, 
                       __ZN7Iex_3_111EnotsockExcC1EOS0_, __ZN7Iex_3_111EnotsockExcC1EPKc, 
                       __ZN7Iex_3_111EnotsockExcC1ERKNSt3__112basic_stringIcNS1_11char_traitsIcEENS1_9allocatorIcEEEE, 
                       __ZN7Iex_3_111EnotsockExcC1ERKS0_, __ZN7Iex_3_111EnotsockExcC1ERNSt3__118basic_stringstreamIcNS1_11char_traitsIcEENS1_9allocatorIcEEEE, 
                       __ZN7Iex_3_111EnotsockExcC1Ev, __ZN7Iex_3_111EnotsockExcC2EONSt3__112basic_stringIcNS1_11char_traitsIcEENS1_9allocatorIcEEEE, 
                       __ZN7Iex_3_111EnotsockExcC2EOS0_, __ZN7Iex_3_111EnotsockExcC2EPKc, 
                       __ZN7Iex_3_111EnotsockExcC2ERKNSt3__112basic_stringIcNS1_11char_traitsIcEENS1_9allocatorIcEEEE, 
                       __ZN7Iex_3_111EnotsockExcC2ERKS0_, __ZN7Iex_3_111EnotsockExcC2ERNSt3__118basic_stringstreamIcNS1_11char_traitsIcEENS1_9allocatorIcEEEE, 
                       __ZN7Iex_3_111EnotsockExcC2Ev, __ZN7Iex_3_111EnotsockExcD0Ev, 
                       __ZN7Iex_3_111EnotsockExcD1Ev, __ZN7Iex_3_111EnotsockExcD2Ev, 
                       __ZN7Iex_3_111EnotsockExcaSEOS0_, __ZN7Iex_3_111EnotsockExcaSERS0_, 
                       __ZN7Iex_3_111EnotuniqExcC1EONSt3__112basic_stringIcNS1_11char_traitsIcEENS1_9allocatorIcEEEE, 
                       __ZN7Iex_3_111EnotuniqExcC1EOS0_, __ZN7Iex_3_111EnotuniqExcC1EPKc, 
                       __ZN7Iex_3_111EnotuniqExcC1ERKNSt3__112basic_stringIcNS1_11char_traitsIcEENS1_9allocatorIcEEEE, 
                       __ZN7Iex_3_111EnotuniqExcC1ERKS0_, __ZN7Iex_3_111EnotuniqExcC1ERNSt3__118basic_stringstreamIcNS1_11char_traitsIcEENS1_9allocatorIcEEEE, 
                       __ZN7Iex_3_111EnotuniqExcC1Ev, __ZN7Iex_3_111EnotuniqExcC2EONSt3__112basic_stringIcNS1_11char_traitsIcEENS1_9allocatorIcEEEE, 
                       __ZN7Iex_3_111EnotuniqExcC2EOS0_, __ZN7Iex_3_111EnotuniqExcC2EPKc, 
                       __ZN7Iex_3_111EnotuniqExcC2ERKNSt3__112basic_stringIcNS1_11char_traitsIcEENS1_9allocatorIcEEEE, 
                       __ZN7Iex_3_111EnotuniqExcC2ERKS0_, __ZN7Iex_3_111EnotuniqExcC2ERNSt3__118basic_stringstreamIcNS1_11char_traitsIcEENS1_9allocatorIcEEEE, 
                       __ZN7Iex_3_111EnotuniqExcC2Ev, __ZN7Iex_3_111EnotuniqExcD0Ev, 
                       __ZN7Iex_3_111EnotuniqExcD1Ev, __ZN7Iex_3_111EnotuniqExcD2Ev, 
                       __ZN7Iex_3_111EnotuniqExcaSEOS0_, __ZN7Iex_3_111EnotuniqExcaSERS0_, 
                       __ZN7Iex_3_111EproclimExcC1EONSt3__112basic_stringIcNS1_11char_traitsIcEENS1_9allocatorIcEEEE, 
                       __ZN7Iex_3_111EproclimExcC1EOS0_, __ZN7Iex_3_111EproclimExcC1EPKc, 
                       __ZN7Iex_3_111EproclimExcC1ERKNSt3__112basic_stringIcNS1_11char_traitsIcEENS1_9allocatorIcEEEE, 
                       __ZN7Iex_3_111EproclimExcC1ERKS0_, __ZN7Iex_3_111EproclimExcC1ERNSt3__118basic_stringstreamIcNS1_11char_traitsIcEENS1_9allocatorIcEEEE, 
                       __ZN7Iex_3_111EproclimExcC1Ev, __ZN7Iex_3_111EproclimExcC2EONSt3__112basic_stringIcNS1_11char_traitsIcEENS1_9allocatorIcEEEE, 
                       __ZN7Iex_3_111EproclimExcC2EOS0_, __ZN7Iex_3_111EproclimExcC2EPKc, 
                       __ZN7Iex_3_111EproclimExcC2ERKNSt3__112basic_stringIcNS1_11char_traitsIcEENS1_9allocatorIcEEEE, 
                       __ZN7Iex_3_111EproclimExcC2ERKS0_, __ZN7Iex_3_111EproclimExcC2ERNSt3__118basic_stringstreamIcNS1_11char_traitsIcEENS1_9allocatorIcEEEE, 
                       __ZN7Iex_3_111EproclimExcC2Ev, __ZN7Iex_3_111EproclimExcD0Ev, 
                       __ZN7Iex_3_111EproclimExcD1Ev, __ZN7Iex_3_111EproclimExcD2Ev, 
                       __ZN7Iex_3_111EproclimExcaSEOS0_, __ZN7Iex_3_111EproclimExcaSERS0_, 
                       __ZN7Iex_3_111ErestartExcC1EONSt3__112basic_stringIcNS1_11char_traitsIcEENS1_9allocatorIcEEEE, 
                       __ZN7Iex_3_111ErestartExcC1EOS0_, __ZN7Iex_3_111ErestartExcC1EPKc, 
                       __ZN7Iex_3_111ErestartExcC1ERKNSt3__112basic_stringIcNS1_11char_traitsIcEENS1_9allocatorIcEEEE, 
                       __ZN7Iex_3_111ErestartExcC1ERKS0_, __ZN7Iex_3_111ErestartExcC1ERNSt3__118basic_stringstreamIcNS1_11char_traitsIcEENS1_9allocatorIcEEEE, 
                       __ZN7Iex_3_111ErestartExcC1Ev, __ZN7Iex_3_111ErestartExcC2EONSt3__112basic_stringIcNS1_11char_traitsIcEENS1_9allocatorIcEEEE, 
                       __ZN7Iex_3_111ErestartExcC2EOS0_, __ZN7Iex_3_111ErestartExcC2EPKc, 
                       __ZN7Iex_3_111ErestartExcC2ERKNSt3__112basic_stringIcNS1_11char_traitsIcEENS1_9allocatorIcEEEE, 
                       __ZN7Iex_3_111ErestartExcC2ERKS0_, __ZN7Iex_3_111ErestartExcC2ERNSt3__118basic_stringstreamIcNS1_11char_traitsIcEENS1_9allocatorIcEEEE, 
                       __ZN7Iex_3_111ErestartExcC2Ev, __ZN7Iex_3_111ErestartExcD0Ev, 
                       __ZN7Iex_3_111ErestartExcD1Ev, __ZN7Iex_3_111ErestartExcD2Ev, 
                       __ZN7Iex_3_111ErestartExcaSEOS0_, __ZN7Iex_3_111ErestartExcaSERS0_, 
                       __ZN7Iex_3_111EstrpipeExcC1EONSt3__112basic_stringIcNS1_11char_traitsIcEENS1_9allocatorIcEEEE, 
                       __ZN7Iex_3_111EstrpipeExcC1EOS0_, __ZN7Iex_3_111EstrpipeExcC1EPKc, 
                       __ZN7Iex_3_111EstrpipeExcC1ERKNSt3__112basic_stringIcNS1_11char_traitsIcEENS1_9allocatorIcEEEE, 
                       __ZN7Iex_3_111EstrpipeExcC1ERKS0_, __ZN7Iex_3_111EstrpipeExcC1ERNSt3__118basic_stringstreamIcNS1_11char_traitsIcEENS1_9allocatorIcEEEE, 
                       __ZN7Iex_3_111EstrpipeExcC1Ev, __ZN7Iex_3_111EstrpipeExcC2EONSt3__112basic_stringIcNS1_11char_traitsIcEENS1_9allocatorIcEEEE, 
                       __ZN7Iex_3_111EstrpipeExcC2EOS0_, __ZN7Iex_3_111EstrpipeExcC2EPKc, 
                       __ZN7Iex_3_111EstrpipeExcC2ERKNSt3__112basic_stringIcNS1_11char_traitsIcEENS1_9allocatorIcEEEE, 
                       __ZN7Iex_3_111EstrpipeExcC2ERKS0_, __ZN7Iex_3_111EstrpipeExcC2ERNSt3__118basic_stringstreamIcNS1_11char_traitsIcEENS1_9allocatorIcEEEE, 
                       __ZN7Iex_3_111EstrpipeExcC2Ev, __ZN7Iex_3_111EstrpipeExcD0Ev, 
                       __ZN7Iex_3_111EstrpipeExcD1Ev, __ZN7Iex_3_111EstrpipeExcD2Ev, 
                       __ZN7Iex_3_111EstrpipeExcaSEOS0_, __ZN7Iex_3_111EstrpipeExcaSERS0_, 
                       __ZN7Iex_3_111OverflowExcC1EONSt3__112basic_stringIcNS1_11char_traitsIcEENS1_9allocatorIcEEEE, 
                       __ZN7Iex_3_111OverflowExcC1EOS0_, __ZN7Iex_3_111OverflowExcC1EPKc, 
                       __ZN7Iex_3_111OverflowExcC1ERKNSt3__112basic_stringIcNS1_11char_traitsIcEENS1_9allocatorIcEEEE, 
                       __ZN7Iex_3_111OverflowExcC1ERKS0_, __ZN7Iex_3_111OverflowExcC1ERNSt3__118basic_stringstreamIcNS1_11char_traitsIcEENS1_9allocatorIcEEEE, 
                       __ZN7Iex_3_111OverflowExcC1Ev, __ZN7Iex_3_111OverflowExcC2EONSt3__112basic_stringIcNS1_11char_traitsIcEENS1_9allocatorIcEEEE, 
                       __ZN7Iex_3_111OverflowExcC2EOS0_, __ZN7Iex_3_111OverflowExcC2EPKc, 
                       __ZN7Iex_3_111OverflowExcC2ERKNSt3__112basic_stringIcNS1_11char_traitsIcEENS1_9allocatorIcEEEE, 
                       __ZN7Iex_3_111OverflowExcC2ERKS0_, __ZN7Iex_3_111OverflowExcC2ERNSt3__118basic_stringstreamIcNS1_11char_traitsIcEENS1_9allocatorIcEEEE, 
                       __ZN7Iex_3_111OverflowExcC2Ev, __ZN7Iex_3_111OverflowExcD0Ev, 
                       __ZN7Iex_3_111OverflowExcD1Ev, __ZN7Iex_3_111OverflowExcD2Ev, 
                       __ZN7Iex_3_111OverflowExcaSEOS0_, __ZN7Iex_3_111OverflowExcaSERS0_, 
                       __ZN7Iex_3_111stackTracerEv, __ZN7Iex_3_112EcanceledExcC1EONSt3__112basic_stringIcNS1_11char_traitsIcEENS1_9allocatorIcEEEE, 
                       __ZN7Iex_3_112EcanceledExcC1EOS0_, __ZN7Iex_3_112EcanceledExcC1EPKc, 
                       __ZN7Iex_3_112EcanceledExcC1ERKNSt3__112basic_stringIcNS1_11char_traitsIcEENS1_9allocatorIcEEEE, 
                       __ZN7Iex_3_112EcanceledExcC1ERKS0_, __ZN7Iex_3_112EcanceledExcC1ERNSt3__118basic_stringstreamIcNS1_11char_traitsIcEENS1_9allocatorIcEEEE, 
                       __ZN7Iex_3_112EcanceledExcC1Ev, __ZN7Iex_3_112EcanceledExcC2EONSt3__112basic_stringIcNS1_11char_traitsIcEENS1_9allocatorIcEEEE, 
                       __ZN7Iex_3_112EcanceledExcC2EOS0_, __ZN7Iex_3_112EcanceledExcC2EPKc, 
                       __ZN7Iex_3_112EcanceledExcC2ERKNSt3__112basic_stringIcNS1_11char_traitsIcEENS1_9allocatorIcEEEE, 
                       __ZN7Iex_3_112EcanceledExcC2ERKS0_, __ZN7Iex_3_112EcanceledExcC2ERNSt3__118basic_stringstreamIcNS1_11char_traitsIcEENS1_9allocatorIcEEEE, 
                       __ZN7Iex_3_112EcanceledExcC2Ev, __ZN7Iex_3_112EcanceledExcD0Ev, 
                       __ZN7Iex_3_112EcanceledExcD1Ev, __ZN7Iex_3_112EcanceledExcD2Ev, 
                       __ZN7Iex_3_112EcanceledExcaSEOS0_, __ZN7Iex_3_112EcanceledExcaSERS0_, 
                       __ZN7Iex_3_112EclockcpuExcC1EONSt3__112basic_stringIcNS1_11char_traitsIcEENS1_9allocatorIcEEEE, 
                       __ZN7Iex_3_112EclockcpuExcC1EOS0_, __ZN7Iex_3_112EclockcpuExcC1EPKc, 
                       __ZN7Iex_3_112EclockcpuExcC1ERKNSt3__112basic_stringIcNS1_11char_traitsIcEENS1_9allocatorIcEEEE, 
                       __ZN7Iex_3_112EclockcpuExcC1ERKS0_, __ZN7Iex_3_112EclockcpuExcC1ERNSt3__118basic_stringstreamIcNS1_11char_traitsIcEENS1_9allocatorIcEEEE, 
                       __ZN7Iex_3_112EclockcpuExcC1Ev, __ZN7Iex_3_112EclockcpuExcC2EONSt3__112basic_stringIcNS1_11char_traitsIcEENS1_9allocatorIcEEEE, 
                       __ZN7Iex_3_112EclockcpuExcC2EOS0_, __ZN7Iex_3_112EclockcpuExcC2EPKc, 
                       __ZN7Iex_3_112EclockcpuExcC2ERKNSt3__112basic_stringIcNS1_11char_traitsIcEENS1_9allocatorIcEEEE, 
                       __ZN7Iex_3_112EclockcpuExcC2ERKS0_, __ZN7Iex_3_112EclockcpuExcC2ERNSt3__118basic_stringstreamIcNS1_11char_traitsIcEENS1_9allocatorIcEEEE, 
                       __ZN7Iex_3_112EclockcpuExcC2Ev, __ZN7Iex_3_112EclockcpuExcD0Ev, 
                       __ZN7Iex_3_112EclockcpuExcD1Ev, __ZN7Iex_3_112EclockcpuExcD2Ev, 
                       __ZN7Iex_3_112EclockcpuExcaSEOS0_, __ZN7Iex_3_112EclockcpuExcaSERS0_, 
                       __ZN7Iex_3_112EdeadlockExcC1EONSt3__112basic_stringIcNS1_11char_traitsIcEENS1_9allocatorIcEEEE, 
                       __ZN7Iex_3_112EdeadlockExcC1EOS0_, __ZN7Iex_3_112EdeadlockExcC1EPKc, 
                       __ZN7Iex_3_112EdeadlockExcC1ERKNSt3__112basic_stringIcNS1_11char_traitsIcEENS1_9allocatorIcEEEE, 
                       __ZN7Iex_3_112EdeadlockExcC1ERKS0_, __ZN7Iex_3_112EdeadlockExcC1ERNSt3__118basic_stringstreamIcNS1_11char_traitsIcEENS1_9allocatorIcEEEE, 
                       __ZN7Iex_3_112EdeadlockExcC1Ev, __ZN7Iex_3_112EdeadlockExcC2EONSt3__112basic_stringIcNS1_11char_traitsIcEENS1_9allocatorIcEEEE, 
                       __ZN7Iex_3_112EdeadlockExcC2EOS0_, __ZN7Iex_3_112EdeadlockExcC2EPKc, 
                       __ZN7Iex_3_112EdeadlockExcC2ERKNSt3__112basic_stringIcNS1_11char_traitsIcEENS1_9allocatorIcEEEE, 
                       __ZN7Iex_3_112EdeadlockExcC2ERKS0_, __ZN7Iex_3_112EdeadlockExcC2ERNSt3__118basic_stringstreamIcNS1_11char_traitsIcEENS1_9allocatorIcEEEE, 
                       __ZN7Iex_3_112EdeadlockExcC2Ev, __ZN7Iex_3_112EdeadlockExcD0Ev, 
                       __ZN7Iex_3_112EdeadlockExcD1Ev, __ZN7Iex_3_112EdeadlockExcD2Ev, 
                       __ZN7Iex_3_112EdeadlockExcaSEOS0_, __ZN7Iex_3_112EdeadlockExcaSERS0_, 
                       __ZN7Iex_3_112EdisjointExcC1EONSt3__112basic_stringIcNS1_11char_traitsIcEENS1_9allocatorIcEEEE, 
                       __ZN7Iex_3_112EdisjointExcC1EOS0_, __ZN7Iex_3_112EdisjointExcC1EPKc, 
                       __ZN7Iex_3_112EdisjointExcC1ERKNSt3__112basic_stringIcNS1_11char_traitsIcEENS1_9allocatorIcEEEE, 
                       __ZN7Iex_3_112EdisjointExcC1ERKS0_, __ZN7Iex_3_112EdisjointExcC1ERNSt3__118basic_stringstreamIcNS1_11char_traitsIcEENS1_9allocatorIcEEEE, 
                       __ZN7Iex_3_112EdisjointExcC1Ev, __ZN7Iex_3_112EdisjointExcC2EONSt3__112basic_stringIcNS1_11char_traitsIcEENS1_9allocatorIcEEEE, 
                       __ZN7Iex_3_112EdisjointExcC2EOS0_, __ZN7Iex_3_112EdisjointExcC2EPKc, 
                       __ZN7Iex_3_112EdisjointExcC2ERKNSt3__112basic_stringIcNS1_11char_traitsIcEENS1_9allocatorIcEEEE, 
                       __ZN7Iex_3_112EdisjointExcC2ERKS0_, __ZN7Iex_3_112EdisjointExcC2ERNSt3__118basic_stringstreamIcNS1_11char_traitsIcEENS1_9allocatorIcEEEE, 
                       __ZN7Iex_3_112EdisjointExcC2Ev, __ZN7Iex_3_112EdisjointExcD0Ev, 
                       __ZN7Iex_3_112EdisjointExcD1Ev, __ZN7Iex_3_112EdisjointExcD2Ev, 
                       __ZN7Iex_3_112EdisjointExcaSEOS0_, __ZN7Iex_3_112EdisjointExcaSERS0_, 
                       __ZN7Iex_3_112EenqueuedExcC1EONSt3__112basic_stringIcNS1_11char_traitsIcEENS1_9allocatorIcEEEE, 
                       __ZN7Iex_3_112EenqueuedExcC1EOS0_, __ZN7Iex_3_112EenqueuedExcC1EPKc, 
                       __ZN7Iex_3_112EenqueuedExcC1ERKNSt3__112basic_stringIcNS1_11char_traitsIcEENS1_9allocatorIcEEEE, 
                       __ZN7Iex_3_112EenqueuedExcC1ERKS0_, __ZN7Iex_3_112EenqueuedExcC1ERNSt3__118basic_stringstreamIcNS1_11char_traitsIcEENS1_9allocatorIcEEEE, 
                       __ZN7Iex_3_112EenqueuedExcC1Ev, __ZN7Iex_3_112EenqueuedExcC2EONSt3__112basic_stringIcNS1_11char_traitsIcEENS1_9allocatorIcEEEE, 
                       __ZN7Iex_3_112EenqueuedExcC2EOS0_, __ZN7Iex_3_112EenqueuedExcC2EPKc, 
                       __ZN7Iex_3_112EenqueuedExcC2ERKNSt3__112basic_stringIcNS1_11char_traitsIcEENS1_9allocatorIcEEEE, 
                       __ZN7Iex_3_112EenqueuedExcC2ERKS0_, __ZN7Iex_3_112EenqueuedExcC2ERNSt3__118basic_stringstreamIcNS1_11char_traitsIcEENS1_9allocatorIcEEEE, 
                       __ZN7Iex_3_112EenqueuedExcC2Ev, __ZN7Iex_3_112EenqueuedExcD0Ev, 
                       __ZN7Iex_3_112EenqueuedExcD1Ev, __ZN7Iex_3_112EenqueuedExcD2Ev, 
                       __ZN7Iex_3_112EenqueuedExcaSEOS0_, __ZN7Iex_3_112EenqueuedExcaSERS0_, 
                       __ZN7Iex_3_112EhostdownExcC1EONSt3__112basic_stringIcNS1_11char_traitsIcEENS1_9allocatorIcEEEE, 
                       __ZN7Iex_3_112EhostdownExcC1EOS0_, __ZN7Iex_3_112EhostdownExcC1EPKc, 
                       __ZN7Iex_3_112EhostdownExcC1ERKNSt3__112basic_stringIcNS1_11char_traitsIcEENS1_9allocatorIcEEEE, 
                       __ZN7Iex_3_112EhostdownExcC1ERKS0_, __ZN7Iex_3_112EhostdownExcC1ERNSt3__118basic_stringstreamIcNS1_11char_traitsIcEENS1_9allocatorIcEEEE, 
                       __ZN7Iex_3_112EhostdownExcC1Ev, __ZN7Iex_3_112EhostdownExcC2EONSt3__112basic_stringIcNS1_11char_traitsIcEENS1_9allocatorIcEEEE, 
                       __ZN7Iex_3_112EhostdownExcC2EOS0_, __ZN7Iex_3_112EhostdownExcC2EPKc, 
                       __ZN7Iex_3_112EhostdownExcC2ERKNSt3__112basic_stringIcNS1_11char_traitsIcEENS1_9allocatorIcEEEE, 
                       __ZN7Iex_3_112EhostdownExcC2ERKS0_, __ZN7Iex_3_112EhostdownExcC2ERNSt3__118basic_stringstreamIcNS1_11char_traitsIcEENS1_9allocatorIcEEEE, 
                       __ZN7Iex_3_112EhostdownExcC2Ev, __ZN7Iex_3_112EhostdownExcD0Ev, 
                       __ZN7Iex_3_112EhostdownExcD1Ev, __ZN7Iex_3_112EhostdownExcD2Ev, 
                       __ZN7Iex_3_112EhostdownExcaSEOS0_, __ZN7Iex_3_112EhostdownExcaSERS0_, 
                       __ZN7Iex_3_112EloginlimExcC1EONSt3__112basic_stringIcNS1_11char_traitsIcEENS1_9allocatorIcEEEE, 
                       __ZN7Iex_3_112EloginlimExcC1EOS0_, __ZN7Iex_3_112EloginlimExcC1EPKc, 
                       __ZN7Iex_3_112EloginlimExcC1ERKNSt3__112basic_stringIcNS1_11char_traitsIcEENS1_9allocatorIcEEEE, 
                       __ZN7Iex_3_112EloginlimExcC1ERKS0_, __ZN7Iex_3_112EloginlimExcC1ERNSt3__118basic_stringstreamIcNS1_11char_traitsIcEENS1_9allocatorIcEEEE, 
                       __ZN7Iex_3_112EloginlimExcC1Ev, __ZN7Iex_3_112EloginlimExcC2EONSt3__112basic_stringIcNS1_11char_traitsIcEENS1_9allocatorIcEEEE, 
                       __ZN7Iex_3_112EloginlimExcC2EOS0_, __ZN7Iex_3_112EloginlimExcC2EPKc, 
                       __ZN7Iex_3_112EloginlimExcC2ERKNSt3__112basic_stringIcNS1_11char_traitsIcEENS1_9allocatorIcEEEE, 
                       __ZN7Iex_3_112EloginlimExcC2ERKS0_, __ZN7Iex_3_112EloginlimExcC2ERNSt3__118basic_stringstreamIcNS1_11char_traitsIcEENS1_9allocatorIcEEEE, 
                       __ZN7Iex_3_112EloginlimExcC2Ev, __ZN7Iex_3_112EloginlimExcD0Ev, 
                       __ZN7Iex_3_112EloginlimExcD1Ev, __ZN7Iex_3_112EloginlimExcD2Ev, 
                       __ZN7Iex_3_112EloginlimExcaSEOS0_, __ZN7Iex_3_112EloginlimExcaSERS0_, 
                       __ZN7Iex_3_112EmultihopExcC1EONSt3__112basic_stringIcNS1_11char_traitsIcEENS1_9allocatorIcEEEE, 
                       __ZN7Iex_3_112EmultihopExcC1EOS0_, __ZN7Iex_3_112EmultihopExcC1EPKc, 
                       __ZN7Iex_3_112EmultihopExcC1ERKNSt3__112basic_stringIcNS1_11char_traitsIcEENS1_9allocatorIcEEEE, 
                       __ZN7Iex_3_112EmultihopExcC1ERKS0_, __ZN7Iex_3_112EmultihopExcC1ERNSt3__118basic_stringstreamIcNS1_11char_traitsIcEENS1_9allocatorIcEEEE, 
                       __ZN7Iex_3_112EmultihopExcC1Ev, __ZN7Iex_3_112EmultihopExcC2EONSt3__112basic_stringIcNS1_11char_traitsIcEENS1_9allocatorIcEEEE, 
                       __ZN7Iex_3_112EmultihopExcC2EOS0_, __ZN7Iex_3_112EmultihopExcC2EPKc, 
                       __ZN7Iex_3_112EmultihopExcC2ERKNSt3__112basic_stringIcNS1_11char_traitsIcEENS1_9allocatorIcEEEE, 
                       __ZN7Iex_3_112EmultihopExcC2ERKS0_, __ZN7Iex_3_112EmultihopExcC2ERNSt3__118basic_stringstreamIcNS1_11char_traitsIcEENS1_9allocatorIcEEEE, 
                       __ZN7Iex_3_112EmultihopExcC2Ev, __ZN7Iex_3_112EmultihopExcD0Ev, 
                       __ZN7Iex_3_112EmultihopExcD1Ev, __ZN7Iex_3_112EmultihopExcD2Ev, 
                       __ZN7Iex_3_112EmultihopExcaSEOS0_, __ZN7Iex_3_112EmultihopExcaSERS0_, 
                       __ZN7Iex_3_112EnetresetExcC1EONSt3__112basic_stringIcNS1_11char_traitsIcEENS1_9allocatorIcEEEE, 
                       __ZN7Iex_3_112EnetresetExcC1EOS0_, __ZN7Iex_3_112EnetresetExcC1EPKc, 
                       __ZN7Iex_3_112EnetresetExcC1ERKNSt3__112basic_stringIcNS1_11char_traitsIcEENS1_9allocatorIcEEEE, 
                       __ZN7Iex_3_112EnetresetExcC1ERKS0_, __ZN7Iex_3_112EnetresetExcC1ERNSt3__118basic_stringstreamIcNS1_11char_traitsIcEENS1_9allocatorIcEEEE, 
                       __ZN7Iex_3_112EnetresetExcC1Ev, __ZN7Iex_3_112EnetresetExcC2EONSt3__112basic_stringIcNS1_11char_traitsIcEENS1_9allocatorIcEEEE, 
                       __ZN7Iex_3_112EnetresetExcC2EOS0_, __ZN7Iex_3_112EnetresetExcC2EPKc, 
                       __ZN7Iex_3_112EnetresetExcC2ERKNSt3__112basic_stringIcNS1_11char_traitsIcEENS1_9allocatorIcEEEE, 
                       __ZN7Iex_3_112EnetresetExcC2ERKS0_, __ZN7Iex_3_112EnetresetExcC2ERNSt3__118basic_stringstreamIcNS1_11char_traitsIcEENS1_9allocatorIcEEEE, 
                       __ZN7Iex_3_112EnetresetExcC2Ev, __ZN7Iex_3_112EnetresetExcD0Ev, 
                       __ZN7Iex_3_112EnetresetExcD1Ev, __ZN7Iex_3_112EnetresetExcD2Ev, 
                       __ZN7Iex_3_112EnetresetExcaSEOS0_, __ZN7Iex_3_112EnetresetExcaSERS0_, 
                       __ZN7Iex_3_112EnoattachExcC1EONSt3__112basic_stringIcNS1_11char_traitsIcEENS1_9allocatorIcEEEE, 
                       __ZN7Iex_3_112EnoattachExcC1EOS0_, __ZN7Iex_3_112EnoattachExcC1EPKc, 
                       __ZN7Iex_3_112EnoattachExcC1ERKNSt3__112basic_stringIcNS1_11char_traitsIcEENS1_9allocatorIcEEEE, 
                       __ZN7Iex_3_112EnoattachExcC1ERKS0_, __ZN7Iex_3_112EnoattachExcC1ERNSt3__118basic_stringstreamIcNS1_11char_traitsIcEENS1_9allocatorIcEEEE, 
                       __ZN7Iex_3_112EnoattachExcC1Ev, __ZN7Iex_3_112EnoattachExcC2EONSt3__112basic_stringIcNS1_11char_traitsIcEENS1_9allocatorIcEEEE, 
                       __ZN7Iex_3_112EnoattachExcC2EOS0_, __ZN7Iex_3_112EnoattachExcC2EPKc, 
                       __ZN7Iex_3_112EnoattachExcC2ERKNSt3__112basic_stringIcNS1_11char_traitsIcEENS1_9allocatorIcEEEE, 
                       __ZN7Iex_3_112EnoattachExcC2ERKS0_, __ZN7Iex_3_112EnoattachExcC2ERNSt3__118basic_stringstreamIcNS1_11char_traitsIcEENS1_9allocatorIcEEEE, 
                       __ZN7Iex_3_112EnoattachExcC2Ev, __ZN7Iex_3_112EnoattachExcD0Ev, 
                       __ZN7Iex_3_112EnoattachExcD1Ev, __ZN7Iex_3_112EnoattachExcD2Ev, 
                       __ZN7Iex_3_112EnoattachExcaSEOS0_, __ZN7Iex_3_112EnoattachExcaSERS0_, 
                       __ZN7Iex_3_112EnotemptyExcC1EONSt3__112basic_stringIcNS1_11char_traitsIcEENS1_9allocatorIcEEEE, 
                       __ZN7Iex_3_112EnotemptyExcC1EOS0_, __ZN7Iex_3_112EnotemptyExcC1EPKc, 
                       __ZN7Iex_3_112EnotemptyExcC1ERKNSt3__112basic_stringIcNS1_11char_traitsIcEENS1_9allocatorIcEEEE, 
                       __ZN7Iex_3_112EnotemptyExcC1ERKS0_, __ZN7Iex_3_112EnotemptyExcC1ERNSt3__118basic_stringstreamIcNS1_11char_traitsIcEENS1_9allocatorIcEEEE, 
                       __ZN7Iex_3_112EnotemptyExcC1Ev, __ZN7Iex_3_112EnotemptyExcC2EONSt3__112basic_stringIcNS1_11char_traitsIcEENS1_9allocatorIcEEEE, 
                       __ZN7Iex_3_112EnotemptyExcC2EOS0_, __ZN7Iex_3_112EnotemptyExcC2EPKc, 
                       __ZN7Iex_3_112EnotemptyExcC2ERKNSt3__112basic_stringIcNS1_11char_traitsIcEENS1_9allocatorIcEEEE, 
                       __ZN7Iex_3_112EnotemptyExcC2ERKS0_, __ZN7Iex_3_112EnotemptyExcC2ERNSt3__118basic_stringstreamIcNS1_11char_traitsIcEENS1_9allocatorIcEEEE, 
                       __ZN7Iex_3_112EnotemptyExcC2Ev, __ZN7Iex_3_112EnotemptyExcD0Ev, 
                       __ZN7Iex_3_112EnotemptyExcD1Ev, __ZN7Iex_3_112EnotemptyExcD2Ev, 
                       __ZN7Iex_3_112EnotemptyExcaSEOS0_, __ZN7Iex_3_112EnotemptyExcaSERS0_, 
                       __ZN7Iex_3_112EoverflowExcC1EONSt3__112basic_stringIcNS1_11char_traitsIcEENS1_9allocatorIcEEEE, 
                       __ZN7Iex_3_112EoverflowExcC1EOS0_, __ZN7Iex_3_112EoverflowExcC1EPKc, 
                       __ZN7Iex_3_112EoverflowExcC1ERKNSt3__112basic_stringIcNS1_11char_traitsIcEENS1_9allocatorIcEEEE, 
                       __ZN7Iex_3_112EoverflowExcC1ERKS0_, __ZN7Iex_3_112EoverflowExcC1ERNSt3__118basic_stringstreamIcNS1_11char_traitsIcEENS1_9allocatorIcEEEE, 
                       __ZN7Iex_3_112EoverflowExcC1Ev, __ZN7Iex_3_112EoverflowExcC2EONSt3__112basic_stringIcNS1_11char_traitsIcEENS1_9allocatorIcEEEE, 
                       __ZN7Iex_3_112EoverflowExcC2EOS0_, __ZN7Iex_3_112EoverflowExcC2EPKc, 
                       __ZN7Iex_3_112EoverflowExcC2ERKNSt3__112basic_stringIcNS1_11char_traitsIcEENS1_9allocatorIcEEEE, 
                       __ZN7Iex_3_112EoverflowExcC2ERKS0_, __ZN7Iex_3_112EoverflowExcC2ERNSt3__118basic_stringstreamIcNS1_11char_traitsIcEENS1_9allocatorIcEEEE, 
                       __ZN7Iex_3_112EoverflowExcC2Ev, __ZN7Iex_3_112EoverflowExcD0Ev, 
                       __ZN7Iex_3_112EoverflowExcD1Ev, __ZN7Iex_3_112EoverflowExcD2Ev, 
                       __ZN7Iex_3_112EoverflowExcaSEOS0_, __ZN7Iex_3_112EoverflowExcaSERS0_, 
                       __ZN7Iex_3_112EremoteioExcC1EONSt3__112basic_stringIcNS1_11char_traitsIcEENS1_9allocatorIcEEEE, 
                       __ZN7Iex_3_112EremoteioExcC1EOS0_, __ZN7Iex_3_112EremoteioExcC1EPKc, 
                       __ZN7Iex_3_112EremoteioExcC1ERKNSt3__112basic_stringIcNS1_11char_traitsIcEENS1_9allocatorIcEEEE, 
                       __ZN7Iex_3_112EremoteioExcC1ERKS0_, __ZN7Iex_3_112EremoteioExcC1ERNSt3__118basic_stringstreamIcNS1_11char_traitsIcEENS1_9allocatorIcEEEE, 
                       __ZN7Iex_3_112EremoteioExcC1Ev, __ZN7Iex_3_112EremoteioExcC2EONSt3__112basic_stringIcNS1_11char_traitsIcEENS1_9allocatorIcEEEE, 
                       __ZN7Iex_3_112EremoteioExcC2EOS0_, __ZN7Iex_3_112EremoteioExcC2EPKc, 
                       __ZN7Iex_3_112EremoteioExcC2ERKNSt3__112basic_stringIcNS1_11char_traitsIcEENS1_9allocatorIcEEEE, 
                       __ZN7Iex_3_112EremoteioExcC2ERKS0_, __ZN7Iex_3_112EremoteioExcC2ERNSt3__118basic_stringstreamIcNS1_11char_traitsIcEENS1_9allocatorIcEEEE, 
                       __ZN7Iex_3_112EremoteioExcC2Ev, __ZN7Iex_3_112EremoteioExcD0Ev, 
                       __ZN7Iex_3_112EremoteioExcD1Ev, __ZN7Iex_3_112EremoteioExcD2Ev, 
                       __ZN7Iex_3_112EremoteioExcaSEOS0_, __ZN7Iex_3_112EremoteioExcaSERS0_, 
                       __ZN7Iex_3_112EshutdownExcC1EONSt3__112basic_stringIcNS1_11char_traitsIcEENS1_9allocatorIcEEEE, 
                       __ZN7Iex_3_112EshutdownExcC1EOS0_, __ZN7Iex_3_112EshutdownExcC1EPKc, 
                       __ZN7Iex_3_112EshutdownExcC1ERKNSt3__112basic_stringIcNS1_11char_traitsIcEENS1_9allocatorIcEEEE, 
                       __ZN7Iex_3_112EshutdownExcC1ERKS0_, __ZN7Iex_3_112EshutdownExcC1ERNSt3__118basic_stringstreamIcNS1_11char_traitsIcEENS1_9allocatorIcEEEE, 
                       __ZN7Iex_3_112EshutdownExcC1Ev, __ZN7Iex_3_112EshutdownExcC2EONSt3__112basic_stringIcNS1_11char_traitsIcEENS1_9allocatorIcEEEE, 
                       __ZN7Iex_3_112EshutdownExcC2EOS0_, __ZN7Iex_3_112EshutdownExcC2EPKc, 
                       __ZN7Iex_3_112EshutdownExcC2ERKNSt3__112basic_stringIcNS1_11char_traitsIcEENS1_9allocatorIcEEEE, 
                       __ZN7Iex_3_112EshutdownExcC2ERKS0_, __ZN7Iex_3_112EshutdownExcC2ERNSt3__118basic_stringstreamIcNS1_11char_traitsIcEENS1_9allocatorIcEEEE, 
                       __ZN7Iex_3_112EshutdownExcC2Ev, __ZN7Iex_3_112EshutdownExcD0Ev, 
                       __ZN7Iex_3_112EshutdownExcD1Ev, __ZN7Iex_3_112EshutdownExcD2Ev, 
                       __ZN7Iex_3_112EshutdownExcaSEOS0_, __ZN7Iex_3_112EshutdownExcaSERS0_, 
                       __ZN7Iex_3_112EtimedoutExcC1EONSt3__112basic_stringIcNS1_11char_traitsIcEENS1_9allocatorIcEEEE, 
                       __ZN7Iex_3_112EtimedoutExcC1EOS0_, __ZN7Iex_3_112EtimedoutExcC1EPKc, 
                       __ZN7Iex_3_112EtimedoutExcC1ERKNSt3__112basic_stringIcNS1_11char_traitsIcEENS1_9allocatorIcEEEE, 
                       __ZN7Iex_3_112EtimedoutExcC1ERKS0_, __ZN7Iex_3_112EtimedoutExcC1ERNSt3__118basic_stringstreamIcNS1_11char_traitsIcEENS1_9allocatorIcEEEE, 
                       __ZN7Iex_3_112EtimedoutExcC1Ev, __ZN7Iex_3_112EtimedoutExcC2EONSt3__112basic_stringIcNS1_11char_traitsIcEENS1_9allocatorIcEEEE, 
                       __ZN7Iex_3_112EtimedoutExcC2EOS0_, __ZN7Iex_3_112EtimedoutExcC2EPKc, 
                       __ZN7Iex_3_112EtimedoutExcC2ERKNSt3__112basic_stringIcNS1_11char_traitsIcEENS1_9allocatorIcEEEE, 
                       __ZN7Iex_3_112EtimedoutExcC2ERKS0_, __ZN7Iex_3_112EtimedoutExcC2ERNSt3__118basic_stringstreamIcNS1_11char_traitsIcEENS1_9allocatorIcEEEE, 
                       __ZN7Iex_3_112EtimedoutExcC2Ev, __ZN7Iex_3_112EtimedoutExcD0Ev, 
                       __ZN7Iex_3_112EtimedoutExcD1Ev, __ZN7Iex_3_112EtimedoutExcD2Ev, 
                       __ZN7Iex_3_112EtimedoutExcaSEOS0_, __ZN7Iex_3_112EtimedoutExcaSERS0_, 
                       __ZN7Iex_3_112UnderflowExcC1EONSt3__112basic_stringIcNS1_11char_traitsIcEENS1_9allocatorIcEEEE, 
                       __ZN7Iex_3_112UnderflowExcC1EOS0_, __ZN7Iex_3_112UnderflowExcC1EPKc, 
                       __ZN7Iex_3_112UnderflowExcC1ERKNSt3__112basic_stringIcNS1_11char_traitsIcEENS1_9allocatorIcEEEE, 
                       __ZN7Iex_3_112UnderflowExcC1ERKS0_, __ZN7Iex_3_112UnderflowExcC1ERNSt3__118basic_stringstreamIcNS1_11char_traitsIcEENS1_9allocatorIcEEEE, 
                       __ZN7Iex_3_112UnderflowExcC1Ev, __ZN7Iex_3_112UnderflowExcC2EONSt3__112basic_stringIcNS1_11char_traitsIcEENS1_9allocatorIcEEEE, 
                       __ZN7Iex_3_112UnderflowExcC2EOS0_, __ZN7Iex_3_112UnderflowExcC2EPKc, 
                       __ZN7Iex_3_112UnderflowExcC2ERKNSt3__112basic_stringIcNS1_11char_traitsIcEENS1_9allocatorIcEEEE, 
                       __ZN7Iex_3_112UnderflowExcC2ERKS0_, __ZN7Iex_3_112UnderflowExcC2ERNSt3__118basic_stringstreamIcNS1_11char_traitsIcEENS1_9allocatorIcEEEE, 
                       __ZN7Iex_3_112UnderflowExcC2Ev, __ZN7Iex_3_112UnderflowExcD0Ev, 
                       __ZN7Iex_3_112UnderflowExcD1Ev, __ZN7Iex_3_112UnderflowExcD2Ev, 
                       __ZN7Iex_3_112UnderflowExcaSEOS0_, __ZN7Iex_3_112UnderflowExcaSERS0_, 
                       __ZN7Iex_3_112getMathExcOnEv, __ZN7Iex_3_113EaddrinuseExcC1EONSt3__112basic_stringIcNS1_11char_traitsIcEENS1_9allocatorIcEEEE, 
                       __ZN7Iex_3_113EaddrinuseExcC1EOS0_, __ZN7Iex_3_113EaddrinuseExcC1EPKc, 
                       __ZN7Iex_3_113EaddrinuseExcC1ERKNSt3__112basic_stringIcNS1_11char_traitsIcEENS1_9allocatorIcEEEE, 
                       __ZN7Iex_3_113EaddrinuseExcC1ERKS0_, __ZN7Iex_3_113EaddrinuseExcC1ERNSt3__118basic_stringstreamIcNS1_11char_traitsIcEENS1_9allocatorIcEEEE, 
                       __ZN7Iex_3_113EaddrinuseExcC1Ev, __ZN7Iex_3_113EaddrinuseExcC2EONSt3__112basic_stringIcNS1_11char_traitsIcEENS1_9allocatorIcEEEE, 
                       __ZN7Iex_3_113EaddrinuseExcC2EOS0_, __ZN7Iex_3_113EaddrinuseExcC2EPKc, 
                       __ZN7Iex_3_113EaddrinuseExcC2ERKNSt3__112basic_stringIcNS1_11char_traitsIcEENS1_9allocatorIcEEEE, 
                       __ZN7Iex_3_113EaddrinuseExcC2ERKS0_, __ZN7Iex_3_113EaddrinuseExcC2ERNSt3__118basic_stringstreamIcNS1_11char_traitsIcEENS1_9allocatorIcEEEE, 
                       __ZN7Iex_3_113EaddrinuseExcC2Ev, __ZN7Iex_3_113EaddrinuseExcD0Ev, 
                       __ZN7Iex_3_113EaddrinuseExcD1Ev, __ZN7Iex_3_113EaddrinuseExcD2Ev, 
                       __ZN7Iex_3_113EaddrinuseExcaSEOS0_, __ZN7Iex_3_113EaddrinuseExcaSERS0_, 
                       __ZN7Iex_3_113EconnresetExcC1EONSt3__112basic_stringIcNS1_11char_traitsIcEENS1_9allocatorIcEEEE, 
                       __ZN7Iex_3_113EconnresetExcC1EOS0_, __ZN7Iex_3_113EconnresetExcC1EPKc, 
                       __ZN7Iex_3_113EconnresetExcC1ERKNSt3__112basic_stringIcNS1_11char_traitsIcEENS1_9allocatorIcEEEE, 
                       __ZN7Iex_3_113EconnresetExcC1ERKS0_, __ZN7Iex_3_113EconnresetExcC1ERNSt3__118basic_stringstreamIcNS1_11char_traitsIcEENS1_9allocatorIcEEEE, 
                       __ZN7Iex_3_113EconnresetExcC1Ev, __ZN7Iex_3_113EconnresetExcC2EONSt3__112basic_stringIcNS1_11char_traitsIcEENS1_9allocatorIcEEEE, 
                       __ZN7Iex_3_113EconnresetExcC2EOS0_, __ZN7Iex_3_113EconnresetExcC2EPKc, 
                       __ZN7Iex_3_113EconnresetExcC2ERKNSt3__112basic_stringIcNS1_11char_traitsIcEENS1_9allocatorIcEEEE, 
                       __ZN7Iex_3_113EconnresetExcC2ERKS0_, __ZN7Iex_3_113EconnresetExcC2ERNSt3__118basic_stringstreamIcNS1_11char_traitsIcEENS1_9allocatorIcEEEE, 
                       __ZN7Iex_3_113EconnresetExcC2Ev, __ZN7Iex_3_113EconnresetExcD0Ev, 
                       __ZN7Iex_3_113EconnresetExcD1Ev, __ZN7Iex_3_113EconnresetExcD2Ev, 
                       __ZN7Iex_3_113EconnresetExcaSEOS0_, __ZN7Iex_3_113EconnresetExcaSERS0_, 
                       __ZN7Iex_3_113EdestroyedExcC1EONSt3__112basic_stringIcNS1_11char_traitsIcEENS1_9allocatorIcEEEE, 
                       __ZN7Iex_3_113EdestroyedExcC1EOS0_, __ZN7Iex_3_113EdestroyedExcC1EPKc, 
                       __ZN7Iex_3_113EdestroyedExcC1ERKNSt3__112basic_stringIcNS1_11char_traitsIcEENS1_9allocatorIcEEEE, 
                       __ZN7Iex_3_113EdestroyedExcC1ERKS0_, __ZN7Iex_3_113EdestroyedExcC1ERNSt3__118basic_stringstreamIcNS1_11char_traitsIcEENS1_9allocatorIcEEEE, 
                       __ZN7Iex_3_113EdestroyedExcC1Ev, __ZN7Iex_3_113EdestroyedExcC2EONSt3__112basic_stringIcNS1_11char_traitsIcEENS1_9allocatorIcEEEE, 
                       __ZN7Iex_3_113EdestroyedExcC2EOS0_, __ZN7Iex_3_113EdestroyedExcC2EPKc, 
                       __ZN7Iex_3_113EdestroyedExcC2ERKNSt3__112basic_stringIcNS1_11char_traitsIcEENS1_9allocatorIcEEEE, 
                       __ZN7Iex_3_113EdestroyedExcC2ERKS0_, __ZN7Iex_3_113EdestroyedExcC2ERNSt3__118basic_stringstreamIcNS1_11char_traitsIcEENS1_9allocatorIcEEEE, 
                       __ZN7Iex_3_113EdestroyedExcC2Ev, __ZN7Iex_3_113EdestroyedExcD0Ev, 
                       __ZN7Iex_3_113EdestroyedExcD1Ev, __ZN7Iex_3_113EdestroyedExcD2Ev, 
                       __ZN7Iex_3_113EdestroyedExcaSEOS0_, __ZN7Iex_3_113EdestroyedExcaSERS0_, 
                       __ZN7Iex_3_113EgrouploopExcC1EONSt3__112basic_stringIcNS1_11char_traitsIcEENS1_9allocatorIcEEEE, 
                       __ZN7Iex_3_113EgrouploopExcC1EOS0_, __ZN7Iex_3_113EgrouploopExcC1EPKc, 
                       __ZN7Iex_3_113EgrouploopExcC1ERKNSt3__112basic_stringIcNS1_11char_traitsIcEENS1_9allocatorIcEEEE, 
                       __ZN7Iex_3_113EgrouploopExcC1ERKS0_, __ZN7Iex_3_113EgrouploopExcC1ERNSt3__118basic_stringstreamIcNS1_11char_traitsIcEENS1_9allocatorIcEEEE, 
                       __ZN7Iex_3_113EgrouploopExcC1Ev, __ZN7Iex_3_113EgrouploopExcC2EONSt3__112basic_stringIcNS1_11char_traitsIcEENS1_9allocatorIcEEEE, 
                       __ZN7Iex_3_113EgrouploopExcC2EOS0_, __ZN7Iex_3_113EgrouploopExcC2EPKc, 
                       __ZN7Iex_3_113EgrouploopExcC2ERKNSt3__112basic_stringIcNS1_11char_traitsIcEENS1_9allocatorIcEEEE, 
                       __ZN7Iex_3_113EgrouploopExcC2ERKS0_, __ZN7Iex_3_113EgrouploopExcC2ERNSt3__118basic_stringstreamIcNS1_11char_traitsIcEENS1_9allocatorIcEEEE, 
                       __ZN7Iex_3_113EgrouploopExcC2Ev, __ZN7Iex_3_113EgrouploopExcD0Ev, 
                       __ZN7Iex_3_113EgrouploopExcD1Ev, __ZN7Iex_3_113EgrouploopExcD2Ev, 
                       __ZN7Iex_3_113EgrouploopExcaSEOS0_, __ZN7Iex_3_113EgrouploopExcaSERS0_, 
                       __ZN7Iex_3_113EinvalmodeExcC1EONSt3__112basic_stringIcNS1_11char_traitsIcEENS1_9allocatorIcEEEE, 
                       __ZN7Iex_3_113EinvalmodeExcC1EOS0_, __ZN7Iex_3_113EinvalmodeExcC1EPKc, 
                       __ZN7Iex_3_113EinvalmodeExcC1ERKNSt3__112basic_stringIcNS1_11char_traitsIcEENS1_9allocatorIcEEEE, 
                       __ZN7Iex_3_113EinvalmodeExcC1ERKS0_, __ZN7Iex_3_113EinvalmodeExcC1ERNSt3__118basic_stringstreamIcNS1_11char_traitsIcEENS1_9allocatorIcEEEE, 
                       __ZN7Iex_3_113EinvalmodeExcC1Ev, __ZN7Iex_3_113EinvalmodeExcC2EONSt3__112basic_stringIcNS1_11char_traitsIcEENS1_9allocatorIcEEEE, 
                       __ZN7Iex_3_113EinvalmodeExcC2EOS0_, __ZN7Iex_3_113EinvalmodeExcC2EPKc, 
                       __ZN7Iex_3_113EinvalmodeExcC2ERKNSt3__112basic_stringIcNS1_11char_traitsIcEENS1_9allocatorIcEEEE, 
                       __ZN7Iex_3_113EinvalmodeExcC2ERKS0_, __ZN7Iex_3_113EinvalmodeExcC2ERNSt3__118basic_stringstreamIcNS1_11char_traitsIcEENS1_9allocatorIcEEEE, 
                       __ZN7Iex_3_113EinvalmodeExcC2Ev, __ZN7Iex_3_113EinvalmodeExcD0Ev, 
                       __ZN7Iex_3_113EinvalmodeExcD1Ev, __ZN7Iex_3_113EinvalmodeExcD2Ev, 
                       __ZN7Iex_3_113EinvalmodeExcaSEOS0_, __ZN7Iex_3_113EinvalmodeExcaSERS0_, 
                       __ZN7Iex_3_113EinvaltimeExcC1EONSt3__112basic_stringIcNS1_11char_traitsIcEENS1_9allocatorIcEEEE, 
                       __ZN7Iex_3_113EinvaltimeExcC1EOS0_, __ZN7Iex_3_113EinvaltimeExcC1EPKc, 
                       __ZN7Iex_3_113EinvaltimeExcC1ERKNSt3__112basic_stringIcNS1_11char_traitsIcEENS1_9allocatorIcEEEE, 
                       __ZN7Iex_3_113EinvaltimeExcC1ERKS0_, __ZN7Iex_3_113EinvaltimeExcC1ERNSt3__118basic_stringstreamIcNS1_11char_traitsIcEENS1_9allocatorIcEEEE, 
                       __ZN7Iex_3_113EinvaltimeExcC1Ev, __ZN7Iex_3_113EinvaltimeExcC2EONSt3__112basic_stringIcNS1_11char_traitsIcEENS1_9allocatorIcEEEE, 
                       __ZN7Iex_3_113EinvaltimeExcC2EOS0_, __ZN7Iex_3_113EinvaltimeExcC2EPKc, 
                       __ZN7Iex_3_113EinvaltimeExcC2ERKNSt3__112basic_stringIcNS1_11char_traitsIcEENS1_9allocatorIcEEEE, 
                       __ZN7Iex_3_113EinvaltimeExcC2ERKS0_, __ZN7Iex_3_113EinvaltimeExcC2ERNSt3__118basic_stringstreamIcNS1_11char_traitsIcEENS1_9allocatorIcEEEE, 
                       __ZN7Iex_3_113EinvaltimeExcC2Ev, __ZN7Iex_3_113EinvaltimeExcD0Ev, 
                       __ZN7Iex_3_113EinvaltimeExcD1Ev, __ZN7Iex_3_113EinvaltimeExcD2Ev, 
                       __ZN7Iex_3_113EinvaltimeExcaSEOS0_, __ZN7Iex_3_113EinvaltimeExcaSERS0_, 
                       __ZN7Iex_3_113EnfsremoteExcC1EONSt3__112basic_stringIcNS1_11char_traitsIcEENS1_9allocatorIcEEEE, 
                       __ZN7Iex_3_113EnfsremoteExcC1EOS0_, __ZN7Iex_3_113EnfsremoteExcC1EPKc, 
                       __ZN7Iex_3_113EnfsremoteExcC1ERKNSt3__112basic_stringIcNS1_11char_traitsIcEENS1_9allocatorIcEEEE, 
                       __ZN7Iex_3_113EnfsremoteExcC1ERKS0_, __ZN7Iex_3_113EnfsremoteExcC1ERNSt3__118basic_stringstreamIcNS1_11char_traitsIcEENS1_9allocatorIcEEEE, 
                       __ZN7Iex_3_113EnfsremoteExcC1Ev, __ZN7Iex_3_113EnfsremoteExcC2EONSt3__112basic_stringIcNS1_11char_traitsIcEENS1_9allocatorIcEEEE, 
                       __ZN7Iex_3_113EnfsremoteExcC2EOS0_, __ZN7Iex_3_113EnfsremoteExcC2EPKc, 
                       __ZN7Iex_3_113EnfsremoteExcC2ERKNSt3__112basic_stringIcNS1_11char_traitsIcEENS1_9allocatorIcEEEE, 
                       __ZN7Iex_3_113EnfsremoteExcC2ERKS0_, __ZN7Iex_3_113EnfsremoteExcC2ERNSt3__118basic_stringstreamIcNS1_11char_traitsIcEENS1_9allocatorIcEEEE, 
                       __ZN7Iex_3_113EnfsremoteExcC2Ev, __ZN7Iex_3_113EnfsremoteExcD0Ev, 
                       __ZN7Iex_3_113EnfsremoteExcD1Ev, __ZN7Iex_3_113EnfsremoteExcD2Ev, 
                       __ZN7Iex_3_113EnfsremoteExcaSEOS0_, __ZN7Iex_3_113EnfsremoteExcaSERS0_, 
                       __ZN7Iex_3_113EnolimfileExcC1EONSt3__112basic_stringIcNS1_11char_traitsIcEENS1_9allocatorIcEEEE, 
                       __ZN7Iex_3_113EnolimfileExcC1EOS0_, __ZN7Iex_3_113EnolimfileExcC1EPKc, 
                       __ZN7Iex_3_113EnolimfileExcC1ERKNSt3__112basic_stringIcNS1_11char_traitsIcEENS1_9allocatorIcEEEE, 
                       __ZN7Iex_3_113EnolimfileExcC1ERKS0_, __ZN7Iex_3_113EnolimfileExcC1ERNSt3__118basic_stringstreamIcNS1_11char_traitsIcEENS1_9allocatorIcEEEE, 
                       __ZN7Iex_3_113EnolimfileExcC1Ev, __ZN7Iex_3_113EnolimfileExcC2EONSt3__112basic_stringIcNS1_11char_traitsIcEENS1_9allocatorIcEEEE, 
                       __ZN7Iex_3_113EnolimfileExcC2EOS0_, __ZN7Iex_3_113EnolimfileExcC2EPKc, 
                       __ZN7Iex_3_113EnolimfileExcC2ERKNSt3__112basic_stringIcNS1_11char_traitsIcEENS1_9allocatorIcEEEE, 
                       __ZN7Iex_3_113EnolimfileExcC2ERKS0_, __ZN7Iex_3_113EnolimfileExcC2ERNSt3__118basic_stringstreamIcNS1_11char_traitsIcEENS1_9allocatorIcEEEE, 
                       __ZN7Iex_3_113EnolimfileExcC2Ev, __ZN7Iex_3_113EnolimfileExcD0Ev, 
                       __ZN7Iex_3_113EnolimfileExcD1Ev, __ZN7Iex_3_113EnolimfileExcD2Ev, 
                       __ZN7Iex_3_113EnolimfileExcaSEOS0_, __ZN7Iex_3_113EnolimfileExcaSERS0_, 
                       __ZN7Iex_3_113EnotjoinedExcC1EONSt3__112basic_stringIcNS1_11char_traitsIcEENS1_9allocatorIcEEEE, 
                       __ZN7Iex_3_113EnotjoinedExcC1EOS0_, __ZN7Iex_3_113EnotjoinedExcC1EPKc, 
                       __ZN7Iex_3_113EnotjoinedExcC1ERKNSt3__112basic_stringIcNS1_11char_traitsIcEENS1_9allocatorIcEEEE, 
                       __ZN7Iex_3_113EnotjoinedExcC1ERKS0_, __ZN7Iex_3_113EnotjoinedExcC1ERNSt3__118basic_stringstreamIcNS1_11char_traitsIcEENS1_9allocatorIcEEEE, 
                       __ZN7Iex_3_113EnotjoinedExcC1Ev, __ZN7Iex_3_113EnotjoinedExcC2EONSt3__112basic_stringIcNS1_11char_traitsIcEENS1_9allocatorIcEEEE, 
                       __ZN7Iex_3_113EnotjoinedExcC2EOS0_, __ZN7Iex_3_113EnotjoinedExcC2EPKc, 
                       __ZN7Iex_3_113EnotjoinedExcC2ERKNSt3__112basic_stringIcNS1_11char_traitsIcEENS1_9allocatorIcEEEE, 
                       __ZN7Iex_3_113EnotjoinedExcC2ERKS0_, __ZN7Iex_3_113EnotjoinedExcC2ERNSt3__118basic_stringstreamIcNS1_11char_traitsIcEENS1_9allocatorIcEEEE, 
                       __ZN7Iex_3_113EnotjoinedExcC2Ev, __ZN7Iex_3_113EnotjoinedExcD0Ev, 
                       __ZN7Iex_3_113EnotjoinedExcD1Ev, __ZN7Iex_3_113EnotjoinedExcD2Ev, 
                       __ZN7Iex_3_113EnotjoinedExcaSEOS0_, __ZN7Iex_3_113EnotjoinedExcaSERS0_, 
                       __ZN7Iex_3_113EopnotsuppExcC1EONSt3__112basic_stringIcNS1_11char_traitsIcEENS1_9allocatorIcEEEE, 
                       __ZN7Iex_3_113EopnotsuppExcC1EOS0_, __ZN7Iex_3_113EopnotsuppExcC1EPKc, 
                       __ZN7Iex_3_113EopnotsuppExcC1ERKNSt3__112basic_stringIcNS1_11char_traitsIcEENS1_9allocatorIcEEEE, 
                       __ZN7Iex_3_113EopnotsuppExcC1ERKS0_, __ZN7Iex_3_113EopnotsuppExcC1ERNSt3__118basic_stringstreamIcNS1_11char_traitsIcEENS1_9allocatorIcEEEE, 
                       __ZN7Iex_3_113EopnotsuppExcC1Ev, __ZN7Iex_3_113EopnotsuppExcC2EONSt3__112basic_stringIcNS1_11char_traitsIcEENS1_9allocatorIcEEEE, 
                       __ZN7Iex_3_113EopnotsuppExcC2EOS0_, __ZN7Iex_3_113EopnotsuppExcC2EPKc, 
                       __ZN7Iex_3_113EopnotsuppExcC2ERKNSt3__112basic_stringIcNS1_11char_traitsIcEENS1_9allocatorIcEEEE, 
                       __ZN7Iex_3_113EopnotsuppExcC2ERKS0_, __ZN7Iex_3_113EopnotsuppExcC2ERNSt3__118basic_stringstreamIcNS1_11char_traitsIcEENS1_9allocatorIcEEEE, 
                       __ZN7Iex_3_113EopnotsuppExcC2Ev, __ZN7Iex_3_113EopnotsuppExcD0Ev, 
                       __ZN7Iex_3_113EopnotsuppExcD1Ev, __ZN7Iex_3_113EopnotsuppExcD2Ev, 
                       __ZN7Iex_3_113EopnotsuppExcaSEOS0_, __ZN7Iex_3_113EopnotsuppExcaSERS0_, 
                       __ZN7Iex_3_113EprototypeExcC1EONSt3__112basic_stringIcNS1_11char_traitsIcEENS1_9allocatorIcEEEE, 
                       __ZN7Iex_3_113EprototypeExcC1EOS0_, __ZN7Iex_3_113EprototypeExcC1EPKc, 
                       __ZN7Iex_3_113EprototypeExcC1ERKNSt3__112basic_stringIcNS1_11char_traitsIcEENS1_9allocatorIcEEEE, 
                       __ZN7Iex_3_113EprototypeExcC1ERKS0_, __ZN7Iex_3_113EprototypeExcC1ERNSt3__118basic_stringstreamIcNS1_11char_traitsIcEENS1_9allocatorIcEEEE, 
                       __ZN7Iex_3_113EprototypeExcC1Ev, __ZN7Iex_3_113EprototypeExcC2EONSt3__112basic_stringIcNS1_11char_traitsIcEENS1_9allocatorIcEEEE, 
                       __ZN7Iex_3_113EprototypeExcC2EOS0_, __ZN7Iex_3_113EprototypeExcC2EPKc, 
                       __ZN7Iex_3_113EprototypeExcC2ERKNSt3__112basic_stringIcNS1_11char_traitsIcEENS1_9allocatorIcEEEE, 
                       __ZN7Iex_3_113EprototypeExcC2ERKS0_, __ZN7Iex_3_113EprototypeExcC2ERNSt3__118basic_stringstreamIcNS1_11char_traitsIcEENS1_9allocatorIcEEEE, 
                       __ZN7Iex_3_113EprototypeExcC2Ev, __ZN7Iex_3_113EprototypeExcD0Ev, 
                       __ZN7Iex_3_113EprototypeExcD1Ev, __ZN7Iex_3_113EprototypeExcD2Ev, 
                       __ZN7Iex_3_113EprototypeExcaSEOS0_, __ZN7Iex_3_113EprototypeExcaSERS0_, 
                       __ZN7Iex_3_113throwErrnoExcERKNSt3__112basic_stringIcNS0_11char_traitsIcEENS0_9allocatorIcEEEE, 
                       __ZN7Iex_3_113throwErrnoExcERKNSt3__112basic_stringIcNS0_11char_traitsIcEENS0_9allocatorIcEEEEi, 
                       __ZN7Iex_3_113throwErrnoExcEv, __ZN7Iex_3_114EcantextentExcC1EONSt3__112basic_stringIcNS1_11char_traitsIcEENS1_9allocatorIcEEEE, 
                       __ZN7Iex_3_114EcantextentExcC1EOS0_, __ZN7Iex_3_114EcantextentExcC1EPKc, 
                       __ZN7Iex_3_114EcantextentExcC1ERKNSt3__112basic_stringIcNS1_11char_traitsIcEENS1_9allocatorIcEEEE, 
                       __ZN7Iex_3_114EcantextentExcC1ERKS0_, __ZN7Iex_3_114EcantextentExcC1ERNSt3__118basic_stringstreamIcNS1_11char_traitsIcEENS1_9allocatorIcEEEE, 
                       __ZN7Iex_3_114EcantextentExcC1Ev, __ZN7Iex_3_114EcantextentExcC2EONSt3__112basic_stringIcNS1_11char_traitsIcEENS1_9allocatorIcEEEE, 
                       __ZN7Iex_3_114EcantextentExcC2EOS0_, __ZN7Iex_3_114EcantextentExcC2EPKc, 
                       __ZN7Iex_3_114EcantextentExcC2ERKNSt3__112basic_stringIcNS1_11char_traitsIcEENS1_9allocatorIcEEEE, 
                       __ZN7Iex_3_114EcantextentExcC2ERKS0_, __ZN7Iex_3_114EcantextentExcC2ERNSt3__118basic_stringstreamIcNS1_11char_traitsIcEENS1_9allocatorIcEEEE, 
                       __ZN7Iex_3_114EcantextentExcC2Ev, __ZN7Iex_3_114EcantextentExcD0Ev, 
                       __ZN7Iex_3_114EcantextentExcD1Ev, __ZN7Iex_3_114EcantextentExcD2Ev, 
                       __ZN7Iex_3_114EcantextentExcaSEOS0_, __ZN7Iex_3_114EcantextentExcaSERS0_, 
                       __ZN7Iex_3_114EcontrollerExcC1EONSt3__112basic_stringIcNS1_11char_traitsIcEENS1_9allocatorIcEEEE, 
                       __ZN7Iex_3_114EcontrollerExcC1EOS0_, __ZN7Iex_3_114EcontrollerExcC1EPKc, 
                       __ZN7Iex_3_114EcontrollerExcC1ERKNSt3__112basic_stringIcNS1_11char_traitsIcEENS1_9allocatorIcEEEE, 
                       __ZN7Iex_3_114EcontrollerExcC1ERKS0_, __ZN7Iex_3_114EcontrollerExcC1ERNSt3__118basic_stringstreamIcNS1_11char_traitsIcEENS1_9allocatorIcEEEE, 
                       __ZN7Iex_3_114EcontrollerExcC1Ev, __ZN7Iex_3_114EcontrollerExcC2EONSt3__112basic_stringIcNS1_11char_traitsIcEENS1_9allocatorIcEEEE, 
                       __ZN7Iex_3_114EcontrollerExcC2EOS0_, __ZN7Iex_3_114EcontrollerExcC2EPKc, 
                       __ZN7Iex_3_114EcontrollerExcC2ERKNSt3__112basic_stringIcNS1_11char_traitsIcEENS1_9allocatorIcEEEE, 
                       __ZN7Iex_3_114EcontrollerExcC2ERKS0_, __ZN7Iex_3_114EcontrollerExcC2ERNSt3__118basic_stringstreamIcNS1_11char_traitsIcEENS1_9allocatorIcEEEE, 
                       __ZN7Iex_3_114EcontrollerExcC2Ev, __ZN7Iex_3_114EcontrollerExcD0Ev, 
                       __ZN7Iex_3_114EcontrollerExcD1Ev, __ZN7Iex_3_114EcontrollerExcD2Ev, 
                       __ZN7Iex_3_114EcontrollerExcaSEOS0_, __ZN7Iex_3_114EcontrollerExcaSERS0_, 
                       __ZN7Iex_3_114EendofminorExcC1EONSt3__112basic_stringIcNS1_11char_traitsIcEENS1_9allocatorIcEEEE, 
                       __ZN7Iex_3_114EendofminorExcC1EOS0_, __ZN7Iex_3_114EendofminorExcC1EPKc, 
                       __ZN7Iex_3_114EendofminorExcC1ERKNSt3__112basic_stringIcNS1_11char_traitsIcEENS1_9allocatorIcEEEE, 
                       __ZN7Iex_3_114EendofminorExcC1ERKS0_, __ZN7Iex_3_114EendofminorExcC1ERNSt3__118basic_stringstreamIcNS1_11char_traitsIcEENS1_9allocatorIcEEEE, 
                       __ZN7Iex_3_114EendofminorExcC1Ev, __ZN7Iex_3_114EendofminorExcC2EONSt3__112basic_stringIcNS1_11char_traitsIcEENS1_9allocatorIcEEEE, 
                       __ZN7Iex_3_114EendofminorExcC2EOS0_, __ZN7Iex_3_114EendofminorExcC2EPKc, 
                       __ZN7Iex_3_114EendofminorExcC2ERKNSt3__112basic_stringIcNS1_11char_traitsIcEENS1_9allocatorIcEEEE, 
                       __ZN7Iex_3_114EendofminorExcC2ERKS0_, __ZN7Iex_3_114EendofminorExcC2ERNSt3__118basic_stringstreamIcNS1_11char_traitsIcEENS1_9allocatorIcEEEE, 
                       __ZN7Iex_3_114EendofminorExcC2Ev, __ZN7Iex_3_114EendofminorExcD0Ev, 
                       __ZN7Iex_3_114EendofminorExcD1Ev, __ZN7Iex_3_114EendofminorExcD2Ev, 
                       __ZN7Iex_3_114EendofminorExcaSEOS0_, __ZN7Iex_3_114EendofminorExcaSERS0_, 
                       __ZN7Iex_3_114EinprogressExcC1EONSt3__112basic_stringIcNS1_11char_traitsIcEENS1_9allocatorIcEEEE, 
                       __ZN7Iex_3_114EinprogressExcC1EOS0_, __ZN7Iex_3_114EinprogressExcC1EPKc, 
                       __ZN7Iex_3_114EinprogressExcC1ERKNSt3__112basic_stringIcNS1_11char_traitsIcEENS1_9allocatorIcEEEE, 
                       __ZN7Iex_3_114EinprogressExcC1ERKS0_, __ZN7Iex_3_114EinprogressExcC1ERNSt3__118basic_stringstreamIcNS1_11char_traitsIcEENS1_9allocatorIcEEEE, 
                       __ZN7Iex_3_114EinprogressExcC1Ev, __ZN7Iex_3_114EinprogressExcC2EONSt3__112basic_stringIcNS1_11char_traitsIcEENS1_9allocatorIcEEEE, 
                       __ZN7Iex_3_114EinprogressExcC2EOS0_, __ZN7Iex_3_114EinprogressExcC2EPKc, 
                       __ZN7Iex_3_114EinprogressExcC2ERKNSt3__112basic_stringIcNS1_11char_traitsIcEENS1_9allocatorIcEEEE, 
                       __ZN7Iex_3_114EinprogressExcC2ERKS0_, __ZN7Iex_3_114EinprogressExcC2ERNSt3__118basic_stringstreamIcNS1_11char_traitsIcEENS1_9allocatorIcEEEE, 
                       __ZN7Iex_3_114EinprogressExcC2Ev, __ZN7Iex_3_114EinprogressExcD0Ev, 
                       __ZN7Iex_3_114EinprogressExcD1Ev, __ZN7Iex_3_114EinprogressExcD2Ev, 
                       __ZN7Iex_3_114EinprogressExcaSEOS0_, __ZN7Iex_3_114EinprogressExcaSERS0_, 
                       __ZN7Iex_3_114EinvalstateExcC1EONSt3__112basic_stringIcNS1_11char_traitsIcEENS1_9allocatorIcEEEE, 
                       __ZN7Iex_3_114EinvalstateExcC1EOS0_, __ZN7Iex_3_114EinvalstateExcC1EPKc, 
                       __ZN7Iex_3_114EinvalstateExcC1ERKNSt3__112basic_stringIcNS1_11char_traitsIcEENS1_9allocatorIcEEEE, 
                       __ZN7Iex_3_114EinvalstateExcC1ERKS0_, __ZN7Iex_3_114EinvalstateExcC1ERNSt3__118basic_stringstreamIcNS1_11char_traitsIcEENS1_9allocatorIcEEEE, 
                       __ZN7Iex_3_114EinvalstateExcC1Ev, __ZN7Iex_3_114EinvalstateExcC2EONSt3__112basic_stringIcNS1_11char_traitsIcEENS1_9allocatorIcEEEE, 
                       __ZN7Iex_3_114EinvalstateExcC2EOS0_, __ZN7Iex_3_114EinvalstateExcC2EPKc, 
                       __ZN7Iex_3_114EinvalstateExcC2ERKNSt3__112basic_stringIcNS1_11char_traitsIcEENS1_9allocatorIcEEEE, 
                       __ZN7Iex_3_114EinvalstateExcC2ERKS0_, __ZN7Iex_3_114EinvalstateExcC2ERNSt3__118basic_stringstreamIcNS1_11char_traitsIcEENS1_9allocatorIcEEEE, 
                       __ZN7Iex_3_114EinvalstateExcC2Ev, __ZN7Iex_3_114EinvalstateExcD0Ev, 
                       __ZN7Iex_3_114EinvalstateExcD1Ev, __ZN7Iex_3_114EinvalstateExcD2Ev, 
                       __ZN7Iex_3_114EinvalstateExcaSEOS0_, __ZN7Iex_3_114EinvalstateExcaSERS0_, 
                       __ZN7Iex_3_114EnetunreachExcC1EONSt3__112basic_stringIcNS1_11char_traitsIcEENS1_9allocatorIcEEEE, 
                       __ZN7Iex_3_114EnetunreachExcC1EOS0_, __ZN7Iex_3_114EnetunreachExcC1EPKc, 
                       __ZN7Iex_3_114EnetunreachExcC1ERKNSt3__112basic_stringIcNS1_11char_traitsIcEENS1_9allocatorIcEEEE, 
                       __ZN7Iex_3_114EnetunreachExcC1ERKS0_, __ZN7Iex_3_114EnetunreachExcC1ERNSt3__118basic_stringstreamIcNS1_11char_traitsIcEENS1_9allocatorIcEEEE, 
                       __ZN7Iex_3_114EnetunreachExcC1Ev, __ZN7Iex_3_114EnetunreachExcC2EONSt3__112basic_stringIcNS1_11char_traitsIcEENS1_9allocatorIcEEEE, 
                       __ZN7Iex_3_114EnetunreachExcC2EOS0_, __ZN7Iex_3_114EnetunreachExcC2EPKc, 
                       __ZN7Iex_3_114EnetunreachExcC2ERKNSt3__112basic_stringIcNS1_11char_traitsIcEENS1_9allocatorIcEEEE, 
                       __ZN7Iex_3_114EnetunreachExcC2ERKS0_, __ZN7Iex_3_114EnetunreachExcC2ERNSt3__118basic_stringstreamIcNS1_11char_traitsIcEENS1_9allocatorIcEEEE, 
                       __ZN7Iex_3_114EnetunreachExcC2Ev, __ZN7Iex_3_114EnetunreachExcD0Ev, 
                       __ZN7Iex_3_114EnetunreachExcD1Ev, __ZN7Iex_3_114EnetunreachExcD2Ev, 
                       __ZN7Iex_3_114EnetunreachExcaSEOS0_, __ZN7Iex_3_114EnetunreachExcaSERS0_, 
                       __ZN7Iex_3_114EnoprotooptExcC1EONSt3__112basic_stringIcNS1_11char_traitsIcEENS1_9allocatorIcEEEE, 
                       __ZN7Iex_3_114EnoprotooptExcC1EOS0_, __ZN7Iex_3_114EnoprotooptExcC1EPKc, 
                       __ZN7Iex_3_114EnoprotooptExcC1ERKNSt3__112basic_stringIcNS1_11char_traitsIcEENS1_9allocatorIcEEEE, 
                       __ZN7Iex_3_114EnoprotooptExcC1ERKS0_, __ZN7Iex_3_114EnoprotooptExcC1ERNSt3__118basic_stringstreamIcNS1_11char_traitsIcEENS1_9allocatorIcEEEE, 
                       __ZN7Iex_3_114EnoprotooptExcC1Ev, __ZN7Iex_3_114EnoprotooptExcC2EONSt3__112basic_stringIcNS1_11char_traitsIcEENS1_9allocatorIcEEEE, 
                       __ZN7Iex_3_114EnoprotooptExcC2EOS0_, __ZN7Iex_3_114EnoprotooptExcC2EPKc, 
                       __ZN7Iex_3_114EnoprotooptExcC2ERKNSt3__112basic_stringIcNS1_11char_traitsIcEENS1_9allocatorIcEEEE, 
                       __ZN7Iex_3_114EnoprotooptExcC2ERKS0_, __ZN7Iex_3_114EnoprotooptExcC2ERNSt3__118basic_stringstreamIcNS1_11char_traitsIcEENS1_9allocatorIcEEEE, 
                       __ZN7Iex_3_114EnoprotooptExcC2Ev, __ZN7Iex_3_114EnoprotooptExcD0Ev, 
                       __ZN7Iex_3_114EnoprotooptExcD1Ev, __ZN7Iex_3_114EnoprotooptExcD2Ev, 
                       __ZN7Iex_3_114EnoprotooptExcaSEOS0_, __ZN7Iex_3_114EnoprotooptExcaSERS0_, 
                       __ZN7Iex_3_114EnotstoppedExcC1EONSt3__112basic_stringIcNS1_11char_traitsIcEENS1_9allocatorIcEEEE, 
                       __ZN7Iex_3_114EnotstoppedExcC1EOS0_, __ZN7Iex_3_114EnotstoppedExcC1EPKc, 
                       __ZN7Iex_3_114EnotstoppedExcC1ERKNSt3__112basic_stringIcNS1_11char_traitsIcEENS1_9allocatorIcEEEE, 
                       __ZN7Iex_3_114EnotstoppedExcC1ERKS0_, __ZN7Iex_3_114EnotstoppedExcC1ERNSt3__118basic_stringstreamIcNS1_11char_traitsIcEENS1_9allocatorIcEEEE, 
                       __ZN7Iex_3_114EnotstoppedExcC1Ev, __ZN7Iex_3_114EnotstoppedExcC2EONSt3__112basic_stringIcNS1_11char_traitsIcEENS1_9allocatorIcEEEE, 
                       __ZN7Iex_3_114EnotstoppedExcC2EOS0_, __ZN7Iex_3_114EnotstoppedExcC2EPKc, 
                       __ZN7Iex_3_114EnotstoppedExcC2ERKNSt3__112basic_stringIcNS1_11char_traitsIcEENS1_9allocatorIcEEEE, 
                       __ZN7Iex_3_114EnotstoppedExcC2ERKS0_, __ZN7Iex_3_114EnotstoppedExcC2ERNSt3__118basic_stringstreamIcNS1_11char_traitsIcEENS1_9allocatorIcEEEE, 
                       __ZN7Iex_3_114EnotstoppedExcC2Ev, __ZN7Iex_3_114EnotstoppedExcD0Ev, 
                       __ZN7Iex_3_114EnotstoppedExcD1Ev, __ZN7Iex_3_114EnotstoppedExcD2Ev, 
                       __ZN7Iex_3_114EnotstoppedExcaSEOS0_, __ZN7Iex_3_114EnotstoppedExcaSERS0_, 
                       __ZN7Iex_3_114InvalidFpOpExcC1EONSt3__112basic_stringIcNS1_11char_traitsIcEENS1_9allocatorIcEEEE, 
                       __ZN7Iex_3_114InvalidFpOpExcC1EOS0_, __ZN7Iex_3_114InvalidFpOpExcC1EPKc, 
                       __ZN7Iex_3_114InvalidFpOpExcC1ERKNSt3__112basic_stringIcNS1_11char_traitsIcEENS1_9allocatorIcEEEE, 
                       __ZN7Iex_3_114InvalidFpOpExcC1ERKS0_, __ZN7Iex_3_114InvalidFpOpExcC1ERNSt3__118basic_stringstreamIcNS1_11char_traitsIcEENS1_9allocatorIcEEEE, 
                       __ZN7Iex_3_114InvalidFpOpExcC1Ev, __ZN7Iex_3_114InvalidFpOpExcC2EONSt3__112basic_stringIcNS1_11char_traitsIcEENS1_9allocatorIcEEEE, 
                       __ZN7Iex_3_114InvalidFpOpExcC2EOS0_, __ZN7Iex_3_114InvalidFpOpExcC2EPKc, 
                       __ZN7Iex_3_114InvalidFpOpExcC2ERKNSt3__112basic_stringIcNS1_11char_traitsIcEENS1_9allocatorIcEEEE, 
                       __ZN7Iex_3_114InvalidFpOpExcC2ERKS0_, __ZN7Iex_3_114InvalidFpOpExcC2ERNSt3__118basic_stringstreamIcNS1_11char_traitsIcEENS1_9allocatorIcEEEE, 
                       __ZN7Iex_3_114InvalidFpOpExcC2Ev, __ZN7Iex_3_114InvalidFpOpExcD0Ev, 
                       __ZN7Iex_3_114InvalidFpOpExcD1Ev, __ZN7Iex_3_114InvalidFpOpExcD2Ev, 
                       __ZN7Iex_3_114InvalidFpOpExcaSEOS0_, __ZN7Iex_3_114InvalidFpOpExcaSERS0_, 
                       __ZN7Iex_3_114setStackTracerEPFNSt3__112basic_stringIcNS0_11char_traitsIcEENS0_9allocatorIcEEEEvE, 
                       __ZN7Iex_3_115EafnosupportExcC1EONSt3__112basic_stringIcNS1_11char_traitsIcEENS1_9allocatorIcEEEE, 
                       __ZN7Iex_3_115EafnosupportExcC1EOS0_, __ZN7Iex_3_115EafnosupportExcC1EPKc, 
                       __ZN7Iex_3_115EafnosupportExcC1ERKNSt3__112basic_stringIcNS1_11char_traitsIcEENS1_9allocatorIcEEEE, 
                       __ZN7Iex_3_115EafnosupportExcC1ERKS0_, __ZN7Iex_3_115EafnosupportExcC1ERNSt3__118basic_stringstreamIcNS1_11char_traitsIcEENS1_9allocatorIcEEEE, 
                       __ZN7Iex_3_115EafnosupportExcC1Ev, __ZN7Iex_3_115EafnosupportExcC2EONSt3__112basic_stringIcNS1_11char_traitsIcEENS1_9allocatorIcEEEE, 
                       __ZN7Iex_3_115EafnosupportExcC2EOS0_, __ZN7Iex_3_115EafnosupportExcC2EPKc, 
                       __ZN7Iex_3_115EafnosupportExcC2ERKNSt3__112basic_stringIcNS1_11char_traitsIcEENS1_9allocatorIcEEEE, 
                       __ZN7Iex_3_115EafnosupportExcC2ERKS0_, __ZN7Iex_3_115EafnosupportExcC2ERNSt3__118basic_stringstreamIcNS1_11char_traitsIcEENS1_9allocatorIcEEEE, 
                       __ZN7Iex_3_115EafnosupportExcC2Ev, __ZN7Iex_3_115EafnosupportExcD0Ev, 
                       __ZN7Iex_3_115EafnosupportExcD1Ev, __ZN7Iex_3_115EafnosupportExcD2Ev, 
                       __ZN7Iex_3_115EafnosupportExcaSEOS0_, __ZN7Iex_3_115EafnosupportExcaSERS0_, 
                       __ZN7Iex_3_115EconnabortedExcC1EONSt3__112basic_stringIcNS1_11char_traitsIcEENS1_9allocatorIcEEEE, 
                       __ZN7Iex_3_115EconnabortedExcC1EOS0_, __ZN7Iex_3_115EconnabortedExcC1EPKc, 
                       __ZN7Iex_3_115EconnabortedExcC1ERKNSt3__112basic_stringIcNS1_11char_traitsIcEENS1_9allocatorIcEEEE, 
                       __ZN7Iex_3_115EconnabortedExcC1ERKS0_, __ZN7Iex_3_115EconnabortedExcC1ERNSt3__118basic_stringstreamIcNS1_11char_traitsIcEENS1_9allocatorIcEEEE, 
                       __ZN7Iex_3_115EconnabortedExcC1Ev, __ZN7Iex_3_115EconnabortedExcC2EONSt3__112basic_stringIcNS1_11char_traitsIcEENS1_9allocatorIcEEEE, 
                       __ZN7Iex_3_115EconnabortedExcC2EOS0_, __ZN7Iex_3_115EconnabortedExcC2EPKc, 
                       __ZN7Iex_3_115EconnabortedExcC2ERKNSt3__112basic_stringIcNS1_11char_traitsIcEENS1_9allocatorIcEEEE, 
                       __ZN7Iex_3_115EconnabortedExcC2ERKS0_, __ZN7Iex_3_115EconnabortedExcC2ERNSt3__118basic_stringstreamIcNS1_11char_traitsIcEENS1_9allocatorIcEEEE, 
                       __ZN7Iex_3_115EconnabortedExcC2Ev, __ZN7Iex_3_115EconnabortedExcD0Ev, 
                       __ZN7Iex_3_115EconnabortedExcD1Ev, __ZN7Iex_3_115EconnabortedExcD2Ev, 
                       __ZN7Iex_3_115EconnabortedExcaSEOS0_, __ZN7Iex_3_115EconnabortedExcaSERS0_, 
                       __ZN7Iex_3_115EconnrefusedExcC1EONSt3__112basic_stringIcNS1_11char_traitsIcEENS1_9allocatorIcEEEE, 
                       __ZN7Iex_3_115EconnrefusedExcC1EOS0_, __ZN7Iex_3_115EconnrefusedExcC1EPKc, 
                       __ZN7Iex_3_115EconnrefusedExcC1ERKNSt3__112basic_stringIcNS1_11char_traitsIcEENS1_9allocatorIcEEEE, 
                       __ZN7Iex_3_115EconnrefusedExcC1ERKS0_, __ZN7Iex_3_115EconnrefusedExcC1ERNSt3__118basic_stringstreamIcNS1_11char_traitsIcEENS1_9allocatorIcEEEE, 
                       __ZN7Iex_3_115EconnrefusedExcC1Ev, __ZN7Iex_3_115EconnrefusedExcC2EONSt3__112basic_stringIcNS1_11char_traitsIcEENS1_9allocatorIcEEEE, 
                       __ZN7Iex_3_115EconnrefusedExcC2EOS0_, __ZN7Iex_3_115EconnrefusedExcC2EPKc, 
                       __ZN7Iex_3_115EconnrefusedExcC2ERKNSt3__112basic_stringIcNS1_11char_traitsIcEENS1_9allocatorIcEEEE, 
                       __ZN7Iex_3_115EconnrefusedExcC2ERKS0_, __ZN7Iex_3_115EconnrefusedExcC2ERNSt3__118basic_stringstreamIcNS1_11char_traitsIcEENS1_9allocatorIcEEEE, 
                       __ZN7Iex_3_115EconnrefusedExcC2Ev, __ZN7Iex_3_115EconnrefusedExcD0Ev, 
                       __ZN7Iex_3_115EconnrefusedExcD1Ev, __ZN7Iex_3_115EconnrefusedExcD2Ev, 
                       __ZN7Iex_3_115EconnrefusedExcaSEOS0_, __ZN7Iex_3_115EconnrefusedExcaSERS0_, 
                       __ZN7Iex_3_115EdestaddrreqExcC1EONSt3__112basic_stringIcNS1_11char_traitsIcEENS1_9allocatorIcEEEE, 
                       __ZN7Iex_3_115EdestaddrreqExcC1EOS0_, __ZN7Iex_3_115EdestaddrreqExcC1EPKc, 
                       __ZN7Iex_3_115EdestaddrreqExcC1ERKNSt3__112basic_stringIcNS1_11char_traitsIcEENS1_9allocatorIcEEEE, 
                       __ZN7Iex_3_115EdestaddrreqExcC1ERKS0_, __ZN7Iex_3_115EdestaddrreqExcC1ERNSt3__118basic_stringstreamIcNS1_11char_traitsIcEENS1_9allocatorIcEEEE, 
                       __ZN7Iex_3_115EdestaddrreqExcC1Ev, __ZN7Iex_3_115EdestaddrreqExcC2EONSt3__112basic_stringIcNS1_11char_traitsIcEENS1_9allocatorIcEEEE, 
                       __ZN7Iex_3_115EdestaddrreqExcC2EOS0_, __ZN7Iex_3_115EdestaddrreqExcC2EPKc, 
                       __ZN7Iex_3_115EdestaddrreqExcC2ERKNSt3__112basic_stringIcNS1_11char_traitsIcEENS1_9allocatorIcEEEE, 
                       __ZN7Iex_3_115EdestaddrreqExcC2ERKS0_, __ZN7Iex_3_115EdestaddrreqExcC2ERNSt3__118basic_stringstreamIcNS1_11char_traitsIcEENS1_9allocatorIcEEEE, 
                       __ZN7Iex_3_115EdestaddrreqExcC2Ev, __ZN7Iex_3_115EdestaddrreqExcD0Ev, 
                       __ZN7Iex_3_115EdestaddrreqExcD1Ev, __ZN7Iex_3_115EdestaddrreqExcD2Ev, 
                       __ZN7Iex_3_115EdestaddrreqExcaSEOS0_, __ZN7Iex_3_115EdestaddrreqExcaSERS0_, 
                       __ZN7Iex_3_115EhostunreachExcC1EONSt3__112basic_stringIcNS1_11char_traitsIcEENS1_9allocatorIcEEEE, 
                       __ZN7Iex_3_115EhostunreachExcC1EOS0_, __ZN7Iex_3_115EhostunreachExcC1EPKc, 
                       __ZN7Iex_3_115EhostunreachExcC1ERKNSt3__112basic_stringIcNS1_11char_traitsIcEENS1_9allocatorIcEEEE, 
                       __ZN7Iex_3_115EhostunreachExcC1ERKS0_, __ZN7Iex_3_115EhostunreachExcC1ERNSt3__118basic_stringstreamIcNS1_11char_traitsIcEENS1_9allocatorIcEEEE, 
                       __ZN7Iex_3_115EhostunreachExcC1Ev, __ZN7Iex_3_115EhostunreachExcC2EONSt3__112basic_stringIcNS1_11char_traitsIcEENS1_9allocatorIcEEEE, 
                       __ZN7Iex_3_115EhostunreachExcC2EOS0_, __ZN7Iex_3_115EhostunreachExcC2EPKc, 
                       __ZN7Iex_3_115EhostunreachExcC2ERKNSt3__112basic_stringIcNS1_11char_traitsIcEENS1_9allocatorIcEEEE, 
                       __ZN7Iex_3_115EhostunreachExcC2ERKS0_, __ZN7Iex_3_115EhostunreachExcC2ERNSt3__118basic_stringstreamIcNS1_11char_traitsIcEENS1_9allocatorIcEEEE, 
                       __ZN7Iex_3_115EhostunreachExcC2Ev, __ZN7Iex_3_115EhostunreachExcD0Ev, 
                       __ZN7Iex_3_115EhostunreachExcD1Ev, __ZN7Iex_3_115EhostunreachExcD2Ev, 
                       __ZN7Iex_3_115EhostunreachExcaSEOS0_, __ZN7Iex_3_115EhostunreachExcaSERS0_, 
                       __ZN7Iex_3_115EnametoolongExcC1EONSt3__112basic_stringIcNS1_11char_traitsIcEENS1_9allocatorIcEEEE, 
                       __ZN7Iex_3_115EnametoolongExcC1EOS0_, __ZN7Iex_3_115EnametoolongExcC1EPKc, 
                       __ZN7Iex_3_115EnametoolongExcC1ERKNSt3__112basic_stringIcNS1_11char_traitsIcEENS1_9allocatorIcEEEE, 
                       __ZN7Iex_3_115EnametoolongExcC1ERKS0_, __ZN7Iex_3_115EnametoolongExcC1ERNSt3__118basic_stringstreamIcNS1_11char_traitsIcEENS1_9allocatorIcEEEE, 
                       __ZN7Iex_3_115EnametoolongExcC1Ev, __ZN7Iex_3_115EnametoolongExcC2EONSt3__112basic_stringIcNS1_11char_traitsIcEENS1_9allocatorIcEEEE, 
                       __ZN7Iex_3_115EnametoolongExcC2EOS0_, __ZN7Iex_3_115EnametoolongExcC2EPKc, 
                       __ZN7Iex_3_115EnametoolongExcC2ERKNSt3__112basic_stringIcNS1_11char_traitsIcEENS1_9allocatorIcEEEE, 
                       __ZN7Iex_3_115EnametoolongExcC2ERKS0_, __ZN7Iex_3_115EnametoolongExcC2ERNSt3__118basic_stringstreamIcNS1_11char_traitsIcEENS1_9allocatorIcEEEE, 
                       __ZN7Iex_3_115EnametoolongExcC2Ev, __ZN7Iex_3_115EnametoolongExcD0Ev, 
                       __ZN7Iex_3_115EnametoolongExcD1Ev, __ZN7Iex_3_115EnametoolongExcD2Ev, 
                       __ZN7Iex_3_115EnametoolongExcaSEOS0_, __ZN7Iex_3_115EnametoolongExcaSERS0_, 
                       __ZN7Iex_3_115EnointrgroupExcC1EONSt3__112basic_stringIcNS1_11char_traitsIcEENS1_9allocatorIcEEEE, 
                       __ZN7Iex_3_115EnointrgroupExcC1EOS0_, __ZN7Iex_3_115EnointrgroupExcC1EPKc, 
                       __ZN7Iex_3_115EnointrgroupExcC1ERKNSt3__112basic_stringIcNS1_11char_traitsIcEENS1_9allocatorIcEEEE, 
                       __ZN7Iex_3_115EnointrgroupExcC1ERKS0_, __ZN7Iex_3_115EnointrgroupExcC1ERNSt3__118basic_stringstreamIcNS1_11char_traitsIcEENS1_9allocatorIcEEEE, 
                       __ZN7Iex_3_115EnointrgroupExcC1Ev, __ZN7Iex_3_115EnointrgroupExcC2EONSt3__112basic_stringIcNS1_11char_traitsIcEENS1_9allocatorIcEEEE, 
                       __ZN7Iex_3_115EnointrgroupExcC2EOS0_, __ZN7Iex_3_115EnointrgroupExcC2EPKc, 
                       __ZN7Iex_3_115EnointrgroupExcC2ERKNSt3__112basic_stringIcNS1_11char_traitsIcEENS1_9allocatorIcEEEE, 
                       __ZN7Iex_3_115EnointrgroupExcC2ERKS0_, __ZN7Iex_3_115EnointrgroupExcC2ERNSt3__118basic_stringstreamIcNS1_11char_traitsIcEENS1_9allocatorIcEEEE, 
                       __ZN7Iex_3_115EnointrgroupExcC2Ev, __ZN7Iex_3_115EnointrgroupExcD0Ev, 
                       __ZN7Iex_3_115EnointrgroupExcD1Ev, __ZN7Iex_3_115EnointrgroupExcD2Ev, 
                       __ZN7Iex_3_115EnointrgroupExcaSEOS0_, __ZN7Iex_3_115EnointrgroupExcaSERS0_, 
                       __ZN7Iex_3_115EnotenqueuedExcC1EONSt3__112basic_stringIcNS1_11char_traitsIcEENS1_9allocatorIcEEEE, 
                       __ZN7Iex_3_115EnotenqueuedExcC1EOS0_, __ZN7Iex_3_115EnotenqueuedExcC1EPKc, 
                       __ZN7Iex_3_115EnotenqueuedExcC1ERKNSt3__112basic_stringIcNS1_11char_traitsIcEENS1_9allocatorIcEEEE, 
                       __ZN7Iex_3_115EnotenqueuedExcC1ERKS0_, __ZN7Iex_3_115EnotenqueuedExcC1ERNSt3__118basic_stringstreamIcNS1_11char_traitsIcEENS1_9allocatorIcEEEE, 
                       __ZN7Iex_3_115EnotenqueuedExcC1Ev, __ZN7Iex_3_115EnotenqueuedExcC2EONSt3__112basic_stringIcNS1_11char_traitsIcEENS1_9allocatorIcEEEE, 
                       __ZN7Iex_3_115EnotenqueuedExcC2EOS0_, __ZN7Iex_3_115EnotenqueuedExcC2EPKc, 
                       __ZN7Iex_3_115EnotenqueuedExcC2ERKNSt3__112basic_stringIcNS1_11char_traitsIcEENS1_9allocatorIcEEEE, 
                       __ZN7Iex_3_115EnotenqueuedExcC2ERKS0_, __ZN7Iex_3_115EnotenqueuedExcC2ERNSt3__118basic_stringstreamIcNS1_11char_traitsIcEENS1_9allocatorIcEEEE, 
                       __ZN7Iex_3_115EnotenqueuedExcC2Ev, __ZN7Iex_3_115EnotenqueuedExcD0Ev, 
                       __ZN7Iex_3_115EnotenqueuedExcD1Ev, __ZN7Iex_3_115EnotenqueuedExcD2Ev, 
                       __ZN7Iex_3_115EnotenqueuedExcaSEOS0_, __ZN7Iex_3_115EnotenqueuedExcaSERS0_, 
                       __ZN7Iex_3_115EpfnosupportExcC1EONSt3__112basic_stringIcNS1_11char_traitsIcEENS1_9allocatorIcEEEE, 
                       __ZN7Iex_3_115EpfnosupportExcC1EOS0_, __ZN7Iex_3_115EpfnosupportExcC1EPKc, 
                       __ZN7Iex_3_115EpfnosupportExcC1ERKNSt3__112basic_stringIcNS1_11char_traitsIcEENS1_9allocatorIcEEEE, 
                       __ZN7Iex_3_115EpfnosupportExcC1ERKS0_, __ZN7Iex_3_115EpfnosupportExcC1ERNSt3__118basic_stringstreamIcNS1_11char_traitsIcEENS1_9allocatorIcEEEE, 
                       __ZN7Iex_3_115EpfnosupportExcC1Ev, __ZN7Iex_3_115EpfnosupportExcC2EONSt3__112basic_stringIcNS1_11char_traitsIcEENS1_9allocatorIcEEEE, 
                       __ZN7Iex_3_115EpfnosupportExcC2EOS0_, __ZN7Iex_3_115EpfnosupportExcC2EPKc, 
                       __ZN7Iex_3_115EpfnosupportExcC2ERKNSt3__112basic_stringIcNS1_11char_traitsIcEENS1_9allocatorIcEEEE, 
                       __ZN7Iex_3_115EpfnosupportExcC2ERKS0_, __ZN7Iex_3_115EpfnosupportExcC2ERNSt3__118basic_stringstreamIcNS1_11char_traitsIcEENS1_9allocatorIcEEEE, 
                       __ZN7Iex_3_115EpfnosupportExcC2Ev, __ZN7Iex_3_115EpfnosupportExcD0Ev, 
                       __ZN7Iex_3_115EpfnosupportExcD1Ev, __ZN7Iex_3_115EpfnosupportExcD2Ev, 
                       __ZN7Iex_3_115EpfnosupportExcaSEOS0_, __ZN7Iex_3_115EpfnosupportExcaSERS0_, 
                       __ZN7Iex_3_115EtoomanyrefsExcC1EONSt3__112basic_stringIcNS1_11char_traitsIcEENS1_9allocatorIcEEEE, 
                       __ZN7Iex_3_115EtoomanyrefsExcC1EOS0_, __ZN7Iex_3_115EtoomanyrefsExcC1EPKc, 
                       __ZN7Iex_3_115EtoomanyrefsExcC1ERKNSt3__112basic_stringIcNS1_11char_traitsIcEENS1_9allocatorIcEEEE, 
                       __ZN7Iex_3_115EtoomanyrefsExcC1ERKS0_, __ZN7Iex_3_115EtoomanyrefsExcC1ERNSt3__118basic_stringstreamIcNS1_11char_traitsIcEENS1_9allocatorIcEEEE, 
                       __ZN7Iex_3_115EtoomanyrefsExcC1Ev, __ZN7Iex_3_115EtoomanyrefsExcC2EONSt3__112basic_stringIcNS1_11char_traitsIcEENS1_9allocatorIcEEEE, 
                       __ZN7Iex_3_115EtoomanyrefsExcC2EOS0_, __ZN7Iex_3_115EtoomanyrefsExcC2EPKc, 
                       __ZN7Iex_3_115EtoomanyrefsExcC2ERKNSt3__112basic_stringIcNS1_11char_traitsIcEENS1_9allocatorIcEEEE, 
                       __ZN7Iex_3_115EtoomanyrefsExcC2ERKS0_, __ZN7Iex_3_115EtoomanyrefsExcC2ERNSt3__118basic_stringstreamIcNS1_11char_traitsIcEENS1_9allocatorIcEEEE, 
                       __ZN7Iex_3_115EtoomanyrefsExcC2Ev, __ZN7Iex_3_115EtoomanyrefsExcD0Ev, 
                       __ZN7Iex_3_115EtoomanyrefsExcD1Ev, __ZN7Iex_3_115EtoomanyrefsExcD2Ev, 
                       __ZN7Iex_3_115EtoomanyrefsExcaSEOS0_, __ZN7Iex_3_115EtoomanyrefsExcaSERS0_, 
                       __ZN7Iex_3_116EaddrnotavailExcC1EONSt3__112basic_stringIcNS1_11char_traitsIcEENS1_9allocatorIcEEEE, 
                       __ZN7Iex_3_116EaddrnotavailExcC1EOS0_, __ZN7Iex_3_116EaddrnotavailExcC1EPKc, 
                       __ZN7Iex_3_116EaddrnotavailExcC1ERKNSt3__112basic_stringIcNS1_11char_traitsIcEENS1_9allocatorIcEEEE, 
                       __ZN7Iex_3_116EaddrnotavailExcC1ERKS0_, __ZN7Iex_3_116EaddrnotavailExcC1ERNSt3__118basic_stringstreamIcNS1_11char_traitsIcEENS1_9allocatorIcEEEE, 
                       __ZN7Iex_3_116EaddrnotavailExcC1Ev, __ZN7Iex_3_116EaddrnotavailExcC2EONSt3__112basic_stringIcNS1_11char_traitsIcEENS1_9allocatorIcEEEE, 
                       __ZN7Iex_3_116EaddrnotavailExcC2EOS0_, __ZN7Iex_3_116EaddrnotavailExcC2EPKc, 
                       __ZN7Iex_3_116EaddrnotavailExcC2ERKNSt3__112basic_stringIcNS1_11char_traitsIcEENS1_9allocatorIcEEEE, 
                       __ZN7Iex_3_116EaddrnotavailExcC2ERKS0_, __ZN7Iex_3_116EaddrnotavailExcC2ERNSt3__118basic_stringstreamIcNS1_11char_traitsIcEENS1_9allocatorIcEEEE, 
                       __ZN7Iex_3_116EaddrnotavailExcC2Ev, __ZN7Iex_3_116EaddrnotavailExcD0Ev, 
                       __ZN7Iex_3_116EaddrnotavailExcD1Ev, __ZN7Iex_3_116EaddrnotavailExcD2Ev, 
                       __ZN7Iex_3_116EaddrnotavailExcaSEOS0_, __ZN7Iex_3_116EaddrnotavailExcaSERS0_, 
                       __ZN7Iex_3_116EdircorruptedExcC1EONSt3__112basic_stringIcNS1_11char_traitsIcEENS1_9allocatorIcEEEE, 
                       __ZN7Iex_3_116EdircorruptedExcC1EOS0_, __ZN7Iex_3_116EdircorruptedExcC1EPKc, 
                       __ZN7Iex_3_116EdircorruptedExcC1ERKNSt3__112basic_stringIcNS1_11char_traitsIcEENS1_9allocatorIcEEEE, 
                       __ZN7Iex_3_116EdircorruptedExcC1ERKS0_, __ZN7Iex_3_116EdircorruptedExcC1ERNSt3__118basic_stringstreamIcNS1_11char_traitsIcEENS1_9allocatorIcEEEE, 
                       __ZN7Iex_3_116EdircorruptedExcC1Ev, __ZN7Iex_3_116EdircorruptedExcC2EONSt3__112basic_stringIcNS1_11char_traitsIcEENS1_9allocatorIcEEEE, 
                       __ZN7Iex_3_116EdircorruptedExcC2EOS0_, __ZN7Iex_3_116EdircorruptedExcC2EPKc, 
                       __ZN7Iex_3_116EdircorruptedExcC2ERKNSt3__112basic_stringIcNS1_11char_traitsIcEENS1_9allocatorIcEEEE, 
                       __ZN7Iex_3_116EdircorruptedExcC2ERKS0_, __ZN7Iex_3_116EdircorruptedExcC2ERNSt3__118basic_stringstreamIcNS1_11char_traitsIcEENS1_9allocatorIcEEEE, 
                       __ZN7Iex_3_116EdircorruptedExcC2Ev, __ZN7Iex_3_116EdircorruptedExcD0Ev, 
                       __ZN7Iex_3_116EdircorruptedExcD1Ev, __ZN7Iex_3_116EdircorruptedExcD2Ev, 
                       __ZN7Iex_3_116EdircorruptedExcaSEOS0_, __ZN7Iex_3_116EdircorruptedExcaSERS0_, 
                       __ZN7Iex_3_117EnotcontrollerExcC1EONSt3__112basic_stringIcNS1_11char_traitsIcEENS1_9allocatorIcEEEE, 
                       __ZN7Iex_3_117EnotcontrollerExcC1EOS0_, __ZN7Iex_3_117EnotcontrollerExcC1EPKc, 
                       __ZN7Iex_3_117EnotcontrollerExcC1ERKNSt3__112basic_stringIcNS1_11char_traitsIcEENS1_9allocatorIcEEEE, 
                       __ZN7Iex_3_117EnotcontrollerExcC1ERKS0_, __ZN7Iex_3_117EnotcontrollerExcC1ERNSt3__118basic_stringstreamIcNS1_11char_traitsIcEENS1_9allocatorIcEEEE, 
                       __ZN7Iex_3_117EnotcontrollerExcC1Ev, __ZN7Iex_3_117EnotcontrollerExcC2EONSt3__112basic_stringIcNS1_11char_traitsIcEENS1_9allocatorIcEEEE, 
                       __ZN7Iex_3_117EnotcontrollerExcC2EOS0_, __ZN7Iex_3_117EnotcontrollerExcC2EPKc, 
                       __ZN7Iex_3_117EnotcontrollerExcC2ERKNSt3__112basic_stringIcNS1_11char_traitsIcEENS1_9allocatorIcEEEE, 
                       __ZN7Iex_3_117EnotcontrollerExcC2ERKS0_, __ZN7Iex_3_117EnotcontrollerExcC2ERNSt3__118basic_stringstreamIcNS1_11char_traitsIcEENS1_9allocatorIcEEEE, 
                       __ZN7Iex_3_117EnotcontrollerExcC2Ev, __ZN7Iex_3_117EnotcontrollerExcD0Ev, 
                       __ZN7Iex_3_117EnotcontrollerExcD1Ev, __ZN7Iex_3_117EnotcontrollerExcD2Ev, 
                       __ZN7Iex_3_117EnotcontrollerExcaSEOS0_, __ZN7Iex_3_117EnotcontrollerExcaSERS0_, 
                       __ZN7Iex_3_118EprotonosupportExcC1EONSt3__112basic_stringIcNS1_11char_traitsIcEENS1_9allocatorIcEEEE, 
                       __ZN7Iex_3_118EprotonosupportExcC1EOS0_, __ZN7Iex_3_118EprotonosupportExcC1EPKc, 
                       __ZN7Iex_3_118EprotonosupportExcC1ERKNSt3__112basic_stringIcNS1_11char_traitsIcEENS1_9allocatorIcEEEE, 
                       __ZN7Iex_3_118EprotonosupportExcC1ERKS0_, __ZN7Iex_3_118EprotonosupportExcC1ERNSt3__118basic_stringstreamIcNS1_11char_traitsIcEENS1_9allocatorIcEEEE, 
                       __ZN7Iex_3_118EprotonosupportExcC1Ev, __ZN7Iex_3_118EprotonosupportExcC2EONSt3__112basic_stringIcNS1_11char_traitsIcEENS1_9allocatorIcEEEE, 
                       __ZN7Iex_3_118EprotonosupportExcC2EOS0_, __ZN7Iex_3_118EprotonosupportExcC2EPKc, 
                       __ZN7Iex_3_118EprotonosupportExcC2ERKNSt3__112basic_stringIcNS1_11char_traitsIcEENS1_9allocatorIcEEEE, 
                       __ZN7Iex_3_118EprotonosupportExcC2ERKS0_, __ZN7Iex_3_118EprotonosupportExcC2ERNSt3__118basic_stringstreamIcNS1_11char_traitsIcEENS1_9allocatorIcEEEE, 
                       __ZN7Iex_3_118EprotonosupportExcC2Ev, __ZN7Iex_3_118EprotonosupportExcD0Ev, 
                       __ZN7Iex_3_118EprotonosupportExcD1Ev, __ZN7Iex_3_118EprotonosupportExcD2Ev, 
                       __ZN7Iex_3_118EprotonosupportExcaSEOS0_, __ZN7Iex_3_118EprotonosupportExcaSERS0_, 
                       __ZN7Iex_3_118EsocktnosupportExcC1EONSt3__112basic_stringIcNS1_11char_traitsIcEENS1_9allocatorIcEEEE, 
                       __ZN7Iex_3_118EsocktnosupportExcC1EOS0_, __ZN7Iex_3_118EsocktnosupportExcC1EPKc, 
                       __ZN7Iex_3_118EsocktnosupportExcC1ERKNSt3__112basic_stringIcNS1_11char_traitsIcEENS1_9allocatorIcEEEE, 
                       __ZN7Iex_3_118EsocktnosupportExcC1ERKS0_, __ZN7Iex_3_118EsocktnosupportExcC1ERNSt3__118basic_stringstreamIcNS1_11char_traitsIcEENS1_9allocatorIcEEEE, 
                       __ZN7Iex_3_118EsocktnosupportExcC1Ev, __ZN7Iex_3_118EsocktnosupportExcC2EONSt3__112basic_stringIcNS1_11char_traitsIcEENS1_9allocatorIcEEEE, 
                       __ZN7Iex_3_118EsocktnosupportExcC2EOS0_, __ZN7Iex_3_118EsocktnosupportExcC2EPKc, 
                       __ZN7Iex_3_118EsocktnosupportExcC2ERKNSt3__112basic_stringIcNS1_11char_traitsIcEENS1_9allocatorIcEEEE, 
                       __ZN7Iex_3_118EsocktnosupportExcC2ERKS0_, __ZN7Iex_3_118EsocktnosupportExcC2ERNSt3__118basic_stringstreamIcNS1_11char_traitsIcEENS1_9allocatorIcEEEE, 
                       __ZN7Iex_3_118EsocktnosupportExcC2Ev, __ZN7Iex_3_118EsocktnosupportExcD0Ev, 
                       __ZN7Iex_3_118EsocktnosupportExcD1Ev, __ZN7Iex_3_118EsocktnosupportExcD2Ev, 
                       __ZN7Iex_3_118EsocktnosupportExcaSEOS0_, __ZN7Iex_3_118EsocktnosupportExcaSERS0_, 
                       __ZN7Iex_3_15IoExcC1EONSt3__112basic_stringIcNS1_11char_traitsIcEENS1_9allocatorIcEEEE, 
                       __ZN7Iex_3_15IoExcC1EOS0_, __ZN7Iex_3_15IoExcC1EPKc, __ZN7Iex_3_15IoExcC1ERKNSt3__112basic_stringIcNS1_11char_traitsIcEENS1_9allocatorIcEEEE, 
                       __ZN7Iex_3_15IoExcC1ERKS0_, __ZN7Iex_3_15IoExcC1ERNSt3__118basic_stringstreamIcNS1_11char_traitsIcEENS1_9allocatorIcEEEE, 
                       __ZN7Iex_3_15IoExcC1Ev, __ZN7Iex_3_15IoExcC2EONSt3__112basic_stringIcNS1_11char_traitsIcEENS1_9allocatorIcEEEE, 
                       __ZN7Iex_3_15IoExcC2EOS0_, __ZN7Iex_3_15IoExcC2EPKc, __ZN7Iex_3_15IoExcC2ERKNSt3__112basic_stringIcNS1_11char_traitsIcEENS1_9allocatorIcEEEE, 
                       __ZN7Iex_3_15IoExcC2ERKS0_, __ZN7Iex_3_15IoExcC2ERNSt3__118basic_stringstreamIcNS1_11char_traitsIcEENS1_9allocatorIcEEEE, 
                       __ZN7Iex_3_15IoExcC2Ev, __ZN7Iex_3_15IoExcD0Ev, __ZN7Iex_3_15IoExcD1Ev, 
                       __ZN7Iex_3_15IoExcD2Ev, __ZN7Iex_3_15IoExcaSEOS0_, __ZN7Iex_3_15IoExcaSERS0_, 
                       __ZN7Iex_3_16ArgExcC1EONSt3__112basic_stringIcNS1_11char_traitsIcEENS1_9allocatorIcEEEE, 
                       __ZN7Iex_3_16ArgExcC1EOS0_, __ZN7Iex_3_16ArgExcC1EPKc, __ZN7Iex_3_16ArgExcC1ERKNSt3__112basic_stringIcNS1_11char_traitsIcEENS1_9allocatorIcEEEE, 
                       __ZN7Iex_3_16ArgExcC1ERKS0_, __ZN7Iex_3_16ArgExcC1ERNSt3__118basic_stringstreamIcNS1_11char_traitsIcEENS1_9allocatorIcEEEE, 
                       __ZN7Iex_3_16ArgExcC1Ev, __ZN7Iex_3_16ArgExcC2EONSt3__112basic_stringIcNS1_11char_traitsIcEENS1_9allocatorIcEEEE, 
                       __ZN7Iex_3_16ArgExcC2EOS0_, __ZN7Iex_3_16ArgExcC2EPKc, __ZN7Iex_3_16ArgExcC2ERKNSt3__112basic_stringIcNS1_11char_traitsIcEENS1_9allocatorIcEEEE, 
                       __ZN7Iex_3_16ArgExcC2ERKS0_, __ZN7Iex_3_16ArgExcC2ERNSt3__118basic_stringstreamIcNS1_11char_traitsIcEENS1_9allocatorIcEEEE, 
                       __ZN7Iex_3_16ArgExcC2Ev, __ZN7Iex_3_16ArgExcD0Ev, __ZN7Iex_3_16ArgExcD1Ev, 
                       __ZN7Iex_3_16ArgExcD2Ev, __ZN7Iex_3_16ArgExcaSEOS0_, __ZN7Iex_3_16ArgExcaSERS0_, 
                       __ZN7Iex_3_16EioExcC1EONSt3__112basic_stringIcNS1_11char_traitsIcEENS1_9allocatorIcEEEE, 
                       __ZN7Iex_3_16EioExcC1EOS0_, __ZN7Iex_3_16EioExcC1EPKc, __ZN7Iex_3_16EioExcC1ERKNSt3__112basic_stringIcNS1_11char_traitsIcEENS1_9allocatorIcEEEE, 
                       __ZN7Iex_3_16EioExcC1ERKS0_, __ZN7Iex_3_16EioExcC1ERNSt3__118basic_stringstreamIcNS1_11char_traitsIcEENS1_9allocatorIcEEEE, 
                       __ZN7Iex_3_16EioExcC1Ev, __ZN7Iex_3_16EioExcC2EONSt3__112basic_stringIcNS1_11char_traitsIcEENS1_9allocatorIcEEEE, 
                       __ZN7Iex_3_16EioExcC2EOS0_, __ZN7Iex_3_16EioExcC2EPKc, __ZN7Iex_3_16EioExcC2ERKNSt3__112basic_stringIcNS1_11char_traitsIcEENS1_9allocatorIcEEEE, 
                       __ZN7Iex_3_16EioExcC2ERKS0_, __ZN7Iex_3_16EioExcC2ERNSt3__118basic_stringstreamIcNS1_11char_traitsIcEENS1_9allocatorIcEEEE, 
                       __ZN7Iex_3_16EioExcC2Ev, __ZN7Iex_3_16EioExcD0Ev, __ZN7Iex_3_16EioExcD1Ev, 
                       __ZN7Iex_3_16EioExcD2Ev, __ZN7Iex_3_16EioExcaSEOS0_, __ZN7Iex_3_16EioExcaSERS0_, 
                       __ZN7Iex_3_17BaseExc6appendEPKc, __ZN7Iex_3_17BaseExc6appendERNSt3__118basic_stringstreamIcNS1_11char_traitsIcEENS1_9allocatorIcEEEE, 
                       __ZN7Iex_3_17BaseExc6assignEPKc, __ZN7Iex_3_17BaseExc6assignERNSt3__118basic_stringstreamIcNS1_11char_traitsIcEENS1_9allocatorIcEEEE, 
                       __ZN7Iex_3_17BaseExcC1EONSt3__112basic_stringIcNS1_11char_traitsIcEENS1_9allocatorIcEEEE, 
                       __ZN7Iex_3_17BaseExcC1EPKc, __ZN7Iex_3_17BaseExcC1ERKNSt3__112basic_stringIcNS1_11char_traitsIcEENS1_9allocatorIcEEEE, 
                       __ZN7Iex_3_17BaseExcC1ERKS0_, __ZN7Iex_3_17BaseExcC1ERNSt3__118basic_stringstreamIcNS1_11char_traitsIcEENS1_9allocatorIcEEEE, 
                       __ZN7Iex_3_17BaseExcC2EONSt3__112basic_stringIcNS1_11char_traitsIcEENS1_9allocatorIcEEEE, 
                       __ZN7Iex_3_17BaseExcC2EPKc, __ZN7Iex_3_17BaseExcC2ERKNSt3__112basic_stringIcNS1_11char_traitsIcEENS1_9allocatorIcEEEE, 
                       __ZN7Iex_3_17BaseExcC2ERKS0_, __ZN7Iex_3_17BaseExcC2ERNSt3__118basic_stringstreamIcNS1_11char_traitsIcEENS1_9allocatorIcEEEE, 
                       __ZN7Iex_3_17BaseExcD0Ev, __ZN7Iex_3_17BaseExcD1Ev, __ZN7Iex_3_17BaseExcD2Ev, 
                       __ZN7Iex_3_17BaseExcaSEOS0_, __ZN7Iex_3_17BaseExcaSEPKc, __ZN7Iex_3_17BaseExcaSERKS0_, 
                       __ZN7Iex_3_17BaseExcaSERNSt3__118basic_stringstreamIcNS1_11char_traitsIcEENS1_9allocatorIcEEEE, 
                       __ZN7Iex_3_17BaseExcpLEPKc, __ZN7Iex_3_17BaseExcpLERNSt3__118basic_stringstreamIcNS1_11char_traitsIcEENS1_9allocatorIcEEEE, 
                       __ZN7Iex_3_17EadvExcC1EONSt3__112basic_stringIcNS1_11char_traitsIcEENS1_9allocatorIcEEEE, 
                       __ZN7Iex_3_17EadvExcC1EOS0_, __ZN7Iex_3_17EadvExcC1EPKc, __ZN7Iex_3_17EadvExcC1ERKNSt3__112basic_stringIcNS1_11char_traitsIcEENS1_9allocatorIcEEEE, 
                       __ZN7Iex_3_17EadvExcC1ERKS0_, __ZN7Iex_3_17EadvExcC1ERNSt3__118basic_stringstreamIcNS1_11char_traitsIcEENS1_9allocatorIcEEEE, 
                       __ZN7Iex_3_17EadvExcC1Ev, __ZN7Iex_3_17EadvExcC2EONSt3__112basic_stringIcNS1_11char_traitsIcEENS1_9allocatorIcEEEE, 
                       __ZN7Iex_3_17EadvExcC2EOS0_, __ZN7Iex_3_17EadvExcC2EPKc, __ZN7Iex_3_17EadvExcC2ERKNSt3__112basic_stringIcNS1_11char_traitsIcEENS1_9allocatorIcEEEE, 
                       __ZN7Iex_3_17EadvExcC2ERKS0_, __ZN7Iex_3_17EadvExcC2ERNSt3__118basic_stringstreamIcNS1_11char_traitsIcEENS1_9allocatorIcEEEE, 
                       __ZN7Iex_3_17EadvExcC2Ev, __ZN7Iex_3_17EadvExcD0Ev, __ZN7Iex_3_17EadvExcD1Ev, 
                       __ZN7Iex_3_17EadvExcD2Ev, __ZN7Iex_3_17EadvExcaSEOS0_, __ZN7Iex_3_17EadvExcaSERS0_, 
                       __ZN7Iex_3_17EdomExcC1EONSt3__112basic_stringIcNS1_11char_traitsIcEENS1_9allocatorIcEEEE, 
                       __ZN7Iex_3_17EdomExcC1EOS0_, __ZN7Iex_3_17EdomExcC1EPKc, __ZN7Iex_3_17EdomExcC1ERKNSt3__112basic_stringIcNS1_11char_traitsIcEENS1_9allocatorIcEEEE, 
                       __ZN7Iex_3_17EdomExcC1ERKS0_, __ZN7Iex_3_17EdomExcC1ERNSt3__118basic_stringstreamIcNS1_11char_traitsIcEENS1_9allocatorIcEEEE, 
                       __ZN7Iex_3_17EdomExcC1Ev, __ZN7Iex_3_17EdomExcC2EONSt3__112basic_stringIcNS1_11char_traitsIcEENS1_9allocatorIcEEEE, 
                       __ZN7Iex_3_17EdomExcC2EOS0_, __ZN7Iex_3_17EdomExcC2EPKc, __ZN7Iex_3_17EdomExcC2ERKNSt3__112basic_stringIcNS1_11char_traitsIcEENS1_9allocatorIcEEEE, 
                       __ZN7Iex_3_17EdomExcC2ERKS0_, __ZN7Iex_3_17EdomExcC2ERNSt3__118basic_stringstreamIcNS1_11char_traitsIcEENS1_9allocatorIcEEEE, 
                       __ZN7Iex_3_17EdomExcC2Ev, __ZN7Iex_3_17EdomExcD0Ev, __ZN7Iex_3_17EdomExcD1Ev, 
                       __ZN7Iex_3_17EdomExcD2Ev, __ZN7Iex_3_17EdomExcaSEOS0_, __ZN7Iex_3_17EdomExcaSERS0_, 
                       __ZN7Iex_3_17MathExcC1EONSt3__112basic_stringIcNS1_11char_traitsIcEENS1_9allocatorIcEEEE, 
                       __ZN7Iex_3_17MathExcC1EOS0_, __ZN7Iex_3_17MathExcC1EPKc, __ZN7Iex_3_17MathExcC1ERKNSt3__112basic_stringIcNS1_11char_traitsIcEENS1_9allocatorIcEEEE, 
                       __ZN7Iex_3_17MathExcC1ERKS0_, __ZN7Iex_3_17MathExcC1ERNSt3__118basic_stringstreamIcNS1_11char_traitsIcEENS1_9allocatorIcEEEE, 
                       __ZN7Iex_3_17MathExcC1Ev, __ZN7Iex_3_17MathExcC2EONSt3__112basic_stringIcNS1_11char_traitsIcEENS1_9allocatorIcEEEE, 
                       __ZN7Iex_3_17MathExcC2EOS0_, __ZN7Iex_3_17MathExcC2EPKc, __ZN7Iex_3_17MathExcC2ERKNSt3__112basic_stringIcNS1_11char_traitsIcEENS1_9allocatorIcEEEE, 
                       __ZN7Iex_3_17MathExcC2ERKS0_, __ZN7Iex_3_17MathExcC2ERNSt3__118basic_stringstreamIcNS1_11char_traitsIcEENS1_9allocatorIcEEEE, 
                       __ZN7Iex_3_17MathExcC2Ev, __ZN7Iex_3_17MathExcD0Ev, __ZN7Iex_3_17MathExcD1Ev, 
                       __ZN7Iex_3_17MathExcD2Ev, __ZN7Iex_3_17MathExcaSEOS0_, __ZN7Iex_3_17MathExcaSERS0_, 
                       __ZN7Iex_3_17NullExcC1EONSt3__112basic_stringIcNS1_11char_traitsIcEENS1_9allocatorIcEEEE, 
                       __ZN7Iex_3_17NullExcC1EOS0_, __ZN7Iex_3_17NullExcC1EPKc, __ZN7Iex_3_17NullExcC1ERKNSt3__112basic_stringIcNS1_11char_traitsIcEENS1_9allocatorIcEEEE, 
                       __ZN7Iex_3_17NullExcC1ERKS0_, __ZN7Iex_3_17NullExcC1ERNSt3__118basic_stringstreamIcNS1_11char_traitsIcEENS1_9allocatorIcEEEE, 
                       __ZN7Iex_3_17NullExcC1Ev, __ZN7Iex_3_17NullExcC2EONSt3__112basic_stringIcNS1_11char_traitsIcEENS1_9allocatorIcEEEE, 
                       __ZN7Iex_3_17NullExcC2EOS0_, __ZN7Iex_3_17NullExcC2EPKc, __ZN7Iex_3_17NullExcC2ERKNSt3__112basic_stringIcNS1_11char_traitsIcEENS1_9allocatorIcEEEE, 
                       __ZN7Iex_3_17NullExcC2ERKS0_, __ZN7Iex_3_17NullExcC2ERNSt3__118basic_stringstreamIcNS1_11char_traitsIcEENS1_9allocatorIcEEEE, 
                       __ZN7Iex_3_17NullExcC2Ev, __ZN7Iex_3_17NullExcD0Ev, __ZN7Iex_3_17NullExcD1Ev, 
                       __ZN7Iex_3_17NullExcD2Ev, __ZN7Iex_3_17NullExcaSEOS0_, __ZN7Iex_3_17NullExcaSERS0_, 
                       __ZN7Iex_3_17TypeExcC1EONSt3__112basic_stringIcNS1_11char_traitsIcEENS1_9allocatorIcEEEE, 
                       __ZN7Iex_3_17TypeExcC1EOS0_, __ZN7Iex_3_17TypeExcC1EPKc, __ZN7Iex_3_17TypeExcC1ERKNSt3__112basic_stringIcNS1_11char_traitsIcEENS1_9allocatorIcEEEE, 
                       __ZN7Iex_3_17TypeExcC1ERKS0_, __ZN7Iex_3_17TypeExcC1ERNSt3__118basic_stringstreamIcNS1_11char_traitsIcEENS1_9allocatorIcEEEE, 
                       __ZN7Iex_3_17TypeExcC1Ev, __ZN7Iex_3_17TypeExcC2EONSt3__112basic_stringIcNS1_11char_traitsIcEENS1_9allocatorIcEEEE, 
                       __ZN7Iex_3_17TypeExcC2EOS0_, __ZN7Iex_3_17TypeExcC2EPKc, __ZN7Iex_3_17TypeExcC2ERKNSt3__112basic_stringIcNS1_11char_traitsIcEENS1_9allocatorIcEEEE, 
                       __ZN7Iex_3_17TypeExcC2ERKS0_, __ZN7Iex_3_17TypeExcC2ERNSt3__118basic_stringstreamIcNS1_11char_traitsIcEENS1_9allocatorIcEEEE, 
                       __ZN7Iex_3_17TypeExcC2Ev, __ZN7Iex_3_17TypeExcD0Ev, __ZN7Iex_3_17TypeExcD1Ev, 
                       __ZN7Iex_3_17TypeExcD2Ev, __ZN7Iex_3_17TypeExcaSEOS0_, __ZN7Iex_3_17TypeExcaSERS0_, 
                       __ZN7Iex_3_18E2bigExcC1EONSt3__112basic_stringIcNS1_11char_traitsIcEENS1_9allocatorIcEEEE, 
                       __ZN7Iex_3_18E2bigExcC1EOS0_, __ZN7Iex_3_18E2bigExcC1EPKc, 
                       __ZN7Iex_3_18E2bigExcC1ERKNSt3__112basic_stringIcNS1_11char_traitsIcEENS1_9allocatorIcEEEE, 
                       __ZN7Iex_3_18E2bigExcC1ERKS0_, __ZN7Iex_3_18E2bigExcC1ERNSt3__118basic_stringstreamIcNS1_11char_traitsIcEENS1_9allocatorIcEEEE, 
                       __ZN7Iex_3_18E2bigExcC1Ev, __ZN7Iex_3_18E2bigExcC2EONSt3__112basic_stringIcNS1_11char_traitsIcEENS1_9allocatorIcEEEE, 
                       __ZN7Iex_3_18E2bigExcC2EOS0_, __ZN7Iex_3_18E2bigExcC2EPKc, 
                       __ZN7Iex_3_18E2bigExcC2ERKNSt3__112basic_stringIcNS1_11char_traitsIcEENS1_9allocatorIcEEEE, 
                       __ZN7Iex_3_18E2bigExcC2ERKS0_, __ZN7Iex_3_18E2bigExcC2ERNSt3__118basic_stringstreamIcNS1_11char_traitsIcEENS1_9allocatorIcEEEE, 
                       __ZN7Iex_3_18E2bigExcC2Ev, __ZN7Iex_3_18E2bigExcD0Ev, __ZN7Iex_3_18E2bigExcD1Ev, 
                       __ZN7Iex_3_18E2bigExcD2Ev, __ZN7Iex_3_18E2bigExcaSEOS0_, __ZN7Iex_3_18E2bigExcaSERS0_, 
                       __ZN7Iex_3_18EbadeExcC1EONSt3__112basic_stringIcNS1_11char_traitsIcEENS1_9allocatorIcEEEE, 
                       __ZN7Iex_3_18EbadeExcC1EOS0_, __ZN7Iex_3_18EbadeExcC1EPKc, 
                       __ZN7Iex_3_18EbadeExcC1ERKNSt3__112basic_stringIcNS1_11char_traitsIcEENS1_9allocatorIcEEEE, 
                       __ZN7Iex_3_18EbadeExcC1ERKS0_, __ZN7Iex_3_18EbadeExcC1ERNSt3__118basic_stringstreamIcNS1_11char_traitsIcEENS1_9allocatorIcEEEE, 
                       __ZN7Iex_3_18EbadeExcC1Ev, __ZN7Iex_3_18EbadeExcC2EONSt3__112basic_stringIcNS1_11char_traitsIcEENS1_9allocatorIcEEEE, 
                       __ZN7Iex_3_18EbadeExcC2EOS0_, __ZN7Iex_3_18EbadeExcC2EPKc, 
                       __ZN7Iex_3_18EbadeExcC2ERKNSt3__112basic_stringIcNS1_11char_traitsIcEENS1_9allocatorIcEEEE, 
                       __ZN7Iex_3_18EbadeExcC2ERKS0_, __ZN7Iex_3_18EbadeExcC2ERNSt3__118basic_stringstreamIcNS1_11char_traitsIcEENS1_9allocatorIcEEEE, 
                       __ZN7Iex_3_18EbadeExcC2Ev, __ZN7Iex_3_18EbadeExcD0Ev, __ZN7Iex_3_18EbadeExcD1Ev, 
                       __ZN7Iex_3_18EbadeExcD2Ev, __ZN7Iex_3_18EbadeExcaSEOS0_, __ZN7Iex_3_18EbadeExcaSERS0_, 
                       __ZN7Iex_3_18EbadfExcC1EONSt3__112basic_stringIcNS1_11char_traitsIcEENS1_9allocatorIcEEEE, 
                       __ZN7Iex_3_18EbadfExcC1EOS0_, __ZN7Iex_3_18EbadfExcC1EPKc, 
                       __ZN7Iex_3_18EbadfExcC1ERKNSt3__112basic_stringIcNS1_11char_traitsIcEENS1_9allocatorIcEEEE, 
                       __ZN7Iex_3_18EbadfExcC1ERKS0_, __ZN7Iex_3_18EbadfExcC1ERNSt3__118basic_stringstreamIcNS1_11char_traitsIcEENS1_9allocatorIcEEEE, 
                       __ZN7Iex_3_18EbadfExcC1Ev, __ZN7Iex_3_18EbadfExcC2EONSt3__112basic_stringIcNS1_11char_traitsIcEENS1_9allocatorIcEEEE, 
                       __ZN7Iex_3_18EbadfExcC2EOS0_, __ZN7Iex_3_18EbadfExcC2EPKc, 
                       __ZN7Iex_3_18EbadfExcC2ERKNSt3__112basic_stringIcNS1_11char_traitsIcEENS1_9allocatorIcEEEE, 
                       __ZN7Iex_3_18EbadfExcC2ERKS0_, __ZN7Iex_3_18EbadfExcC2ERNSt3__118basic_stringstreamIcNS1_11char_traitsIcEENS1_9allocatorIcEEEE, 
                       __ZN7Iex_3_18EbadfExcC2Ev, __ZN7Iex_3_18EbadfExcD0Ev, __ZN7Iex_3_18EbadfExcD1Ev, 
                       __ZN7Iex_3_18EbadfExcD2Ev, __ZN7Iex_3_18EbadfExcaSEOS0_, __ZN7Iex_3_18EbadfExcaSERS0_, 
                       __ZN7Iex_3_18EbadrExcC1EONSt3__112basic_stringIcNS1_11char_traitsIcEENS1_9allocatorIcEEEE, 
                       __ZN7Iex_3_18EbadrExcC1EOS0_, __ZN7Iex_3_18EbadrExcC1EPKc, 
                       __ZN7Iex_3_18EbadrExcC1ERKNSt3__112basic_stringIcNS1_11char_traitsIcEENS1_9allocatorIcEEEE, 
                       __ZN7Iex_3_18EbadrExcC1ERKS0_, __ZN7Iex_3_18EbadrExcC1ERNSt3__118basic_stringstreamIcNS1_11char_traitsIcEENS1_9allocatorIcEEEE, 
                       __ZN7Iex_3_18EbadrExcC1Ev, __ZN7Iex_3_18EbadrExcC2EONSt3__112basic_stringIcNS1_11char_traitsIcEENS1_9allocatorIcEEEE, 
                       __ZN7Iex_3_18EbadrExcC2EOS0_, __ZN7Iex_3_18EbadrExcC2EPKc, 
                       __ZN7Iex_3_18EbadrExcC2ERKNSt3__112basic_stringIcNS1_11char_traitsIcEENS1_9allocatorIcEEEE, 
                       __ZN7Iex_3_18EbadrExcC2ERKS0_, __ZN7Iex_3_18EbadrExcC2ERNSt3__118basic_stringstreamIcNS1_11char_traitsIcEENS1_9allocatorIcEEEE, 
                       __ZN7Iex_3_18EbadrExcC2Ev, __ZN7Iex_3_18EbadrExcD0Ev, __ZN7Iex_3_18EbadrExcD1Ev, 
                       __ZN7Iex_3_18EbadrExcD2Ev, __ZN7Iex_3_18EbadrExcaSEOS0_, __ZN7Iex_3_18EbadrExcaSERS0_, 
                       __ZN7Iex_3_18EbusyExcC1EONSt3__112basic_stringIcNS1_11char_traitsIcEENS1_9allocatorIcEEEE, 
                       __ZN7Iex_3_18EbusyExcC1EOS0_, __ZN7Iex_3_18EbusyExcC1EPKc, 
                       __ZN7Iex_3_18EbusyExcC1ERKNSt3__112basic_stringIcNS1_11char_traitsIcEENS1_9allocatorIcEEEE, 
                       __ZN7Iex_3_18EbusyExcC1ERKS0_, __ZN7Iex_3_18EbusyExcC1ERNSt3__118basic_stringstreamIcNS1_11char_traitsIcEENS1_9allocatorIcEEEE, 
                       __ZN7Iex_3_18EbusyExcC1Ev, __ZN7Iex_3_18EbusyExcC2EONSt3__112basic_stringIcNS1_11char_traitsIcEENS1_9allocatorIcEEEE, 
                       __ZN7Iex_3_18EbusyExcC2EOS0_, __ZN7Iex_3_18EbusyExcC2EPKc, 
                       __ZN7Iex_3_18EbusyExcC2ERKNSt3__112basic_stringIcNS1_11char_traitsIcEENS1_9allocatorIcEEEE, 
                       __ZN7Iex_3_18EbusyExcC2ERKS0_, __ZN7Iex_3_18EbusyExcC2ERNSt3__118basic_stringstreamIcNS1_11char_traitsIcEENS1_9allocatorIcEEEE, 
                       __ZN7Iex_3_18EbusyExcC2Ev, __ZN7Iex_3_18EbusyExcD0Ev, __ZN7Iex_3_18EbusyExcD1Ev, 
                       __ZN7Iex_3_18EbusyExcD2Ev, __ZN7Iex_3_18EbusyExcaSEOS0_, __ZN7Iex_3_18EbusyExcaSERS0_, 
                       __ZN7Iex_3_18EcommExcC1EONSt3__112basic_stringIcNS1_11char_traitsIcEENS1_9allocatorIcEEEE, 
                       __ZN7Iex_3_18EcommExcC1EOS0_, __ZN7Iex_3_18EcommExcC1EPKc, 
                       __ZN7Iex_3_18EcommExcC1ERKNSt3__112basic_stringIcNS1_11char_traitsIcEENS1_9allocatorIcEEEE, 
                       __ZN7Iex_3_18EcommExcC1ERKS0_, __ZN7Iex_3_18EcommExcC1ERNSt3__118basic_stringstreamIcNS1_11char_traitsIcEENS1_9allocatorIcEEEE, 
                       __ZN7Iex_3_18EcommExcC1Ev, __ZN7Iex_3_18EcommExcC2EONSt3__112basic_stringIcNS1_11char_traitsIcEENS1_9allocatorIcEEEE, 
                       __ZN7Iex_3_18EcommExcC2EOS0_, __ZN7Iex_3_18EcommExcC2EPKc, 
                       __ZN7Iex_3_18EcommExcC2ERKNSt3__112basic_stringIcNS1_11char_traitsIcEENS1_9allocatorIcEEEE, 
                       __ZN7Iex_3_18EcommExcC2ERKS0_, __ZN7Iex_3_18EcommExcC2ERNSt3__118basic_stringstreamIcNS1_11char_traitsIcEENS1_9allocatorIcEEEE, 
                       __ZN7Iex_3_18EcommExcC2Ev, __ZN7Iex_3_18EcommExcD0Ev, __ZN7Iex_3_18EcommExcD1Ev, 
                       __ZN7Iex_3_18EcommExcD2Ev, __ZN7Iex_3_18EcommExcaSEOS0_, __ZN7Iex_3_18EcommExcaSERS0_, 
                       __ZN7Iex_3_18EfbigExcC1EONSt3__112basic_stringIcNS1_11char_traitsIcEENS1_9allocatorIcEEEE, 
                       __ZN7Iex_3_18EfbigExcC1EOS0_, __ZN7Iex_3_18EfbigExcC1EPKc, 
                       __ZN7Iex_3_18EfbigExcC1ERKNSt3__112basic_stringIcNS1_11char_traitsIcEENS1_9allocatorIcEEEE, 
                       __ZN7Iex_3_18EfbigExcC1ERKS0_, __ZN7Iex_3_18EfbigExcC1ERNSt3__118basic_stringstreamIcNS1_11char_traitsIcEENS1_9allocatorIcEEEE, 
                       __ZN7Iex_3_18EfbigExcC1Ev, __ZN7Iex_3_18EfbigExcC2EONSt3__112basic_stringIcNS1_11char_traitsIcEENS1_9allocatorIcEEEE, 
                       __ZN7Iex_3_18EfbigExcC2EOS0_, __ZN7Iex_3_18EfbigExcC2EPKc, 
                       __ZN7Iex_3_18EfbigExcC2ERKNSt3__112basic_stringIcNS1_11char_traitsIcEENS1_9allocatorIcEEEE, 
                       __ZN7Iex_3_18EfbigExcC2ERKS0_, __ZN7Iex_3_18EfbigExcC2ERNSt3__118basic_stringstreamIcNS1_11char_traitsIcEENS1_9allocatorIcEEEE, 
                       __ZN7Iex_3_18EfbigExcC2Ev, __ZN7Iex_3_18EfbigExcD0Ev, __ZN7Iex_3_18EfbigExcD1Ev, 
                       __ZN7Iex_3_18EfbigExcD2Ev, __ZN7Iex_3_18EfbigExcaSEOS0_, __ZN7Iex_3_18EfbigExcaSERS0_, 
                       __ZN7Iex_3_18EidrmExcC1EONSt3__112basic_stringIcNS1_11char_traitsIcEENS1_9allocatorIcEEEE, 
                       __ZN7Iex_3_18EidrmExcC1EOS0_, __ZN7Iex_3_18EidrmExcC1EPKc, 
                       __ZN7Iex_3_18EidrmExcC1ERKNSt3__112basic_stringIcNS1_11char_traitsIcEENS1_9allocatorIcEEEE, 
                       __ZN7Iex_3_18EidrmExcC1ERKS0_, __ZN7Iex_3_18EidrmExcC1ERNSt3__118basic_stringstreamIcNS1_11char_traitsIcEENS1_9allocatorIcEEEE, 
                       __ZN7Iex_3_18EidrmExcC1Ev, __ZN7Iex_3_18EidrmExcC2EONSt3__112basic_stringIcNS1_11char_traitsIcEENS1_9allocatorIcEEEE, 
                       __ZN7Iex_3_18EidrmExcC2EOS0_, __ZN7Iex_3_18EidrmExcC2EPKc, 
                       __ZN7Iex_3_18EidrmExcC2ERKNSt3__112basic_stringIcNS1_11char_traitsIcEENS1_9allocatorIcEEEE, 
                       __ZN7Iex_3_18EidrmExcC2ERKS0_, __ZN7Iex_3_18EidrmExcC2ERNSt3__118basic_stringstreamIcNS1_11char_traitsIcEENS1_9allocatorIcEEEE, 
                       __ZN7Iex_3_18EidrmExcC2Ev, __ZN7Iex_3_18EidrmExcD0Ev, __ZN7Iex_3_18EidrmExcD1Ev, 
                       __ZN7Iex_3_18EidrmExcD2Ev, __ZN7Iex_3_18EidrmExcaSEOS0_, __ZN7Iex_3_18EidrmExcaSERS0_, 
                       __ZN7Iex_3_18EinitExcC1EONSt3__112basic_stringIcNS1_11char_traitsIcEENS1_9allocatorIcEEEE, 
                       __ZN7Iex_3_18EinitExcC1EOS0_, __ZN7Iex_3_18EinitExcC1EPKc, 
                       __ZN7Iex_3_18EinitExcC1ERKNSt3__112basic_stringIcNS1_11char_traitsIcEENS1_9allocatorIcEEEE, 
                       __ZN7Iex_3_18EinitExcC1ERKS0_, __ZN7Iex_3_18EinitExcC1ERNSt3__118basic_stringstreamIcNS1_11char_traitsIcEENS1_9allocatorIcEEEE, 
                       __ZN7Iex_3_18EinitExcC1Ev, __ZN7Iex_3_18EinitExcC2EONSt3__112basic_stringIcNS1_11char_traitsIcEENS1_9allocatorIcEEEE, 
                       __ZN7Iex_3_18EinitExcC2EOS0_, __ZN7Iex_3_18EinitExcC2EPKc, 
                       __ZN7Iex_3_18EinitExcC2ERKNSt3__112basic_stringIcNS1_11char_traitsIcEENS1_9allocatorIcEEEE, 
                       __ZN7Iex_3_18EinitExcC2ERKS0_, __ZN7Iex_3_18EinitExcC2ERNSt3__118basic_stringstreamIcNS1_11char_traitsIcEENS1_9allocatorIcEEEE, 
                       __ZN7Iex_3_18EinitExcC2Ev, __ZN7Iex_3_18EinitExcD0Ev, __ZN7Iex_3_18EinitExcD1Ev, 
                       __ZN7Iex_3_18EinitExcD2Ev, __ZN7Iex_3_18EinitExcaSEOS0_, __ZN7Iex_3_18EinitExcaSERS0_, 
                       __ZN7Iex_3_18EintrExcC1EONSt3__112basic_stringIcNS1_11char_traitsIcEENS1_9allocatorIcEEEE, 
                       __ZN7Iex_3_18EintrExcC1EOS0_, __ZN7Iex_3_18EintrExcC1EPKc, 
                       __ZN7Iex_3_18EintrExcC1ERKNSt3__112basic_stringIcNS1_11char_traitsIcEENS1_9allocatorIcEEEE, 
                       __ZN7Iex_3_18EintrExcC1ERKS0_, __ZN7Iex_3_18EintrExcC1ERNSt3__118basic_stringstreamIcNS1_11char_traitsIcEENS1_9allocatorIcEEEE, 
                       __ZN7Iex_3_18EintrExcC1Ev, __ZN7Iex_3_18EintrExcC2EONSt3__112basic_stringIcNS1_11char_traitsIcEENS1_9allocatorIcEEEE, 
                       __ZN7Iex_3_18EintrExcC2EOS0_, __ZN7Iex_3_18EintrExcC2EPKc, 
                       __ZN7Iex_3_18EintrExcC2ERKNSt3__112basic_stringIcNS1_11char_traitsIcEENS1_9allocatorIcEEEE, 
                       __ZN7Iex_3_18EintrExcC2ERKS0_, __ZN7Iex_3_18EintrExcC2ERNSt3__118basic_stringstreamIcNS1_11char_traitsIcEENS1_9allocatorIcEEEE, 
                       __ZN7Iex_3_18EintrExcC2Ev, __ZN7Iex_3_18EintrExcD0Ev, __ZN7Iex_3_18EintrExcD1Ev, 
                       __ZN7Iex_3_18EintrExcD2Ev, __ZN7Iex_3_18EintrExcaSEOS0_, __ZN7Iex_3_18EintrExcaSERS0_, 
                       __ZN7Iex_3_18EloopExcC1EONSt3__112basic_stringIcNS1_11char_traitsIcEENS1_9allocatorIcEEEE, 
                       __ZN7Iex_3_18EloopExcC1EOS0_, __ZN7Iex_3_18EloopExcC1EPKc, 
                       __ZN7Iex_3_18EloopExcC1ERKNSt3__112basic_stringIcNS1_11char_traitsIcEENS1_9allocatorIcEEEE, 
                       __ZN7Iex_3_18EloopExcC1ERKS0_, __ZN7Iex_3_18EloopExcC1ERNSt3__118basic_stringstreamIcNS1_11char_traitsIcEENS1_9allocatorIcEEEE, 
                       __ZN7Iex_3_18EloopExcC1Ev, __ZN7Iex_3_18EloopExcC2EONSt3__112basic_stringIcNS1_11char_traitsIcEENS1_9allocatorIcEEEE, 
                       __ZN7Iex_3_18EloopExcC2EOS0_, __ZN7Iex_3_18EloopExcC2EPKc, 
                       __ZN7Iex_3_18EloopExcC2ERKNSt3__112basic_stringIcNS1_11char_traitsIcEENS1_9allocatorIcEEEE, 
                       __ZN7Iex_3_18EloopExcC2ERKS0_, __ZN7Iex_3_18EloopExcC2ERNSt3__118basic_stringstreamIcNS1_11char_traitsIcEENS1_9allocatorIcEEEE, 
                       __ZN7Iex_3_18EloopExcC2Ev, __ZN7Iex_3_18EloopExcD0Ev, __ZN7Iex_3_18EloopExcD1Ev, 
                       __ZN7Iex_3_18EloopExcD2Ev, __ZN7Iex_3_18EloopExcaSEOS0_, __ZN7Iex_3_18EloopExcaSERS0_, 
                       __ZN7Iex_3_18EnosrExcC1EONSt3__112basic_stringIcNS1_11char_traitsIcEENS1_9allocatorIcEEEE, 
                       __ZN7Iex_3_18EnosrExcC1EOS0_, __ZN7Iex_3_18EnosrExcC1EPKc, 
                       __ZN7Iex_3_18EnosrExcC1ERKNSt3__112basic_stringIcNS1_11char_traitsIcEENS1_9allocatorIcEEEE, 
                       __ZN7Iex_3_18EnosrExcC1ERKS0_, __ZN7Iex_3_18EnosrExcC1ERNSt3__118basic_stringstreamIcNS1_11char_traitsIcEENS1_9allocatorIcEEEE, 
                       __ZN7Iex_3_18EnosrExcC1Ev, __ZN7Iex_3_18EnosrExcC2EONSt3__112basic_stringIcNS1_11char_traitsIcEENS1_9allocatorIcEEEE, 
                       __ZN7Iex_3_18EnosrExcC2EOS0_, __ZN7Iex_3_18EnosrExcC2EPKc, 
                       __ZN7Iex_3_18EnosrExcC2ERKNSt3__112basic_stringIcNS1_11char_traitsIcEENS1_9allocatorIcEEEE, 
                       __ZN7Iex_3_18EnosrExcC2ERKS0_, __ZN7Iex_3_18EnosrExcC2ERNSt3__118basic_stringstreamIcNS1_11char_traitsIcEENS1_9allocatorIcEEEE, 
                       __ZN7Iex_3_18EnosrExcC2Ev, __ZN7Iex_3_18EnosrExcD0Ev, __ZN7Iex_3_18EnosrExcD1Ev, 
                       __ZN7Iex_3_18EnosrExcD2Ev, __ZN7Iex_3_18EnosrExcaSEOS0_, __ZN7Iex_3_18EnosrExcaSERS0_, 
                       __ZN7Iex_3_18EnxioExcC1EONSt3__112basic_stringIcNS1_11char_traitsIcEENS1_9allocatorIcEEEE, 
                       __ZN7Iex_3_18EnxioExcC1EOS0_, __ZN7Iex_3_18EnxioExcC1EPKc, 
                       __ZN7Iex_3_18EnxioExcC1ERKNSt3__112basic_stringIcNS1_11char_traitsIcEENS1_9allocatorIcEEEE, 
                       __ZN7Iex_3_18EnxioExcC1ERKS0_, __ZN7Iex_3_18EnxioExcC1ERNSt3__118basic_stringstreamIcNS1_11char_traitsIcEENS1_9allocatorIcEEEE, 
                       __ZN7Iex_3_18EnxioExcC1Ev, __ZN7Iex_3_18EnxioExcC2EONSt3__112basic_stringIcNS1_11char_traitsIcEENS1_9allocatorIcEEEE, 
                       __ZN7Iex_3_18EnxioExcC2EOS0_, __ZN7Iex_3_18EnxioExcC2EPKc, 
                       __ZN7Iex_3_18EnxioExcC2ERKNSt3__112basic_stringIcNS1_11char_traitsIcEENS1_9allocatorIcEEEE, 
                       __ZN7Iex_3_18EnxioExcC2ERKS0_, __ZN7Iex_3_18EnxioExcC2ERNSt3__118basic_stringstreamIcNS1_11char_traitsIcEENS1_9allocatorIcEEEE, 
                       __ZN7Iex_3_18EnxioExcC2Ev, __ZN7Iex_3_18EnxioExcD0Ev, __ZN7Iex_3_18EnxioExcD1Ev, 
                       __ZN7Iex_3_18EnxioExcD2Ev, __ZN7Iex_3_18EnxioExcaSEOS0_, __ZN7Iex_3_18EnxioExcaSERS0_, 
                       __ZN7Iex_3_18EpermExcC1EONSt3__112basic_stringIcNS1_11char_traitsIcEENS1_9allocatorIcEEEE, 
                       __ZN7Iex_3_18EpermExcC1EOS0_, __ZN7Iex_3_18EpermExcC1EPKc, 
                       __ZN7Iex_3_18EpermExcC1ERKNSt3__112basic_stringIcNS1_11char_traitsIcEENS1_9allocatorIcEEEE, 
                       __ZN7Iex_3_18EpermExcC1ERKS0_, __ZN7Iex_3_18EpermExcC1ERNSt3__118basic_stringstreamIcNS1_11char_traitsIcEENS1_9allocatorIcEEEE, 
                       __ZN7Iex_3_18EpermExcC1Ev, __ZN7Iex_3_18EpermExcC2EONSt3__112basic_stringIcNS1_11char_traitsIcEENS1_9allocatorIcEEEE, 
                       __ZN7Iex_3_18EpermExcC2EOS0_, __ZN7Iex_3_18EpermExcC2EPKc, 
                       __ZN7Iex_3_18EpermExcC2ERKNSt3__112basic_stringIcNS1_11char_traitsIcEENS1_9allocatorIcEEEE, 
                       __ZN7Iex_3_18EpermExcC2ERKS0_, __ZN7Iex_3_18EpermExcC2ERNSt3__118basic_stringstreamIcNS1_11char_traitsIcEENS1_9allocatorIcEEEE, 
                       __ZN7Iex_3_18EpermExcC2Ev, __ZN7Iex_3_18EpermExcD0Ev, __ZN7Iex_3_18EpermExcD1Ev, 
                       __ZN7Iex_3_18EpermExcD2Ev, __ZN7Iex_3_18EpermExcaSEOS0_, __ZN7Iex_3_18EpermExcaSERS0_, 
                       __ZN7Iex_3_18EpipeExcC1EONSt3__112basic_stringIcNS1_11char_traitsIcEENS1_9allocatorIcEEEE, 
                       __ZN7Iex_3_18EpipeExcC1EOS0_, __ZN7Iex_3_18EpipeExcC1EPKc, 
                       __ZN7Iex_3_18EpipeExcC1ERKNSt3__112basic_stringIcNS1_11char_traitsIcEENS1_9allocatorIcEEEE, 
                       __ZN7Iex_3_18EpipeExcC1ERKS0_, __ZN7Iex_3_18EpipeExcC1ERNSt3__118basic_stringstreamIcNS1_11char_traitsIcEENS1_9allocatorIcEEEE, 
                       __ZN7Iex_3_18EpipeExcC1Ev, __ZN7Iex_3_18EpipeExcC2EONSt3__112basic_stringIcNS1_11char_traitsIcEENS1_9allocatorIcEEEE, 
                       __ZN7Iex_3_18EpipeExcC2EOS0_, __ZN7Iex_3_18EpipeExcC2EPKc, 
                       __ZN7Iex_3_18EpipeExcC2ERKNSt3__112basic_stringIcNS1_11char_traitsIcEENS1_9allocatorIcEEEE, 
                       __ZN7Iex_3_18EpipeExcC2ERKS0_, __ZN7Iex_3_18EpipeExcC2ERNSt3__118basic_stringstreamIcNS1_11char_traitsIcEENS1_9allocatorIcEEEE, 
                       __ZN7Iex_3_18EpipeExcC2Ev, __ZN7Iex_3_18EpipeExcD0Ev, __ZN7Iex_3_18EpipeExcD1Ev, 
                       __ZN7Iex_3_18EpipeExcD2Ev, __ZN7Iex_3_18EpipeExcaSEOS0_, __ZN7Iex_3_18EpipeExcaSERS0_, 
                       __ZN7Iex_3_18ErofsExcC1EONSt3__112basic_stringIcNS1_11char_traitsIcEENS1_9allocatorIcEEEE, 
                       __ZN7Iex_3_18ErofsExcC1EOS0_, __ZN7Iex_3_18ErofsExcC1EPKc, 
                       __ZN7Iex_3_18ErofsExcC1ERKNSt3__112basic_stringIcNS1_11char_traitsIcEENS1_9allocatorIcEEEE, 
                       __ZN7Iex_3_18ErofsExcC1ERKS0_, __ZN7Iex_3_18ErofsExcC1ERNSt3__118basic_stringstreamIcNS1_11char_traitsIcEENS1_9allocatorIcEEEE, 
                       __ZN7Iex_3_18ErofsExcC1Ev, __ZN7Iex_3_18ErofsExcC2EONSt3__112basic_stringIcNS1_11char_traitsIcEENS1_9allocatorIcEEEE, 
                       __ZN7Iex_3_18ErofsExcC2EOS0_, __ZN7Iex_3_18ErofsExcC2EPKc, 
                       __ZN7Iex_3_18ErofsExcC2ERKNSt3__112basic_stringIcNS1_11char_traitsIcEENS1_9allocatorIcEEEE, 
                       __ZN7Iex_3_18ErofsExcC2ERKS0_, __ZN7Iex_3_18ErofsExcC2ERNSt3__118basic_stringstreamIcNS1_11char_traitsIcEENS1_9allocatorIcEEEE, 
                       __ZN7Iex_3_18ErofsExcC2Ev, __ZN7Iex_3_18ErofsExcD0Ev, __ZN7Iex_3_18ErofsExcD1Ev, 
                       __ZN7Iex_3_18ErofsExcD2Ev, __ZN7Iex_3_18ErofsExcaSEOS0_, __ZN7Iex_3_18ErofsExcaSERS0_, 
                       __ZN7Iex_3_18ErrnoExcC1EONSt3__112basic_stringIcNS1_11char_traitsIcEENS1_9allocatorIcEEEE, 
                       __ZN7Iex_3_18ErrnoExcC1EOS0_, __ZN7Iex_3_18ErrnoExcC1EPKc, 
                       __ZN7Iex_3_18ErrnoExcC1ERKNSt3__112basic_stringIcNS1_11char_traitsIcEENS1_9allocatorIcEEEE, 
                       __ZN7Iex_3_18ErrnoExcC1ERKS0_, __ZN7Iex_3_18ErrnoExcC1ERNSt3__118basic_stringstreamIcNS1_11char_traitsIcEENS1_9allocatorIcEEEE, 
                       __ZN7Iex_3_18ErrnoExcC1Ev, __ZN7Iex_3_18ErrnoExcC2EONSt3__112basic_stringIcNS1_11char_traitsIcEENS1_9allocatorIcEEEE, 
                       __ZN7Iex_3_18ErrnoExcC2EOS0_, __ZN7Iex_3_18ErrnoExcC2EPKc, 
                       __ZN7Iex_3_18ErrnoExcC2ERKNSt3__112basic_stringIcNS1_11char_traitsIcEENS1_9allocatorIcEEEE, 
                       __ZN7Iex_3_18ErrnoExcC2ERKS0_, __ZN7Iex_3_18ErrnoExcC2ERNSt3__118basic_stringstreamIcNS1_11char_traitsIcEENS1_9allocatorIcEEEE, 
                       __ZN7Iex_3_18ErrnoExcC2Ev, __ZN7Iex_3_18ErrnoExcD0Ev, __ZN7Iex_3_18ErrnoExcD1Ev, 
                       __ZN7Iex_3_18ErrnoExcD2Ev, __ZN7Iex_3_18ErrnoExcaSEOS0_, __ZN7Iex_3_18ErrnoExcaSERS0_, 
                       __ZN7Iex_3_18EsrchExcC1EONSt3__112basic_stringIcNS1_11char_traitsIcEENS1_9allocatorIcEEEE, 
                       __ZN7Iex_3_18EsrchExcC1EOS0_, __ZN7Iex_3_18EsrchExcC1EPKc, 
                       __ZN7Iex_3_18EsrchExcC1ERKNSt3__112basic_stringIcNS1_11char_traitsIcEENS1_9allocatorIcEEEE, 
                       __ZN7Iex_3_18EsrchExcC1ERKS0_, __ZN7Iex_3_18EsrchExcC1ERNSt3__118basic_stringstreamIcNS1_11char_traitsIcEENS1_9allocatorIcEEEE, 
                       __ZN7Iex_3_18EsrchExcC1Ev, __ZN7Iex_3_18EsrchExcC2EONSt3__112basic_stringIcNS1_11char_traitsIcEENS1_9allocatorIcEEEE, 
                       __ZN7Iex_3_18EsrchExcC2EOS0_, __ZN7Iex_3_18EsrchExcC2EPKc, 
                       __ZN7Iex_3_18EsrchExcC2ERKNSt3__112basic_stringIcNS1_11char_traitsIcEENS1_9allocatorIcEEEE, 
                       __ZN7Iex_3_18EsrchExcC2ERKS0_, __ZN7Iex_3_18EsrchExcC2ERNSt3__118basic_stringstreamIcNS1_11char_traitsIcEENS1_9allocatorIcEEEE, 
                       __ZN7Iex_3_18EsrchExcC2Ev, __ZN7Iex_3_18EsrchExcD0Ev, __ZN7Iex_3_18EsrchExcD1Ev, 
                       __ZN7Iex_3_18EsrchExcD2Ev, __ZN7Iex_3_18EsrchExcaSEOS0_, __ZN7Iex_3_18EsrchExcaSERS0_, 
                       __ZN7Iex_3_18EtimeExcC1EONSt3__112basic_stringIcNS1_11char_traitsIcEENS1_9allocatorIcEEEE, 
                       __ZN7Iex_3_18EtimeExcC1EOS0_, __ZN7Iex_3_18EtimeExcC1EPKc, 
                       __ZN7Iex_3_18EtimeExcC1ERKNSt3__112basic_stringIcNS1_11char_traitsIcEENS1_9allocatorIcEEEE, 
                       __ZN7Iex_3_18EtimeExcC1ERKS0_, __ZN7Iex_3_18EtimeExcC1ERNSt3__118basic_stringstreamIcNS1_11char_traitsIcEENS1_9allocatorIcEEEE, 
                       __ZN7Iex_3_18EtimeExcC1Ev, __ZN7Iex_3_18EtimeExcC2EONSt3__112basic_stringIcNS1_11char_traitsIcEENS1_9allocatorIcEEEE, 
                       __ZN7Iex_3_18EtimeExcC2EOS0_, __ZN7Iex_3_18EtimeExcC2EPKc, 
                       __ZN7Iex_3_18EtimeExcC2ERKNSt3__112basic_stringIcNS1_11char_traitsIcEENS1_9allocatorIcEEEE, 
                       __ZN7Iex_3_18EtimeExcC2ERKS0_, __ZN7Iex_3_18EtimeExcC2ERNSt3__118basic_stringstreamIcNS1_11char_traitsIcEENS1_9allocatorIcEEEE, 
                       __ZN7Iex_3_18EtimeExcC2Ev, __ZN7Iex_3_18EtimeExcD0Ev, __ZN7Iex_3_18EtimeExcD1Ev, 
                       __ZN7Iex_3_18EtimeExcD2Ev, __ZN7Iex_3_18EtimeExcaSEOS0_, __ZN7Iex_3_18EtimeExcaSERS0_, 
                       __ZN7Iex_3_18ExdevExcC1EONSt3__112basic_stringIcNS1_11char_traitsIcEENS1_9allocatorIcEEEE, 
                       __ZN7Iex_3_18ExdevExcC1EOS0_, __ZN7Iex_3_18ExdevExcC1EPKc, 
                       __ZN7Iex_3_18ExdevExcC1ERKNSt3__112basic_stringIcNS1_11char_traitsIcEENS1_9allocatorIcEEEE, 
                       __ZN7Iex_3_18ExdevExcC1ERKS0_, __ZN7Iex_3_18ExdevExcC1ERNSt3__118basic_stringstreamIcNS1_11char_traitsIcEENS1_9allocatorIcEEEE, 
                       __ZN7Iex_3_18ExdevExcC1Ev, __ZN7Iex_3_18ExdevExcC2EONSt3__112basic_stringIcNS1_11char_traitsIcEENS1_9allocatorIcEEEE, 
                       __ZN7Iex_3_18ExdevExcC2EOS0_, __ZN7Iex_3_18ExdevExcC2EPKc, 
                       __ZN7Iex_3_18ExdevExcC2ERKNSt3__112basic_stringIcNS1_11char_traitsIcEENS1_9allocatorIcEEEE, 
                       __ZN7Iex_3_18ExdevExcC2ERKS0_, __ZN7Iex_3_18ExdevExcC2ERNSt3__118basic_stringstreamIcNS1_11char_traitsIcEENS1_9allocatorIcEEEE, 
                       __ZN7Iex_3_18ExdevExcC2Ev, __ZN7Iex_3_18ExdevExcD0Ev, __ZN7Iex_3_18ExdevExcD1Ev, 
                       __ZN7Iex_3_18ExdevExcD2Ev, __ZN7Iex_3_18ExdevExcaSEOS0_, __ZN7Iex_3_18ExdevExcaSERS0_, 
                       __ZN7Iex_3_18InputExcC1EONSt3__112basic_stringIcNS1_11char_traitsIcEENS1_9allocatorIcEEEE, 
                       __ZN7Iex_3_18InputExcC1EOS0_, __ZN7Iex_3_18InputExcC1EPKc, 
                       __ZN7Iex_3_18InputExcC1ERKNSt3__112basic_stringIcNS1_11char_traitsIcEENS1_9allocatorIcEEEE, 
                       __ZN7Iex_3_18InputExcC1ERKS0_, __ZN7Iex_3_18InputExcC1ERNSt3__118basic_stringstreamIcNS1_11char_traitsIcEENS1_9allocatorIcEEEE, 
                       __ZN7Iex_3_18InputExcC1Ev, __ZN7Iex_3_18InputExcC2EONSt3__112basic_stringIcNS1_11char_traitsIcEENS1_9allocatorIcEEEE, 
                       __ZN7Iex_3_18InputExcC2EOS0_, __ZN7Iex_3_18InputExcC2EPKc, 
                       __ZN7Iex_3_18InputExcC2ERKNSt3__112basic_stringIcNS1_11char_traitsIcEENS1_9allocatorIcEEEE, 
                       __ZN7Iex_3_18InputExcC2ERKS0_, __ZN7Iex_3_18InputExcC2ERNSt3__118basic_stringstreamIcNS1_11char_traitsIcEENS1_9allocatorIcEEEE, 
                       __ZN7Iex_3_18InputExcC2Ev, __ZN7Iex_3_18InputExcD0Ev, __ZN7Iex_3_18InputExcD1Ev, 
                       __ZN7Iex_3_18InputExcD2Ev, __ZN7Iex_3_18InputExcaSEOS0_, __ZN7Iex_3_18InputExcaSERS0_, 
                       __ZN7Iex_3_18LogicExcC1EONSt3__112basic_stringIcNS1_11char_traitsIcEENS1_9allocatorIcEEEE, 
                       __ZN7Iex_3_18LogicExcC1EOS0_, __ZN7Iex_3_18LogicExcC1EPKc, 
                       __ZN7Iex_3_18LogicExcC1ERKNSt3__112basic_stringIcNS1_11char_traitsIcEENS1_9allocatorIcEEEE, 
                       __ZN7Iex_3_18LogicExcC1ERKS0_, __ZN7Iex_3_18LogicExcC1ERNSt3__118basic_stringstreamIcNS1_11char_traitsIcEENS1_9allocatorIcEEEE, 
                       __ZN7Iex_3_18LogicExcC1Ev, __ZN7Iex_3_18LogicExcC2EONSt3__112basic_stringIcNS1_11char_traitsIcEENS1_9allocatorIcEEEE, 
                       __ZN7Iex_3_18LogicExcC2EOS0_, __ZN7Iex_3_18LogicExcC2EPKc, 
                       __ZN7Iex_3_18LogicExcC2ERKNSt3__112basic_stringIcNS1_11char_traitsIcEENS1_9allocatorIcEEEE, 
                       __ZN7Iex_3_18LogicExcC2ERKS0_, __ZN7Iex_3_18LogicExcC2ERNSt3__118basic_stringstreamIcNS1_11char_traitsIcEENS1_9allocatorIcEEEE, 
                       __ZN7Iex_3_18LogicExcC2Ev, __ZN7Iex_3_18LogicExcD0Ev, __ZN7Iex_3_18LogicExcD1Ev, 
                       __ZN7Iex_3_18LogicExcD2Ev, __ZN7Iex_3_18LogicExcaSEOS0_, __ZN7Iex_3_18LogicExcaSERS0_, 
                       __ZN7Iex_3_19EaccesExcC1EONSt3__112basic_stringIcNS1_11char_traitsIcEENS1_9allocatorIcEEEE, 
                       __ZN7Iex_3_19EaccesExcC1EOS0_, __ZN7Iex_3_19EaccesExcC1EPKc, 
                       __ZN7Iex_3_19EaccesExcC1ERKNSt3__112basic_stringIcNS1_11char_traitsIcEENS1_9allocatorIcEEEE, 
                       __ZN7Iex_3_19EaccesExcC1ERKS0_, __ZN7Iex_3_19EaccesExcC1ERNSt3__118basic_stringstreamIcNS1_11char_traitsIcEENS1_9allocatorIcEEEE, 
                       __ZN7Iex_3_19EaccesExcC1Ev, __ZN7Iex_3_19EaccesExcC2EONSt3__112basic_stringIcNS1_11char_traitsIcEENS1_9allocatorIcEEEE, 
                       __ZN7Iex_3_19EaccesExcC2EOS0_, __ZN7Iex_3_19EaccesExcC2EPKc, 
                       __ZN7Iex_3_19EaccesExcC2ERKNSt3__112basic_stringIcNS1_11char_traitsIcEENS1_9allocatorIcEEEE, 
                       __ZN7Iex_3_19EaccesExcC2ERKS0_, __ZN7Iex_3_19EaccesExcC2ERNSt3__118basic_stringstreamIcNS1_11char_traitsIcEENS1_9allocatorIcEEEE, 
                       __ZN7Iex_3_19EaccesExcC2Ev, __ZN7Iex_3_19EaccesExcD0Ev, __ZN7Iex_3_19EaccesExcD1Ev, 
                       __ZN7Iex_3_19EaccesExcD2Ev, __ZN7Iex_3_19EaccesExcaSEOS0_, 
                       __ZN7Iex_3_19EaccesExcaSERS0_, __ZN7Iex_3_19EagainExcC1EONSt3__112basic_stringIcNS1_11char_traitsIcEENS1_9allocatorIcEEEE, 
                       __ZN7Iex_3_19EagainExcC1EOS0_, __ZN7Iex_3_19EagainExcC1EPKc, 
                       __ZN7Iex_3_19EagainExcC1ERKNSt3__112basic_stringIcNS1_11char_traitsIcEENS1_9allocatorIcEEEE, 
                       __ZN7Iex_3_19EagainExcC1ERKS0_, __ZN7Iex_3_19EagainExcC1ERNSt3__118basic_stringstreamIcNS1_11char_traitsIcEENS1_9allocatorIcEEEE, 
                       __ZN7Iex_3_19EagainExcC1Ev, __ZN7Iex_3_19EagainExcC2EONSt3__112basic_stringIcNS1_11char_traitsIcEENS1_9allocatorIcEEEE, 
                       __ZN7Iex_3_19EagainExcC2EOS0_, __ZN7Iex_3_19EagainExcC2EPKc, 
                       __ZN7Iex_3_19EagainExcC2ERKNSt3__112basic_stringIcNS1_11char_traitsIcEENS1_9allocatorIcEEEE, 
                       __ZN7Iex_3_19EagainExcC2ERKS0_, __ZN7Iex_3_19EagainExcC2ERNSt3__118basic_stringstreamIcNS1_11char_traitsIcEENS1_9allocatorIcEEEE, 
                       __ZN7Iex_3_19EagainExcC2Ev, __ZN7Iex_3_19EagainExcD0Ev, __ZN7Iex_3_19EagainExcD1Ev, 
                       __ZN7Iex_3_19EagainExcD2Ev, __ZN7Iex_3_19EagainExcaSEOS0_, 
                       __ZN7Iex_3_19EagainExcaSERS0_, __ZN7Iex_3_19EbadfdExcC1EONSt3__112basic_stringIcNS1_11char_traitsIcEENS1_9allocatorIcEEEE, 
                       __ZN7Iex_3_19EbadfdExcC1EOS0_, __ZN7Iex_3_19EbadfdExcC1EPKc, 
                       __ZN7Iex_3_19EbadfdExcC1ERKNSt3__112basic_stringIcNS1_11char_traitsIcEENS1_9allocatorIcEEEE, 
                       __ZN7Iex_3_19EbadfdExcC1ERKS0_, __ZN7Iex_3_19EbadfdExcC1ERNSt3__118basic_stringstreamIcNS1_11char_traitsIcEENS1_9allocatorIcEEEE, 
                       __ZN7Iex_3_19EbadfdExcC1Ev, __ZN7Iex_3_19EbadfdExcC2EONSt3__112basic_stringIcNS1_11char_traitsIcEENS1_9allocatorIcEEEE, 
                       __ZN7Iex_3_19EbadfdExcC2EOS0_, __ZN7Iex_3_19EbadfdExcC2EPKc, 
                       __ZN7Iex_3_19EbadfdExcC2ERKNSt3__112basic_stringIcNS1_11char_traitsIcEENS1_9allocatorIcEEEE, 
                       __ZN7Iex_3_19EbadfdExcC2ERKS0_, __ZN7Iex_3_19EbadfdExcC2ERNSt3__118basic_stringstreamIcNS1_11char_traitsIcEENS1_9allocatorIcEEEE, 
                       __ZN7Iex_3_19EbadfdExcC2Ev, __ZN7Iex_3_19EbadfdExcD0Ev, __ZN7Iex_3_19EbadfdExcD1Ev, 
                       __ZN7Iex_3_19EbadfdExcD2Ev, __ZN7Iex_3_19EbadfdExcaSEOS0_, 
                       __ZN7Iex_3_19EbadfdExcaSERS0_, __ZN7Iex_3_19EbfontExcC1EONSt3__112basic_stringIcNS1_11char_traitsIcEENS1_9allocatorIcEEEE, 
                       __ZN7Iex_3_19EbfontExcC1EOS0_, __ZN7Iex_3_19EbfontExcC1EPKc, 
                       __ZN7Iex_3_19EbfontExcC1ERKNSt3__112basic_stringIcNS1_11char_traitsIcEENS1_9allocatorIcEEEE, 
                       __ZN7Iex_3_19EbfontExcC1ERKS0_, __ZN7Iex_3_19EbfontExcC1ERNSt3__118basic_stringstreamIcNS1_11char_traitsIcEENS1_9allocatorIcEEEE, 
                       __ZN7Iex_3_19EbfontExcC1Ev, __ZN7Iex_3_19EbfontExcC2EONSt3__112basic_stringIcNS1_11char_traitsIcEENS1_9allocatorIcEEEE, 
                       __ZN7Iex_3_19EbfontExcC2EOS0_, __ZN7Iex_3_19EbfontExcC2EPKc, 
                       __ZN7Iex_3_19EbfontExcC2ERKNSt3__112basic_stringIcNS1_11char_traitsIcEENS1_9allocatorIcEEEE, 
                       __ZN7Iex_3_19EbfontExcC2ERKS0_, __ZN7Iex_3_19EbfontExcC2ERNSt3__118basic_stringstreamIcNS1_11char_traitsIcEENS1_9allocatorIcEEEE, 
                       __ZN7Iex_3_19EbfontExcC2Ev, __ZN7Iex_3_19EbfontExcD0Ev, __ZN7Iex_3_19EbfontExcD1Ev, 
                       __ZN7Iex_3_19EbfontExcD2Ev, __ZN7Iex_3_19EbfontExcaSEOS0_, 
                       __ZN7Iex_3_19EbfontExcaSERS0_, __ZN7Iex_3_19EchildExcC1EONSt3__112basic_stringIcNS1_11char_traitsIcEENS1_9allocatorIcEEEE, 
                       __ZN7Iex_3_19EchildExcC1EOS0_, __ZN7Iex_3_19EchildExcC1EPKc, 
                       __ZN7Iex_3_19EchildExcC1ERKNSt3__112basic_stringIcNS1_11char_traitsIcEENS1_9allocatorIcEEEE, 
                       __ZN7Iex_3_19EchildExcC1ERKS0_, __ZN7Iex_3_19EchildExcC1ERNSt3__118basic_stringstreamIcNS1_11char_traitsIcEENS1_9allocatorIcEEEE, 
                       __ZN7Iex_3_19EchildExcC1Ev, __ZN7Iex_3_19EchildExcC2EONSt3__112basic_stringIcNS1_11char_traitsIcEENS1_9allocatorIcEEEE, 
                       __ZN7Iex_3_19EchildExcC2EOS0_, __ZN7Iex_3_19EchildExcC2EPKc, 
                       __ZN7Iex_3_19EchildExcC2ERKNSt3__112basic_stringIcNS1_11char_traitsIcEENS1_9allocatorIcEEEE, 
                       __ZN7Iex_3_19EchildExcC2ERKS0_, __ZN7Iex_3_19EchildExcC2ERNSt3__118basic_stringstreamIcNS1_11char_traitsIcEENS1_9allocatorIcEEEE, 
                       __ZN7Iex_3_19EchildExcC2Ev, __ZN7Iex_3_19EchildExcD0Ev, __ZN7Iex_3_19EchildExcD1Ev, 
                       __ZN7Iex_3_19EchildExcD2Ev, __ZN7Iex_3_19EchildExcaSEOS0_, 
                       __ZN7Iex_3_19EchildExcaSERS0_, __ZN7Iex_3_19EchrngExcC1EONSt3__112basic_stringIcNS1_11char_traitsIcEENS1_9allocatorIcEEEE, 
                       __ZN7Iex_3_19EchrngExcC1EOS0_, __ZN7Iex_3_19EchrngExcC1EPKc, 
                       __ZN7Iex_3_19EchrngExcC1ERKNSt3__112basic_stringIcNS1_11char_traitsIcEENS1_9allocatorIcEEEE, 
                       __ZN7Iex_3_19EchrngExcC1ERKS0_, __ZN7Iex_3_19EchrngExcC1ERNSt3__118basic_stringstreamIcNS1_11char_traitsIcEENS1_9allocatorIcEEEE, 
                       __ZN7Iex_3_19EchrngExcC1Ev, __ZN7Iex_3_19EchrngExcC2EONSt3__112basic_stringIcNS1_11char_traitsIcEENS1_9allocatorIcEEEE, 
                       __ZN7Iex_3_19EchrngExcC2EOS0_, __ZN7Iex_3_19EchrngExcC2EPKc, 
                       __ZN7Iex_3_19EchrngExcC2ERKNSt3__112basic_stringIcNS1_11char_traitsIcEENS1_9allocatorIcEEEE, 
                       __ZN7Iex_3_19EchrngExcC2ERKS0_, __ZN7Iex_3_19EchrngExcC2ERNSt3__118basic_stringstreamIcNS1_11char_traitsIcEENS1_9allocatorIcEEEE, 
                       __ZN7Iex_3_19EchrngExcC2Ev, __ZN7Iex_3_19EchrngExcD0Ev, __ZN7Iex_3_19EchrngExcD1Ev, 
                       __ZN7Iex_3_19EchrngExcD2Ev, __ZN7Iex_3_19EchrngExcaSEOS0_, 
                       __ZN7Iex_3_19EchrngExcaSERS0_, __ZN7Iex_3_19EdquotExcC1EONSt3__112basic_stringIcNS1_11char_traitsIcEENS1_9allocatorIcEEEE, 
                       __ZN7Iex_3_19EdquotExcC1EOS0_, __ZN7Iex_3_19EdquotExcC1EPKc, 
                       __ZN7Iex_3_19EdquotExcC1ERKNSt3__112basic_stringIcNS1_11char_traitsIcEENS1_9allocatorIcEEEE, 
                       __ZN7Iex_3_19EdquotExcC1ERKS0_, __ZN7Iex_3_19EdquotExcC1ERNSt3__118basic_stringstreamIcNS1_11char_traitsIcEENS1_9allocatorIcEEEE, 
                       __ZN7Iex_3_19EdquotExcC1Ev, __ZN7Iex_3_19EdquotExcC2EONSt3__112basic_stringIcNS1_11char_traitsIcEENS1_9allocatorIcEEEE, 
                       __ZN7Iex_3_19EdquotExcC2EOS0_, __ZN7Iex_3_19EdquotExcC2EPKc, 
                       __ZN7Iex_3_19EdquotExcC2ERKNSt3__112basic_stringIcNS1_11char_traitsIcEENS1_9allocatorIcEEEE, 
                       __ZN7Iex_3_19EdquotExcC2ERKS0_, __ZN7Iex_3_19EdquotExcC2ERNSt3__118basic_stringstreamIcNS1_11char_traitsIcEENS1_9allocatorIcEEEE, 
                       __ZN7Iex_3_19EdquotExcC2Ev, __ZN7Iex_3_19EdquotExcD0Ev, __ZN7Iex_3_19EdquotExcD1Ev, 
                       __ZN7Iex_3_19EdquotExcD2Ev, __ZN7Iex_3_19EdquotExcaSEOS0_, 
                       __ZN7Iex_3_19EdquotExcaSERS0_, __ZN7Iex_3_19EemptyExcC1EONSt3__112basic_stringIcNS1_11char_traitsIcEENS1_9allocatorIcEEEE, 
                       __ZN7Iex_3_19EemptyExcC1EOS0_, __ZN7Iex_3_19EemptyExcC1EPKc, 
                       __ZN7Iex_3_19EemptyExcC1ERKNSt3__112basic_stringIcNS1_11char_traitsIcEENS1_9allocatorIcEEEE, 
                       __ZN7Iex_3_19EemptyExcC1ERKS0_, __ZN7Iex_3_19EemptyExcC1ERNSt3__118basic_stringstreamIcNS1_11char_traitsIcEENS1_9allocatorIcEEEE, 
                       __ZN7Iex_3_19EemptyExcC1Ev, __ZN7Iex_3_19EemptyExcC2EONSt3__112basic_stringIcNS1_11char_traitsIcEENS1_9allocatorIcEEEE, 
                       __ZN7Iex_3_19EemptyExcC2EOS0_, __ZN7Iex_3_19EemptyExcC2EPKc, 
                       __ZN7Iex_3_19EemptyExcC2ERKNSt3__112basic_stringIcNS1_11char_traitsIcEENS1_9allocatorIcEEEE, 
                       __ZN7Iex_3_19EemptyExcC2ERKS0_, __ZN7Iex_3_19EemptyExcC2ERNSt3__118basic_stringstreamIcNS1_11char_traitsIcEENS1_9allocatorIcEEEE, 
                       __ZN7Iex_3_19EemptyExcC2Ev, __ZN7Iex_3_19EemptyExcD0Ev, __ZN7Iex_3_19EemptyExcD1Ev, 
                       __ZN7Iex_3_19EemptyExcD2Ev, __ZN7Iex_3_19EemptyExcaSEOS0_, 
                       __ZN7Iex_3_19EemptyExcaSERS0_, __ZN7Iex_3_19EexistExcC1EONSt3__112basic_stringIcNS1_11char_traitsIcEENS1_9allocatorIcEEEE, 
                       __ZN7Iex_3_19EexistExcC1EOS0_, __ZN7Iex_3_19EexistExcC1EPKc, 
                       __ZN7Iex_3_19EexistExcC1ERKNSt3__112basic_stringIcNS1_11char_traitsIcEENS1_9allocatorIcEEEE, 
                       __ZN7Iex_3_19EexistExcC1ERKS0_, __ZN7Iex_3_19EexistExcC1ERNSt3__118basic_stringstreamIcNS1_11char_traitsIcEENS1_9allocatorIcEEEE, 
                       __ZN7Iex_3_19EexistExcC1Ev, __ZN7Iex_3_19EexistExcC2EONSt3__112basic_stringIcNS1_11char_traitsIcEENS1_9allocatorIcEEEE, 
                       __ZN7Iex_3_19EexistExcC2EOS0_, __ZN7Iex_3_19EexistExcC2EPKc, 
                       __ZN7Iex_3_19EexistExcC2ERKNSt3__112basic_stringIcNS1_11char_traitsIcEENS1_9allocatorIcEEEE, 
                       __ZN7Iex_3_19EexistExcC2ERKS0_, __ZN7Iex_3_19EexistExcC2ERNSt3__118basic_stringstreamIcNS1_11char_traitsIcEENS1_9allocatorIcEEEE, 
                       __ZN7Iex_3_19EexistExcC2Ev, __ZN7Iex_3_19EexistExcD0Ev, __ZN7Iex_3_19EexistExcD1Ev, 
                       __ZN7Iex_3_19EexistExcD2Ev, __ZN7Iex_3_19EexistExcaSEOS0_, 
                       __ZN7Iex_3_19EexistExcaSERS0_, __ZN7Iex_3_19EfaultExcC1EONSt3__112basic_stringIcNS1_11char_traitsIcEENS1_9allocatorIcEEEE, 
                       __ZN7Iex_3_19EfaultExcC1EOS0_, __ZN7Iex_3_19EfaultExcC1EPKc, 
                       __ZN7Iex_3_19EfaultExcC1ERKNSt3__112basic_stringIcNS1_11char_traitsIcEENS1_9allocatorIcEEEE, 
                       __ZN7Iex_3_19EfaultExcC1ERKS0_, __ZN7Iex_3_19EfaultExcC1ERNSt3__118basic_stringstreamIcNS1_11char_traitsIcEENS1_9allocatorIcEEEE, 
                       __ZN7Iex_3_19EfaultExcC1Ev, __ZN7Iex_3_19EfaultExcC2EONSt3__112basic_stringIcNS1_11char_traitsIcEENS1_9allocatorIcEEEE, 
                       __ZN7Iex_3_19EfaultExcC2EOS0_, __ZN7Iex_3_19EfaultExcC2EPKc, 
                       __ZN7Iex_3_19EfaultExcC2ERKNSt3__112basic_stringIcNS1_11char_traitsIcEENS1_9allocatorIcEEEE, 
                       __ZN7Iex_3_19EfaultExcC2ERKS0_, __ZN7Iex_3_19EfaultExcC2ERNSt3__118basic_stringstreamIcNS1_11char_traitsIcEENS1_9allocatorIcEEEE, 
                       __ZN7Iex_3_19EfaultExcC2Ev, __ZN7Iex_3_19EfaultExcD0Ev, __ZN7Iex_3_19EfaultExcD1Ev, 
                       __ZN7Iex_3_19EfaultExcD2Ev, __ZN7Iex_3_19EfaultExcaSEOS0_, 
                       __ZN7Iex_3_19EfaultExcaSERS0_, __ZN7Iex_3_19EilseqExcC1EONSt3__112basic_stringIcNS1_11char_traitsIcEENS1_9allocatorIcEEEE, 
                       __ZN7Iex_3_19EilseqExcC1EOS0_, __ZN7Iex_3_19EilseqExcC1EPKc, 
                       __ZN7Iex_3_19EilseqExcC1ERKNSt3__112basic_stringIcNS1_11char_traitsIcEENS1_9allocatorIcEEEE, 
                       __ZN7Iex_3_19EilseqExcC1ERKS0_, __ZN7Iex_3_19EilseqExcC1ERNSt3__118basic_stringstreamIcNS1_11char_traitsIcEENS1_9allocatorIcEEEE, 
                       __ZN7Iex_3_19EilseqExcC1Ev, __ZN7Iex_3_19EilseqExcC2EONSt3__112basic_stringIcNS1_11char_traitsIcEENS1_9allocatorIcEEEE, 
                       __ZN7Iex_3_19EilseqExcC2EOS0_, __ZN7Iex_3_19EilseqExcC2EPKc, 
                       __ZN7Iex_3_19EilseqExcC2ERKNSt3__112basic_stringIcNS1_11char_traitsIcEENS1_9allocatorIcEEEE, 
                       __ZN7Iex_3_19EilseqExcC2ERKS0_, __ZN7Iex_3_19EilseqExcC2ERNSt3__118basic_stringstreamIcNS1_11char_traitsIcEENS1_9allocatorIcEEEE, 
                       __ZN7Iex_3_19EilseqExcC2Ev, __ZN7Iex_3_19EilseqExcD0Ev, __ZN7Iex_3_19EilseqExcD1Ev, 
                       __ZN7Iex_3_19EilseqExcD2Ev, __ZN7Iex_3_19EilseqExcaSEOS0_, 
                       __ZN7Iex_3_19EilseqExcaSERS0_, __ZN7Iex_3_19EinvalExcC1EONSt3__112basic_stringIcNS1_11char_traitsIcEENS1_9allocatorIcEEEE, 
                       __ZN7Iex_3_19EinvalExcC1EOS0_, __ZN7Iex_3_19EinvalExcC1EPKc, 
                       __ZN7Iex_3_19EinvalExcC1ERKNSt3__112basic_stringIcNS1_11char_traitsIcEENS1_9allocatorIcEEEE, 
                       __ZN7Iex_3_19EinvalExcC1ERKS0_, __ZN7Iex_3_19EinvalExcC1ERNSt3__118basic_stringstreamIcNS1_11char_traitsIcEENS1_9allocatorIcEEEE, 
                       __ZN7Iex_3_19EinvalExcC1Ev, __ZN7Iex_3_19EinvalExcC2EONSt3__112basic_stringIcNS1_11char_traitsIcEENS1_9allocatorIcEEEE, 
                       __ZN7Iex_3_19EinvalExcC2EOS0_, __ZN7Iex_3_19EinvalExcC2EPKc, 
                       __ZN7Iex_3_19EinvalExcC2ERKNSt3__112basic_stringIcNS1_11char_traitsIcEENS1_9allocatorIcEEEE, 
                       __ZN7Iex_3_19EinvalExcC2ERKS0_, __ZN7Iex_3_19EinvalExcC2ERNSt3__118basic_stringstreamIcNS1_11char_traitsIcEENS1_9allocatorIcEEEE, 
                       __ZN7Iex_3_19EinvalExcC2Ev, __ZN7Iex_3_19EinvalExcD0Ev, __ZN7Iex_3_19EinvalExcD1Ev, 
                       __ZN7Iex_3_19EinvalExcD2Ev, __ZN7Iex_3_19EinvalExcaSEOS0_, 
                       __ZN7Iex_3_19EinvalExcaSERS0_, __ZN7Iex_3_19EisdirExcC1EONSt3__112basic_stringIcNS1_11char_traitsIcEENS1_9allocatorIcEEEE, 
                       __ZN7Iex_3_19EisdirExcC1EOS0_, __ZN7Iex_3_19EisdirExcC1EPKc, 
                       __ZN7Iex_3_19EisdirExcC1ERKNSt3__112basic_stringIcNS1_11char_traitsIcEENS1_9allocatorIcEEEE, 
                       __ZN7Iex_3_19EisdirExcC1ERKS0_, __ZN7Iex_3_19EisdirExcC1ERNSt3__118basic_stringstreamIcNS1_11char_traitsIcEENS1_9allocatorIcEEEE, 
                       __ZN7Iex_3_19EisdirExcC1Ev, __ZN7Iex_3_19EisdirExcC2EONSt3__112basic_stringIcNS1_11char_traitsIcEENS1_9allocatorIcEEEE, 
                       __ZN7Iex_3_19EisdirExcC2EOS0_, __ZN7Iex_3_19EisdirExcC2EPKc, 
                       __ZN7Iex_3_19EisdirExcC2ERKNSt3__112basic_stringIcNS1_11char_traitsIcEENS1_9allocatorIcEEEE, 
                       __ZN7Iex_3_19EisdirExcC2ERKS0_, __ZN7Iex_3_19EisdirExcC2ERNSt3__118basic_stringstreamIcNS1_11char_traitsIcEENS1_9allocatorIcEEEE, 
                       __ZN7Iex_3_19EisdirExcC2Ev, __ZN7Iex_3_19EisdirExcD0Ev, __ZN7Iex_3_19EisdirExcD1Ev, 
                       __ZN7Iex_3_19EisdirExcD2Ev, __ZN7Iex_3_19EisdirExcaSEOS0_, 
                       __ZN7Iex_3_19EisdirExcaSERS0_, __ZN7Iex_3_19EisnamExcC1EONSt3__112basic_stringIcNS1_11char_traitsIcEENS1_9allocatorIcEEEE, 
                       __ZN7Iex_3_19EisnamExcC1EOS0_, __ZN7Iex_3_19EisnamExcC1EPKc, 
                       __ZN7Iex_3_19EisnamExcC1ERKNSt3__112basic_stringIcNS1_11char_traitsIcEENS1_9allocatorIcEEEE, 
                       __ZN7Iex_3_19EisnamExcC1ERKS0_, __ZN7Iex_3_19EisnamExcC1ERNSt3__118basic_stringstreamIcNS1_11char_traitsIcEENS1_9allocatorIcEEEE, 
                       __ZN7Iex_3_19EisnamExcC1Ev, __ZN7Iex_3_19EisnamExcC2EONSt3__112basic_stringIcNS1_11char_traitsIcEENS1_9allocatorIcEEEE, 
                       __ZN7Iex_3_19EisnamExcC2EOS0_, __ZN7Iex_3_19EisnamExcC2EPKc, 
                       __ZN7Iex_3_19EisnamExcC2ERKNSt3__112basic_stringIcNS1_11char_traitsIcEENS1_9allocatorIcEEEE, 
                       __ZN7Iex_3_19EisnamExcC2ERKS0_, __ZN7Iex_3_19EisnamExcC2ERNSt3__118basic_stringstreamIcNS1_11char_traitsIcEENS1_9allocatorIcEEEE, 
                       __ZN7Iex_3_19EisnamExcC2Ev, __ZN7Iex_3_19EisnamExcD0Ev, __ZN7Iex_3_19EisnamExcD1Ev, 
                       __ZN7Iex_3_19EisnamExcD2Ev, __ZN7Iex_3_19EisnamExcaSEOS0_, 
                       __ZN7Iex_3_19EisnamExcaSERS0_, __ZN7Iex_3_19El2hltExcC1EONSt3__112basic_stringIcNS1_11char_traitsIcEENS1_9allocatorIcEEEE, 
                       __ZN7Iex_3_19El2hltExcC1EOS0_, __ZN7Iex_3_19El2hltExcC1EPKc, 
                       __ZN7Iex_3_19El2hltExcC1ERKNSt3__112basic_stringIcNS1_11char_traitsIcEENS1_9allocatorIcEEEE, 
                       __ZN7Iex_3_19El2hltExcC1ERKS0_, __ZN7Iex_3_19El2hltExcC1ERNSt3__118basic_stringstreamIcNS1_11char_traitsIcEENS1_9allocatorIcEEEE, 
                       __ZN7Iex_3_19El2hltExcC1Ev, __ZN7Iex_3_19El2hltExcC2EONSt3__112basic_stringIcNS1_11char_traitsIcEENS1_9allocatorIcEEEE, 
                       __ZN7Iex_3_19El2hltExcC2EOS0_, __ZN7Iex_3_19El2hltExcC2EPKc, 
                       __ZN7Iex_3_19El2hltExcC2ERKNSt3__112basic_stringIcNS1_11char_traitsIcEENS1_9allocatorIcEEEE, 
                       __ZN7Iex_3_19El2hltExcC2ERKS0_, __ZN7Iex_3_19El2hltExcC2ERNSt3__118basic_stringstreamIcNS1_11char_traitsIcEENS1_9allocatorIcEEEE, 
                       __ZN7Iex_3_19El2hltExcC2Ev, __ZN7Iex_3_19El2hltExcD0Ev, __ZN7Iex_3_19El2hltExcD1Ev, 
                       __ZN7Iex_3_19El2hltExcD2Ev, __ZN7Iex_3_19El2hltExcaSEOS0_, 
                       __ZN7Iex_3_19El2hltExcaSERS0_, __ZN7Iex_3_19El3hltExcC1EONSt3__112basic_stringIcNS1_11char_traitsIcEENS1_9allocatorIcEEEE, 
                       __ZN7Iex_3_19El3hltExcC1EOS0_, __ZN7Iex_3_19El3hltExcC1EPKc, 
                       __ZN7Iex_3_19El3hltExcC1ERKNSt3__112basic_stringIcNS1_11char_traitsIcEENS1_9allocatorIcEEEE, 
                       __ZN7Iex_3_19El3hltExcC1ERKS0_, __ZN7Iex_3_19El3hltExcC1ERNSt3__118basic_stringstreamIcNS1_11char_traitsIcEENS1_9allocatorIcEEEE, 
                       __ZN7Iex_3_19El3hltExcC1Ev, __ZN7Iex_3_19El3hltExcC2EONSt3__112basic_stringIcNS1_11char_traitsIcEENS1_9allocatorIcEEEE, 
                       __ZN7Iex_3_19El3hltExcC2EOS0_, __ZN7Iex_3_19El3hltExcC2EPKc, 
                       __ZN7Iex_3_19El3hltExcC2ERKNSt3__112basic_stringIcNS1_11char_traitsIcEENS1_9allocatorIcEEEE, 
                       __ZN7Iex_3_19El3hltExcC2ERKS0_, __ZN7Iex_3_19El3hltExcC2ERNSt3__118basic_stringstreamIcNS1_11char_traitsIcEENS1_9allocatorIcEEEE, 
                       __ZN7Iex_3_19El3hltExcC2Ev, __ZN7Iex_3_19El3hltExcD0Ev, __ZN7Iex_3_19El3hltExcD1Ev, 
                       __ZN7Iex_3_19El3hltExcD2Ev, __ZN7Iex_3_19El3hltExcaSEOS0_, 
                       __ZN7Iex_3_19El3hltExcaSERS0_, __ZN7Iex_3_19El3rstExcC1EONSt3__112basic_stringIcNS1_11char_traitsIcEENS1_9allocatorIcEEEE, 
                       __ZN7Iex_3_19El3rstExcC1EOS0_, __ZN7Iex_3_19El3rstExcC1EPKc, 
                       __ZN7Iex_3_19El3rstExcC1ERKNSt3__112basic_stringIcNS1_11char_traitsIcEENS1_9allocatorIcEEEE, 
                       __ZN7Iex_3_19El3rstExcC1ERKS0_, __ZN7Iex_3_19El3rstExcC1ERNSt3__118basic_stringstreamIcNS1_11char_traitsIcEENS1_9allocatorIcEEEE, 
                       __ZN7Iex_3_19El3rstExcC1Ev, __ZN7Iex_3_19El3rstExcC2EONSt3__112basic_stringIcNS1_11char_traitsIcEENS1_9allocatorIcEEEE, 
                       __ZN7Iex_3_19El3rstExcC2EOS0_, __ZN7Iex_3_19El3rstExcC2EPKc, 
                       __ZN7Iex_3_19El3rstExcC2ERKNSt3__112basic_stringIcNS1_11char_traitsIcEENS1_9allocatorIcEEEE, 
                       __ZN7Iex_3_19El3rstExcC2ERKS0_, __ZN7Iex_3_19El3rstExcC2ERNSt3__118basic_stringstreamIcNS1_11char_traitsIcEENS1_9allocatorIcEEEE, 
                       __ZN7Iex_3_19El3rstExcC2Ev, __ZN7Iex_3_19El3rstExcD0Ev, __ZN7Iex_3_19El3rstExcD1Ev, 
                       __ZN7Iex_3_19El3rstExcD2Ev, __ZN7Iex_3_19El3rstExcaSEOS0_, 
                       __ZN7Iex_3_19El3rstExcaSERS0_, __ZN7Iex_3_19ElnrngExcC1EONSt3__112basic_stringIcNS1_11char_traitsIcEENS1_9allocatorIcEEEE, 
                       __ZN7Iex_3_19ElnrngExcC1EOS0_, __ZN7Iex_3_19ElnrngExcC1EPKc, 
                       __ZN7Iex_3_19ElnrngExcC1ERKNSt3__112basic_stringIcNS1_11char_traitsIcEENS1_9allocatorIcEEEE, 
                       __ZN7Iex_3_19ElnrngExcC1ERKS0_, __ZN7Iex_3_19ElnrngExcC1ERNSt3__118basic_stringstreamIcNS1_11char_traitsIcEENS1_9allocatorIcEEEE, 
                       __ZN7Iex_3_19ElnrngExcC1Ev, __ZN7Iex_3_19ElnrngExcC2EONSt3__112basic_stringIcNS1_11char_traitsIcEENS1_9allocatorIcEEEE, 
                       __ZN7Iex_3_19ElnrngExcC2EOS0_, __ZN7Iex_3_19ElnrngExcC2EPKc, 
                       __ZN7Iex_3_19ElnrngExcC2ERKNSt3__112basic_stringIcNS1_11char_traitsIcEENS1_9allocatorIcEEEE, 
                       __ZN7Iex_3_19ElnrngExcC2ERKS0_, __ZN7Iex_3_19ElnrngExcC2ERNSt3__118basic_stringstreamIcNS1_11char_traitsIcEENS1_9allocatorIcEEEE, 
                       __ZN7Iex_3_19ElnrngExcC2Ev, __ZN7Iex_3_19ElnrngExcD0Ev, __ZN7Iex_3_19ElnrngExcD1Ev, 
                       __ZN7Iex_3_19ElnrngExcD2Ev, __ZN7Iex_3_19ElnrngExcaSEOS0_, 
                       __ZN7Iex_3_19ElnrngExcaSERS0_, __ZN7Iex_3_19EmfileExcC1EONSt3__112basic_stringIcNS1_11char_traitsIcEENS1_9allocatorIcEEEE, 
                       __ZN7Iex_3_19EmfileExcC1EOS0_, __ZN7Iex_3_19EmfileExcC1EPKc, 
                       __ZN7Iex_3_19EmfileExcC1ERKNSt3__112basic_stringIcNS1_11char_traitsIcEENS1_9allocatorIcEEEE, 
                       __ZN7Iex_3_19EmfileExcC1ERKS0_, __ZN7Iex_3_19EmfileExcC1ERNSt3__118basic_stringstreamIcNS1_11char_traitsIcEENS1_9allocatorIcEEEE, 
                       __ZN7Iex_3_19EmfileExcC1Ev, __ZN7Iex_3_19EmfileExcC2EONSt3__112basic_stringIcNS1_11char_traitsIcEENS1_9allocatorIcEEEE, 
                       __ZN7Iex_3_19EmfileExcC2EOS0_, __ZN7Iex_3_19EmfileExcC2EPKc, 
                       __ZN7Iex_3_19EmfileExcC2ERKNSt3__112basic_stringIcNS1_11char_traitsIcEENS1_9allocatorIcEEEE, 
                       __ZN7Iex_3_19EmfileExcC2ERKS0_, __ZN7Iex_3_19EmfileExcC2ERNSt3__118basic_stringstreamIcNS1_11char_traitsIcEENS1_9allocatorIcEEEE, 
                       __ZN7Iex_3_19EmfileExcC2Ev, __ZN7Iex_3_19EmfileExcD0Ev, __ZN7Iex_3_19EmfileExcD1Ev, 
                       __ZN7Iex_3_19EmfileExcD2Ev, __ZN7Iex_3_19EmfileExcaSEOS0_, 
                       __ZN7Iex_3_19EmfileExcaSERS0_, __ZN7Iex_3_19EmlinkExcC1EONSt3__112basic_stringIcNS1_11char_traitsIcEENS1_9allocatorIcEEEE, 
                       __ZN7Iex_3_19EmlinkExcC1EOS0_, __ZN7Iex_3_19EmlinkExcC1EPKc, 
                       __ZN7Iex_3_19EmlinkExcC1ERKNSt3__112basic_stringIcNS1_11char_traitsIcEENS1_9allocatorIcEEEE, 
                       __ZN7Iex_3_19EmlinkExcC1ERKS0_, __ZN7Iex_3_19EmlinkExcC1ERNSt3__118basic_stringstreamIcNS1_11char_traitsIcEENS1_9allocatorIcEEEE, 
                       __ZN7Iex_3_19EmlinkExcC1Ev, __ZN7Iex_3_19EmlinkExcC2EONSt3__112basic_stringIcNS1_11char_traitsIcEENS1_9allocatorIcEEEE, 
                       __ZN7Iex_3_19EmlinkExcC2EOS0_, __ZN7Iex_3_19EmlinkExcC2EPKc, 
                       __ZN7Iex_3_19EmlinkExcC2ERKNSt3__112basic_stringIcNS1_11char_traitsIcEENS1_9allocatorIcEEEE, 
                       __ZN7Iex_3_19EmlinkExcC2ERKS0_, __ZN7Iex_3_19EmlinkExcC2ERNSt3__118basic_stringstreamIcNS1_11char_traitsIcEENS1_9allocatorIcEEEE, 
                       __ZN7Iex_3_19EmlinkExcC2Ev, __ZN7Iex_3_19EmlinkExcD0Ev, __ZN7Iex_3_19EmlinkExcD1Ev, 
                       __ZN7Iex_3_19EmlinkExcD2Ev, __ZN7Iex_3_19EmlinkExcaSEOS0_, 
                       __ZN7Iex_3_19EmlinkExcaSERS0_, __ZN7Iex_3_19EnfileExcC1EONSt3__112basic_stringIcNS1_11char_traitsIcEENS1_9allocatorIcEEEE, 
                       __ZN7Iex_3_19EnfileExcC1EOS0_, __ZN7Iex_3_19EnfileExcC1EPKc, 
                       __ZN7Iex_3_19EnfileExcC1ERKNSt3__112basic_stringIcNS1_11char_traitsIcEENS1_9allocatorIcEEEE, 
                       __ZN7Iex_3_19EnfileExcC1ERKS0_, __ZN7Iex_3_19EnfileExcC1ERNSt3__118basic_stringstreamIcNS1_11char_traitsIcEENS1_9allocatorIcEEEE, 
                       __ZN7Iex_3_19EnfileExcC1Ev, __ZN7Iex_3_19EnfileExcC2EONSt3__112basic_stringIcNS1_11char_traitsIcEENS1_9allocatorIcEEEE, 
                       __ZN7Iex_3_19EnfileExcC2EOS0_, __ZN7Iex_3_19EnfileExcC2EPKc, 
                       __ZN7Iex_3_19EnfileExcC2ERKNSt3__112basic_stringIcNS1_11char_traitsIcEENS1_9allocatorIcEEEE, 
                       __ZN7Iex_3_19EnfileExcC2ERKS0_, __ZN7Iex_3_19EnfileExcC2ERNSt3__118basic_stringstreamIcNS1_11char_traitsIcEENS1_9allocatorIcEEEE, 
                       __ZN7Iex_3_19EnfileExcC2Ev, __ZN7Iex_3_19EnfileExcD0Ev, __ZN7Iex_3_19EnfileExcD1Ev, 
                       __ZN7Iex_3_19EnfileExcD2Ev, __ZN7Iex_3_19EnfileExcaSEOS0_, 
                       __ZN7Iex_3_19EnfileExcaSERS0_, __ZN7Iex_3_19EnoanoExcC1EONSt3__112basic_stringIcNS1_11char_traitsIcEENS1_9allocatorIcEEEE, 
                       __ZN7Iex_3_19EnoanoExcC1EOS0_, __ZN7Iex_3_19EnoanoExcC1EPKc, 
                       __ZN7Iex_3_19EnoanoExcC1ERKNSt3__112basic_stringIcNS1_11char_traitsIcEENS1_9allocatorIcEEEE, 
                       __ZN7Iex_3_19EnoanoExcC1ERKS0_, __ZN7Iex_3_19EnoanoExcC1ERNSt3__118basic_stringstreamIcNS1_11char_traitsIcEENS1_9allocatorIcEEEE, 
                       __ZN7Iex_3_19EnoanoExcC1Ev, __ZN7Iex_3_19EnoanoExcC2EONSt3__112basic_stringIcNS1_11char_traitsIcEENS1_9allocatorIcEEEE, 
                       __ZN7Iex_3_19EnoanoExcC2EOS0_, __ZN7Iex_3_19EnoanoExcC2EPKc, 
                       __ZN7Iex_3_19EnoanoExcC2ERKNSt3__112basic_stringIcNS1_11char_traitsIcEENS1_9allocatorIcEEEE, 
                       __ZN7Iex_3_19EnoanoExcC2ERKS0_, __ZN7Iex_3_19EnoanoExcC2ERNSt3__118basic_stringstreamIcNS1_11char_traitsIcEENS1_9allocatorIcEEEE, 
                       __ZN7Iex_3_19EnoanoExcC2Ev, __ZN7Iex_3_19EnoanoExcD0Ev, __ZN7Iex_3_19EnoanoExcD1Ev, 
                       __ZN7Iex_3_19EnoanoExcD2Ev, __ZN7Iex_3_19EnoanoExcaSEOS0_, 
                       __ZN7Iex_3_19EnoanoExcaSERS0_, __ZN7Iex_3_19EnocsiExcC1EONSt3__112basic_stringIcNS1_11char_traitsIcEENS1_9allocatorIcEEEE, 
                       __ZN7Iex_3_19EnocsiExcC1EOS0_, __ZN7Iex_3_19EnocsiExcC1EPKc, 
                       __ZN7Iex_3_19EnocsiExcC1ERKNSt3__112basic_stringIcNS1_11char_traitsIcEENS1_9allocatorIcEEEE, 
                       __ZN7Iex_3_19EnocsiExcC1ERKS0_, __ZN7Iex_3_19EnocsiExcC1ERNSt3__118basic_stringstreamIcNS1_11char_traitsIcEENS1_9allocatorIcEEEE, 
                       __ZN7Iex_3_19EnocsiExcC1Ev, __ZN7Iex_3_19EnocsiExcC2EONSt3__112basic_stringIcNS1_11char_traitsIcEENS1_9allocatorIcEEEE, 
                       __ZN7Iex_3_19EnocsiExcC2EOS0_, __ZN7Iex_3_19EnocsiExcC2EPKc, 
                       __ZN7Iex_3_19EnocsiExcC2ERKNSt3__112basic_stringIcNS1_11char_traitsIcEENS1_9allocatorIcEEEE, 
                       __ZN7Iex_3_19EnocsiExcC2ERKS0_, __ZN7Iex_3_19EnocsiExcC2ERNSt3__118basic_stringstreamIcNS1_11char_traitsIcEENS1_9allocatorIcEEEE, 
                       __ZN7Iex_3_19EnocsiExcC2Ev, __ZN7Iex_3_19EnocsiExcD0Ev, __ZN7Iex_3_19EnocsiExcD1Ev, 
                       __ZN7Iex_3_19EnocsiExcD2Ev, __ZN7Iex_3_19EnocsiExcaSEOS0_, 
                       __ZN7Iex_3_19EnocsiExcaSERS0_, __ZN7Iex_3_19EnodevExcC1EONSt3__112basic_stringIcNS1_11char_traitsIcEENS1_9allocatorIcEEEE, 
                       __ZN7Iex_3_19EnodevExcC1EOS0_, __ZN7Iex_3_19EnodevExcC1EPKc, 
                       __ZN7Iex_3_19EnodevExcC1ERKNSt3__112basic_stringIcNS1_11char_traitsIcEENS1_9allocatorIcEEEE, 
                       __ZN7Iex_3_19EnodevExcC1ERKS0_, __ZN7Iex_3_19EnodevExcC1ERNSt3__118basic_stringstreamIcNS1_11char_traitsIcEENS1_9allocatorIcEEEE, 
                       __ZN7Iex_3_19EnodevExcC1Ev, __ZN7Iex_3_19EnodevExcC2EONSt3__112basic_stringIcNS1_11char_traitsIcEENS1_9allocatorIcEEEE, 
                       __ZN7Iex_3_19EnodevExcC2EOS0_, __ZN7Iex_3_19EnodevExcC2EPKc, 
                       __ZN7Iex_3_19EnodevExcC2ERKNSt3__112basic_stringIcNS1_11char_traitsIcEENS1_9allocatorIcEEEE, 
                       __ZN7Iex_3_19EnodevExcC2ERKS0_, __ZN7Iex_3_19EnodevExcC2ERNSt3__118basic_stringstreamIcNS1_11char_traitsIcEENS1_9allocatorIcEEEE, 
                       __ZN7Iex_3_19EnodevExcC2Ev, __ZN7Iex_3_19EnodevExcD0Ev, __ZN7Iex_3_19EnodevExcD1Ev, 
                       __ZN7Iex_3_19EnodevExcD2Ev, __ZN7Iex_3_19EnodevExcaSEOS0_, 
                       __ZN7Iex_3_19EnodevExcaSERS0_, __ZN7Iex_3_19EnoentExcC1EONSt3__112basic_stringIcNS1_11char_traitsIcEENS1_9allocatorIcEEEE, 
                       __ZN7Iex_3_19EnoentExcC1EOS0_, __ZN7Iex_3_19EnoentExcC1EPKc, 
                       __ZN7Iex_3_19EnoentExcC1ERKNSt3__112basic_stringIcNS1_11char_traitsIcEENS1_9allocatorIcEEEE, 
                       __ZN7Iex_3_19EnoentExcC1ERKS0_, __ZN7Iex_3_19EnoentExcC1ERNSt3__118basic_stringstreamIcNS1_11char_traitsIcEENS1_9allocatorIcEEEE, 
                       __ZN7Iex_3_19EnoentExcC1Ev, __ZN7Iex_3_19EnoentExcC2EONSt3__112basic_stringIcNS1_11char_traitsIcEENS1_9allocatorIcEEEE, 
                       __ZN7Iex_3_19EnoentExcC2EOS0_, __ZN7Iex_3_19EnoentExcC2EPKc, 
                       __ZN7Iex_3_19EnoentExcC2ERKNSt3__112basic_stringIcNS1_11char_traitsIcEENS1_9allocatorIcEEEE, 
                       __ZN7Iex_3_19EnoentExcC2ERKS0_, __ZN7Iex_3_19EnoentExcC2ERNSt3__118basic_stringstreamIcNS1_11char_traitsIcEENS1_9allocatorIcEEEE, 
                       __ZN7Iex_3_19EnoentExcC2Ev, __ZN7Iex_3_19EnoentExcD0Ev, __ZN7Iex_3_19EnoentExcD1Ev, 
                       __ZN7Iex_3_19EnoentExcD2Ev, __ZN7Iex_3_19EnoentExcaSEOS0_, 
                       __ZN7Iex_3_19EnoentExcaSERS0_, __ZN7Iex_3_19EnolckExcC1EONSt3__112basic_stringIcNS1_11char_traitsIcEENS1_9allocatorIcEEEE, 
                       __ZN7Iex_3_19EnolckExcC1EOS0_, __ZN7Iex_3_19EnolckExcC1EPKc, 
                       __ZN7Iex_3_19EnolckExcC1ERKNSt3__112basic_stringIcNS1_11char_traitsIcEENS1_9allocatorIcEEEE, 
                       __ZN7Iex_3_19EnolckExcC1ERKS0_, __ZN7Iex_3_19EnolckExcC1ERNSt3__118basic_stringstreamIcNS1_11char_traitsIcEENS1_9allocatorIcEEEE, 
                       __ZN7Iex_3_19EnolckExcC1Ev, __ZN7Iex_3_19EnolckExcC2EONSt3__112basic_stringIcNS1_11char_traitsIcEENS1_9allocatorIcEEEE, 
                       __ZN7Iex_3_19EnolckExcC2EOS0_, __ZN7Iex_3_19EnolckExcC2EPKc, 
                       __ZN7Iex_3_19EnolckExcC2ERKNSt3__112basic_stringIcNS1_11char_traitsIcEENS1_9allocatorIcEEEE, 
                       __ZN7Iex_3_19EnolckExcC2ERKS0_, __ZN7Iex_3_19EnolckExcC2ERNSt3__118basic_stringstreamIcNS1_11char_traitsIcEENS1_9allocatorIcEEEE, 
                       __ZN7Iex_3_19EnolckExcC2Ev, __ZN7Iex_3_19EnolckExcD0Ev, __ZN7Iex_3_19EnolckExcD1Ev, 
                       __ZN7Iex_3_19EnolckExcD2Ev, __ZN7Iex_3_19EnolckExcaSEOS0_, 
                       __ZN7Iex_3_19EnolckExcaSERS0_, __ZN7Iex_3_19EnomemExcC1EONSt3__112basic_stringIcNS1_11char_traitsIcEENS1_9allocatorIcEEEE, 
                       __ZN7Iex_3_19EnomemExcC1EOS0_, __ZN7Iex_3_19EnomemExcC1EPKc, 
                       __ZN7Iex_3_19EnomemExcC1ERKNSt3__112basic_stringIcNS1_11char_traitsIcEENS1_9allocatorIcEEEE, 
                       __ZN7Iex_3_19EnomemExcC1ERKS0_, __ZN7Iex_3_19EnomemExcC1ERNSt3__118basic_stringstreamIcNS1_11char_traitsIcEENS1_9allocatorIcEEEE, 
                       __ZN7Iex_3_19EnomemExcC1Ev, __ZN7Iex_3_19EnomemExcC2EONSt3__112basic_stringIcNS1_11char_traitsIcEENS1_9allocatorIcEEEE, 
                       __ZN7Iex_3_19EnomemExcC2EOS0_, __ZN7Iex_3_19EnomemExcC2EPKc, 
                       __ZN7Iex_3_19EnomemExcC2ERKNSt3__112basic_stringIcNS1_11char_traitsIcEENS1_9allocatorIcEEEE, 
                       __ZN7Iex_3_19EnomemExcC2ERKS0_, __ZN7Iex_3_19EnomemExcC2ERNSt3__118basic_stringstreamIcNS1_11char_traitsIcEENS1_9allocatorIcEEEE, 
                       __ZN7Iex_3_19EnomemExcC2Ev, __ZN7Iex_3_19EnomemExcD0Ev, __ZN7Iex_3_19EnomemExcD1Ev, 
                       __ZN7Iex_3_19EnomemExcD2Ev, __ZN7Iex_3_19EnomemExcaSEOS0_, 
                       __ZN7Iex_3_19EnomemExcaSERS0_, __ZN7Iex_3_19EnomsgExcC1EONSt3__112basic_stringIcNS1_11char_traitsIcEENS1_9allocatorIcEEEE, 
                       __ZN7Iex_3_19EnomsgExcC1EOS0_, __ZN7Iex_3_19EnomsgExcC1EPKc, 
                       __ZN7Iex_3_19EnomsgExcC1ERKNSt3__112basic_stringIcNS1_11char_traitsIcEENS1_9allocatorIcEEEE, 
                       __ZN7Iex_3_19EnomsgExcC1ERKS0_, __ZN7Iex_3_19EnomsgExcC1ERNSt3__118basic_stringstreamIcNS1_11char_traitsIcEENS1_9allocatorIcEEEE, 
                       __ZN7Iex_3_19EnomsgExcC1Ev, __ZN7Iex_3_19EnomsgExcC2EONSt3__112basic_stringIcNS1_11char_traitsIcEENS1_9allocatorIcEEEE, 
                       __ZN7Iex_3_19EnomsgExcC2EOS0_, __ZN7Iex_3_19EnomsgExcC2EPKc, 
                       __ZN7Iex_3_19EnomsgExcC2ERKNSt3__112basic_stringIcNS1_11char_traitsIcEENS1_9allocatorIcEEEE, 
                       __ZN7Iex_3_19EnomsgExcC2ERKS0_, __ZN7Iex_3_19EnomsgExcC2ERNSt3__118basic_stringstreamIcNS1_11char_traitsIcEENS1_9allocatorIcEEEE, 
                       __ZN7Iex_3_19EnomsgExcC2Ev, __ZN7Iex_3_19EnomsgExcD0Ev, __ZN7Iex_3_19EnomsgExcD1Ev, 
                       __ZN7Iex_3_19EnomsgExcD2Ev, __ZN7Iex_3_19EnomsgExcaSEOS0_, 
                       __ZN7Iex_3_19EnomsgExcaSERS0_, __ZN7Iex_3_19EnonetExcC1EONSt3__112basic_stringIcNS1_11char_traitsIcEENS1_9allocatorIcEEEE, 
                       __ZN7Iex_3_19EnonetExcC1EOS0_, __ZN7Iex_3_19EnonetExcC1EPKc, 
                       __ZN7Iex_3_19EnonetExcC1ERKNSt3__112basic_stringIcNS1_11char_traitsIcEENS1_9allocatorIcEEEE, 
                       __ZN7Iex_3_19EnonetExcC1ERKS0_, __ZN7Iex_3_19EnonetExcC1ERNSt3__118basic_stringstreamIcNS1_11char_traitsIcEENS1_9allocatorIcEEEE, 
                       __ZN7Iex_3_19EnonetExcC1Ev, __ZN7Iex_3_19EnonetExcC2EONSt3__112basic_stringIcNS1_11char_traitsIcEENS1_9allocatorIcEEEE, 
                       __ZN7Iex_3_19EnonetExcC2EOS0_, __ZN7Iex_3_19EnonetExcC2EPKc, 
                       __ZN7Iex_3_19EnonetExcC2ERKNSt3__112basic_stringIcNS1_11char_traitsIcEENS1_9allocatorIcEEEE, 
                       __ZN7Iex_3_19EnonetExcC2ERKS0_, __ZN7Iex_3_19EnonetExcC2ERNSt3__118basic_stringstreamIcNS1_11char_traitsIcEENS1_9allocatorIcEEEE, 
                       __ZN7Iex_3_19EnonetExcC2Ev, __ZN7Iex_3_19EnonetExcD0Ev, __ZN7Iex_3_19EnonetExcD1Ev, 
                       __ZN7Iex_3_19EnonetExcD2Ev, __ZN7Iex_3_19EnonetExcaSEOS0_, 
                       __ZN7Iex_3_19EnonetExcaSERS0_, __ZN7Iex_3_19EnopkgExcC1EONSt3__112basic_stringIcNS1_11char_traitsIcEENS1_9allocatorIcEEEE, 
                       __ZN7Iex_3_19EnopkgExcC1EOS0_, __ZN7Iex_3_19EnopkgExcC1EPKc, 
                       __ZN7Iex_3_19EnopkgExcC1ERKNSt3__112basic_stringIcNS1_11char_traitsIcEENS1_9allocatorIcEEEE, 
                       __ZN7Iex_3_19EnopkgExcC1ERKS0_, __ZN7Iex_3_19EnopkgExcC1ERNSt3__118basic_stringstreamIcNS1_11char_traitsIcEENS1_9allocatorIcEEEE, 
                       __ZN7Iex_3_19EnopkgExcC1Ev, __ZN7Iex_3_19EnopkgExcC2EONSt3__112basic_stringIcNS1_11char_traitsIcEENS1_9allocatorIcEEEE, 
                       __ZN7Iex_3_19EnopkgExcC2EOS0_, __ZN7Iex_3_19EnopkgExcC2EPKc, 
                       __ZN7Iex_3_19EnopkgExcC2ERKNSt3__112basic_stringIcNS1_11char_traitsIcEENS1_9allocatorIcEEEE, 
                       __ZN7Iex_3_19EnopkgExcC2ERKS0_, __ZN7Iex_3_19EnopkgExcC2ERNSt3__118basic_stringstreamIcNS1_11char_traitsIcEENS1_9allocatorIcEEEE, 
                       __ZN7Iex_3_19EnopkgExcC2Ev, __ZN7Iex_3_19EnopkgExcD0Ev, __ZN7Iex_3_19EnopkgExcD1Ev, 
                       __ZN7Iex_3_19EnopkgExcD2Ev, __ZN7Iex_3_19EnopkgExcaSEOS0_, 
                       __ZN7Iex_3_19EnopkgExcaSERS0_, __ZN7Iex_3_19EnospcExcC1EONSt3__112basic_stringIcNS1_11char_traitsIcEENS1_9allocatorIcEEEE, 
                       __ZN7Iex_3_19EnospcExcC1EOS0_, __ZN7Iex_3_19EnospcExcC1EPKc, 
                       __ZN7Iex_3_19EnospcExcC1ERKNSt3__112basic_stringIcNS1_11char_traitsIcEENS1_9allocatorIcEEEE, 
                       __ZN7Iex_3_19EnospcExcC1ERKS0_, __ZN7Iex_3_19EnospcExcC1ERNSt3__118basic_stringstreamIcNS1_11char_traitsIcEENS1_9allocatorIcEEEE, 
                       __ZN7Iex_3_19EnospcExcC1Ev, __ZN7Iex_3_19EnospcExcC2EONSt3__112basic_stringIcNS1_11char_traitsIcEENS1_9allocatorIcEEEE, 
                       __ZN7Iex_3_19EnospcExcC2EOS0_, __ZN7Iex_3_19EnospcExcC2EPKc, 
                       __ZN7Iex_3_19EnospcExcC2ERKNSt3__112basic_stringIcNS1_11char_traitsIcEENS1_9allocatorIcEEEE, 
                       __ZN7Iex_3_19EnospcExcC2ERKS0_, __ZN7Iex_3_19EnospcExcC2ERNSt3__118basic_stringstreamIcNS1_11char_traitsIcEENS1_9allocatorIcEEEE, 
                       __ZN7Iex_3_19EnospcExcC2Ev, __ZN7Iex_3_19EnospcExcD0Ev, __ZN7Iex_3_19EnospcExcD1Ev, 
                       __ZN7Iex_3_19EnospcExcD2Ev, __ZN7Iex_3_19EnospcExcaSEOS0_, 
                       __ZN7Iex_3_19EnospcExcaSERS0_, __ZN7Iex_3_19EnostrExcC1EONSt3__112basic_stringIcNS1_11char_traitsIcEENS1_9allocatorIcEEEE, 
                       __ZN7Iex_3_19EnostrExcC1EOS0_, __ZN7Iex_3_19EnostrExcC1EPKc, 
                       __ZN7Iex_3_19EnostrExcC1ERKNSt3__112basic_stringIcNS1_11char_traitsIcEENS1_9allocatorIcEEEE, 
                       __ZN7Iex_3_19EnostrExcC1ERKS0_, __ZN7Iex_3_19EnostrExcC1ERNSt3__118basic_stringstreamIcNS1_11char_traitsIcEENS1_9allocatorIcEEEE, 
                       __ZN7Iex_3_19EnostrExcC1Ev, __ZN7Iex_3_19EnostrExcC2EONSt3__112basic_stringIcNS1_11char_traitsIcEENS1_9allocatorIcEEEE, 
                       __ZN7Iex_3_19EnostrExcC2EOS0_, __ZN7Iex_3_19EnostrExcC2EPKc, 
                       __ZN7Iex_3_19EnostrExcC2ERKNSt3__112basic_stringIcNS1_11char_traitsIcEENS1_9allocatorIcEEEE, 
                       __ZN7Iex_3_19EnostrExcC2ERKS0_, __ZN7Iex_3_19EnostrExcC2ERNSt3__118basic_stringstreamIcNS1_11char_traitsIcEENS1_9allocatorIcEEEE, 
                       __ZN7Iex_3_19EnostrExcC2Ev, __ZN7Iex_3_19EnostrExcD0Ev, __ZN7Iex_3_19EnostrExcD1Ev, 
                       __ZN7Iex_3_19EnostrExcD2Ev, __ZN7Iex_3_19EnostrExcaSEOS0_, 
                       __ZN7Iex_3_19EnostrExcaSERS0_, __ZN7Iex_3_19EnosysExcC1EONSt3__112basic_stringIcNS1_11char_traitsIcEENS1_9allocatorIcEEEE, 
                       __ZN7Iex_3_19EnosysExcC1EOS0_, __ZN7Iex_3_19EnosysExcC1EPKc, 
                       __ZN7Iex_3_19EnosysExcC1ERKNSt3__112basic_stringIcNS1_11char_traitsIcEENS1_9allocatorIcEEEE, 
                       __ZN7Iex_3_19EnosysExcC1ERKS0_, __ZN7Iex_3_19EnosysExcC1ERNSt3__118basic_stringstreamIcNS1_11char_traitsIcEENS1_9allocatorIcEEEE, 
                       __ZN7Iex_3_19EnosysExcC1Ev, __ZN7Iex_3_19EnosysExcC2EONSt3__112basic_stringIcNS1_11char_traitsIcEENS1_9allocatorIcEEEE, 
                       __ZN7Iex_3_19EnosysExcC2EOS0_, __ZN7Iex_3_19EnosysExcC2EPKc, 
                       __ZN7Iex_3_19EnosysExcC2ERKNSt3__112basic_stringIcNS1_11char_traitsIcEENS1_9allocatorIcEEEE, 
                       __ZN7Iex_3_19EnosysExcC2ERKS0_, __ZN7Iex_3_19EnosysExcC2ERNSt3__118basic_stringstreamIcNS1_11char_traitsIcEENS1_9allocatorIcEEEE, 
                       __ZN7Iex_3_19EnosysExcC2Ev, __ZN7Iex_3_19EnosysExcD0Ev, __ZN7Iex_3_19EnosysExcD1Ev, 
                       __ZN7Iex_3_19EnosysExcD2Ev, __ZN7Iex_3_19EnosysExcaSEOS0_, 
                       __ZN7Iex_3_19EnosysExcaSERS0_, __ZN7Iex_3_19EnottyExcC1EONSt3__112basic_stringIcNS1_11char_traitsIcEENS1_9allocatorIcEEEE, 
                       __ZN7Iex_3_19EnottyExcC1EOS0_, __ZN7Iex_3_19EnottyExcC1EPKc, 
                       __ZN7Iex_3_19EnottyExcC1ERKNSt3__112basic_stringIcNS1_11char_traitsIcEENS1_9allocatorIcEEEE, 
                       __ZN7Iex_3_19EnottyExcC1ERKS0_, __ZN7Iex_3_19EnottyExcC1ERNSt3__118basic_stringstreamIcNS1_11char_traitsIcEENS1_9allocatorIcEEEE, 
                       __ZN7Iex_3_19EnottyExcC1Ev, __ZN7Iex_3_19EnottyExcC2EONSt3__112basic_stringIcNS1_11char_traitsIcEENS1_9allocatorIcEEEE, 
                       __ZN7Iex_3_19EnottyExcC2EOS0_, __ZN7Iex_3_19EnottyExcC2EPKc, 
                       __ZN7Iex_3_19EnottyExcC2ERKNSt3__112basic_stringIcNS1_11char_traitsIcEENS1_9allocatorIcEEEE, 
                       __ZN7Iex_3_19EnottyExcC2ERKS0_, __ZN7Iex_3_19EnottyExcC2ERNSt3__118basic_stringstreamIcNS1_11char_traitsIcEENS1_9allocatorIcEEEE, 
                       __ZN7Iex_3_19EnottyExcC2Ev, __ZN7Iex_3_19EnottyExcD0Ev, __ZN7Iex_3_19EnottyExcD1Ev, 
                       __ZN7Iex_3_19EnottyExcD2Ev, __ZN7Iex_3_19EnottyExcaSEOS0_, 
                       __ZN7Iex_3_19EnottyExcaSERS0_, __ZN7Iex_3_19EprotoExcC1EONSt3__112basic_stringIcNS1_11char_traitsIcEENS1_9allocatorIcEEEE, 
                       __ZN7Iex_3_19EprotoExcC1EOS0_, __ZN7Iex_3_19EprotoExcC1EPKc, 
                       __ZN7Iex_3_19EprotoExcC1ERKNSt3__112basic_stringIcNS1_11char_traitsIcEENS1_9allocatorIcEEEE, 
                       __ZN7Iex_3_19EprotoExcC1ERKS0_, __ZN7Iex_3_19EprotoExcC1ERNSt3__118basic_stringstreamIcNS1_11char_traitsIcEENS1_9allocatorIcEEEE, 
                       __ZN7Iex_3_19EprotoExcC1Ev, __ZN7Iex_3_19EprotoExcC2EONSt3__112basic_stringIcNS1_11char_traitsIcEENS1_9allocatorIcEEEE, 
                       __ZN7Iex_3_19EprotoExcC2EOS0_, __ZN7Iex_3_19EprotoExcC2EPKc, 
                       __ZN7Iex_3_19EprotoExcC2ERKNSt3__112basic_stringIcNS1_11char_traitsIcEENS1_9allocatorIcEEEE, 
                       __ZN7Iex_3_19EprotoExcC2ERKS0_, __ZN7Iex_3_19EprotoExcC2ERNSt3__118basic_stringstreamIcNS1_11char_traitsIcEENS1_9allocatorIcEEEE, 
                       __ZN7Iex_3_19EprotoExcC2Ev, __ZN7Iex_3_19EprotoExcD0Ev, __ZN7Iex_3_19EprotoExcD1Ev, 
                       __ZN7Iex_3_19EprotoExcD2Ev, __ZN7Iex_3_19EprotoExcaSEOS0_, 
                       __ZN7Iex_3_19EprotoExcaSERS0_, __ZN7Iex_3_19ErangeExcC1EONSt3__112basic_stringIcNS1_11char_traitsIcEENS1_9allocatorIcEEEE, 
                       __ZN7Iex_3_19ErangeExcC1EOS0_, __ZN7Iex_3_19ErangeExcC1EPKc, 
                       __ZN7Iex_3_19ErangeExcC1ERKNSt3__112basic_stringIcNS1_11char_traitsIcEENS1_9allocatorIcEEEE, 
                       __ZN7Iex_3_19ErangeExcC1ERKS0_, __ZN7Iex_3_19ErangeExcC1ERNSt3__118basic_stringstreamIcNS1_11char_traitsIcEENS1_9allocatorIcEEEE, 
                       __ZN7Iex_3_19ErangeExcC1Ev, __ZN7Iex_3_19ErangeExcC2EONSt3__112basic_stringIcNS1_11char_traitsIcEENS1_9allocatorIcEEEE, 
                       __ZN7Iex_3_19ErangeExcC2EOS0_, __ZN7Iex_3_19ErangeExcC2EPKc, 
                       __ZN7Iex_3_19ErangeExcC2ERKNSt3__112basic_stringIcNS1_11char_traitsIcEENS1_9allocatorIcEEEE, 
                       __ZN7Iex_3_19ErangeExcC2ERKS0_, __ZN7Iex_3_19ErangeExcC2ERNSt3__118basic_stringstreamIcNS1_11char_traitsIcEENS1_9allocatorIcEEEE, 
                       __ZN7Iex_3_19ErangeExcC2Ev, __ZN7Iex_3_19ErangeExcD0Ev, __ZN7Iex_3_19ErangeExcD1Ev, 
                       __ZN7Iex_3_19ErangeExcD2Ev, __ZN7Iex_3_19ErangeExcaSEOS0_, 
                       __ZN7Iex_3_19ErangeExcaSERS0_, __ZN7Iex_3_19EspipeExcC1EONSt3__112basic_stringIcNS1_11char_traitsIcEENS1_9allocatorIcEEEE, 
                       __ZN7Iex_3_19EspipeExcC1EOS0_, __ZN7Iex_3_19EspipeExcC1EPKc, 
                       __ZN7Iex_3_19EspipeExcC1ERKNSt3__112basic_stringIcNS1_11char_traitsIcEENS1_9allocatorIcEEEE, 
                       __ZN7Iex_3_19EspipeExcC1ERKS0_, __ZN7Iex_3_19EspipeExcC1ERNSt3__118basic_stringstreamIcNS1_11char_traitsIcEENS1_9allocatorIcEEEE, 
                       __ZN7Iex_3_19EspipeExcC1Ev, __ZN7Iex_3_19EspipeExcC2EONSt3__112basic_stringIcNS1_11char_traitsIcEENS1_9allocatorIcEEEE, 
                       __ZN7Iex_3_19EspipeExcC2EOS0_, __ZN7Iex_3_19EspipeExcC2EPKc, 
                       __ZN7Iex_3_19EspipeExcC2ERKNSt3__112basic_stringIcNS1_11char_traitsIcEENS1_9allocatorIcEEEE, 
                       __ZN7Iex_3_19EspipeExcC2ERKS0_, __ZN7Iex_3_19EspipeExcC2ERNSt3__118basic_stringstreamIcNS1_11char_traitsIcEENS1_9allocatorIcEEEE, 
                       __ZN7Iex_3_19EspipeExcC2Ev, __ZN7Iex_3_19EspipeExcD0Ev, __ZN7Iex_3_19EspipeExcD1Ev, 
                       __ZN7Iex_3_19EspipeExcD2Ev, __ZN7Iex_3_19EspipeExcaSEOS0_, 
                       __ZN7Iex_3_19EspipeExcaSERS0_, __ZN7Iex_3_19EsrmntExcC1EONSt3__112basic_stringIcNS1_11char_traitsIcEENS1_9allocatorIcEEEE, 
                       __ZN7Iex_3_19EsrmntExcC1EOS0_, __ZN7Iex_3_19EsrmntExcC1EPKc, 
                       __ZN7Iex_3_19EsrmntExcC1ERKNSt3__112basic_stringIcNS1_11char_traitsIcEENS1_9allocatorIcEEEE, 
                       __ZN7Iex_3_19EsrmntExcC1ERKS0_, __ZN7Iex_3_19EsrmntExcC1ERNSt3__118basic_stringstreamIcNS1_11char_traitsIcEENS1_9allocatorIcEEEE, 
                       __ZN7Iex_3_19EsrmntExcC1Ev, __ZN7Iex_3_19EsrmntExcC2EONSt3__112basic_stringIcNS1_11char_traitsIcEENS1_9allocatorIcEEEE, 
                       __ZN7Iex_3_19EsrmntExcC2EOS0_, __ZN7Iex_3_19EsrmntExcC2EPKc, 
                       __ZN7Iex_3_19EsrmntExcC2ERKNSt3__112basic_stringIcNS1_11char_traitsIcEENS1_9allocatorIcEEEE, 
                       __ZN7Iex_3_19EsrmntExcC2ERKS0_, __ZN7Iex_3_19EsrmntExcC2ERNSt3__118basic_stringstreamIcNS1_11char_traitsIcEENS1_9allocatorIcEEEE, 
                       __ZN7Iex_3_19EsrmntExcC2Ev, __ZN7Iex_3_19EsrmntExcD0Ev, __ZN7Iex_3_19EsrmntExcD1Ev, 
                       __ZN7Iex_3_19EsrmntExcD2Ev, __ZN7Iex_3_19EsrmntExcaSEOS0_, 
                       __ZN7Iex_3_19EsrmntExcaSERS0_, __ZN7Iex_3_19EstaleExcC1EONSt3__112basic_stringIcNS1_11char_traitsIcEENS1_9allocatorIcEEEE, 
                       __ZN7Iex_3_19EstaleExcC1EOS0_, __ZN7Iex_3_19EstaleExcC1EPKc, 
                       __ZN7Iex_3_19EstaleExcC1ERKNSt3__112basic_stringIcNS1_11char_traitsIcEENS1_9allocatorIcEEEE, 
                       __ZN7Iex_3_19EstaleExcC1ERKS0_, __ZN7Iex_3_19EstaleExcC1ERNSt3__118basic_stringstreamIcNS1_11char_traitsIcEENS1_9allocatorIcEEEE, 
                       __ZN7Iex_3_19EstaleExcC1Ev, __ZN7Iex_3_19EstaleExcC2EONSt3__112basic_stringIcNS1_11char_traitsIcEENS1_9allocatorIcEEEE, 
                       __ZN7Iex_3_19EstaleExcC2EOS0_, __ZN7Iex_3_19EstaleExcC2EPKc, 
                       __ZN7Iex_3_19EstaleExcC2ERKNSt3__112basic_stringIcNS1_11char_traitsIcEENS1_9allocatorIcEEEE, 
                       __ZN7Iex_3_19EstaleExcC2ERKS0_, __ZN7Iex_3_19EstaleExcC2ERNSt3__118basic_stringstreamIcNS1_11char_traitsIcEENS1_9allocatorIcEEEE, 
                       __ZN7Iex_3_19EstaleExcC2Ev, __ZN7Iex_3_19EstaleExcD0Ev, __ZN7Iex_3_19EstaleExcD1Ev, 
                       __ZN7Iex_3_19EstaleExcD2Ev, __ZN7Iex_3_19EstaleExcaSEOS0_, 
                       __ZN7Iex_3_19EstaleExcaSERS0_, __ZN7Iex_3_19EusersExcC1EONSt3__112basic_stringIcNS1_11char_traitsIcEENS1_9allocatorIcEEEE, 
                       __ZN7Iex_3_19EusersExcC1EOS0_, __ZN7Iex_3_19EusersExcC1EPKc, 
                       __ZN7Iex_3_19EusersExcC1ERKNSt3__112basic_stringIcNS1_11char_traitsIcEENS1_9allocatorIcEEEE, 
                       __ZN7Iex_3_19EusersExcC1ERKS0_, __ZN7Iex_3_19EusersExcC1ERNSt3__118basic_stringstreamIcNS1_11char_traitsIcEENS1_9allocatorIcEEEE, 
                       __ZN7Iex_3_19EusersExcC1Ev, __ZN7Iex_3_19EusersExcC2EONSt3__112basic_stringIcNS1_11char_traitsIcEENS1_9allocatorIcEEEE, 
                       __ZN7Iex_3_19EusersExcC2EOS0_, __ZN7Iex_3_19EusersExcC2EPKc, 
                       __ZN7Iex_3_19EusersExcC2ERKNSt3__112basic_stringIcNS1_11char_traitsIcEENS1_9allocatorIcEEEE, 
                       __ZN7Iex_3_19EusersExcC2ERKS0_, __ZN7Iex_3_19EusersExcC2ERNSt3__118basic_stringstreamIcNS1_11char_traitsIcEENS1_9allocatorIcEEEE, 
                       __ZN7Iex_3_19EusersExcC2Ev, __ZN7Iex_3_19EusersExcD0Ev, __ZN7Iex_3_19EusersExcD1Ev, 
                       __ZN7Iex_3_19EusersExcD2Ev, __ZN7Iex_3_19EusersExcaSEOS0_, 
                       __ZN7Iex_3_19EusersExcaSERS0_, __ZN7Iex_3_19ExfullExcC1EONSt3__112basic_stringIcNS1_11char_traitsIcEENS1_9allocatorIcEEEE, 
                       __ZN7Iex_3_19ExfullExcC1EOS0_, __ZN7Iex_3_19ExfullExcC1EPKc, 
                       __ZN7Iex_3_19ExfullExcC1ERKNSt3__112basic_stringIcNS1_11char_traitsIcEENS1_9allocatorIcEEEE, 
                       __ZN7Iex_3_19ExfullExcC1ERKS0_, __ZN7Iex_3_19ExfullExcC1ERNSt3__118basic_stringstreamIcNS1_11char_traitsIcEENS1_9allocatorIcEEEE, 
                       __ZN7Iex_3_19ExfullExcC1Ev, __ZN7Iex_3_19ExfullExcC2EONSt3__112basic_stringIcNS1_11char_traitsIcEENS1_9allocatorIcEEEE, 
                       __ZN7Iex_3_19ExfullExcC2EOS0_, __ZN7Iex_3_19ExfullExcC2EPKc, 
                       __ZN7Iex_3_19ExfullExcC2ERKNSt3__112basic_stringIcNS1_11char_traitsIcEENS1_9allocatorIcEEEE, 
                       __ZN7Iex_3_19ExfullExcC2ERKS0_, __ZN7Iex_3_19ExfullExcC2ERNSt3__118basic_stringstreamIcNS1_11char_traitsIcEENS1_9allocatorIcEEEE, 
                       __ZN7Iex_3_19ExfullExcC2Ev, __ZN7Iex_3_19ExfullExcD0Ev, __ZN7Iex_3_19ExfullExcD1Ev, 
                       __ZN7Iex_3_19ExfullExcD2Ev, __ZN7Iex_3_19ExfullExcaSEOS0_, 
                       __ZN7Iex_3_19ExfullExcaSERS0_, __ZN7Iex_3_19MathExcOn27handleOutstandingExceptionsEv, 
                       __ZN7Iex_3_19MathExcOnC1Ei, __ZN7Iex_3_19MathExcOnC2Ei, __ZN7Iex_3_19MathExcOnD1Ev, 
                       __ZN7Iex_3_19MathExcOnD2Ev, __ZN7Iex_3_19NoImplExcC1EONSt3__112basic_stringIcNS1_11char_traitsIcEENS1_9allocatorIcEEEE, 
                       __ZN7Iex_3_19NoImplExcC1EOS0_, __ZN7Iex_3_19NoImplExcC1EPKc, 
                       __ZN7Iex_3_19NoImplExcC1ERKNSt3__112basic_stringIcNS1_11char_traitsIcEENS1_9allocatorIcEEEE, 
                       __ZN7Iex_3_19NoImplExcC1ERKS0_, __ZN7Iex_3_19NoImplExcC1ERNSt3__118basic_stringstreamIcNS1_11char_traitsIcEENS1_9allocatorIcEEEE, 
                       __ZN7Iex_3_19NoImplExcC1Ev, __ZN7Iex_3_19NoImplExcC2EONSt3__112basic_stringIcNS1_11char_traitsIcEENS1_9allocatorIcEEEE, 
                       __ZN7Iex_3_19NoImplExcC2EOS0_, __ZN7Iex_3_19NoImplExcC2EPKc, 
                       __ZN7Iex_3_19NoImplExcC2ERKNSt3__112basic_stringIcNS1_11char_traitsIcEENS1_9allocatorIcEEEE, 
                       __ZN7Iex_3_19NoImplExcC2ERKS0_, __ZN7Iex_3_19NoImplExcC2ERNSt3__118basic_stringstreamIcNS1_11char_traitsIcEENS1_9allocatorIcEEEE, 
                       __ZN7Iex_3_19NoImplExcC2Ev, __ZN7Iex_3_19NoImplExcD0Ev, __ZN7Iex_3_19NoImplExcD1Ev, 
                       __ZN7Iex_3_19NoImplExcD2Ev, __ZN7Iex_3_19NoImplExcaSEOS0_, 
                       __ZN7Iex_3_19NoImplExcaSERS0_, __ZN7Iex_3_19mathExcOnEi, __ZNK7Iex_3_17BaseExc10stackTraceEv, 
                       __ZNK7Iex_3_17BaseExc4whatEv, __ZNK7Iex_3_17BaseExc7messageEv, 
                       __ZTIN7Iex_3_110DivzeroExcE, __ZTIN7Iex_3_110EbadmsgExcE, 
                       __ZTIN7Iex_3_110EbadrqcExcE, __ZTIN7Iex_3_110EbadsltExcE, 
                       __ZTIN7Iex_3_110EdeadlkExcE, __ZTIN7Iex_3_110EisconnExcE, 
                       __ZTIN7Iex_3_110EjoinedExcE, __ZTIN7Iex_3_110ElibaccExcE, 
                       __ZTIN7Iex_3_110ElibbadExcE, __ZTIN7Iex_3_110ElibmaxExcE, 
                       __ZTIN7Iex_3_110ElibscnExcE, __ZTIN7Iex_3_110EnavailExcE, 
                       __ZTIN7Iex_3_110EnoattrExcE, __ZTIN7Iex_3_110EnobufsExcE, 
                       __ZTIN7Iex_3_110EnodataExcE, __ZTIN7Iex_3_110EnoexecExcE, 
                       __ZTIN7Iex_3_110EnolinkExcE, __ZTIN7Iex_3_110EnoprocExcE, 
                       __ZTIN7Iex_3_110EnotblkExcE, __ZTIN7Iex_3_110EnotdirExcE, 
                       __ZTIN7Iex_3_110EnotnamExcE, __ZTIN7Iex_3_110EnotsupExcE, 
                       __ZTIN7Iex_3_110EremchgExcE, __ZTIN7Iex_3_110EremdevExcE, 
                       __ZTIN7Iex_3_110EremoteExcE, __ZTIN7Iex_3_110EtxtbsyExcE, 
                       __ZTIN7Iex_3_110EucleanExcE, __ZTIN7Iex_3_110EunatchExcE, 
                       __ZTIN7Iex_3_110InexactExcE, __ZTIN7Iex_3_111EalreadyExcE, 
                       __ZTIN7Iex_3_111EbufsizeExcE, __ZTIN7Iex_3_111EioresidExcE, 
                       __ZTIN7Iex_3_111El2nsyncExcE, __ZTIN7Iex_3_111ElibexecExcE, 
                       __ZTIN7Iex_3_111EmsgsizeExcE, __ZTIN7Iex_3_111EmustrunExcE, 
                       __ZTIN7Iex_3_111EnetdownExcE, __ZTIN7Iex_3_111EnoexistExcE, 
                       __ZTIN7Iex_3_111EnologinExcE, __ZTIN7Iex_3_111EnotconnExcE, 
                       __ZTIN7Iex_3_111EnotsockExcE, __ZTIN7Iex_3_111EnotuniqExcE, 
                       __ZTIN7Iex_3_111EproclimExcE, __ZTIN7Iex_3_111ErestartExcE, 
                       __ZTIN7Iex_3_111EstrpipeExcE, __ZTIN7Iex_3_111OverflowExcE, 
                       __ZTIN7Iex_3_112EcanceledExcE, __ZTIN7Iex_3_112EclockcpuExcE, 
                       __ZTIN7Iex_3_112EdeadlockExcE, __ZTIN7Iex_3_112EdisjointExcE, 
                       __ZTIN7Iex_3_112EenqueuedExcE, __ZTIN7Iex_3_112EhostdownExcE, 
                       __ZTIN7Iex_3_112EloginlimExcE, __ZTIN7Iex_3_112EmultihopExcE, 
                       __ZTIN7Iex_3_112EnetresetExcE, __ZTIN7Iex_3_112EnoattachExcE, 
                       __ZTIN7Iex_3_112EnotemptyExcE, __ZTIN7Iex_3_112EoverflowExcE, 
                       __ZTIN7Iex_3_112EremoteioExcE, __ZTIN7Iex_3_112EshutdownExcE, 
                       __ZTIN7Iex_3_112EtimedoutExcE, __ZTIN7Iex_3_112UnderflowExcE, 
                       __ZTIN7Iex_3_113EaddrinuseExcE, __ZTIN7Iex_3_113EconnresetExcE, 
                       __ZTIN7Iex_3_113EdestroyedExcE, __ZTIN7Iex_3_113EgrouploopExcE, 
                       __ZTIN7Iex_3_113EinvalmodeExcE, __ZTIN7Iex_3_113EinvaltimeExcE, 
                       __ZTIN7Iex_3_113EnfsremoteExcE, __ZTIN7Iex_3_113EnolimfileExcE, 
                       __ZTIN7Iex_3_113EnotjoinedExcE, __ZTIN7Iex_3_113EopnotsuppExcE, 
                       __ZTIN7Iex_3_113EprototypeExcE, __ZTIN7Iex_3_114EcantextentExcE, 
                       __ZTIN7Iex_3_114EcontrollerExcE, __ZTIN7Iex_3_114EendofminorExcE, 
                       __ZTIN7Iex_3_114EinprogressExcE, __ZTIN7Iex_3_114EinvalstateExcE, 
                       __ZTIN7Iex_3_114EnetunreachExcE, __ZTIN7Iex_3_114EnoprotooptExcE, 
                       __ZTIN7Iex_3_114EnotstoppedExcE, __ZTIN7Iex_3_114InvalidFpOpExcE, 
                       __ZTIN7Iex_3_115EafnosupportExcE, __ZTIN7Iex_3_115EconnabortedExcE, 
                       __ZTIN7Iex_3_115EconnrefusedExcE, __ZTIN7Iex_3_115EdestaddrreqExcE, 
                       __ZTIN7Iex_3_115EhostunreachExcE, __ZTIN7Iex_3_115EnametoolongExcE, 
                       __ZTIN7Iex_3_115EnointrgroupExcE, __ZTIN7Iex_3_115EnotenqueuedExcE, 
                       __ZTIN7Iex_3_115EpfnosupportExcE, __ZTIN7Iex_3_115EtoomanyrefsExcE, 
                       __ZTIN7Iex_3_116EaddrnotavailExcE, __ZTIN7Iex_3_116EdircorruptedExcE, 
                       __ZTIN7Iex_3_117EnotcontrollerExcE, __ZTIN7Iex_3_118EprotonosupportExcE, 
                       __ZTIN7Iex_3_118EsocktnosupportExcE, __ZTIN7Iex_3_15IoExcE, 
                       __ZTIN7Iex_3_16ArgExcE, __ZTIN7Iex_3_16EioExcE, __ZTIN7Iex_3_17BaseExcE, 
                       __ZTIN7Iex_3_17EadvExcE, __ZTIN7Iex_3_17EdomExcE, __ZTIN7Iex_3_17MathExcE, 
                       __ZTIN7Iex_3_17NullExcE, __ZTIN7Iex_3_17TypeExcE, __ZTIN7Iex_3_18E2bigExcE, 
                       __ZTIN7Iex_3_18EbadeExcE, __ZTIN7Iex_3_18EbadfExcE, __ZTIN7Iex_3_18EbadrExcE, 
                       __ZTIN7Iex_3_18EbusyExcE, __ZTIN7Iex_3_18EcommExcE, __ZTIN7Iex_3_18EfbigExcE, 
                       __ZTIN7Iex_3_18EidrmExcE, __ZTIN7Iex_3_18EinitExcE, __ZTIN7Iex_3_18EintrExcE, 
                       __ZTIN7Iex_3_18EloopExcE, __ZTIN7Iex_3_18EnosrExcE, __ZTIN7Iex_3_18EnxioExcE, 
                       __ZTIN7Iex_3_18EpermExcE, __ZTIN7Iex_3_18EpipeExcE, __ZTIN7Iex_3_18ErofsExcE, 
                       __ZTIN7Iex_3_18ErrnoExcE, __ZTIN7Iex_3_18EsrchExcE, __ZTIN7Iex_3_18EtimeExcE, 
                       __ZTIN7Iex_3_18ExdevExcE, __ZTIN7Iex_3_18InputExcE, __ZTIN7Iex_3_18LogicExcE, 
                       __ZTIN7Iex_3_19EaccesExcE, __ZTIN7Iex_3_19EagainExcE, __ZTIN7Iex_3_19EbadfdExcE, 
                       __ZTIN7Iex_3_19EbfontExcE, __ZTIN7Iex_3_19EchildExcE, __ZTIN7Iex_3_19EchrngExcE, 
                       __ZTIN7Iex_3_19EdquotExcE, __ZTIN7Iex_3_19EemptyExcE, __ZTIN7Iex_3_19EexistExcE, 
                       __ZTIN7Iex_3_19EfaultExcE, __ZTIN7Iex_3_19EilseqExcE, __ZTIN7Iex_3_19EinvalExcE, 
                       __ZTIN7Iex_3_19EisdirExcE, __ZTIN7Iex_3_19EisnamExcE, __ZTIN7Iex_3_19El2hltExcE, 
                       __ZTIN7Iex_3_19El3hltExcE, __ZTIN7Iex_3_19El3rstExcE, __ZTIN7Iex_3_19ElnrngExcE, 
                       __ZTIN7Iex_3_19EmfileExcE, __ZTIN7Iex_3_19EmlinkExcE, __ZTIN7Iex_3_19EnfileExcE, 
                       __ZTIN7Iex_3_19EnoanoExcE, __ZTIN7Iex_3_19EnocsiExcE, __ZTIN7Iex_3_19EnodevExcE, 
                       __ZTIN7Iex_3_19EnoentExcE, __ZTIN7Iex_3_19EnolckExcE, __ZTIN7Iex_3_19EnomemExcE, 
                       __ZTIN7Iex_3_19EnomsgExcE, __ZTIN7Iex_3_19EnonetExcE, __ZTIN7Iex_3_19EnopkgExcE, 
                       __ZTIN7Iex_3_19EnospcExcE, __ZTIN7Iex_3_19EnostrExcE, __ZTIN7Iex_3_19EnosysExcE, 
                       __ZTIN7Iex_3_19EnottyExcE, __ZTIN7Iex_3_19EprotoExcE, __ZTIN7Iex_3_19ErangeExcE, 
                       __ZTIN7Iex_3_19EspipeExcE, __ZTIN7Iex_3_19EsrmntExcE, __ZTIN7Iex_3_19EstaleExcE, 
                       __ZTIN7Iex_3_19EusersExcE, __ZTIN7Iex_3_19ExfullExcE, __ZTIN7Iex_3_19NoImplExcE, 
                       __ZTSN7Iex_3_110DivzeroExcE, __ZTSN7Iex_3_110EbadmsgExcE, 
                       __ZTSN7Iex_3_110EbadrqcExcE, __ZTSN7Iex_3_110EbadsltExcE, 
                       __ZTSN7Iex_3_110EdeadlkExcE, __ZTSN7Iex_3_110EisconnExcE, 
                       __ZTSN7Iex_3_110EjoinedExcE, __ZTSN7Iex_3_110ElibaccExcE, 
                       __ZTSN7Iex_3_110ElibbadExcE, __ZTSN7Iex_3_110ElibmaxExcE, 
                       __ZTSN7Iex_3_110ElibscnExcE, __ZTSN7Iex_3_110EnavailExcE, 
                       __ZTSN7Iex_3_110EnoattrExcE, __ZTSN7Iex_3_110EnobufsExcE, 
                       __ZTSN7Iex_3_110EnodataExcE, __ZTSN7Iex_3_110EnoexecExcE, 
                       __ZTSN7Iex_3_110EnolinkExcE, __ZTSN7Iex_3_110EnoprocExcE, 
                       __ZTSN7Iex_3_110EnotblkExcE, __ZTSN7Iex_3_110EnotdirExcE, 
                       __ZTSN7Iex_3_110EnotnamExcE, __ZTSN7Iex_3_110EnotsupExcE, 
                       __ZTSN7Iex_3_110EremchgExcE, __ZTSN7Iex_3_110EremdevExcE, 
                       __ZTSN7Iex_3_110EremoteExcE, __ZTSN7Iex_3_110EtxtbsyExcE, 
                       __ZTSN7Iex_3_110EucleanExcE, __ZTSN7Iex_3_110EunatchExcE, 
                       __ZTSN7Iex_3_110InexactExcE, __ZTSN7Iex_3_111EalreadyExcE, 
                       __ZTSN7Iex_3_111EbufsizeExcE, __ZTSN7Iex_3_111EioresidExcE, 
                       __ZTSN7Iex_3_111El2nsyncExcE, __ZTSN7Iex_3_111ElibexecExcE, 
                       __ZTSN7Iex_3_111EmsgsizeExcE, __ZTSN7Iex_3_111EmustrunExcE, 
                       __ZTSN7Iex_3_111EnetdownExcE, __ZTSN7Iex_3_111EnoexistExcE, 
                       __ZTSN7Iex_3_111EnologinExcE, __ZTSN7Iex_3_111EnotconnExcE, 
                       __ZTSN7Iex_3_111EnotsockExcE, __ZTSN7Iex_3_111EnotuniqExcE, 
                       __ZTSN7Iex_3_111EproclimExcE, __ZTSN7Iex_3_111ErestartExcE, 
                       __ZTSN7Iex_3_111EstrpipeExcE, __ZTSN7Iex_3_111OverflowExcE, 
                       __ZTSN7Iex_3_112EcanceledExcE, __ZTSN7Iex_3_112EclockcpuExcE, 
                       __ZTSN7Iex_3_112EdeadlockExcE, __ZTSN7Iex_3_112EdisjointExcE, 
                       __ZTSN7Iex_3_112EenqueuedExcE, __ZTSN7Iex_3_112EhostdownExcE, 
                       __ZTSN7Iex_3_112EloginlimExcE, __ZTSN7Iex_3_112EmultihopExcE, 
                       __ZTSN7Iex_3_112EnetresetExcE, __ZTSN7Iex_3_112EnoattachExcE, 
                       __ZTSN7Iex_3_112EnotemptyExcE, __ZTSN7Iex_3_112EoverflowExcE, 
                       __ZTSN7Iex_3_112EremoteioExcE, __ZTSN7Iex_3_112EshutdownExcE, 
                       __ZTSN7Iex_3_112EtimedoutExcE, __ZTSN7Iex_3_112UnderflowExcE, 
                       __ZTSN7Iex_3_113EaddrinuseExcE, __ZTSN7Iex_3_113EconnresetExcE, 
                       __ZTSN7Iex_3_113EdestroyedExcE, __ZTSN7Iex_3_113EgrouploopExcE, 
                       __ZTSN7Iex_3_113EinvalmodeExcE, __ZTSN7Iex_3_113EinvaltimeExcE, 
                       __ZTSN7Iex_3_113EnfsremoteExcE, __ZTSN7Iex_3_113EnolimfileExcE, 
                       __ZTSN7Iex_3_113EnotjoinedExcE, __ZTSN7Iex_3_113EopnotsuppExcE, 
                       __ZTSN7Iex_3_113EprototypeExcE, __ZTSN7Iex_3_114EcantextentExcE, 
                       __ZTSN7Iex_3_114EcontrollerExcE, __ZTSN7Iex_3_114EendofminorExcE, 
                       __ZTSN7Iex_3_114EinprogressExcE, __ZTSN7Iex_3_114EinvalstateExcE, 
                       __ZTSN7Iex_3_114EnetunreachExcE, __ZTSN7Iex_3_114EnoprotooptExcE, 
                       __ZTSN7Iex_3_114EnotstoppedExcE, __ZTSN7Iex_3_114InvalidFpOpExcE, 
                       __ZTSN7Iex_3_115EafnosupportExcE, __ZTSN7Iex_3_115EconnabortedExcE, 
                       __ZTSN7Iex_3_115EconnrefusedExcE, __ZTSN7Iex_3_115EdestaddrreqExcE, 
                       __ZTSN7Iex_3_115EhostunreachExcE, __ZTSN7Iex_3_115EnametoolongExcE, 
                       __ZTSN7Iex_3_115EnointrgroupExcE, __ZTSN7Iex_3_115EnotenqueuedExcE, 
                       __ZTSN7Iex_3_115EpfnosupportExcE, __ZTSN7Iex_3_115EtoomanyrefsExcE, 
                       __ZTSN7Iex_3_116EaddrnotavailExcE, __ZTSN7Iex_3_116EdircorruptedExcE, 
                       __ZTSN7Iex_3_117EnotcontrollerExcE, __ZTSN7Iex_3_118EprotonosupportExcE, 
                       __ZTSN7Iex_3_118EsocktnosupportExcE, __ZTSN7Iex_3_15IoExcE, 
                       __ZTSN7Iex_3_16ArgExcE, __ZTSN7Iex_3_16EioExcE, __ZTSN7Iex_3_17BaseExcE, 
                       __ZTSN7Iex_3_17EadvExcE, __ZTSN7Iex_3_17EdomExcE, __ZTSN7Iex_3_17MathExcE, 
                       __ZTSN7Iex_3_17NullExcE, __ZTSN7Iex_3_17TypeExcE, __ZTSN7Iex_3_18E2bigExcE, 
                       __ZTSN7Iex_3_18EbadeExcE, __ZTSN7Iex_3_18EbadfExcE, __ZTSN7Iex_3_18EbadrExcE, 
                       __ZTSN7Iex_3_18EbusyExcE, __ZTSN7Iex_3_18EcommExcE, __ZTSN7Iex_3_18EfbigExcE, 
                       __ZTSN7Iex_3_18EidrmExcE, __ZTSN7Iex_3_18EinitExcE, __ZTSN7Iex_3_18EintrExcE, 
                       __ZTSN7Iex_3_18EloopExcE, __ZTSN7Iex_3_18EnosrExcE, __ZTSN7Iex_3_18EnxioExcE, 
                       __ZTSN7Iex_3_18EpermExcE, __ZTSN7Iex_3_18EpipeExcE, __ZTSN7Iex_3_18ErofsExcE, 
                       __ZTSN7Iex_3_18ErrnoExcE, __ZTSN7Iex_3_18EsrchExcE, __ZTSN7Iex_3_18EtimeExcE, 
                       __ZTSN7Iex_3_18ExdevExcE, __ZTSN7Iex_3_18InputExcE, __ZTSN7Iex_3_18LogicExcE, 
                       __ZTSN7Iex_3_19EaccesExcE, __ZTSN7Iex_3_19EagainExcE, __ZTSN7Iex_3_19EbadfdExcE, 
                       __ZTSN7Iex_3_19EbfontExcE, __ZTSN7Iex_3_19EchildExcE, __ZTSN7Iex_3_19EchrngExcE, 
                       __ZTSN7Iex_3_19EdquotExcE, __ZTSN7Iex_3_19EemptyExcE, __ZTSN7Iex_3_19EexistExcE, 
                       __ZTSN7Iex_3_19EfaultExcE, __ZTSN7Iex_3_19EilseqExcE, __ZTSN7Iex_3_19EinvalExcE, 
                       __ZTSN7Iex_3_19EisdirExcE, __ZTSN7Iex_3_19EisnamExcE, __ZTSN7Iex_3_19El2hltExcE, 
                       __ZTSN7Iex_3_19El3hltExcE, __ZTSN7Iex_3_19El3rstExcE, __ZTSN7Iex_3_19ElnrngExcE, 
                       __ZTSN7Iex_3_19EmfileExcE, __ZTSN7Iex_3_19EmlinkExcE, __ZTSN7Iex_3_19EnfileExcE, 
                       __ZTSN7Iex_3_19EnoanoExcE, __ZTSN7Iex_3_19EnocsiExcE, __ZTSN7Iex_3_19EnodevExcE, 
                       __ZTSN7Iex_3_19EnoentExcE, __ZTSN7Iex_3_19EnolckExcE, __ZTSN7Iex_3_19EnomemExcE, 
                       __ZTSN7Iex_3_19EnomsgExcE, __ZTSN7Iex_3_19EnonetExcE, __ZTSN7Iex_3_19EnopkgExcE, 
                       __ZTSN7Iex_3_19EnospcExcE, __ZTSN7Iex_3_19EnostrExcE, __ZTSN7Iex_3_19EnosysExcE, 
                       __ZTSN7Iex_3_19EnottyExcE, __ZTSN7Iex_3_19EprotoExcE, __ZTSN7Iex_3_19ErangeExcE, 
                       __ZTSN7Iex_3_19EspipeExcE, __ZTSN7Iex_3_19EsrmntExcE, __ZTSN7Iex_3_19EstaleExcE, 
                       __ZTSN7Iex_3_19EusersExcE, __ZTSN7Iex_3_19ExfullExcE, __ZTSN7Iex_3_19NoImplExcE, 
                       __ZTVN7Iex_3_110DivzeroExcE, __ZTVN7Iex_3_110EbadmsgExcE, 
                       __ZTVN7Iex_3_110EbadrqcExcE, __ZTVN7Iex_3_110EbadsltExcE, 
                       __ZTVN7Iex_3_110EdeadlkExcE, __ZTVN7Iex_3_110EisconnExcE, 
                       __ZTVN7Iex_3_110EjoinedExcE, __ZTVN7Iex_3_110ElibaccExcE, 
                       __ZTVN7Iex_3_110ElibbadExcE, __ZTVN7Iex_3_110ElibmaxExcE, 
                       __ZTVN7Iex_3_110ElibscnExcE, __ZTVN7Iex_3_110EnavailExcE, 
                       __ZTVN7Iex_3_110EnoattrExcE, __ZTVN7Iex_3_110EnobufsExcE, 
                       __ZTVN7Iex_3_110EnodataExcE, __ZTVN7Iex_3_110EnoexecExcE, 
                       __ZTVN7Iex_3_110EnolinkExcE, __ZTVN7Iex_3_110EnoprocExcE, 
                       __ZTVN7Iex_3_110EnotblkExcE, __ZTVN7Iex_3_110EnotdirExcE, 
                       __ZTVN7Iex_3_110EnotnamExcE, __ZTVN7Iex_3_110EnotsupExcE, 
                       __ZTVN7Iex_3_110EremchgExcE, __ZTVN7Iex_3_110EremdevExcE, 
                       __ZTVN7Iex_3_110EremoteExcE, __ZTVN7Iex_3_110EtxtbsyExcE, 
                       __ZTVN7Iex_3_110EucleanExcE, __ZTVN7Iex_3_110EunatchExcE, 
                       __ZTVN7Iex_3_110InexactExcE, __ZTVN7Iex_3_111EalreadyExcE, 
                       __ZTVN7Iex_3_111EbufsizeExcE, __ZTVN7Iex_3_111EioresidExcE, 
                       __ZTVN7Iex_3_111El2nsyncExcE, __ZTVN7Iex_3_111ElibexecExcE, 
                       __ZTVN7Iex_3_111EmsgsizeExcE, __ZTVN7Iex_3_111EmustrunExcE, 
                       __ZTVN7Iex_3_111EnetdownExcE, __ZTVN7Iex_3_111EnoexistExcE, 
                       __ZTVN7Iex_3_111EnologinExcE, __ZTVN7Iex_3_111EnotconnExcE, 
                       __ZTVN7Iex_3_111EnotsockExcE, __ZTVN7Iex_3_111EnotuniqExcE, 
                       __ZTVN7Iex_3_111EproclimExcE, __ZTVN7Iex_3_111ErestartExcE, 
                       __ZTVN7Iex_3_111EstrpipeExcE, __ZTVN7Iex_3_111OverflowExcE, 
                       __ZTVN7Iex_3_112EcanceledExcE, __ZTVN7Iex_3_112EclockcpuExcE, 
                       __ZTVN7Iex_3_112EdeadlockExcE, __ZTVN7Iex_3_112EdisjointExcE, 
                       __ZTVN7Iex_3_112EenqueuedExcE, __ZTVN7Iex_3_112EhostdownExcE, 
                       __ZTVN7Iex_3_112EloginlimExcE, __ZTVN7Iex_3_112EmultihopExcE, 
                       __ZTVN7Iex_3_112EnetresetExcE, __ZTVN7Iex_3_112EnoattachExcE, 
                       __ZTVN7Iex_3_112EnotemptyExcE, __ZTVN7Iex_3_112EoverflowExcE, 
                       __ZTVN7Iex_3_112EremoteioExcE, __ZTVN7Iex_3_112EshutdownExcE, 
                       __ZTVN7Iex_3_112EtimedoutExcE, __ZTVN7Iex_3_112UnderflowExcE, 
                       __ZTVN7Iex_3_113EaddrinuseExcE, __ZTVN7Iex_3_113EconnresetExcE, 
                       __ZTVN7Iex_3_113EdestroyedExcE, __ZTVN7Iex_3_113EgrouploopExcE, 
                       __ZTVN7Iex_3_113EinvalmodeExcE, __ZTVN7Iex_3_113EinvaltimeExcE, 
                       __ZTVN7Iex_3_113EnfsremoteExcE, __ZTVN7Iex_3_113EnolimfileExcE, 
                       __ZTVN7Iex_3_113EnotjoinedExcE, __ZTVN7Iex_3_113EopnotsuppExcE, 
                       __ZTVN7Iex_3_113EprototypeExcE, __ZTVN7Iex_3_114EcantextentExcE, 
                       __ZTVN7Iex_3_114EcontrollerExcE, __ZTVN7Iex_3_114EendofminorExcE, 
                       __ZTVN7Iex_3_114EinprogressExcE, __ZTVN7Iex_3_114EinvalstateExcE, 
                       __ZTVN7Iex_3_114EnetunreachExcE, __ZTVN7Iex_3_114EnoprotooptExcE, 
                       __ZTVN7Iex_3_114EnotstoppedExcE, __ZTVN7Iex_3_114InvalidFpOpExcE, 
                       __ZTVN7Iex_3_115EafnosupportExcE, __ZTVN7Iex_3_115EconnabortedExcE, 
                       __ZTVN7Iex_3_115EconnrefusedExcE, __ZTVN7Iex_3_115EdestaddrreqExcE, 
                       __ZTVN7Iex_3_115EhostunreachExcE, __ZTVN7Iex_3_115EnametoolongExcE, 
                       __ZTVN7Iex_3_115EnointrgroupExcE, __ZTVN7Iex_3_115EnotenqueuedExcE, 
                       __ZTVN7Iex_3_115EpfnosupportExcE, __ZTVN7Iex_3_115EtoomanyrefsExcE, 
                       __ZTVN7Iex_3_116EaddrnotavailExcE, __ZTVN7Iex_3_116EdircorruptedExcE, 
                       __ZTVN7Iex_3_117EnotcontrollerExcE, __ZTVN7Iex_3_118EprotonosupportExcE, 
                       __ZTVN7Iex_3_118EsocktnosupportExcE, __ZTVN7Iex_3_15IoExcE, 
                       __ZTVN7Iex_3_16ArgExcE, __ZTVN7Iex_3_16EioExcE, __ZTVN7Iex_3_17BaseExcE, 
                       __ZTVN7Iex_3_17EadvExcE, __ZTVN7Iex_3_17EdomExcE, __ZTVN7Iex_3_17MathExcE, 
                       __ZTVN7Iex_3_17NullExcE, __ZTVN7Iex_3_17TypeExcE, __ZTVN7Iex_3_18E2bigExcE, 
                       __ZTVN7Iex_3_18EbadeExcE, __ZTVN7Iex_3_18EbadfExcE, __ZTVN7Iex_3_18EbadrExcE, 
                       __ZTVN7Iex_3_18EbusyExcE, __ZTVN7Iex_3_18EcommExcE, __ZTVN7Iex_3_18EfbigExcE, 
                       __ZTVN7Iex_3_18EidrmExcE, __ZTVN7Iex_3_18EinitExcE, __ZTVN7Iex_3_18EintrExcE, 
                       __ZTVN7Iex_3_18EloopExcE, __ZTVN7Iex_3_18EnosrExcE, __ZTVN7Iex_3_18EnxioExcE, 
                       __ZTVN7Iex_3_18EpermExcE, __ZTVN7Iex_3_18EpipeExcE, __ZTVN7Iex_3_18ErofsExcE, 
                       __ZTVN7Iex_3_18ErrnoExcE, __ZTVN7Iex_3_18EsrchExcE, __ZTVN7Iex_3_18EtimeExcE, 
                       __ZTVN7Iex_3_18ExdevExcE, __ZTVN7Iex_3_18InputExcE, __ZTVN7Iex_3_18LogicExcE, 
                       __ZTVN7Iex_3_19EaccesExcE, __ZTVN7Iex_3_19EagainExcE, __ZTVN7Iex_3_19EbadfdExcE, 
                       __ZTVN7Iex_3_19EbfontExcE, __ZTVN7Iex_3_19EchildExcE, __ZTVN7Iex_3_19EchrngExcE, 
                       __ZTVN7Iex_3_19EdquotExcE, __ZTVN7Iex_3_19EemptyExcE, __ZTVN7Iex_3_19EexistExcE, 
                       __ZTVN7Iex_3_19EfaultExcE, __ZTVN7Iex_3_19EilseqExcE, __ZTVN7Iex_3_19EinvalExcE, 
                       __ZTVN7Iex_3_19EisdirExcE, __ZTVN7Iex_3_19EisnamExcE, __ZTVN7Iex_3_19El2hltExcE, 
                       __ZTVN7Iex_3_19El3hltExcE, __ZTVN7Iex_3_19El3rstExcE, __ZTVN7Iex_3_19ElnrngExcE, 
                       __ZTVN7Iex_3_19EmfileExcE, __ZTVN7Iex_3_19EmlinkExcE, __ZTVN7Iex_3_19EnfileExcE, 
                       __ZTVN7Iex_3_19EnoanoExcE, __ZTVN7Iex_3_19EnocsiExcE, __ZTVN7Iex_3_19EnodevExcE, 
                       __ZTVN7Iex_3_19EnoentExcE, __ZTVN7Iex_3_19EnolckExcE, __ZTVN7Iex_3_19EnomemExcE, 
                       __ZTVN7Iex_3_19EnomsgExcE, __ZTVN7Iex_3_19EnonetExcE, __ZTVN7Iex_3_19EnopkgExcE, 
                       __ZTVN7Iex_3_19EnospcExcE, __ZTVN7Iex_3_19EnostrExcE, __ZTVN7Iex_3_19EnosysExcE, 
                       __ZTVN7Iex_3_19EnottyExcE, __ZTVN7Iex_3_19EprotoExcE, __ZTVN7Iex_3_19ErangeExcE, 
                       __ZTVN7Iex_3_19EspipeExcE, __ZTVN7Iex_3_19EsrmntExcE, __ZTVN7Iex_3_19EstaleExcE, 
                       __ZTVN7Iex_3_19EusersExcE, __ZTVN7Iex_3_19ExfullExcE, __ZTVN7Iex_3_19NoImplExcE ]
...
