--- !tapi-tbd
tbd-version:     4
targets:         [ arm64e-macos ]
install-name:    '/System/Library/PrivateFrameworks/CoreUSDEdit.framework/Versions/A/Libraries/libOpenImageIO_Util.dylib'
current-version: 2.5.8
compatibility-version: 2.5
exports:
  - targets:         [ arm64e-macos ]
    symbols:         [ __ZN16OpenImageIO_v2_510Filesystem10is_regularENS_17basic_string_viewIcNSt3__111char_traitsIcEEEE, 
                       __ZN16OpenImageIO_v2_510Filesystem10read_bytesENS_17basic_string_viewIcNSt3__111char_traitsIcEEEEPvmm, 
                       __ZN16OpenImageIO_v2_510Filesystem10remove_allENS_17basic_string_viewIcNSt3__111char_traitsIcEEEERNS2_12basic_stringIcS4_NS2_9allocatorIcEEEE, 
                       __ZN16OpenImageIO_v2_510Filesystem11IOMemReader4readEPvm, 
                       __ZN16OpenImageIO_v2_510Filesystem11IOMemReader5preadEPvmx, 
                       __ZN16OpenImageIO_v2_510Filesystem11IOVecOutput5writeEPKvm, 
                       __ZN16OpenImageIO_v2_510Filesystem11IOVecOutput6pwriteEPKvmx, 
                       __ZN16OpenImageIO_v2_510Filesystem11parent_pathENS_17basic_string_viewIcNSt3__111char_traitsIcEEEE, 
                       __ZN16OpenImageIO_v2_510Filesystem11unique_pathENS_17basic_string_viewIcNSt3__111char_traitsIcEEEE, 
                       __ZN16OpenImageIO_v2_510Filesystem12current_pathEv, __ZN16OpenImageIO_v2_510Filesystem12find_programENS_17basic_string_viewIcNSt3__111char_traitsIcEEEE, 
                       __ZN16OpenImageIO_v2_510Filesystem12is_directoryENS_17basic_string_viewIcNSt3__111char_traitsIcEEEE, 
                       __ZN16OpenImageIO_v2_510Filesystem13is_executableENS_17basic_string_viewIcNSt3__111char_traitsIcEEEE, 
                       __ZN16OpenImageIO_v2_510Filesystem13parse_patternEPKciRNSt3__112basic_stringIcNS3_11char_traitsIcEENS3_9allocatorIcEEEESA_, 
                       __ZN16OpenImageIO_v2_510Filesystem14read_text_fileENS_17basic_string_viewIcNSt3__111char_traitsIcEEEERNS2_12basic_stringIcS4_NS2_9allocatorIcEEEEm, 
                       __ZN16OpenImageIO_v2_510Filesystem15last_write_timeENS_17basic_string_viewIcNSt3__111char_traitsIcEEEE, 
                       __ZN16OpenImageIO_v2_510Filesystem15last_write_timeENS_17basic_string_viewIcNSt3__111char_traitsIcEEEEl, 
                       __ZN16OpenImageIO_v2_510Filesystem15searchpath_findERKNSt3__112basic_stringIcNS1_11char_traitsIcEENS1_9allocatorIcEEEERKNS1_6vectorIS7_NS5_IS7_EEEEbb, 
                       __ZN16OpenImageIO_v2_510Filesystem15write_text_fileENS_17basic_string_viewIcNSt3__111char_traitsIcEEEES5_, 
                       __ZN16OpenImageIO_v2_510Filesystem16create_directoryENS_17basic_string_viewIcNSt3__111char_traitsIcEEEERNS2_12basic_stringIcS4_NS2_9allocatorIcEEEE, 
                       __ZN16OpenImageIO_v2_510Filesystem16generic_filepathENS_17basic_string_viewIcNSt3__111char_traitsIcEEEE, 
                       __ZN16OpenImageIO_v2_510Filesystem16path_is_absoluteENS_17basic_string_viewIcNSt3__111char_traitsIcEEEEb, 
                       __ZN16OpenImageIO_v2_510Filesystem16searchpath_splitENS_17basic_string_viewIcNSt3__111char_traitsIcEEEEb, 
                       __ZN16OpenImageIO_v2_510Filesystem17filename_to_regexENS_17basic_string_viewIcNSt3__111char_traitsIcEEEEb, 
                       __ZN16OpenImageIO_v2_510Filesystem17replace_extensionERKNSt3__112basic_stringIcNS1_11char_traitsIcEENS1_9allocatorIcEEEES9_, 
                       __ZN16OpenImageIO_v2_510Filesystem18enumerate_sequenceENS_17basic_string_viewIcNSt3__111char_traitsIcEEEERNS2_6vectorIiNS2_9allocatorIiEEEE, 
                       __ZN16OpenImageIO_v2_510Filesystem19temp_directory_pathEv, 
                       __ZN16OpenImageIO_v2_510Filesystem21get_directory_entriesERKNSt3__112basic_stringIcNS1_11char_traitsIcEENS1_9allocatorIcEEEERNS1_6vectorIS7_NS5_IS7_EEEEbS9_, 
                       __ZN16OpenImageIO_v2_510Filesystem22read_text_from_commandENS_17basic_string_viewIcNSt3__111char_traitsIcEEEERNS2_12basic_stringIcS4_NS2_9allocatorIcEEEEm, 
                       __ZN16OpenImageIO_v2_510Filesystem23enumerate_file_sequenceERKNSt3__112basic_stringIcNS1_11char_traitsIcEENS1_9allocatorIcEEEERKNS1_6vectorIiNS5_IiEEEERKNSA_INS_17basic_string_viewIcS4_EENS5_ISG_EEEERNSA_IS7_NS5_IS7_EEEE, 
                       __ZN16OpenImageIO_v2_510Filesystem23enumerate_file_sequenceERKNSt3__112basic_stringIcNS1_11char_traitsIcEENS1_9allocatorIcEEEERKNS1_6vectorIiNS5_IiEEEERNSA_IS7_NS5_IS7_EEEE, 
                       __ZN16OpenImageIO_v2_510Filesystem24convert_native_argumentsEiPPKc, 
                       __ZN16OpenImageIO_v2_510Filesystem27scan_for_matching_filenamesERKNSt3__112basic_stringIcNS1_11char_traitsIcEENS1_9allocatorIcEEEERKNS1_6vectorINS_17basic_string_viewIcS4_EENS5_ISC_EEEERNSA_IiNS5_IiEEEERSE_RNSA_IS7_NS5_IS7_EEEE, 
                       __ZN16OpenImageIO_v2_510Filesystem27scan_for_matching_filenamesERKNSt3__112basic_stringIcNS1_11char_traitsIcEENS1_9allocatorIcEEEERNS1_6vectorIiNS5_IiEEEERNSA_IS7_NS5_IS7_EEEE, 
                       __ZN16OpenImageIO_v2_510Filesystem4copyENS_17basic_string_viewIcNSt3__111char_traitsIcEEEES5_RNS2_12basic_stringIcS4_NS2_9allocatorIcEEEE, 
                       __ZN16OpenImageIO_v2_510Filesystem4openENS_17basic_string_viewIcNSt3__111char_traitsIcEEEEi, 
                       __ZN16OpenImageIO_v2_510Filesystem4openERNSt3__114basic_ifstreamIcNS1_11char_traitsIcEEEENS_17basic_string_viewIcS4_EEj, 
                       __ZN16OpenImageIO_v2_510Filesystem4openERNSt3__114basic_ofstreamIcNS1_11char_traitsIcEEEENS_17basic_string_viewIcS4_EEj, 
                       __ZN16OpenImageIO_v2_510Filesystem5fopenENS_17basic_string_viewIcNSt3__111char_traitsIcEEEES5_, 
                       __ZN16OpenImageIO_v2_510Filesystem5fseekEP7__sFILExi, __ZN16OpenImageIO_v2_510Filesystem5ftellEP7__sFILE, 
                       __ZN16OpenImageIO_v2_510Filesystem6IOFile4readEPvm, __ZN16OpenImageIO_v2_510Filesystem6IOFile4seekEx, 
                       __ZN16OpenImageIO_v2_510Filesystem6IOFile5closeEv, __ZN16OpenImageIO_v2_510Filesystem6IOFile5preadEPvmx, 
                       __ZN16OpenImageIO_v2_510Filesystem6IOFile5writeEPKvm, __ZN16OpenImageIO_v2_510Filesystem6IOFile6pwriteEPKvmx, 
                       __ZN16OpenImageIO_v2_510Filesystem6IOFileC1ENS_17basic_string_viewIcNSt3__111char_traitsIcEEEENS0_7IOProxy4ModeE, 
                       __ZN16OpenImageIO_v2_510Filesystem6IOFileC1EP7__sFILENS0_7IOProxy4ModeE, 
                       __ZN16OpenImageIO_v2_510Filesystem6IOFileC2ENS_17basic_string_viewIcNSt3__111char_traitsIcEEEENS0_7IOProxy4ModeE, 
                       __ZN16OpenImageIO_v2_510Filesystem6IOFileC2EP7__sFILENS0_7IOProxy4ModeE, 
                       __ZN16OpenImageIO_v2_510Filesystem6IOFileD0Ev, __ZN16OpenImageIO_v2_510Filesystem6IOFileD1Ev, 
                       __ZN16OpenImageIO_v2_510Filesystem6IOFileD2Ev, __ZN16OpenImageIO_v2_510Filesystem6existsENS_17basic_string_viewIcNSt3__111char_traitsIcEEEE, 
                       __ZN16OpenImageIO_v2_510Filesystem6removeENS_17basic_string_viewIcNSt3__111char_traitsIcEEEERNS2_12basic_stringIcS4_NS2_9allocatorIcEEEE, 
                       __ZN16OpenImageIO_v2_510Filesystem6renameENS_17basic_string_viewIcNSt3__111char_traitsIcEEEES5_RNS2_12basic_stringIcS4_NS2_9allocatorIcEEEE, 
                       __ZN16OpenImageIO_v2_510Filesystem7IOProxy4readEPvm, __ZN16OpenImageIO_v2_510Filesystem7IOProxy5errorENS_17basic_string_viewIcNSt3__111char_traitsIcEEEE, 
                       __ZN16OpenImageIO_v2_510Filesystem7IOProxy5preadEPvmx, __ZN16OpenImageIO_v2_510Filesystem7IOProxy5writeEPKvm, 
                       __ZN16OpenImageIO_v2_510Filesystem7IOProxy6pwriteEPKvmx, __ZN16OpenImageIO_v2_510Filesystem8filenameENS_17basic_string_viewIcNSt3__111char_traitsIcEEEE, 
                       __ZN16OpenImageIO_v2_510Filesystem9extensionENS_17basic_string_viewIcNSt3__111char_traitsIcEEEEb, 
                       __ZN16OpenImageIO_v2_510Filesystem9file_sizeENS_17basic_string_viewIcNSt3__111char_traitsIcEEEE, 
                       __ZN16OpenImageIO_v2_510ParamValue11clear_valueEv, __ZN16OpenImageIO_v2_510ParamValue12init_noclearENS_7ustringENS_8TypeDescEiNS0_6InterpEPKvNS0_4CopyENS0_11FromUstringE, 
                       __ZN16OpenImageIO_v2_510ParamValue12init_noclearENS_7ustringENS_8TypeDescEiPKvNS0_4CopyENS0_11FromUstringE, 
                       __ZN16OpenImageIO_v2_510ParamValueC1ENS_17basic_string_viewIcNSt3__111char_traitsIcEEEENS_8TypeDescES5_, 
                       __ZN16OpenImageIO_v2_510ParamValueC2ENS_17basic_string_viewIcNSt3__111char_traitsIcEEEENS_8TypeDescES5_, 
                       __ZN16OpenImageIO_v2_510ParamValueaSEOS0_, __ZN16OpenImageIO_v2_510ParamValueaSERKS0_, 
                       __ZN16OpenImageIO_v2_511Benchmarker13compute_statsERNSt3__16vectorIdNS1_9allocatorIdEEEEm, 
                       __ZN16OpenImageIO_v2_511Benchmarker18iteration_overheadEv, 
                       __ZN16OpenImageIO_v2_511thread_pool12run_one_taskENSt3__111__thread_idE, 
                       __ZN16OpenImageIO_v2_511thread_pool15register_workerENSt3__111__thread_idE, 
                       __ZN16OpenImageIO_v2_511thread_pool17deregister_workerENSt3__111__thread_idE, 
                       __ZN16OpenImageIO_v2_511thread_pool21push_queue_and_notifyEPNSt3__18functionIFviEEE, 
                       __ZN16OpenImageIO_v2_511thread_pool6resizeEi, __ZN16OpenImageIO_v2_511thread_pool9is_workerENSt3__111__thread_idE, 
                       __ZN16OpenImageIO_v2_511thread_poolC1Ei, __ZN16OpenImageIO_v2_511thread_poolC2Ei, 
                       __ZN16OpenImageIO_v2_511thread_poolD1Ev, __ZN16OpenImageIO_v2_511thread_poolD2Ev, 
                       __ZN16OpenImageIO_v2_512ErrorHandler15default_handlerEv, __ZN16OpenImageIO_v2_512ErrorHandlerclEiRKNSt3__112basic_stringIcNS1_11char_traitsIcEENS1_9allocatorIcEEEE, 
                       __ZN16OpenImageIO_v2_512aligned_freeEPv, __ZN16OpenImageIO_v2_512convert_typeENS_8TypeDescEPKvS0_Pvi, 
                       __ZN16OpenImageIO_v2_512convert_typeIN9Imath_3_14halfEfEEvPKT_PT0_mS6_S6_, 
                       __ZN16OpenImageIO_v2_512convert_typeIfN9Imath_3_14halfEEEvPKT_PT0_mS6_S6_, 
                       __ZN16OpenImageIO_v2_512parallel_forEiiNS_13function_viewIFviEEENS_6paroptE, 
                       __ZN16OpenImageIO_v2_512parallel_forEjjNS_13function_viewIFvjEEENS_6paroptE, 
                       __ZN16OpenImageIO_v2_512parallel_forExxNS_13function_viewIFvxEEENS_6paroptE, 
                       __ZN16OpenImageIO_v2_512parallel_forExxONSt3__18functionIFvixEEENS_6paroptE, 
                       __ZN16OpenImageIO_v2_512parallel_forEyyNS_13function_viewIFvyEEENS_6paroptE, 
                       __ZN16OpenImageIO_v2_514ParamValueList14add_or_replaceEONS_10ParamValueEb, 
                       __ZN16OpenImageIO_v2_514ParamValueList14add_or_replaceERKNS_10ParamValueEb, 
                       __ZN16OpenImageIO_v2_514ParamValueList4findENS_17basic_string_viewIcNSt3__111char_traitsIcEEEENS_8TypeDescEb, 
                       __ZN16OpenImageIO_v2_514ParamValueList4findENS_7ustringENS_8TypeDescEb, 
                       __ZN16OpenImageIO_v2_514ParamValueList4sortEb, __ZN16OpenImageIO_v2_514ParamValueList5mergeERKS0_b, 
                       __ZN16OpenImageIO_v2_514ParamValueList6removeENS_17basic_string_viewIcNSt3__111char_traitsIcEEEENS_8TypeDescEb, 
                       __ZN16OpenImageIO_v2_514aligned_mallocEmm, __ZN16OpenImageIO_v2_515parallel_for_2DExxxxONSt3__18functionIFvxxEEENS_6paroptE, 
                       __ZN16OpenImageIO_v2_518parallel_for_rangeEiiONSt3__18functionIFviiEEENS_6paroptE, 
                       __ZN16OpenImageIO_v2_518parallel_for_rangeEjjONSt3__18functionIFvjjEEENS_6paroptE, 
                       __ZN16OpenImageIO_v2_518parallel_for_rangeExxONSt3__18functionIFvxxEEENS_6paroptE, 
                       __ZN16OpenImageIO_v2_518parallel_for_rangeEyyONSt3__18functionIFvyyEEENS_6paroptE, 
                       __ZN16OpenImageIO_v2_518timed_thread_wedgeENS_13function_viewIFviEEENS0_IFvvEEES4_PNSt3__113basic_ostreamIcNS5_11char_traitsIcEEEEiiiNS_4spanIKiLln1EEE, 
                       __ZN16OpenImageIO_v2_518timed_thread_wedgeENS_13function_viewIFviEEEiiiNS_4spanIKiLln1EEE, 
                       __ZN16OpenImageIO_v2_519default_thread_poolEv, __ZN16OpenImageIO_v2_519tostring_formattingC1ENS0_8NotationEPKcS3_S3_S3_S3_S3_S3_S3_S3_S3_S3_i, 
                       __ZN16OpenImageIO_v2_519tostring_formattingC1EPKcS2_S2_S2_S2_S2_S2_S2_S2_S2_iS2_, 
                       __ZN16OpenImageIO_v2_519tostring_formattingC2ENS0_8NotationEPKcS3_S3_S3_S3_S3_S3_S3_S3_S3_S3_i, 
                       __ZN16OpenImageIO_v2_519tostring_formattingC2EPKcS2_S2_S2_S2_S2_S2_S2_S2_S2_iS2_, 
                       __ZN16OpenImageIO_v2_520parallel_for_chunkedExxxONSt3__18functionIFvxxEEENS_6paroptE, 
                       __ZN16OpenImageIO_v2_523parallel_for_chunked_2DExxxxxxONSt3__18functionIFvixxxxEEENS_6paroptE, 
                       __ZN16OpenImageIO_v2_523parallel_for_chunked_2DExxxxxxONSt3__18functionIFvxxxxEEENS_6paroptE, 
                       __ZN16OpenImageIO_v2_528default_thread_pool_shutdownEv, __ZN16OpenImageIO_v2_53pvt12oiio_use_tbbE, 
                       __ZN16OpenImageIO_v2_53pvt12use_char_ptrEPVKc, __ZN16OpenImageIO_v2_53pvt16oiio_print_debugEv, 
                       __ZN16OpenImageIO_v2_54SHA16appendEPKvm, __ZN16OpenImageIO_v2_54SHA16digestEv, 
                       __ZN16OpenImageIO_v2_54SHA17gethashERNS0_4HashE, __ZN16OpenImageIO_v2_54SHA1C1EPKvm, 
                       __ZN16OpenImageIO_v2_54SHA1C2EPKvm, __ZN16OpenImageIO_v2_54SHA1D1Ev, 
                       __ZN16OpenImageIO_v2_54SHA1D2Ev, __ZN16OpenImageIO_v2_55Timer16seconds_per_tickE, 
                       __ZN16OpenImageIO_v2_55Timer16ticks_per_secondE, __ZN16OpenImageIO_v2_55c_strENS_17basic_string_viewIcNSt3__111char_traitsIcEEEE, 
                       __ZN16OpenImageIO_v2_56Plugin16plugin_extensionEv, __ZN16OpenImageIO_v2_56Plugin4openEPKcb, 
                       __ZN16OpenImageIO_v2_56Plugin5closeEPv, __ZN16OpenImageIO_v2_56Plugin6getsymEPvPKcb, 
                       __ZN16OpenImageIO_v2_56Plugin8geterrorEb, __ZN16OpenImageIO_v2_56bjhash10hashlittleEPKvmj, 
                       __ZN16OpenImageIO_v2_56bjhash8hashwordEPKjmj, __ZN16OpenImageIO_v2_56paropt7resolveEv, 
                       __ZN16OpenImageIO_v2_56xxhash5XXH32EPKvmj, __ZN16OpenImageIO_v2_56xxhash5XXH64EPKvmy, 
                       __ZN16OpenImageIO_v2_57Strutil10iends_withENS_17basic_string_viewIcNSt3__111char_traitsIcEEEES5_, 
                       __ZN16OpenImageIO_v2_57Strutil10parse_charERNS_17basic_string_viewIcNSt3__111char_traitsIcEEEEcbb, 
                       __ZN16OpenImageIO_v2_57Strutil10parse_lineERNS_17basic_string_viewIcNSt3__111char_traitsIcEEEEb, 
                       __ZN16OpenImageIO_v2_57Strutil10parse_wordERNS_17basic_string_viewIcNSt3__111char_traitsIcEEEEb, 
                       __ZN16OpenImageIO_v2_57Strutil11parse_floatERNS_17basic_string_viewIcNSt3__111char_traitsIcEEEERfb, 
                       __ZN16OpenImageIO_v2_57Strutil11parse_untilERNS_17basic_string_viewIcNSt3__111char_traitsIcEEEES5_b, 
                       __ZN16OpenImageIO_v2_57Strutil11parse_whileERNS_17basic_string_viewIcNSt3__111char_traitsIcEEEES5_b, 
                       __ZN16OpenImageIO_v2_57Strutil11safe_strcatEPcNS_17basic_string_viewIcNSt3__111char_traitsIcEEEEm, 
                       __ZN16OpenImageIO_v2_57Strutil11safe_strcpyEPcNS_17basic_string_viewIcNSt3__111char_traitsIcEEEEm, 
                       __ZN16OpenImageIO_v2_57Strutil11safe_strlenEPKcm, __ZN16OpenImageIO_v2_57Strutil11starts_withENS_17basic_string_viewIcNSt3__111char_traitsIcEEEES5_, 
                       __ZN16OpenImageIO_v2_57Strutil11sync_outputEP7__sFILENS_17basic_string_viewIcNSt3__111char_traitsIcEEEEb, 
                       __ZN16OpenImageIO_v2_57Strutil11sync_outputERNSt3__113basic_ostreamIcNS1_11char_traitsIcEEEENS_17basic_string_viewIcS4_EEb, 
                       __ZN16OpenImageIO_v2_57Strutil12escape_charsENS_17basic_string_viewIcNSt3__111char_traitsIcEEEE, 
                       __ZN16OpenImageIO_v2_57Strutil12istarts_withENS_17basic_string_viewIcNSt3__111char_traitsIcEEEES5_, 
                       __ZN16OpenImageIO_v2_57Strutil12parse_nestedERNS_17basic_string_viewIcNSt3__111char_traitsIcEEEEb, 
                       __ZN16OpenImageIO_v2_57Strutil12parse_prefixERNS_17basic_string_viewIcNSt3__111char_traitsIcEEEES5_b, 
                       __ZN16OpenImageIO_v2_57Strutil12parse_stringERNS_17basic_string_viewIcNSt3__111char_traitsIcEEEES6_bNS0_13QuoteBehaviorE, 
                       __ZN16OpenImageIO_v2_57Strutil12parse_valuesERNS_17basic_string_viewIcNSt3__111char_traitsIcEEEES5_NS_4spanIfLln1EEES5_S5_b, 
                       __ZN16OpenImageIO_v2_57Strutil12parse_valuesERNS_17basic_string_viewIcNSt3__111char_traitsIcEEEES5_NS_4spanIiLln1EEES5_S5_b, 
                       __ZN16OpenImageIO_v2_57Strutil13base64_encodeENS_17basic_string_viewIcNSt3__111char_traitsIcEEEE, 
                       __ZN16OpenImageIO_v2_57Strutil13edit_distanceENS_17basic_string_viewIcNSt3__111char_traitsIcEEEES5_NS0_14EditDistMetricE, 
                       __ZN16OpenImageIO_v2_57Strutil13scan_datetimeENS_17basic_string_viewIcNSt3__111char_traitsIcEEEERiS6_S6_S6_S6_S6_, 
                       __ZN16OpenImageIO_v2_57Strutil13string_is_intENS_17basic_string_viewIcNSt3__111char_traitsIcEEEE, 
                       __ZN16OpenImageIO_v2_57Strutil13utf16_to_utf8ERKNSt3__112basic_stringIDsNS1_11char_traitsIDsEENS1_9allocatorIDsEEEE, 
                       __ZN16OpenImageIO_v2_57Strutil13utf16_to_utf8ERKNSt3__112basic_stringIwNS1_11char_traitsIwEENS1_9allocatorIwEEEE, 
                       __ZN16OpenImageIO_v2_57Strutil13utf8_to_utf16ENS_17basic_string_viewIcNSt3__111char_traitsIcEEEE, 
                       __ZN16OpenImageIO_v2_57Strutil14unescape_charsENS_17basic_string_viewIcNSt3__111char_traitsIcEEEE, 
                       __ZN16OpenImageIO_v2_57Strutil15skip_whitespaceERNS_17basic_string_viewIcNSt3__111char_traitsIcEEEE, 
                       __ZN16OpenImageIO_v2_57Strutil15string_is_floatENS_17basic_string_viewIcNSt3__111char_traitsIcEEEE, 
                       __ZN16OpenImageIO_v2_57Strutil15utf8_to_unicodeENS_17basic_string_viewIcNSt3__111char_traitsIcEEEERNS2_6vectorIjNS2_9allocatorIjEEEE, 
                       __ZN16OpenImageIO_v2_57Strutil16parse_identifierERNS_17basic_string_viewIcNSt3__111char_traitsIcEEEES5_b, 
                       __ZN16OpenImageIO_v2_57Strutil16parse_identifierERNS_17basic_string_viewIcNSt3__111char_traitsIcEEEEb, 
                       __ZN16OpenImageIO_v2_57Strutil16parse_until_charERNS_17basic_string_viewIcNSt3__111char_traitsIcEEEEcb, 
                       __ZN16OpenImageIO_v2_57Strutil17contains_any_charENS_17basic_string_viewIcNSt3__111char_traitsIcEEEES5_, 
                       __ZN16OpenImageIO_v2_57Strutil18get_rest_argumentsERKNSt3__112basic_stringIcNS1_11char_traitsIcEENS1_9allocatorIcEEEERS7_RNS1_3mapIS7_S7_NS1_4lessIS7_EENS5_INS1_4pairIS8_S7_EEEEEE, 
                       __ZN16OpenImageIO_v2_57Strutil18timeintervalformatEdi, __ZN16OpenImageIO_v2_57Strutil19parse_identifier_ifERNS_17basic_string_viewIcNSt3__111char_traitsIcEEEES5_b, 
                       __ZN16OpenImageIO_v2_57Strutil20utf8_to_utf16wstringENS_17basic_string_viewIcNSt3__111char_traitsIcEEEE, 
                       __ZN16OpenImageIO_v2_57Strutil24excise_string_after_headERNSt3__112basic_stringIcNS1_11char_traitsIcEENS1_9allocatorIcEEEENS_17basic_string_viewIcS4_EE, 
                       __ZN16OpenImageIO_v2_57Strutil26remove_trailing_whitespaceERNS_17basic_string_viewIcNSt3__111char_traitsIcEEEE, 
                       __ZN16OpenImageIO_v2_57Strutil3pvt5debugENS_17basic_string_viewIcNSt3__111char_traitsIcEEEE, 
                       __ZN16OpenImageIO_v2_57Strutil4findENS_17basic_string_viewIcNSt3__111char_traitsIcEEEES5_, 
                       __ZN16OpenImageIO_v2_57Strutil4stodENS_17basic_string_viewIcNSt3__111char_traitsIcEEEEPm, 
                       __ZN16OpenImageIO_v2_57Strutil4stodEPKcPm, __ZN16OpenImageIO_v2_57Strutil4stodERKNSt3__112basic_stringIcNS1_11char_traitsIcEENS1_9allocatorIcEEEEPm, 
                       __ZN16OpenImageIO_v2_57Strutil4stofENS_17basic_string_viewIcNSt3__111char_traitsIcEEEEPm, 
                       __ZN16OpenImageIO_v2_57Strutil4stofEPKcPm, __ZN16OpenImageIO_v2_57Strutil4stofERKNSt3__112basic_stringIcNS1_11char_traitsIcEENS1_9allocatorIcEEEEPm, 
                       __ZN16OpenImageIO_v2_57Strutil4stoiENS_17basic_string_viewIcNSt3__111char_traitsIcEEEEPmi, 
                       __ZN16OpenImageIO_v2_57Strutil5ifindENS_17basic_string_viewIcNSt3__111char_traitsIcEEEES5_, 
                       __ZN16OpenImageIO_v2_57Strutil5ilessENS_17basic_string_viewIcNSt3__111char_traitsIcEEEES5_, 
                       __ZN16OpenImageIO_v2_57Strutil5rfindENS_17basic_string_viewIcNSt3__111char_traitsIcEEEES5_, 
                       __ZN16OpenImageIO_v2_57Strutil5splitENS_17basic_string_viewIcNSt3__111char_traitsIcEEEERNS2_6vectorINS2_12basic_stringIcS4_NS2_9allocatorIcEEEENS8_ISA_EEEES5_i, 
                       __ZN16OpenImageIO_v2_57Strutil5splitENS_17basic_string_viewIcNSt3__111char_traitsIcEEEERNS2_6vectorIS5_NS2_9allocatorIS5_EEEES5_i, 
                       __ZN16OpenImageIO_v2_57Strutil5stouiENS_17basic_string_viewIcNSt3__111char_traitsIcEEEEPmi, 
                       __ZN16OpenImageIO_v2_57Strutil5stripENS_17basic_string_viewIcNSt3__111char_traitsIcEEEES5_, 
                       __ZN16OpenImageIO_v2_57Strutil6concatENS_17basic_string_viewIcNSt3__111char_traitsIcEEEES5_, 
                       __ZN16OpenImageIO_v2_57Strutil6irfindENS_17basic_string_viewIcNSt3__111char_traitsIcEEEES5_, 
                       __ZN16OpenImageIO_v2_57Strutil6lstripENS_17basic_string_viewIcNSt3__111char_traitsIcEEEES5_, 
                       __ZN16OpenImageIO_v2_57Strutil6repeatENS_17basic_string_viewIcNSt3__111char_traitsIcEEEEi, 
                       __ZN16OpenImageIO_v2_57Strutil6rstripENS_17basic_string_viewIcNSt3__111char_traitsIcEEEES5_, 
                       __ZN16OpenImageIO_v2_57Strutil6splitsENS_17basic_string_viewIcNSt3__111char_traitsIcEEEES5_i, 
                       __ZN16OpenImageIO_v2_57Strutil6strtodEPKcPPc, __ZN16OpenImageIO_v2_57Strutil6strtofEPKcPPc, 
                       __ZN16OpenImageIO_v2_57Strutil7iequalsENS_17basic_string_viewIcNSt3__111char_traitsIcEEEES5_, 
                       __ZN16OpenImageIO_v2_57Strutil7replaceENS_17basic_string_viewIcNSt3__111char_traitsIcEEEES5_S5_b, 
                       __ZN16OpenImageIO_v2_57Strutil7splitsvENS_17basic_string_viewIcNSt3__111char_traitsIcEEEES5_i, 
                       __ZN16OpenImageIO_v2_57Strutil7vformatEPKcPc, __ZN16OpenImageIO_v2_57Strutil8containsENS_17basic_string_viewIcNSt3__111char_traitsIcEEEES5_, 
                       __ZN16OpenImageIO_v2_57Strutil8to_lowerERNSt3__112basic_stringIcNS1_11char_traitsIcEENS1_9allocatorIcEEEE, 
                       __ZN16OpenImageIO_v2_57Strutil8to_upperERNSt3__112basic_stringIcNS1_11char_traitsIcEENS1_9allocatorIcEEEE, 
                       __ZN16OpenImageIO_v2_57Strutil8vsprintfEPKcPc, __ZN16OpenImageIO_v2_57Strutil8wordwrapENS_17basic_string_viewIcNSt3__111char_traitsIcEEEEiiS5_S5_, 
                       __ZN16OpenImageIO_v2_57Strutil9ends_withENS_17basic_string_viewIcNSt3__111char_traitsIcEEEES5_, 
                       __ZN16OpenImageIO_v2_57Strutil9icontainsENS_17basic_string_viewIcNSt3__111char_traitsIcEEEES5_, 
                       __ZN16OpenImageIO_v2_57Strutil9memformatExi, __ZN16OpenImageIO_v2_57Strutil9parse_intERNS_17basic_string_viewIcNSt3__111char_traitsIcEEEERib, 
                       __ZN16OpenImageIO_v2_57Sysutil10stacktraceEv, __ZN16OpenImageIO_v2_57Sysutil11memory_usedEb, 
                       __ZN16OpenImageIO_v2_57Sysutil13terminal_rowsEv, __ZN16OpenImageIO_v2_57Sysutil14get_local_timeEPKlP2tm, 
                       __ZN16OpenImageIO_v2_57Sysutil14max_open_filesEv, __ZN16OpenImageIO_v2_57Sysutil15physical_memoryEv, 
                       __ZN16OpenImageIO_v2_57Sysutil16terminal_columnsEv, __ZN16OpenImageIO_v2_57Sysutil17put_in_backgroundEiPPc, 
                       __ZN16OpenImageIO_v2_57Sysutil17this_program_pathEv, __ZN16OpenImageIO_v2_57Sysutil20hardware_concurrencyEv, 
                       __ZN16OpenImageIO_v2_57Sysutil20physical_concurrencyEv, __ZN16OpenImageIO_v2_57Sysutil22setup_crash_stacktraceENS_17basic_string_viewIcNSt3__111char_traitsIcEEEE, 
                       __ZN16OpenImageIO_v2_57Sysutil4Term12ansi_bgcolorEiii, __ZN16OpenImageIO_v2_57Sysutil4Term12ansi_fgcolorEiii, 
                       __ZN16OpenImageIO_v2_57Sysutil4TermC1EP7__sFILE, __ZN16OpenImageIO_v2_57Sysutil4TermC1ERKNSt3__113basic_ostreamIcNS2_11char_traitsIcEEEE, 
                       __ZN16OpenImageIO_v2_57Sysutil4TermC2EP7__sFILE, __ZN16OpenImageIO_v2_57Sysutil4TermC2ERKNSt3__113basic_ostreamIcNS2_11char_traitsIcEEEE, 
                       __ZN16OpenImageIO_v2_57Sysutil6getenvENS_17basic_string_viewIcNSt3__111char_traitsIcEEEE, 
                       __ZN16OpenImageIO_v2_57Sysutil6getenvENS_17basic_string_viewIcNSt3__111char_traitsIcEEEES5_, 
                       __ZN16OpenImageIO_v2_57Sysutil6usleepEm, __ZN16OpenImageIO_v2_57clobberEPv, 
                       __ZN16OpenImageIO_v2_57ustring11make_uniqueENS_17basic_string_viewIcNSt3__111char_traitsIcEEEE, 
                       __ZN16OpenImageIO_v2_57ustring14total_ustringsEv, __ZN16OpenImageIO_v2_57ustring15hash_collisionsEPNSt3__16vectorIS0_NS1_9allocatorIS0_EEEE, 
                       __ZN16OpenImageIO_v2_57ustring16empty_std_stringEv, __ZN16OpenImageIO_v2_57ustring6concatENS_17basic_string_viewIcNSt3__111char_traitsIcEEEES5_, 
                       __ZN16OpenImageIO_v2_57ustring6memoryEv, __ZN16OpenImageIO_v2_57ustring8TableRepC1ENS_17basic_string_viewIcNSt3__111char_traitsIcEEEEy, 
                       __ZN16OpenImageIO_v2_57ustring8TableRepC2ENS_17basic_string_viewIcNSt3__111char_traitsIcEEEEy, 
                       __ZN16OpenImageIO_v2_57ustring8TableRepD1Ev, __ZN16OpenImageIO_v2_57ustring8TableRepD2Ev, 
                       __ZN16OpenImageIO_v2_57ustring8getstatsEb, __ZN16OpenImageIO_v2_57ustring9from_hashEy, 
                       __ZN16OpenImageIO_v2_58ArgParse10do_nothingEv, __ZN16OpenImageIO_v2_58ArgParse10parse_argsEiPPKc, 
                       __ZN16OpenImageIO_v2_58ArgParse10store_trueEv, __ZN16OpenImageIO_v2_58ArgParse11add_versionENS_17basic_string_viewIcNSt3__111char_traitsIcEEEE, 
                       __ZN16OpenImageIO_v2_58ArgParse11descriptionENS_17basic_string_viewIcNSt3__111char_traitsIcEEEE, 
                       __ZN16OpenImageIO_v2_58ArgParse11store_falseEv, __ZN16OpenImageIO_v2_58ArgParse12add_argumentEPKc, 
                       __ZN16OpenImageIO_v2_58ArgParse12set_next_argEi, __ZN16OpenImageIO_v2_58ArgParse13exit_on_errorEb, 
                       __ZN16OpenImageIO_v2_58ArgParse14print_defaultsEb, __ZN16OpenImageIO_v2_58ArgParse18set_preoption_helpENSt3__18functionIFvRKS0_RNS1_13basic_ostreamIcNS1_11char_traitsIcEEEEEEE, 
                       __ZN16OpenImageIO_v2_58ArgParse19set_postoption_helpENSt3__18functionIFvRKS0_RNS1_13basic_ostreamIcNS1_11char_traitsIcEEEEEEE, 
                       __ZN16OpenImageIO_v2_58ArgParse3Arg10always_runEv, __ZN16OpenImageIO_v2_58ArgParse3Arg4destENS_17basic_string_viewIcNSt3__111char_traitsIcEEEE, 
                       __ZN16OpenImageIO_v2_58ArgParse3Arg4helpENS_17basic_string_viewIcNSt3__111char_traitsIcEEEE, 
                       __ZN16OpenImageIO_v2_58ArgParse3Arg5nargsEi, __ZN16OpenImageIO_v2_58ArgParse3Arg6actionEONSt3__18functionIFvRS1_NS_4spanIKPKcLln1EEEEEE, 
                       __ZN16OpenImageIO_v2_58ArgParse3Arg6hiddenEv, __ZN16OpenImageIO_v2_58ArgParse3Arg7metavarENS_17basic_string_viewIcNSt3__111char_traitsIcEEEE, 
                       __ZN16OpenImageIO_v2_58ArgParse4Impl10parse_argsEiPPKc, __ZN16OpenImageIO_v2_58ArgParse4Impl11find_optionEPKc, 
                       __ZN16OpenImageIO_v2_58ArgParse4Impl5foundEPKc, __ZN16OpenImageIO_v2_58ArgParse4argxEPKcz, 
                       __ZN16OpenImageIO_v2_58ArgParse4progENS_17basic_string_viewIcNSt3__111char_traitsIcEEEE, 
                       __ZN16OpenImageIO_v2_58ArgParse5abortEb, __ZN16OpenImageIO_v2_58ArgParse5introENS_17basic_string_viewIcNSt3__111char_traitsIcEEEE, 
                       __ZN16OpenImageIO_v2_58ArgParse5usageENS_17basic_string_viewIcNSt3__111char_traitsIcEEEE, 
                       __ZN16OpenImageIO_v2_58ArgParse6epilogENS_17basic_string_viewIcNSt3__111char_traitsIcEEEE, 
                       __ZN16OpenImageIO_v2_58ArgParse6paramsEv, __ZN16OpenImageIO_v2_58ArgParse7optionsEPKcz, 
                       __ZN16OpenImageIO_v2_58ArgParse7runningEb, __ZN16OpenImageIO_v2_58ArgParse8add_helpEb, 
                       __ZN16OpenImageIO_v2_58ArgParse9separatorENS_17basic_string_viewIcNSt3__111char_traitsIcEEEE, 
                       __ZN16OpenImageIO_v2_58ArgParseC1EiPPKc, __ZN16OpenImageIO_v2_58ArgParseC1Ev, 
                       __ZN16OpenImageIO_v2_58ArgParseC2EiPPKc, __ZN16OpenImageIO_v2_58ArgParseC2Ev, 
                       __ZN16OpenImageIO_v2_58ArgParseD1Ev, __ZN16OpenImageIO_v2_58ArgParseD2Ev, 
                       __ZN16OpenImageIO_v2_58Filter1D11num_filtersEv, __ZN16OpenImageIO_v2_58Filter1D14get_filterdescEi, 
                       __ZN16OpenImageIO_v2_58Filter1D14get_filterdescEiPNS_10FilterDescE, 
                       __ZN16OpenImageIO_v2_58Filter1D6createENS_17basic_string_viewIcNSt3__111char_traitsIcEEEEf, 
                       __ZN16OpenImageIO_v2_58Filter1D7destroyEPS0_, __ZN16OpenImageIO_v2_58Filter2D11num_filtersEv, 
                       __ZN16OpenImageIO_v2_58Filter2D14get_filterdescEi, __ZN16OpenImageIO_v2_58Filter2D14get_filterdescEiPNS_10FilterDescE, 
                       __ZN16OpenImageIO_v2_58Filter2D6createENS_17basic_string_viewIcNSt3__111char_traitsIcEEEEff, 
                       __ZN16OpenImageIO_v2_58Filter2D7destroyEPS0_, __ZN16OpenImageIO_v2_58TypeDesc10TypeFloat4E, 
                       __ZN16OpenImageIO_v2_58TypeDesc10TypeMatrixE, __ZN16OpenImageIO_v2_58TypeDesc10TypeNormalE, 
                       __ZN16OpenImageIO_v2_58TypeDesc10TypeStringE, __ZN16OpenImageIO_v2_58TypeDesc10TypeVectorE, 
                       __ZN16OpenImageIO_v2_58TypeDesc10fromstringENS_17basic_string_viewIcNSt3__111char_traitsIcEEEE, 
                       __ZN16OpenImageIO_v2_58TypeDesc11TypeKeyCodeE, __ZN16OpenImageIO_v2_58TypeDesc12TypeMatrix33E, 
                       __ZN16OpenImageIO_v2_58TypeDesc12TypeMatrix44E, __ZN16OpenImageIO_v2_58TypeDesc12TypeRationalE, 
                       __ZN16OpenImageIO_v2_58TypeDesc12TypeTimeCodeE, __ZN16OpenImageIO_v2_58TypeDesc14basetype_mergeES0_S0_, 
                       __ZN16OpenImageIO_v2_58TypeDesc7TypeIntE, __ZN16OpenImageIO_v2_58TypeDesc8TypeHalfE, 
                       __ZN16OpenImageIO_v2_58TypeDesc9TypeColorE, __ZN16OpenImageIO_v2_58TypeDesc9TypeFloatE, 
                       __ZN16OpenImageIO_v2_58TypeDesc9TypePointE, __ZN16OpenImageIO_v2_58TypeDescC1ENS_17basic_string_viewIcNSt3__111char_traitsIcEEEE, 
                       __ZN16OpenImageIO_v2_58TypeDescC2ENS_17basic_string_viewIcNSt3__111char_traitsIcEEEE, 
                       __ZN16OpenImageIO_v2_58farmhash13Fingerprint32EPKcm, __ZN16OpenImageIO_v2_58farmhash13Fingerprint64EPKcm, 
                       __ZN16OpenImageIO_v2_58farmhash14Fingerprint128EPKcm, __ZN16OpenImageIO_v2_58farmhash14Hash32WithSeedEPKcmj, 
                       __ZN16OpenImageIO_v2_58farmhash14Hash64WithSeedEPKcmy, __ZN16OpenImageIO_v2_58farmhash15Hash128WithSeedEPKcmNSt3__14pairIyyEE, 
                       __ZN16OpenImageIO_v2_58farmhash15Hash64WithSeedsEPKcmyy, __ZN16OpenImageIO_v2_58farmhash4HashEPKcm, 
                       __ZN16OpenImageIO_v2_58farmhash6Hash32EPKcm, __ZN16OpenImageIO_v2_58farmhash6Hash64EPKcm, 
                       __ZN16OpenImageIO_v2_58farmhash7Hash128EPKcm, __ZN16OpenImageIO_v2_58task_set13wait_for_taskEmb, 
                       __ZN16OpenImageIO_v2_58task_set4waitEb, __ZN16OpenImageIO_v2_58tostringENS_8TypeDescEPKvPKcS4_S4_S4_S4_S4_, 
                       __ZN16OpenImageIO_v2_58tostringENS_8TypeDescEPKvRKNS_19tostring_formattingE, 
                       __ZN16OpenImageIO_v2_5lsERNSt3__113basic_ostreamIcNS0_11char_traitsIcEEEERKNS_11BenchmarkerE, 
                       __ZN5boost10filesystem16filesystem_error14get_empty_pathEv, 
                       __ZN5boost10filesystem16filesystem_errorC1EPKcNS_6system10error_codeE, 
                       __ZN5boost10filesystem16filesystem_errorC1EPKcRKNS0_4pathENS_6system10error_codeE, 
                       __ZN5boost10filesystem16filesystem_errorC1EPKcRKNS0_4pathES6_NS_6system10error_codeE, 
                       __ZN5boost10filesystem16filesystem_errorC1ERKNSt3__112basic_stringIcNS2_11char_traitsIcEENS2_9allocatorIcEEEENS_6system10error_codeE, 
                       __ZN5boost10filesystem16filesystem_errorC1ERKNSt3__112basic_stringIcNS2_11char_traitsIcEENS2_9allocatorIcEEEERKNS0_4pathENS_6system10error_codeE, 
                       __ZN5boost10filesystem16filesystem_errorC1ERKNSt3__112basic_stringIcNS2_11char_traitsIcEENS2_9allocatorIcEEEERKNS0_4pathESD_NS_6system10error_codeE, 
                       __ZN5boost10filesystem16filesystem_errorC1ERKS1_, __ZN5boost10filesystem16filesystem_errorC2EPKcNS_6system10error_codeE, 
                       __ZN5boost10filesystem16filesystem_errorC2EPKcRKNS0_4pathENS_6system10error_codeE, 
                       __ZN5boost10filesystem16filesystem_errorC2EPKcRKNS0_4pathES6_NS_6system10error_codeE, 
                       __ZN5boost10filesystem16filesystem_errorC2ERKNSt3__112basic_stringIcNS2_11char_traitsIcEENS2_9allocatorIcEEEENS_6system10error_codeE, 
                       __ZN5boost10filesystem16filesystem_errorC2ERKNSt3__112basic_stringIcNS2_11char_traitsIcEENS2_9allocatorIcEEEERKNS0_4pathENS_6system10error_codeE, 
                       __ZN5boost10filesystem16filesystem_errorC2ERKNSt3__112basic_stringIcNS2_11char_traitsIcEENS2_9allocatorIcEEEERKNS0_4pathESD_NS_6system10error_codeE, 
                       __ZN5boost10filesystem16filesystem_errorC2ERKS1_, __ZN5boost10filesystem16filesystem_errorD0Ev, 
                       __ZN5boost10filesystem16filesystem_errorD1Ev, __ZN5boost10filesystem16filesystem_errorD2Ev, 
                       __ZN5boost10filesystem16filesystem_erroraSERKS1_, __ZN5boost10filesystem6detail18utf8_codecvt_facet15get_octet_countEh, 
                       __ZN5boost10filesystem6detail18utf8_codecvt_facet24get_cont_octet_out_countEw, 
                       __ZN5boost10filesystem6detail18utf8_codecvt_facetC1Em, __ZN5boost10filesystem6detail18utf8_codecvt_facetC2Em, 
                       __ZN5boost10filesystem6detail18utf8_codecvt_facetD0Ev, __ZN5boost10filesystem6detail18utf8_codecvt_facetD1Ev, 
                       __ZN5boost10filesystem6detail18utf8_codecvt_facetD2Ev, __ZN5boost11this_thread18interruption_pointEv, 
                       __ZN5boost11this_thread20disable_interruptionC1Ev, __ZN5boost11this_thread20disable_interruptionC2Ev, 
                       __ZN5boost11this_thread20disable_interruptionD1Ev, __ZN5boost11this_thread20disable_interruptionD2Ev, 
                       __ZN5boost11this_thread20interruption_enabledEv, __ZN5boost11this_thread20restore_interruptionC1ERNS0_20disable_interruptionE, 
                       __ZN5boost11this_thread20restore_interruptionC2ERNS0_20disable_interruptionE, 
                       __ZN5boost11this_thread20restore_interruptionD1Ev, __ZN5boost11this_thread20restore_interruptionD2Ev, 
                       __ZN5boost11this_thread21no_interruption_point6hidden18sleep_for_internalERKNS_6detail17platform_durationE, 
                       __ZN5boost11this_thread22interruption_requestedEv, __ZN5boost11this_thread5yieldEv, 
                       __ZN5boost13thread_detail17enter_once_regionERNS_9once_flagE, 
                       __ZN5boost13thread_detail18commit_once_regionERNS_9once_flagE, 
                       __ZN5boost13thread_detail20rollback_once_regionERNS_9once_flagE, 
                       __ZN5boost25notify_all_at_thread_exitERNS_18condition_variableENS_11unique_lockINS_5mutexEEE, 
                       __ZN5boost6detail12get_tss_dataEPKv, __ZN5boost6detail12set_tss_dataEPKvPFvPFvPvES3_ES5_S3_b, 
                       __ZN5boost6detail16thread_data_baseD0Ev, __ZN5boost6detail16thread_data_baseD1Ev, 
                       __ZN5boost6detail16thread_data_baseD2Ev, __ZN5boost6detail23get_current_thread_dataEv, 
                       __ZN5boost6detail24add_thread_exit_functionEPNS0_25thread_exit_function_baseE, 
                       __ZN5boost6detail25make_ready_at_thread_exitENS_10shared_ptrINS0_17shared_state_baseEEE, 
                       __ZN5boost6thread13join_noexceptEv, __ZN5boost6thread13native_handleEv, 
                       __ZN5boost6thread20hardware_concurrencyEv, __ZN5boost6thread20physical_concurrencyEv, 
                       __ZN5boost6thread21start_thread_noexceptERKNS_17thread_attributesE, 
                       __ZN5boost6thread21start_thread_noexceptEv, __ZN5boost6thread26do_try_join_until_noexceptERKNS_6detail23real_platform_timepointERb, 
                       __ZN5boost6thread6detachEv, __ZN5boost6thread9interruptEv, 
                       __ZN5boost6threadC1Ev, __ZN5boost6threadC2Ev, __ZNK16OpenImageIO_v2_510Filesystem6IOFile4sizeEv, 
                       __ZNK16OpenImageIO_v2_510Filesystem6IOFile5flushEv, __ZNK16OpenImageIO_v2_510Filesystem7IOProxy5errorEv, 
                       __ZNK16OpenImageIO_v2_510ParamValue10get_stringEi, __ZNK16OpenImageIO_v2_510ParamValue11get_ustringEi, 
                       __ZNK16OpenImageIO_v2_510ParamValue15get_int_indexedEii, __ZNK16OpenImageIO_v2_510ParamValue17get_float_indexedEif, 
                       __ZNK16OpenImageIO_v2_510ParamValue18get_string_indexedEi, 
                       __ZNK16OpenImageIO_v2_510ParamValue19get_ustring_indexedEi, 
                       __ZNK16OpenImageIO_v2_510ParamValue7get_intEi, __ZNK16OpenImageIO_v2_510ParamValue9get_floatEf, 
                       __ZNK16OpenImageIO_v2_511thread_pool13jobs_in_queueEv, __ZNK16OpenImageIO_v2_511thread_pool22this_thread_is_in_poolEv, 
                       __ZNK16OpenImageIO_v2_511thread_pool4idleEv, __ZNK16OpenImageIO_v2_511thread_pool4sizeEv, 
                       __ZNK16OpenImageIO_v2_511thread_pool9is_workerENSt3__111__thread_idE, 
                       __ZNK16OpenImageIO_v2_511thread_pool9very_busyEv, __ZNK16OpenImageIO_v2_514ParamValueList10get_stringENS_17basic_string_viewIcNSt3__111char_traitsIcEEEES5_bb, 
                       __ZNK16OpenImageIO_v2_514ParamValueList11get_ustringENS_17basic_string_viewIcNSt3__111char_traitsIcEEEES5_bb, 
                       __ZNK16OpenImageIO_v2_514ParamValueList12getattributeENS_17basic_string_viewIcNSt3__111char_traitsIcEEEENS_8TypeDescEPvb, 
                       __ZNK16OpenImageIO_v2_514ParamValueList12getattributeENS_17basic_string_viewIcNSt3__111char_traitsIcEEEERNS2_12basic_stringIcS4_NS2_9allocatorIcEEEEb, 
                       __ZNK16OpenImageIO_v2_514ParamValueList20getattribute_indexedENS_17basic_string_viewIcNSt3__111char_traitsIcEEEEiNS_8TypeDescEPvb, 
                       __ZNK16OpenImageIO_v2_514ParamValueList20getattribute_indexedENS_17basic_string_viewIcNSt3__111char_traitsIcEEEEiRNS2_12basic_stringIcS4_NS2_9allocatorIcEEEEb, 
                       __ZNK16OpenImageIO_v2_514ParamValueList4findENS_17basic_string_viewIcNSt3__111char_traitsIcEEEENS_8TypeDescEb, 
                       __ZNK16OpenImageIO_v2_514ParamValueList4findENS_7ustringENS_8TypeDescEb, 
                       __ZNK16OpenImageIO_v2_514ParamValueList7get_intENS_17basic_string_viewIcNSt3__111char_traitsIcEEEEibb, 
                       __ZNK16OpenImageIO_v2_514ParamValueList8containsENS_17basic_string_viewIcNSt3__111char_traitsIcEEEENS_8TypeDescEb, 
                       __ZNK16OpenImageIO_v2_514ParamValueList9get_floatENS_17basic_string_viewIcNSt3__111char_traitsIcEEEEfbb, 
                       __ZNK16OpenImageIO_v2_57Strutil11StringILessclEPKcS3_, __ZNK16OpenImageIO_v2_57Strutil12StringIEqualclEPKcS3_, 
                       __ZNK16OpenImageIO_v2_57Sysutil4Term4ansiENS_17basic_string_viewIcNSt3__111char_traitsIcEEEE, 
                       __ZNK16OpenImageIO_v2_58ArgParse10briefusageEv, __ZNK16OpenImageIO_v2_58ArgParse10print_helpEv, 
                       __ZNK16OpenImageIO_v2_58ArgParse11current_argEv, __ZNK16OpenImageIO_v2_58ArgParse12command_lineEv, 
                       __ZNK16OpenImageIO_v2_58ArgParse3Arg4destEv, __ZNK16OpenImageIO_v2_58ArgParse3Arg4nameEv, 
                       __ZNK16OpenImageIO_v2_58ArgParse4Impl13closest_matchENS_17basic_string_viewIcNSt3__111char_traitsIcEEEEm, 
                       __ZNK16OpenImageIO_v2_58ArgParse7abortedEv, __ZNK16OpenImageIO_v2_58ArgParse7cparamsEv, 
                       __ZNK16OpenImageIO_v2_58ArgParse7runningEv, __ZNK16OpenImageIO_v2_58ArgParse8geterrorEb, 
                       __ZNK16OpenImageIO_v2_58ArgParse9has_errorEv, __ZNK16OpenImageIO_v2_58ArgParse9prog_nameEv, 
                       __ZNK16OpenImageIO_v2_58TypeDesc17is_floating_pointEv, __ZNK16OpenImageIO_v2_58TypeDesc5c_strEv, 
                       __ZNK16OpenImageIO_v2_58TypeDesc8basesizeEv, __ZNK16OpenImageIO_v2_58TypeDesc9is_signedEv, 
                       __ZNK16OpenImageIO_v2_58TypeDescltERKS0_, __ZNK5boost10filesystem16filesystem_error4whatEv, 
                       __ZNK5boost10filesystem6detail18utf8_codecvt_facet5do_inER11__mbstate_tPKcS6_RS6_PwS8_RS8_, 
                       __ZNK5boost10filesystem6detail18utf8_codecvt_facet6do_outER11__mbstate_tPKwS6_RS6_PcS8_RS8_, 
                       __ZNK5boost10filesystem6detail18utf8_codecvt_facet9do_lengthER11__mbstate_tPKcS6_m, 
                       __ZNK5boost6thread15get_thread_infoEv, __ZNK5boost6thread22interruption_requestedEv, 
                       __ZNK5boost6thread8joinableEv, __ZTIN16OpenImageIO_v2_510Filesystem11IOMemReaderE, 
                       __ZTIN16OpenImageIO_v2_510Filesystem11IOVecOutputE, __ZTIN16OpenImageIO_v2_510Filesystem6IOFileE, 
                       __ZTIN16OpenImageIO_v2_510Filesystem7IOProxyE, __ZTIN16OpenImageIO_v2_512ErrorHandlerE, 
                       __ZTIN5boost10filesystem16filesystem_errorE, __ZTIN5boost10filesystem6detail18utf8_codecvt_facetE, 
                       __ZTIN5boost6detail16thread_data_baseE, __ZTSN16OpenImageIO_v2_510Filesystem11IOMemReaderE, 
                       __ZTSN16OpenImageIO_v2_510Filesystem11IOVecOutputE, __ZTSN16OpenImageIO_v2_510Filesystem6IOFileE, 
                       __ZTSN16OpenImageIO_v2_510Filesystem7IOProxyE, __ZTSN16OpenImageIO_v2_512ErrorHandlerE, 
                       __ZTSN5boost10filesystem16filesystem_errorE, __ZTSN5boost10filesystem6detail18utf8_codecvt_facetE, 
                       __ZTSN5boost6detail16thread_data_baseE, __ZTVN16OpenImageIO_v2_510Filesystem11IOMemReaderE, 
                       __ZTVN16OpenImageIO_v2_510Filesystem11IOVecOutputE, __ZTVN16OpenImageIO_v2_510Filesystem6IOFileE, 
                       __ZTVN16OpenImageIO_v2_510Filesystem7IOProxyE, __ZTVN16OpenImageIO_v2_512ErrorHandlerE, 
                       __ZTVN5boost10filesystem16filesystem_errorE, __ZTVN5boost10filesystem6detail18utf8_codecvt_facetE, 
                       __ZTVN5boost6detail16thread_data_baseE ]
    weak-symbols:    [ __ZN5boost6system6detail17system_cat_holderIvE8instanceE, 
                       __ZN5boost6system6detail18generic_cat_holderIvE8instanceE ]
...
