--- !tapi-tbd
tbd-version:     4
targets:         [ arm64e-macos ]
install-name:    '/System/Library/PrivateFrameworks/CoreUSDEdit.framework/Versions/A/Libraries/libOpenEXRUtil.dylib'
current-version: 30.11.1
compatibility-version: 30
exports:
  - targets:         [ arm64e-macos ]
    symbols:         [ __ZN7Imf_3_110ImageLevel11shiftPixelsEii, __ZN7Imf_3_110ImageLevel6resizeERKN9Imath_3_13BoxINS1_4Vec2IiEEEE, 
                       __ZN7Imf_3_110ImageLevelC2ERNS_5ImageEii, __ZN7Imf_3_110ImageLevelD0Ev, 
                       __ZN7Imf_3_110ImageLevelD1Ev, __ZN7Imf_3_110ImageLevelD2Ev, 
                       __ZN7Imf_3_112ImageChannel6resizeEv, __ZN7Imf_3_112ImageChannelC2ERNS_10ImageLevelEiib, 
                       __ZN7Imf_3_112ImageChannelD0Ev, __ZN7Imf_3_112ImageChannelD1Ev, 
                       __ZN7Imf_3_112ImageChannelD2Ev, __ZN7Imf_3_113loadDeepImageERKNSt3__112basic_stringIcNS0_11char_traitsIcEENS0_9allocatorIcEEEERNS_6HeaderERNS_9DeepImageE, 
                       __ZN7Imf_3_113loadDeepImageERKNSt3__112basic_stringIcNS0_11char_traitsIcEENS0_9allocatorIcEEEERNS_9DeepImageE, 
                       __ZN7Imf_3_113loadFlatImageERKNSt3__112basic_stringIcNS0_11char_traitsIcEENS0_9allocatorIcEEEERNS_6HeaderERNS_9FlatImageE, 
                       __ZN7Imf_3_113loadFlatImageERKNSt3__112basic_stringIcNS0_11char_traitsIcEENS0_9allocatorIcEEEERNS_9FlatImageE, 
                       __ZN7Imf_3_113saveDeepImageERKNSt3__112basic_stringIcNS0_11char_traitsIcEENS0_9allocatorIcEEEERKNS_6HeaderERKNS_9DeepImageENS_16DataWindowSourceE, 
                       __ZN7Imf_3_113saveDeepImageERKNSt3__112basic_stringIcNS0_11char_traitsIcEENS0_9allocatorIcEEEERKNS_9DeepImageE, 
                       __ZN7Imf_3_113saveFlatImageERKNSt3__112basic_stringIcNS0_11char_traitsIcEENS0_9allocatorIcEEEERKNS_6HeaderERKNS_9FlatImageENS_16DataWindowSourceE, 
                       __ZN7Imf_3_113saveFlatImageERKNSt3__112basic_stringIcNS0_11char_traitsIcEENS0_9allocatorIcEEEERKNS_9FlatImageE, 
                       __ZN7Imf_3_114DeepImageLevel11findChannelERKNSt3__112basic_stringIcNS1_11char_traitsIcEENS1_9allocatorIcEEEE, 
                       __ZN7Imf_3_114DeepImageLevel3endEv, __ZN7Imf_3_114DeepImageLevel5beginEv, 
                       __ZN7Imf_3_114DeepImageLevel7channelERKNSt3__112basic_stringIcNS1_11char_traitsIcEENS1_9allocatorIcEEEE, 
                       __ZN7Imf_3_114DeepImageLevel9deepImageEv, __ZN7Imf_3_114FlatImageLevel11findChannelERKNSt3__112basic_stringIcNS1_11char_traitsIcEENS1_9allocatorIcEEEE, 
                       __ZN7Imf_3_114FlatImageLevel3endEv, __ZN7Imf_3_114FlatImageLevel5beginEv, 
                       __ZN7Imf_3_114FlatImageLevel7channelERKNSt3__112basic_stringIcNS1_11char_traitsIcEENS1_9allocatorIcEEEE, 
                       __ZN7Imf_3_114FlatImageLevel9flatImageEv, __ZN7Imf_3_116DeepImageChannel12sampleCountsEv, 
                       __ZN7Imf_3_116DeepImageChannel6resizeEv, __ZN7Imf_3_116DeepImageChannel9deepLevelEv, 
                       __ZN7Imf_3_116DeepImageChannelC2ERNS_14DeepImageLevelEb, __ZN7Imf_3_116DeepImageChannelD0Ev, 
                       __ZN7Imf_3_116DeepImageChannelD1Ev, __ZN7Imf_3_116DeepImageChannelD2Ev, 
                       __ZN7Imf_3_116FlatImageChannel6resizeEv, __ZN7Imf_3_116FlatImageChannel9flatLevelEv, 
                       __ZN7Imf_3_116FlatImageChannelC2ERNS_14FlatImageLevelEiib, 
                       __ZN7Imf_3_116FlatImageChannelD0Ev, __ZN7Imf_3_116FlatImageChannelD1Ev, 
                       __ZN7Imf_3_116FlatImageChannelD2Ev, __ZN7Imf_3_116checkOpenEXRFileEPKcbbb, 
                       __ZN7Imf_3_116checkOpenEXRFileEPKcmbbb, __ZN7Imf_3_117dataWindowForFileERKNS_6HeaderERKNS_5ImageENS_16DataWindowSourceE, 
                       __ZN7Imf_3_118SampleCountChannel16resetBasePointerEv, __ZN7Imf_3_118SampleCountChannel3setEiPj, 
                       __ZN7Imf_3_118SampleCountChannel3setEiij, __ZN7Imf_3_118SampleCountChannel5clearEv, 
                       __ZN7Imf_3_118SampleCountChannel6resizeEv, __ZN7Imf_3_118SampleCountChannel7endEditEv, 
                       __ZN7Imf_3_118SampleCountChannel9beginEditEv, __ZN7Imf_3_118SampleCountChannel9deepLevelEv, 
                       __ZN7Imf_3_118SampleCountChannelC1ERNS_14DeepImageLevelE, 
                       __ZN7Imf_3_118SampleCountChannelC2ERNS_14DeepImageLevelE, 
                       __ZN7Imf_3_118SampleCountChannelD0Ev, __ZN7Imf_3_118SampleCountChannelD1Ev, 
                       __ZN7Imf_3_118SampleCountChannelD2Ev, __ZN7Imf_3_118loadDeepTiledImageERKNSt3__112basic_stringIcNS0_11char_traitsIcEENS0_9allocatorIcEEEERNS_6HeaderERNS_9DeepImageE, 
                       __ZN7Imf_3_118loadDeepTiledImageERKNSt3__112basic_stringIcNS0_11char_traitsIcEENS0_9allocatorIcEEEERNS_9DeepImageE, 
                       __ZN7Imf_3_118loadFlatTiledImageERKNSt3__112basic_stringIcNS0_11char_traitsIcEENS0_9allocatorIcEEEERNS_6HeaderERNS_9FlatImageE, 
                       __ZN7Imf_3_118loadFlatTiledImageERKNSt3__112basic_stringIcNS0_11char_traitsIcEENS0_9allocatorIcEEEERNS_9FlatImageE, 
                       __ZN7Imf_3_118saveDeepTiledImageERKNSt3__112basic_stringIcNS0_11char_traitsIcEENS0_9allocatorIcEEEERKNS_6HeaderERKNS_9DeepImageENS_16DataWindowSourceE, 
                       __ZN7Imf_3_118saveDeepTiledImageERKNSt3__112basic_stringIcNS0_11char_traitsIcEENS0_9allocatorIcEEEERKNS_9DeepImageE, 
                       __ZN7Imf_3_118saveFlatTiledImageERKNSt3__112basic_stringIcNS0_11char_traitsIcEENS0_9allocatorIcEEEERKNS_6HeaderERKNS_9FlatImageENS_16DataWindowSourceE, 
                       __ZN7Imf_3_118saveFlatTiledImageERKNSt3__112basic_stringIcNS0_11char_traitsIcEENS0_9allocatorIcEEEERKNS_9FlatImageE, 
                       __ZN7Imf_3_121loadDeepScanLineImageERKNSt3__112basic_stringIcNS0_11char_traitsIcEENS0_9allocatorIcEEEERNS_6HeaderERNS_9DeepImageE, 
                       __ZN7Imf_3_121loadDeepScanLineImageERKNSt3__112basic_stringIcNS0_11char_traitsIcEENS0_9allocatorIcEEEERNS_9DeepImageE, 
                       __ZN7Imf_3_121loadFlatScanLineImageERKNSt3__112basic_stringIcNS0_11char_traitsIcEENS0_9allocatorIcEEEERNS_6HeaderERNS_9FlatImageE, 
                       __ZN7Imf_3_121loadFlatScanLineImageERKNSt3__112basic_stringIcNS0_11char_traitsIcEENS0_9allocatorIcEEEERNS_9FlatImageE, 
                       __ZN7Imf_3_121saveDeepScanLineImageERKNSt3__112basic_stringIcNS0_11char_traitsIcEENS0_9allocatorIcEEEERKNS_6HeaderERKNS_9DeepImageENS_16DataWindowSourceE, 
                       __ZN7Imf_3_121saveDeepScanLineImageERKNSt3__112basic_stringIcNS0_11char_traitsIcEENS0_9allocatorIcEEEERKNS_9DeepImageE, 
                       __ZN7Imf_3_121saveFlatScanLineImageERKNSt3__112basic_stringIcNS0_11char_traitsIcEENS0_9allocatorIcEEEERKNS_6HeaderERKNS_9FlatImageENS_16DataWindowSourceE, 
                       __ZN7Imf_3_121saveFlatScanLineImageERKNSt3__112basic_stringIcNS0_11char_traitsIcEENS0_9allocatorIcEEEERKNS_9FlatImageE, 
                       __ZN7Imf_3_15Image11shiftPixelsEii, __ZN7Imf_3_15Image12eraseChannelERKNSt3__112basic_stringIcNS1_11char_traitsIcEENS1_9allocatorIcEEEE, 
                       __ZN7Imf_3_15Image13clearChannelsEv, __ZN7Imf_3_15Image13insertChannelERKNSt3__112basic_stringIcNS1_11char_traitsIcEENS1_9allocatorIcEEEENS_9PixelTypeEiib, 
                       __ZN7Imf_3_15Image13insertChannelERKNSt3__112basic_stringIcNS1_11char_traitsIcEENS1_9allocatorIcEEEERKNS_7ChannelE, 
                       __ZN7Imf_3_15Image13renameChannelERKNSt3__112basic_stringIcNS1_11char_traitsIcEENS1_9allocatorIcEEEES9_, 
                       __ZN7Imf_3_15Image14renameChannelsERKNSt3__13mapINS1_12basic_stringIcNS1_11char_traitsIcEENS1_9allocatorIcEEEES8_NS1_4lessIS8_EENS6_INS1_4pairIKS8_S8_EEEEEE, 
                       __ZN7Imf_3_15Image5levelEi, __ZN7Imf_3_15Image5levelEii, __ZN7Imf_3_15Image6resizeERKN9Imath_3_13BoxINS1_4Vec2IiEEEE, 
                       __ZN7Imf_3_15Image6resizeERKN9Imath_3_13BoxINS1_4Vec2IiEEEENS_9LevelModeENS_17LevelRoundingModeE, 
                       __ZN7Imf_3_15ImageC2Ev, __ZN7Imf_3_15ImageD0Ev, __ZN7Imf_3_15ImageD1Ev, 
                       __ZN7Imf_3_15ImageD2Ev, __ZN7Imf_3_19DeepImage5levelEi, __ZN7Imf_3_19DeepImage5levelEii, 
                       __ZN7Imf_3_19DeepImage8newLevelEiiRKN9Imath_3_13BoxINS1_4Vec2IiEEEE, 
                       __ZN7Imf_3_19DeepImageC1ERKN9Imath_3_13BoxINS1_4Vec2IiEEEENS_9LevelModeENS_17LevelRoundingModeE, 
                       __ZN7Imf_3_19DeepImageC1Ev, __ZN7Imf_3_19DeepImageC2ERKN9Imath_3_13BoxINS1_4Vec2IiEEEENS_9LevelModeENS_17LevelRoundingModeE, 
                       __ZN7Imf_3_19DeepImageC2Ev, __ZN7Imf_3_19DeepImageD0Ev, __ZN7Imf_3_19DeepImageD1Ev, 
                       __ZN7Imf_3_19DeepImageD2Ev, __ZN7Imf_3_19FlatImage5levelEi, 
                       __ZN7Imf_3_19FlatImage5levelEii, __ZN7Imf_3_19FlatImage8newLevelEiiRKN9Imath_3_13BoxINS1_4Vec2IiEEEE, 
                       __ZN7Imf_3_19FlatImageC1ERKN9Imath_3_13BoxINS1_4Vec2IiEEEENS_9LevelModeENS_17LevelRoundingModeE, 
                       __ZN7Imf_3_19FlatImageC1Ev, __ZN7Imf_3_19FlatImageC2ERKN9Imath_3_13BoxINS1_4Vec2IiEEEENS_9LevelModeENS_17LevelRoundingModeE, 
                       __ZN7Imf_3_19FlatImageC2Ev, __ZN7Imf_3_19FlatImageD0Ev, __ZN7Imf_3_19FlatImageD1Ev, 
                       __ZN7Imf_3_19FlatImageD2Ev, __ZN7Imf_3_19loadImageERKNSt3__112basic_stringIcNS0_11char_traitsIcEENS0_9allocatorIcEEEE, 
                       __ZN7Imf_3_19loadImageERKNSt3__112basic_stringIcNS0_11char_traitsIcEENS0_9allocatorIcEEEERNS_6HeaderE, 
                       __ZN7Imf_3_19saveImageERKNSt3__112basic_stringIcNS0_11char_traitsIcEENS0_9allocatorIcEEEERKNS_5ImageE, 
                       __ZN7Imf_3_19saveImageERKNSt3__112basic_stringIcNS0_11char_traitsIcEENS0_9allocatorIcEEEERKNS_6HeaderERKNS_5ImageENS_16DataWindowSourceE, 
                       __ZNK7Imf_3_110ImageLevel18throwChannelExistsERKNSt3__112basic_stringIcNS1_11char_traitsIcEENS1_9allocatorIcEEEE, 
                       __ZNK7Imf_3_110ImageLevel19throwBadChannelNameERKNSt3__112basic_stringIcNS1_11char_traitsIcEENS1_9allocatorIcEEEE, 
                       __ZNK7Imf_3_110ImageLevel25throwBadChannelNameOrTypeERKNSt3__112basic_stringIcNS1_11char_traitsIcEENS1_9allocatorIcEEEE, 
                       __ZNK7Imf_3_112ImageChannel11boundsCheckEii, __ZNK7Imf_3_112ImageChannel7channelEv, 
                       __ZNK7Imf_3_114DeepImageLevel11findChannelERKNSt3__112basic_stringIcNS1_11char_traitsIcEENS1_9allocatorIcEEEE, 
                       __ZNK7Imf_3_114DeepImageLevel3endEv, __ZNK7Imf_3_114DeepImageLevel5beginEv, 
                       __ZNK7Imf_3_114DeepImageLevel7channelERKNSt3__112basic_stringIcNS1_11char_traitsIcEENS1_9allocatorIcEEEE, 
                       __ZNK7Imf_3_114DeepImageLevel9deepImageEv, __ZNK7Imf_3_114FlatImageLevel11findChannelERKNSt3__112basic_stringIcNS1_11char_traitsIcEENS1_9allocatorIcEEEE, 
                       __ZNK7Imf_3_114FlatImageLevel3endEv, __ZNK7Imf_3_114FlatImageLevel5beginEv, 
                       __ZNK7Imf_3_114FlatImageLevel7channelERKNSt3__112basic_stringIcNS1_11char_traitsIcEENS1_9allocatorIcEEEE, 
                       __ZNK7Imf_3_114FlatImageLevel9flatImageEv, __ZNK7Imf_3_116DeepImageChannel12sampleCountsEv, 
                       __ZNK7Imf_3_116DeepImageChannel9deepLevelEv, __ZNK7Imf_3_116FlatImageChannel9flatLevelEv, 
                       __ZNK7Imf_3_118SampleCountChannel5sliceEv, __ZNK7Imf_3_118SampleCountChannel9deepLevelEv, 
                       __ZNK7Imf_3_118SampleCountChannel9pixelTypeEv, __ZNK7Imf_3_121TypedDeepImageChannelIN9Imath_3_14halfEE9pixelTypeEv, 
                       __ZNK7Imf_3_121TypedDeepImageChannelIfE9pixelTypeEv, __ZNK7Imf_3_121TypedDeepImageChannelIjE9pixelTypeEv, 
                       __ZNK7Imf_3_15Image10dataWindowEv, __ZNK7Imf_3_15Image10levelWidthEi, 
                       __ZNK7Imf_3_15Image10numXLevelsEv, __ZNK7Imf_3_15Image10numYLevelsEv, 
                       __ZNK7Imf_3_15Image11levelHeightEi, __ZNK7Imf_3_15Image17levelRoundingModeEv, 
                       __ZNK7Imf_3_15Image18dataWindowForLevelEi, __ZNK7Imf_3_15Image18dataWindowForLevelEii, 
                       __ZNK7Imf_3_15Image5levelEi, __ZNK7Imf_3_15Image5levelEii, 
                       __ZNK7Imf_3_15Image9levelModeEv, __ZNK7Imf_3_15Image9numLevelsEv, 
                       __ZNK7Imf_3_19DeepImage5levelEi, __ZNK7Imf_3_19DeepImage5levelEii, 
                       __ZNK7Imf_3_19FlatImage5levelEi, __ZNK7Imf_3_19FlatImage5levelEii, 
                       __ZTIN7Imf_3_110ImageLevelE, __ZTIN7Imf_3_112ImageChannelE, 
                       __ZTIN7Imf_3_114DeepImageLevelE, __ZTIN7Imf_3_114FlatImageLevelE, 
                       __ZTIN7Imf_3_116DeepImageChannelE, __ZTIN7Imf_3_116FlatImageChannelE, 
                       __ZTIN7Imf_3_118SampleCountChannelE, __ZTIN7Imf_3_15ImageE, 
                       __ZTIN7Imf_3_19DeepImageE, __ZTIN7Imf_3_19FlatImageE, __ZTSN7Imf_3_110ImageLevelE, 
                       __ZTSN7Imf_3_112ImageChannelE, __ZTSN7Imf_3_114DeepImageLevelE, 
                       __ZTSN7Imf_3_114FlatImageLevelE, __ZTSN7Imf_3_116DeepImageChannelE, 
                       __ZTSN7Imf_3_116FlatImageChannelE, __ZTSN7Imf_3_118SampleCountChannelE, 
                       __ZTSN7Imf_3_15ImageE, __ZTSN7Imf_3_19DeepImageE, __ZTSN7Imf_3_19FlatImageE, 
                       __ZTVN7Imf_3_110ImageLevelE, __ZTVN7Imf_3_112ImageChannelE, 
                       __ZTVN7Imf_3_114DeepImageLevelE, __ZTVN7Imf_3_114FlatImageLevelE, 
                       __ZTVN7Imf_3_116DeepImageChannelE, __ZTVN7Imf_3_116FlatImageChannelE, 
                       __ZTVN7Imf_3_118SampleCountChannelE, __ZTVN7Imf_3_15ImageE, 
                       __ZTVN7Imf_3_19DeepImageE, __ZTVN7Imf_3_19FlatImageE ]
    weak-symbols:    [ __ZN7Imf_3_121TypedDeepImageChannelIN9Imath_3_14halfEE2atEii, 
                       __ZN7Imf_3_121TypedDeepImageChannelIN9Imath_3_14halfEE3rowEi, 
                       __ZN7Imf_3_121TypedDeepImageChannelIN9Imath_3_14halfEEclEii, 
                       __ZN7Imf_3_121TypedDeepImageChannelIfE2atEii, __ZN7Imf_3_121TypedDeepImageChannelIfE3rowEi, 
                       __ZN7Imf_3_121TypedDeepImageChannelIfEclEii, __ZN7Imf_3_121TypedDeepImageChannelIjE2atEii, 
                       __ZN7Imf_3_121TypedDeepImageChannelIjE3rowEi, __ZN7Imf_3_121TypedDeepImageChannelIjEclEii, 
                       __ZN7Imf_3_121TypedFlatImageChannelIN9Imath_3_14halfEE2atEii, 
                       __ZN7Imf_3_121TypedFlatImageChannelIN9Imath_3_14halfEE3rowEi, 
                       __ZN7Imf_3_121TypedFlatImageChannelIN9Imath_3_14halfEEclEii, 
                       __ZN7Imf_3_121TypedFlatImageChannelIfE2atEii, __ZN7Imf_3_121TypedFlatImageChannelIfE3rowEi, 
                       __ZN7Imf_3_121TypedFlatImageChannelIfEclEii, __ZN7Imf_3_121TypedFlatImageChannelIjE2atEii, 
                       __ZN7Imf_3_121TypedFlatImageChannelIjE3rowEi, __ZN7Imf_3_121TypedFlatImageChannelIjEclEii, 
                       __ZNK7Imf_3_121TypedDeepImageChannelIN9Imath_3_14halfEE2atEii, 
                       __ZNK7Imf_3_121TypedDeepImageChannelIN9Imath_3_14halfEE3rowEi, 
                       __ZNK7Imf_3_121TypedDeepImageChannelIN9Imath_3_14halfEE5sliceEv, 
                       __ZNK7Imf_3_121TypedDeepImageChannelIN9Imath_3_14halfEEclEii, 
                       __ZNK7Imf_3_121TypedDeepImageChannelIfE2atEii, __ZNK7Imf_3_121TypedDeepImageChannelIfE3rowEi, 
                       __ZNK7Imf_3_121TypedDeepImageChannelIfE5sliceEv, __ZNK7Imf_3_121TypedDeepImageChannelIfEclEii, 
                       __ZNK7Imf_3_121TypedDeepImageChannelIjE2atEii, __ZNK7Imf_3_121TypedDeepImageChannelIjE3rowEi, 
                       __ZNK7Imf_3_121TypedDeepImageChannelIjE5sliceEv, __ZNK7Imf_3_121TypedDeepImageChannelIjEclEii, 
                       __ZNK7Imf_3_121TypedFlatImageChannelIN9Imath_3_14halfEE2atEii, 
                       __ZNK7Imf_3_121TypedFlatImageChannelIN9Imath_3_14halfEE3rowEi, 
                       __ZNK7Imf_3_121TypedFlatImageChannelIN9Imath_3_14halfEE5sliceEv, 
                       __ZNK7Imf_3_121TypedFlatImageChannelIN9Imath_3_14halfEEclEii, 
                       __ZNK7Imf_3_121TypedFlatImageChannelIfE2atEii, __ZNK7Imf_3_121TypedFlatImageChannelIfE3rowEi, 
                       __ZNK7Imf_3_121TypedFlatImageChannelIfE5sliceEv, __ZNK7Imf_3_121TypedFlatImageChannelIfEclEii, 
                       __ZNK7Imf_3_121TypedFlatImageChannelIjE2atEii, __ZNK7Imf_3_121TypedFlatImageChannelIjE3rowEi, 
                       __ZNK7Imf_3_121TypedFlatImageChannelIjE5sliceEv, __ZNK7Imf_3_121TypedFlatImageChannelIjEclEii, 
                       __ZTIN7Imf_3_121TypedDeepImageChannelIN9Imath_3_14halfEEE, 
                       __ZTIN7Imf_3_121TypedDeepImageChannelIfEE, __ZTIN7Imf_3_121TypedDeepImageChannelIjEE, 
                       __ZTIN7Imf_3_121TypedFlatImageChannelIN9Imath_3_14halfEEE, 
                       __ZTIN7Imf_3_121TypedFlatImageChannelIfEE, __ZTIN7Imf_3_121TypedFlatImageChannelIjEE, 
                       __ZTSN7Imf_3_121TypedDeepImageChannelIN9Imath_3_14halfEEE, 
                       __ZTSN7Imf_3_121TypedDeepImageChannelIfEE, __ZTSN7Imf_3_121TypedDeepImageChannelIjEE, 
                       __ZTSN7Imf_3_121TypedFlatImageChannelIN9Imath_3_14halfEEE, 
                       __ZTSN7Imf_3_121TypedFlatImageChannelIfEE, __ZTSN7Imf_3_121TypedFlatImageChannelIjEE, 
                       __ZTVN7Imf_3_121TypedDeepImageChannelIN9Imath_3_14halfEEE, 
                       __ZTVN7Imf_3_121TypedDeepImageChannelIfEE, __ZTVN7Imf_3_121TypedDeepImageChannelIjEE, 
                       __ZTVN7Imf_3_121TypedFlatImageChannelIN9Imath_3_14halfEEE, 
                       __ZTVN7Imf_3_121TypedFlatImageChannelIfEE, __ZTVN7Imf_3_121TypedFlatImageChannelIjEE ]
...
