--- !tapi-tbd
tbd-version:     4
targets:         [ arm64e-macos ]
install-name:    '/System/Library/PrivateFrameworks/CoreUSDEdit.framework/Versions/A/Libraries/libOpenImageDenoise_core.dylib'
current-version: 0
compatibility-version: 0
exports:
  - targets:         [ arm64e-macos ]
    symbols:         [ __ZN4oidn10ConcatConv6setDstERKNS_3RefINS_6TensorEEE, __ZN4oidn10ConcatConv6setSrcERKNS_3RefINS_6TensorEEES5_, 
                       __ZN4oidn10ConcatConv7setBiasERKNS_3RefINS_6TensorEEE, __ZN4oidn10ConcatConvC2ERKNS_14ConcatConvDescE, 
                       __ZN4oidn10HostTensor8toDeviceEPNS_6EngineENS_7StorageE, __ZN4oidn10HostTensorC1ERKNS_10TensorDescE, 
                       __ZN4oidn10HostTensorC1ERKNS_10TensorDescEPv, __ZN4oidn10HostTensorC2ERKNS_10TensorDescE, 
                       __ZN4oidn10HostTensorC2ERKNS_10TensorDescEPv, __ZN4oidn10HostTensorD0Ev, 
                       __ZN4oidn10HostTensorD1Ev, __ZN4oidn10HostTensorD2Ev, __ZN4oidn10UNetFilter10buildModelEm, 
                       __ZN4oidn10UNetFilter10getWeightsEv, __ZN4oidn10UNetFilter10resetModelEv, 
                       __ZN4oidn10UNetFilter10updateDataERKNSt3__112basic_stringIcNS1_11char_traitsIcEENS1_9allocatorIcEEEE, 
                       __ZN4oidn10UNetFilter11checkParamsEv, __ZN4oidn10UNetFilter12addUNetLargeERKNS_3RefINS_5GraphEEERKNS1_INS_2OpEEE, 
                       __ZN4oidn10UNetFilter4initEv, __ZN4oidn10UNetFilter6commitEv, 
                       __ZN4oidn10UNetFilter6getIntERKNSt3__112basic_stringIcNS1_11char_traitsIcEENS1_9allocatorIcEEEE, 
                       __ZN4oidn10UNetFilter6setIntERKNSt3__112basic_stringIcNS1_11char_traitsIcEENS1_9allocatorIcEEEEi, 
                       __ZN4oidn10UNetFilter7addUNetERKNS_3RefINS_5GraphEEERKNS1_INS_2OpEEE, 
                       __ZN4oidn10UNetFilter7cleanupEv, __ZN4oidn10UNetFilter7executeENS_8SyncModeE, 
                       __ZN4oidn10UNetFilter7setDataERKNSt3__112basic_stringIcNS1_11char_traitsIcEENS1_9allocatorIcEEEERKNS_4DataE, 
                       __ZN4oidn10UNetFilter8getFloatERKNSt3__112basic_stringIcNS1_11char_traitsIcEENS1_9allocatorIcEEEE, 
                       __ZN4oidn10UNetFilter8setFloatERKNSt3__112basic_stringIcNS1_11char_traitsIcEENS1_9allocatorIcEEEEf, 
                       __ZN4oidn10UNetFilter9unsetDataERKNSt3__112basic_stringIcNS1_11char_traitsIcEENS1_9allocatorIcEEEE, 
                       __ZN4oidn10UNetFilterC2ERKNS_3RefINS_6DeviceEEE, __ZN4oidn10makeFormatENS_8DataTypeEi, 
                       __ZN4oidn11alignedFreeEPv, __ZN4oidn11reorderBiasERNS_6TensorES1_, 
                       __ZN4oidn12ArenaPlanner12addDepAllocsEiRKNSt3__16vectorIiNS1_9allocatorIiEEEEb, 
                       __ZN4oidn12ArenaPlanner5clearEv, __ZN4oidn12ArenaPlanner6commitEv, 
                       __ZN4oidn12ArenaPlanner8newAllocEiNS_16SizeAndAlignmentE, 
                       __ZN4oidn12ArenaPlanner8newAllocEimm, __ZN4oidn12DeviceTensor11postReallocEv, 
                       __ZN4oidn12DeviceTensorC1EPNS_6EngineERKNS_10TensorDescENS_7StorageE, 
                       __ZN4oidn12DeviceTensorC1ERKNS_3RefINS_6BufferEEERKNS_10TensorDescEm, 
                       __ZN4oidn12DeviceTensorC2EPNS_6EngineERKNS_10TensorDescENS_7StorageE, 
                       __ZN4oidn12DeviceTensorC2ERKNS_3RefINS_6BufferEEERKNS_10TensorDescEm, 
                       __ZN4oidn12InputProcess5checkEv, __ZN4oidn12InputProcess6setDstERKNS_3RefINS_6TensorEEE, 
                       __ZN4oidn12InputProcess6setSrcERKNS_3RefINS_5ImageEEES5_S5_, 
                       __ZN4oidn12InputProcess7setTileEiiiiii, __ZN4oidn12InputProcessC2EPNS_6EngineERKNS_16InputProcessDescE, 
                       __ZN4oidn12ModuleLoader11closeModuleEPv, __ZN4oidn12ModuleLoader13getModulePathEPv, 
                       __ZN4oidn12ModuleLoader16getSymbolAddressEPvRKNSt3__112basic_stringIcNS2_11char_traitsIcEENS2_9allocatorIcEEEE, 
                       __ZN4oidn12ModuleLoader4loadERKNSt3__112basic_stringIcNS1_11char_traitsIcEENS1_9allocatorIcEEEE, 
                       __ZN4oidn12ModuleLoaderC1Ev, __ZN4oidn12ModuleLoaderC2Ev, 
                       __ZN4oidn12ScratchArena9newBufferEmm, __ZN4oidn12ScratchArenaC1EPNS_19ScratchArenaManagerEmRKNSt3__112basic_stringIcNS3_11char_traitsIcEENS3_9allocatorIcEEEE, 
                       __ZN4oidn12ScratchArenaC2EPNS_19ScratchArenaManagerEmRKNSt3__112basic_stringIcNS3_11char_traitsIcEENS3_9allocatorIcEEEE, 
                       __ZN4oidn12ScratchArenaD0Ev, __ZN4oidn12ScratchArenaD1Ev, 
                       __ZN4oidn12ScratchArenaD2Ev, __ZN4oidn12getBuildNameEv, __ZN4oidn13ConcatConvCHW9updateSrcEv, 
                       __ZN4oidn13ConcatConvCHWC1EPNS_6EngineERKNS_14ConcatConvDescE, 
                       __ZN4oidn13ConcatConvCHWC2EPNS_6EngineERKNS_14ConcatConvDescE, 
                       __ZN4oidn13ConcatConvHWC10setScratchERKNS_3RefINS_6BufferEEE, 
                       __ZN4oidn13ConcatConvHWC13submitKernelsERKNS_3RefINS_17CancellationTokenEEE, 
                       __ZN4oidn13ConcatConvHWC18getScratchByteSizeEv, __ZN4oidn13ConcatConvHWC8finalizeEv, 
                       __ZN4oidn13ConcatConvHWC9setWeightERKNS_3RefINS_6TensorEEES5_, 
                       __ZN4oidn13ConcatConvHWC9updateDstEv, __ZN4oidn13ConcatConvHWC9updateSrcEv, 
                       __ZN4oidn13ConcatConvHWCC1EPNS_6EngineERKNS_14ConcatConvDescE, 
                       __ZN4oidn13ConcatConvHWCC2EPNS_6EngineERKNS_14ConcatConvDescE, 
                       __ZN4oidn13OutputProcess5checkEv, __ZN4oidn13OutputProcess6setDstERKNS_3RefINS_5ImageEEE, 
                       __ZN4oidn13OutputProcess6setSrcERKNS_3RefINS_6TensorEEE, __ZN4oidn13OutputProcess7setTileEiiiiii, 
                       __ZN4oidn13OutputProcessC2ERKNS_17OutputProcessDescE, __ZN4oidn13alignedMallocEmm, 
                       __ZN4oidn13float_to_halfEf, __ZN4oidn13getFormatSizeENS_6FormatE, 
                       __ZN4oidn13half_to_floatEs, __ZN4oidn13reorderWeightERNS_6TensorES1_, 
                       __ZN4oidn13reorderWeightERNS_6TensorEiiS1_ii, __ZN4oidn14ThreadAffinity3setEi, 
                       __ZN4oidn14ThreadAffinity7restoreEi, __ZN4oidn14ThreadAffinityC1Eii, 
                       __ZN4oidn14ThreadAffinityC2Eii, __ZN4oidn15getCompilerNameEv, 
                       __ZN4oidn15getDataTypeSizeENS_8DataTypeE, __ZN4oidn16RTLightmapFilter10unsetImageERKNSt3__112basic_stringIcNS1_11char_traitsIcEENS1_9allocatorIcEEEE, 
                       __ZN4oidn16RTLightmapFilter15newTransferFuncEv, __ZN4oidn16RTLightmapFilter6getIntERKNSt3__112basic_stringIcNS1_11char_traitsIcEENS1_9allocatorIcEEEE, 
                       __ZN4oidn16RTLightmapFilter6setIntERKNSt3__112basic_stringIcNS1_11char_traitsIcEENS1_9allocatorIcEEEEi, 
                       __ZN4oidn16RTLightmapFilter8setImageERKNSt3__112basic_stringIcNS1_11char_traitsIcEENS1_9allocatorIcEEEERKNS_3RefINS_5ImageEEE, 
                       __ZN4oidn16RTLightmapFilterC1ERKNS_3RefINS_6DeviceEEE, __ZN4oidn16RTLightmapFilterC2ERKNS_3RefINS_6DeviceEEE, 
                       __ZN4oidn16TransferFunction4yMaxE, __ZN4oidn16TransferFunctionC1ENS0_4TypeE, 
                       __ZN4oidn16TransferFunctionC2ENS0_4TypeE, __ZN4oidn17getFormatDataTypeENS_6FormatE, 
                       __ZN4oidn19ScratchArenaManager4trimEv, __ZN4oidn19ScratchArenaManager6attachEPNS_12ScratchArenaE, 
                       __ZN4oidn19ScratchArenaManager6detachEPNS_12ScratchArenaE, 
                       __ZN4oidn19ScratchArenaManagerC1EPNS_6EngineE, __ZN4oidn19ScratchArenaManagerC2EPNS_6EngineE, 
                       __ZN4oidn4Conv6setDstERKNS_3RefINS_6TensorEEE, __ZN4oidn4Conv6setSrcERKNS_3RefINS_6TensorEEE, 
                       __ZN4oidn4Conv7setBiasERKNS_3RefINS_6TensorEEE, __ZN4oidn4Conv9setWeightERKNS_3RefINS_6TensorEEE, 
                       __ZN4oidn4ConvC2ERKNS_8ConvDescE, __ZN4oidn4Heap10preReallocEv, 
                       __ZN4oidn4Heap11postReallocEv, __ZN4oidn4Heap6attachEPNS_6BufferE, 
                       __ZN4oidn4Heap6detachEPNS_6BufferE, __ZN4oidn4Pool6setDstERKNS_3RefINS_6TensorEEE, 
                       __ZN4oidn4Pool6setSrcERKNS_3RefINS_6TensorEEE, __ZN4oidn4PoolC2ERKNS_8PoolDescE, 
                       __ZN4oidn5Graph10planAllocsEv, __ZN4oidn5Graph10setScratchERKNS_3RefINS_6BufferEEE, 
                       __ZN4oidn5Graph11addUpsampleERKNSt3__112basic_stringIcNS1_11char_traitsIcEENS1_9allocatorIcEEEERKNS_3RefINS_2OpEEE, 
                       __ZN4oidn5Graph13addConcatConvERKNSt3__112basic_stringIcNS1_11char_traitsIcEENS1_9allocatorIcEEEERKNS_3RefINS_2OpEEESE_NS_10ActivationE, 
                       __ZN4oidn5Graph15addInputProcessERKNSt3__112basic_stringIcNS1_11char_traitsIcEENS1_9allocatorIcEEEERKNS1_6vectorIiNS5_IiEEEERKNS1_10shared_ptrINS_16TransferFunctionEEEbb, 
                       __ZN4oidn5Graph16addOutputProcessERKNSt3__112basic_stringIcNS1_11char_traitsIcEENS1_9allocatorIcEEEERKNS_3RefINS_2OpEEERKNS1_10shared_ptrINS_16TransferFunctionEEEbb, 
                       __ZN4oidn5Graph18getScratchByteSizeEv, __ZN4oidn5Graph20getCachedConstTensorERKNSt3__112basic_stringIcNS1_11char_traitsIcEENS1_9allocatorIcEEEERKNS_10TensorDescE, 
                       __ZN4oidn5Graph20setCachedConstTensorERKNSt3__112basic_stringIcNS1_11char_traitsIcEENS1_9allocatorIcEEEERKNS_3RefINS_6TensorEEE, 
                       __ZN4oidn5Graph5addOpERKNS_3RefINS_2OpEEERKNSt3__16vectorIS3_NS6_9allocatorIS3_EEEERKNS_10TensorDescEb, 
                       __ZN4oidn5Graph5addOpERKNS_3RefINS_2OpEEERKNSt3__16vectorIS3_NS6_9allocatorIS3_EEEEb, 
                       __ZN4oidn5Graph5clearEv, __ZN4oidn5Graph6submitERKNS_3RefINS_8ProgressEEE, 
                       __ZN4oidn5Graph7addConvERKNSt3__112basic_stringIcNS1_11char_traitsIcEENS1_9allocatorIcEEEERKNS_3RefINS_2OpEEENS_10ActivationENS_6PostOpE, 
                       __ZN4oidn5Graph7addPoolERKNSt3__112basic_stringIcNS1_11char_traitsIcEENS1_9allocatorIcEEEERKNS_3RefINS_2OpEEE, 
                       __ZN4oidn5Graph7cleanupEv, __ZN4oidn5Graph8finalizeEv, __ZN4oidn5GraphC1EPNS_6EngineERKNSt3__110shared_ptrINS3_13unordered_mapINS3_12basic_stringIcNS3_11char_traitsIcEENS3_9allocatorIcEEEENS_3RefINS_6TensorEEENS3_4hashISB_EENS3_8equal_toISB_EENS9_INS3_4pairIKSB_SE_EEEEEEEESQ_b, 
                       __ZN4oidn5GraphC2EPNS_6EngineERKNSt3__110shared_ptrINS3_13unordered_mapINS3_12basic_stringIcNS3_11char_traitsIcEENS3_9allocatorIcEEEENS_3RefINS_6TensorEEENS3_4hashISB_EENS3_8equal_toISB_EENS9_INS3_4pairIKSB_SE_EEEEEEEESQ_b, 
                       __ZN4oidn5Image11postReallocEv, __ZN4oidn5ImageC1EPNS_6EngineENS_6FormatEmm, 
                       __ZN4oidn5ImageC1EPvNS_6FormatEmmmmm, __ZN4oidn5ImageC1ERKNS_3RefINS_6BufferEEENS_6FormatEmmmmm, 
                       __ZN4oidn5ImageC1ERKNS_3RefINS_6BufferEEERKNS_9ImageDescEm, 
                       __ZN4oidn5ImageC1Ev, __ZN4oidn5ImageC2EPNS_6EngineENS_6FormatEmm, 
                       __ZN4oidn5ImageC2EPvNS_6FormatEmmmmm, __ZN4oidn5ImageC2ERKNS_3RefINS_6BufferEEENS_6FormatEmmmmm, 
                       __ZN4oidn5ImageC2ERKNS_3RefINS_6BufferEEERKNS_9ImageDescEm, 
                       __ZN4oidn5ImageC2Ev, __ZN4oidn5blobs7weights10rt_hdr_albE, 
                       __ZN4oidn5blobs7weights10rt_ldr_albE, __ZN4oidn5blobs7weights12rt_alb_largeE, 
                       __ZN4oidn5blobs7weights12rt_hdr_smallE, __ZN4oidn5blobs7weights12rt_ldr_smallE, 
                       __ZN4oidn5blobs7weights12rt_nrm_largeE, __ZN4oidn5blobs7weights14rt_hdr_alb_nrmE, 
                       __ZN4oidn5blobs7weights14rt_ldr_alb_nrmE, __ZN4oidn5blobs7weights14rtlightmap_dirE, 
                       __ZN4oidn5blobs7weights14rtlightmap_hdrE, __ZN4oidn5blobs7weights16rt_hdr_alb_smallE, 
                       __ZN4oidn5blobs7weights16rt_hdr_calb_cnrmE, __ZN4oidn5blobs7weights16rt_ldr_alb_smallE, 
                       __ZN4oidn5blobs7weights16rt_ldr_calb_cnrmE, __ZN4oidn5blobs7weights20rt_hdr_alb_nrm_smallE, 
                       __ZN4oidn5blobs7weights20rt_ldr_alb_nrm_smallE, __ZN4oidn5blobs7weights22rt_hdr_calb_cnrm_largeE, 
                       __ZN4oidn5blobs7weights22rt_hdr_calb_cnrm_smallE, __ZN4oidn5blobs7weights22rt_ldr_calb_cnrm_smallE, 
                       __ZN4oidn5blobs7weights6rt_albE, __ZN4oidn5blobs7weights6rt_hdrE, 
                       __ZN4oidn5blobs7weights6rt_ldrE, __ZN4oidn5blobs7weights6rt_nrmE, 
                       __ZN4oidn6BaseOp6submitERKNS_3RefINS_8ProgressEEE, __ZN4oidn6Buffer10preReallocEv, 
                       __ZN4oidn6Buffer11postReallocEv, __ZN4oidn6Buffer4readEmmPvNS_8SyncModeE, 
                       __ZN4oidn6Buffer5writeEmmPKvNS_8SyncModeE, __ZN4oidn6Buffer6attachEPNS_6MemoryE, 
                       __ZN4oidn6Buffer6detachEPNS_6MemoryE, __ZN4oidn6Buffer6toUserEv, 
                       __ZN4oidn6Buffer8newImageERKNS_9ImageDescEm, __ZN4oidn6Buffer9newBufferEmm, 
                       __ZN4oidn6Buffer9newTensorERKNS_10TensorDescEm, __ZN4oidn6BufferC2ERKNS_3RefINS_5ArenaEEEm, 
                       __ZN4oidn6BufferD0Ev, __ZN4oidn6BufferD1Ev, __ZN4oidn6BufferD2Ev, 
                       __ZN4oidn6Device11trimScratchEv, __ZN4oidn6Device12syncAndThrowENS_8SyncModeE, 
                       __ZN4oidn6Device12waitAndThrowEv, __ZN4oidn6Device13newUserBufferEPvm, 
                       __ZN4oidn6Device13newUserBufferEmNS_7StorageE, __ZN4oidn6Device13setAsyncErrorENS_5ErrorERKNSt3__112basic_stringIcNS2_11char_traitsIcEENS2_9allocatorIcEEEE, 
                       __ZN4oidn6Device14checkCommittedEv, __ZN4oidn6Device16setErrorFunctionEPFvPvNS_5ErrorEPKcES1_, 
                       __ZN4oidn6Device19newNativeUserBufferEPv, __ZN4oidn6Device21newExternalUserBufferENS_22ExternalMemoryTypeFlagEPvPKvm, 
                       __ZN4oidn6Device21newExternalUserBufferENS_22ExternalMemoryTypeFlagEim, 
                       __ZN4oidn6Device6commitEv, __ZN4oidn6Device6getIntERKNSt3__112basic_stringIcNS1_11char_traitsIcEENS1_9allocatorIcEEEE, 
                       __ZN4oidn6Device6setIntERKNSt3__112basic_stringIcNS1_11char_traitsIcEENS1_9allocatorIcEEEEi, 
                       __ZN4oidn6Device7executeEONSt3__18functionIFvvEEENS_8SyncModeE, 
                       __ZN4oidn6Device8getErrorEPS0_PPKc, __ZN4oidn6Device8setErrorEPS0_NS_5ErrorERKNSt3__112basic_stringIcNS3_11char_traitsIcEENS3_9allocatorIcEEEE, 
                       __ZN4oidn6Device9newFilterERKNSt3__112basic_stringIcNS1_11char_traitsIcEENS1_9allocatorIcEEEE, 
                       __ZN4oidn6DeviceC2Ev, __ZN4oidn6Engine12setSubdeviceEPNS_9SubdeviceE, 
                       __ZN4oidn6Engine13submitUSMCopyEPvPKvm, __ZN4oidn6Engine15isConvSupportedENS_6PostOpE, 
                       __ZN4oidn6Engine15newNativeBufferEPv, __ZN4oidn6Engine17newExternalBufferENS_22ExternalMemoryTypeFlagEPvPKvm, 
                       __ZN4oidn6Engine17newExternalBufferENS_22ExternalMemoryTypeFlagEim, 
                       __ZN4oidn6Engine29getBufferByteSizeAndAlignmentEmNS_7StorageE, 
                       __ZN4oidn6Engine7newHeapEmNS_7StorageE, __ZN4oidn6Engine7usmCopyEPvPKvm, 
                       __ZN4oidn6Engine7usmFreeEPvNS_7StorageE, __ZN4oidn6Engine8usmAllocEmNS_7StorageE, 
                       __ZN4oidn6Engine9newBufferEPvm, __ZN4oidn6Engine9newBufferERKNS_3RefINS_5ArenaEEEmm, 
                       __ZN4oidn6Engine9newBufferEmNS_7StorageE, __ZN4oidn6Engine9newTensorERKNS_10TensorDescENS_7StorageE, 
                       __ZN4oidn6Engine9newTensorERKNS_3RefINS_6BufferEEERKNS_10TensorDescEm, 
                       __ZN4oidn6Filter11removeParamERNS_3RefINS_5ImageEEE, __ZN4oidn6Filter11removeParamERNS_4DataE, 
                       __ZN4oidn6Filter26setProgressMonitorFunctionEPFbPvdES1_, __ZN4oidn6Filter8setParamERNS_3RefINS_5ImageEEERKS3_, 
                       __ZN4oidn6Filter8setParamERNS_4DataERKS1_, __ZN4oidn6Filter8setParamERNS_7QualityES1_, 
                       __ZN4oidn6Filter8setParamERbi, __ZN4oidn6Filter8setParamERii, 
                       __ZN4oidn6FilterC2ERKNS_3RefINS_6DeviceEEE, __ZN4oidn6FilterD0Ev, 
                       __ZN4oidn6FilterD1Ev, __ZN4oidn6FilterD2Ev, __ZN4oidn6Tensor8toDeviceEPNS_6EngineENS_7StorageE, 
                       __ZN4oidn6TensorC2ERKNS_10TensorDescE, __ZN4oidn6TensorC2ERKNS_3RefINS_6BufferEEERKNS_10TensorDescEm, 
                       __ZN4oidn7Context3getEv, __ZN4oidn7Context9newDeviceENS_10DeviceTypeE, 
                       __ZN4oidn7Context9newDeviceEi, __ZN4oidn7USMHeap7reallocEm, 
                       __ZN4oidn7USMHeapC1EPNS_6EngineEmNS_7StorageE, __ZN4oidn7USMHeapC2EPNS_6EngineEmNS_7StorageE, 
                       __ZN4oidn7USMHeapD0Ev, __ZN4oidn7USMHeapD1Ev, __ZN4oidn7USMHeapD2Ev, 
                       __ZN4oidn8Progress12submitUpdateEPNS_6EngineERKNS_3RefIS0_EEm, 
                       __ZN4oidn8Progress6updateEm, __ZN4oidn8ProgressC1EPFbPvdES1_m, 
                       __ZN4oidn8ProgressC2EPFbPvdES1_m, __ZN4oidn8RTFilter10unsetImageERKNSt3__112basic_stringIcNS1_11char_traitsIcEENS1_9allocatorIcEEEE, 
                       __ZN4oidn8RTFilter15newTransferFuncEv, __ZN4oidn8RTFilter6getIntERKNSt3__112basic_stringIcNS1_11char_traitsIcEENS1_9allocatorIcEEEE, 
                       __ZN4oidn8RTFilter6setIntERKNSt3__112basic_stringIcNS1_11char_traitsIcEENS1_9allocatorIcEEEEi, 
                       __ZN4oidn8RTFilter8setImageERKNSt3__112basic_stringIcNS1_11char_traitsIcEENS1_9allocatorIcEEEERKNS_3RefINS_5ImageEEE, 
                       __ZN4oidn8RTFilterC1ERKNS_3RefINS_6DeviceEEE, __ZN4oidn8RTFilterC2ERKNS_3RefINS_6DeviceEEE, 
                       __ZN4oidn8Upsample6setDstERKNS_3RefINS_6TensorEEE, __ZN4oidn8Upsample6setSrcERKNS_3RefINS_6TensorEEE, 
                       __ZN4oidn8UpsampleC2ERKNS_12UpsampleDescE, __ZN4oidn8parseTZAEPKvm, 
                       __ZN4oidn9ImageDescC1ENS_6FormatEmmmm, __ZN4oidn9ImageDescC2ENS_6FormatEmmmm, 
                       __ZN4oidn9Subdevice11trimScratchEv, __ZN4oidn9Subdevice15newScratchArenaEmRKNSt3__112basic_stringIcNS1_11char_traitsIcEENS1_9allocatorIcEEEE, 
                       __ZN4oidn9Subdevice16getCachedTensorsEPKv, __ZN4oidn9SubdeviceC1EONSt3__110unique_ptrINS_6EngineENS1_14default_deleteIS3_EEEE, 
                       __ZN4oidn9SubdeviceC2EONSt3__110unique_ptrINS_6EngineENS1_14default_deleteIS3_EEEE, 
                       __ZN4oidn9USMBuffer11postReallocEv, __ZN4oidn9USMBuffer4readEmmPvNS_8SyncModeE, 
                       __ZN4oidn9USMBuffer5writeEmmPKvNS_8SyncModeE, __ZN4oidn9USMBufferC1EPNS_6EngineE, 
                       __ZN4oidn9USMBufferC1EPNS_6EngineEPvmNS_7StorageE, __ZN4oidn9USMBufferC1EPNS_6EngineEmNS_7StorageE, 
                       __ZN4oidn9USMBufferC1ERKNS_3RefINS_5ArenaEEEmm, __ZN4oidn9USMBufferC2EPNS_6EngineE, 
                       __ZN4oidn9USMBufferC2EPNS_6EngineEPvmNS_7StorageE, __ZN4oidn9USMBufferC2EPNS_6EngineEmNS_7StorageE, 
                       __ZN4oidn9USMBufferC2ERKNS_3RefINS_5ArenaEEEmm, __ZN4oidn9USMBufferD0Ev, 
                       __ZN4oidn9USMBufferD1Ev, __ZN4oidn9USMBufferD2Ev, __ZN4oidn9getOSNameEv, 
                       __ZN4oidnlsERNSt3__113basic_ostreamIcNS0_11char_traitsIcEEEENS_10DeviceTypeE, 
                       __ZN4oidnlsERNSt3__113basic_ostreamIcNS0_11char_traitsIcEEEENS_6FormatE, 
                       __ZN4oidnlsERNSt3__113basic_ostreamIcNS0_11char_traitsIcEEEENS_7QualityE, 
                       __ZN4oidnlsERNSt3__113basic_ostreamIcNS0_11char_traitsIcEEEENS_8DataTypeE, 
                       __ZN4oidnlsERNSt3__113basic_ostreamIcNS0_11char_traitsIcEEEERKNS0_6vectorIiNS0_9allocatorIiEEEE, 
                       __ZN4oidnlsERNSt3__113basic_ostreamIcNS0_11char_traitsIcEEEERKNS_4LUIDE, 
                       __ZN4oidnlsERNSt3__113basic_ostreamIcNS0_11char_traitsIcEEEERKNS_4UUIDE, 
                       __ZN4oidnrsERNSt3__113basic_istreamIcNS0_11char_traitsIcEEEERNS_10DeviceTypeE, 
                       __ZNK4oidn12ScratchArena10getStorageEv, __ZNK4oidn13ConcatConvHWC11isSupportedEv, 
                       __ZNK4oidn14PhysicalDevice6getIntERKNSt3__112basic_stringIcNS1_11char_traitsIcEENS1_9allocatorIcEEEE, 
                       __ZNK4oidn14PhysicalDevice7getDataERKNSt3__112basic_stringIcNS1_11char_traitsIcEENS1_9allocatorIcEEEE, 
                       __ZNK4oidn14PhysicalDevice9getStringERKNSt3__112basic_stringIcNS1_11char_traitsIcEENS1_9allocatorIcEEEE, 
                       __ZNK4oidn5Graph11isSupportedEv, __ZNK4oidn5Image8overlapsERKS0_, 
                       __ZNK4oidn6Buffer9getDeviceEv, __ZNK4oidn6Device9getEngineEi, 
                       __ZNK4oidn6Engine11isSupportedERKNS_10TensorDescE, __ZNK4oidn6Engine15getSubgroupSizeEv, 
                       __ZNK4oidn6Engine19getMaxWorkGroupSizeEv, __ZNK4oidn7Context16getDeviceFactoryENS_10DeviceTypeE, 
                       __ZNK4oidn7Context17getPhysicalDeviceEi, __ZNK4oidn7Context17isDeviceSupportedENS_10DeviceTypeE, 
                       __ZNK4oidn9Exception4whatEv, __ZTIN4oidn10HostTensorE, __ZTIN4oidn10UNetFilterE, 
                       __ZTIN4oidn12DeviceTensorE, __ZTIN4oidn12ScratchArenaE, __ZTIN4oidn13ConcatConvCHWE, 
                       __ZTIN4oidn13ConcatConvHWCE, __ZTIN4oidn14PhysicalDeviceE, 
                       __ZTIN4oidn16RTLightmapFilterE, __ZTIN4oidn5GraphE, __ZTIN4oidn5ImageE, 
                       __ZTIN4oidn6BaseOpE, __ZTIN4oidn6BufferE, __ZTIN4oidn6DeviceE, 
                       __ZTIN4oidn6EngineE, __ZTIN4oidn6FilterE, __ZTIN4oidn6TensorE, 
                       __ZTIN4oidn7USMHeapE, __ZTIN4oidn8RTFilterE, __ZTIN4oidn9ExceptionE, 
                       __ZTIN4oidn9USMBufferE, __ZTSN4oidn10HostTensorE, __ZTSN4oidn10UNetFilterE, 
                       __ZTSN4oidn12DeviceTensorE, __ZTSN4oidn12ScratchArenaE, __ZTSN4oidn13ConcatConvCHWE, 
                       __ZTSN4oidn13ConcatConvHWCE, __ZTSN4oidn14PhysicalDeviceE, 
                       __ZTSN4oidn16RTLightmapFilterE, __ZTSN4oidn5GraphE, __ZTSN4oidn5ImageE, 
                       __ZTSN4oidn6BaseOpE, __ZTSN4oidn6BufferE, __ZTSN4oidn6DeviceE, 
                       __ZTSN4oidn6EngineE, __ZTSN4oidn6FilterE, __ZTSN4oidn6TensorE, 
                       __ZTSN4oidn7USMHeapE, __ZTSN4oidn8RTFilterE, __ZTSN4oidn9ExceptionE, 
                       __ZTSN4oidn9USMBufferE, __ZTVN4oidn10HostTensorE, __ZTVN4oidn10UNetFilterE, 
                       __ZTVN4oidn12DeviceTensorE, __ZTVN4oidn12ScratchArenaE, __ZTVN4oidn13ConcatConvCHWE, 
                       __ZTVN4oidn13ConcatConvHWCE, __ZTVN4oidn14PhysicalDeviceE, 
                       __ZTVN4oidn16RTLightmapFilterE, __ZTVN4oidn5GraphE, __ZTVN4oidn5ImageE, 
                       __ZTVN4oidn6BaseOpE, __ZTVN4oidn6BufferE, __ZTVN4oidn6DeviceE, 
                       __ZTVN4oidn6EngineE, __ZTVN4oidn6FilterE, __ZTVN4oidn6TensorE, 
                       __ZTVN4oidn7USMHeapE, __ZTVN4oidn8RTFilterE, __ZTVN4oidn9ExceptionE, 
                       __ZTVN4oidn9USMBufferE, __ZTWN4oidn6Device11globalErrorE ]
...
