--- !tapi-tbd
tbd-version:     4
targets:         [ arm64e-macos ]
install-name:    '/System/Library/PrivateFrameworks/CoreUSDEdit.framework/Versions/A/Libraries/libSeExpr2.dylib'
current-version: 2
compatibility-version: 2
exports:
  - targets:         [ arm64e-macos ]
    symbols:         [ _SeExpr2LLVMEvalCustomFunction, _SeExpr2_flex_debug, _SeExpr2char, 
                       _SeExpr2in, _SeExpr2leng, _SeExpr2lineno, _SeExpr2lloc, _SeExpr2lval, 
                       _SeExpr2nerrs, _SeExpr2out, _SeExpr2text, __Z10ParseErrorv, 
                       __Z10ParseNodesv, __Z10SeExpr2lexv, __Z10SeExpr2posv, __Z11SeExpr2freePv, 
                       __Z12SeExpr2allocm, __Z12SeExpr2parsev, __Z13SeExpr2get_inv, 
                       __Z13SeExpr2set_inP7__sFILE, __Z14SeExpr2get_outv, __Z14SeExpr2reallocPvm, 
                       __Z14SeExpr2restartP7__sFILE, __Z14SeExpr2set_outP7__sFILE, 
                       __Z15SeExpr2get_lengv, __Z15SeExpr2get_textv, __Z16SeExpr2get_debugv, 
                       __Z16SeExpr2set_debugi, __Z17SeExpr2get_linenov, __Z17SeExpr2set_linenoi, 
                       __Z18SeExpr2_scan_bytesPKcm, __Z18SeExpr2lex_destroyv, __Z19SeExpr2_scan_bufferPcm, 
                       __Z19SeExpr2_scan_stringPKc, __Z20SeExpr2_flush_bufferP20SeExpr2_buffer_state, 
                       __Z21SeExpr2_create_bufferP7__sFILEi, __Z21SeExpr2_delete_bufferP20SeExpr2_buffer_state, 
                       __Z21SeExprLexerResetStateRNSt3__16vectorINS_4pairIiiEENS_9allocatorIS2_EEEE, 
                       __Z23SeExpr2pop_buffer_statev, __Z24SeExpr2_switch_to_bufferP20SeExpr2_buffer_state, 
                       __Z24SeExpr2push_buffer_stateP20SeExpr2_buffer_state, __Z5mutexv, 
                       __ZN7SeExpr210ExprVarEnv11addFunctionERKNSt3__112basic_stringIcNS1_11char_traitsIcEENS1_9allocatorIcEEEEPNS_21ExprLocalFunctionNodeE, 
                       __ZN7SeExpr210ExprVarEnv12findFunctionERKNSt3__112basic_stringIcNS1_11char_traitsIcEENS1_9allocatorIcEEEE, 
                       __ZN7SeExpr210ExprVarEnv13mergeBranchesERKNS_8ExprTypeERS0_S4_, 
                       __ZN7SeExpr210ExprVarEnv17resetAndSetParentEPS0_, __ZN7SeExpr210ExprVarEnv3addERKNSt3__112basic_stringIcNS1_11char_traitsIcEENS1_9allocatorIcEEEENS1_10unique_ptrINS_12ExprLocalVarENS1_14default_deleteISB_EEEE, 
                       __ZN7SeExpr210ExprVarEnv4findERKNSt3__112basic_stringIcNS1_11char_traitsIcEENS1_9allocatorIcEEEE, 
                       __ZN7SeExpr210ExprVarEnvD1Ev, __ZN7SeExpr210ExprVarEnvD2Ev, 
                       __ZN7SeExpr210Expression10setContextERKNS_7ContextE, __ZN7SeExpr210Expression18setVarBlockCreatorEPKNS_15VarBlockCreatorE, 
                       __ZN7SeExpr210Expression20setDesiredReturnTypeERKNS_8ExprTypeE, 
                       __ZN7SeExpr210Expression25defaultEvaluationStrategyEv, __ZN7SeExpr210Expression5resetEv, 
                       __ZN7SeExpr210Expression7setExprERKNSt3__112basic_stringIcNS1_11char_traitsIcEENS1_9allocatorIcEEEE, 
                       __ZN7SeExpr210Expression9debuggingEv, __ZN7SeExpr210ExpressionC1ENS0_18EvaluationStrategyE, 
                       __ZN7SeExpr210ExpressionC1ERKNSt3__112basic_stringIcNS1_11char_traitsIcEENS1_9allocatorIcEEEERKNS_8ExprTypeENS0_18EvaluationStrategyERKNS_7ContextE, 
                       __ZN7SeExpr210ExpressionC2ENS0_18EvaluationStrategyE, __ZN7SeExpr210ExpressionC2ERKNSt3__112basic_stringIcNS1_11char_traitsIcEENS1_9allocatorIcEEEERKNS_8ExprTypeENS0_18EvaluationStrategyERKNS_7ContextE, 
                       __ZN7SeExpr210ExpressionD0Ev, __ZN7SeExpr210ExpressionD1Ev, 
                       __ZN7SeExpr210ExpressionD2Ev, __ZN7SeExpr210ccellnoiseERKNS_3VecIdLi3ELb0EEE, 
                       __ZN7SeExpr210cvoronoiFnERNS_16VoronoiPointDataEiPKNS_3VecIdLi3ELb0EEE, 
                       __ZN7SeExpr210linearstepEddd, __ZN7SeExpr210pvoronoiFnERNS_16VoronoiPointDataEiPKNS_3VecIdLi3ELb0EEE, 
                       __ZN7SeExpr210smoothstepEddd, __ZN7SeExpr210turbulenceEiPKNS_3VecIdLi3ELb0EEE, 
                       __ZN7SeExpr211DExpression4evalEv, __ZN7SeExpr211DExpressionC1ERKNSt3__112basic_stringIcNS1_11char_traitsIcEENS1_9allocatorIcEEEERNS_11ExpressionsES9_RKNS_8ExprTypeENS_10Expression18EvaluationStrategyE, 
                       __ZN7SeExpr211DExpressionC2ERKNSt3__112basic_stringIcNS1_11char_traitsIcEENS1_9allocatorIcEEEERNS_11ExpressionsES9_RKNS_8ExprTypeENS_10Expression18EvaluationStrategyE, 
                       __ZN7SeExpr211ExprNumNode4prepEbRNS_17ExprVarEnvBuilderE, 
                       __ZN7SeExpr211ExprStrNode4prepEbRNS_17ExprVarEnvBuilderE, 
                       __ZN7SeExpr211ExprStrNodeC1EPKNS_10ExpressionEPKc, __ZN7SeExpr211ExprStrNodeC2EPKNS_10ExpressionEPKc, 
                       __ZN7SeExpr211ExprVarNode4prepEbRNS_17ExprVarEnvBuilderE, 
                       __ZN7SeExpr211ExprVecNode4prepEbRNS_17ExprVarEnvBuilderE, 
                       __ZN7SeExpr211Expressions11setVariableENSt3__121__tree_const_iteratorIPNS_9GlobalValEPNS1_11__tree_nodeIS4_PvEElEEPKc, 
                       __ZN7SeExpr211Expressions11setVariableENSt3__121__tree_const_iteratorIPNS_9GlobalValEPNS1_11__tree_nodeIS4_PvEElEEPdj, 
                       __ZN7SeExpr211Expressions13addExpressionERKNSt3__112basic_stringIcNS1_11char_traitsIcEENS1_9allocatorIcEEEENS_8ExprTypeES9_, 
                       __ZN7SeExpr211Expressions15setLoopVariableENSt3__121__tree_const_iteratorIPNS_9GlobalValEPNS1_11__tree_nodeIS4_PvEElEEPKc, 
                       __ZN7SeExpr211Expressions15setLoopVariableENSt3__121__tree_const_iteratorIPNS_9GlobalValEPNS1_11__tree_nodeIS4_PvEElEEPdj, 
                       __ZN7SeExpr211Expressions17getExprEvalHandleENSt3__121__tree_const_iteratorIPNS_11DExpressionEPNS1_11__tree_nodeIS4_PvEElEE, 
                       __ZN7SeExpr211Expressions19addExternalVariableERKNSt3__112basic_stringIcNS1_11char_traitsIcEENS1_9allocatorIcEEEENS_8ExprTypeE, 
                       __ZN7SeExpr211Expressions19getLoopVarSetHandleENSt3__121__tree_const_iteratorIPNS_9GlobalValEPNS1_11__tree_nodeIS4_PvEElEE, 
                       __ZN7SeExpr211Expressions6evalFPENSt3__14pairINS1_21__tree_const_iteratorIPNS_11DExpressionEPNS1_11__tree_nodeIS5_PvEElEENS1_6vectorIS5_NS1_9allocatorIS5_EEEEEE, 
                       __ZN7SeExpr211Expressions7evalStrENSt3__14pairINS1_21__tree_const_iteratorIPNS_11DExpressionEPNS1_11__tree_nodeIS5_PvEElEENS1_6vectorIS5_NS1_9allocatorIS5_EEEEEE, 
                       __ZN7SeExpr211ExpressionsD1Ev, __ZN7SeExpr211ExpressionsD2Ev, 
                       __ZN7SeExpr211Interpreter4evalEPNS_8VarBlockEb, __ZN7SeExpr211_doubleSpecEv, 
                       __ZN7SeExpr211cturbulenceEiPKNS_3VecIdLi3ELb0EEE, __ZN7SeExpr211vturbulenceEiPKNS_3VecIdLi3ELb0EEE, 
                       __ZN7SeExpr212ContextUtils11IsThreadingERKNS_7ContextE, __ZN7SeExpr212ContextUtils16DisableThreadingERNS_7ContextE, 
                       __ZN7SeExpr212ExprCondNode4prepEbRNS_17ExprVarEnvBuilderE, 
                       __ZN7SeExpr212ExprFuncNode4prepEbRNS_17ExprVarEnvBuilderE, 
                       __ZN7SeExpr212ExprFuncNode8checkArgEiNS_8ExprTypeERNS_17ExprVarEnvBuilderE, 
                       __ZN7SeExpr213ExprBlockNode4prepEbRNS_17ExprVarEnvBuilderE, 
                       __ZN7SeExpr214ExprAssignNode4prepEbRNS_17ExprVarEnvBuilderE, 
                       __ZN7SeExpr214ExprFuncSimple6EvalOpEPiPdPPcRNSt3__16vectorIiNS5_9allocatorIiEEEE, 
                       __ZN7SeExpr214ExprModuleNode4prepEbRNS_17ExprVarEnvBuilderE, 
                       __ZN7SeExpr214defineBuiltinsEPFvPKcNS_8ExprFuncEEPFvS1_S2_S1_E, 
                       __ZN7SeExpr215ExprCompareNode4prepEbRNS_17ExprVarEnvBuilderE, 
                       __ZN7SeExpr215ExprUnaryOpNode4prepEbRNS_17ExprVarEnvBuilderE, 
                       __ZN7SeExpr216ExprBinaryOpNode4prepEbRNS_17ExprVarEnvBuilderE, 
                       __ZN7SeExpr217ExprCompareEqNode4prepEbRNS_17ExprVarEnvBuilderE, 
                       __ZN7SeExpr217ExprPrototypeNode11addArgTypesEPNS_8ExprNodeE, 
                       __ZN7SeExpr217ExprPrototypeNode4prepEbRNS_17ExprVarEnvBuilderE, 
                       __ZN7SeExpr217ExprPrototypeNode7addArgsEPNS_8ExprNodeE, __ZN7SeExpr217ExprSubscriptNode4prepEbRNS_17ExprVarEnvBuilderE, 
                       __ZN7SeExpr217TypePrintExaminer7examineEPKNS_8ExprNodeE, __ZN7SeExpr218ExprIfThenElseNode4prepEbRNS_17ExprVarEnvBuilderE, 
                       __ZN7SeExpr221ExprLocalFunctionNode4prepEbRNS_17ExprVarEnvBuilderE, 
                       __ZN7SeExpr225copyVarToPromotedPositionEPNS_11InterpreterEPNS_12ExprLocalVarES3_, 
                       __ZN7SeExpr22upERKNS_3VecIdLi3ELb0EEES3_, __ZN7SeExpr23dotERKNS_3VecIdLi3ELb0EEES3_, 
                       __ZN7SeExpr23fbmEiPKNS_3VecIdLi3ELb0EEE, __ZN7SeExpr23fitEddddd, 
                       __ZN7SeExpr23hsiEiPKNS_3VecIdLi3ELb0EEE, __ZN7SeExpr23mixEddd, 
                       __ZN7SeExpr24biasEdd, __ZN7SeExpr24cfbmEiPKNS_3VecIdLi3ELb0EEE, 
                       __ZN7SeExpr24distEdddddd, __ZN7SeExpr24fbm4EiPKNS_3VecIdLi3ELb0EEE, 
                       __ZN7SeExpr24hashEiPd, __ZN7SeExpr24normERKNS_3VecIdLi3ELb0EEE, 
                       __ZN7SeExpr24pickEiPd, __ZN7SeExpr24vfbmEiPKNS_3VecIdLi3ELb0EEE, 
                       __ZN7SeExpr25CurveINS_3VecIdLi3ELb0EEEE17clampCurveSegmentERKS2_RS2_S6_, 
                       __ZN7SeExpr25CurveINS_3VecIdLi3ELb0EEEE4compERKS2_i, __ZN7SeExpr25CurveIdE4compERKdi, 
                       __ZN7SeExpr25angleERKNS_3VecIdLi3ELb0EEES3_, __ZN7SeExpr25cfbm4EiPKNS_3VecIdLi3ELb0EEE, 
                       __ZN7SeExpr25crossERKNS_3VecIdLi3ELb0EEES3_, __ZN7SeExpr25curveEv, 
                       __ZN7SeExpr25cycleEddd, __ZN7SeExpr25gammaEdd, __ZN7SeExpr25hypotEdd, 
                       __ZN7SeExpr25mutexEv, __ZN7SeExpr25noiseEiPKNS_3VecIdLi3ELb0EEE, 
                       __ZN7SeExpr25orthoERKNS_3VecIdLi3ELb0EEES3_, __ZN7SeExpr25remapEddddd, 
                       __ZN7SeExpr25vfbm4EiPKNS_3VecIdLi3ELb0EEE, __ZN7SeExpr26ccurveEv, 
                       __ZN7SeExpr26chooseEiPd, __ZN7SeExpr26cnoiseERKNS_3VecIdLi3ELb0EEE, 
                       __ZN7SeExpr26expandEddd, __ZN7SeExpr26getVarEv, __ZN7SeExpr26lengthERKNS_3VecIdLi3ELb0EEE, 
                       __ZN7SeExpr26midhsiEiPKNS_3VecIdLi3ELb0EEE, __ZN7SeExpr26pnoiseERKNS_3VecIdLi3ELb0EEES3_, 
                       __ZN7SeExpr26printfEv, __ZN7SeExpr26rotateEiPKNS_3VecIdLi3ELb0EEE, 
                       __ZN7SeExpr26snoiseERKNS_3VecIdLi3ELb0EEE, __ZN7SeExpr26splineEiPd, 
                       __ZN7SeExpr26swatchEiPd, __ZN7SeExpr26vnoiseERKNS_3VecIdLi3ELb0EEE, 
                       __ZN7SeExpr27Context12setParameterERKNSt3__112basic_stringIcNS1_11char_traitsIcEENS1_9allocatorIcEEEES9_, 
                       __ZN7SeExpr27Context6globalEv, __ZN7SeExpr27ContextC1EPKS0_, 
                       __ZN7SeExpr27ContextC2EPKS0_, __ZN7SeExpr27Func0OpEPiPdPPcRNSt3__16vectorIiNS4_9allocatorIiEEEE, 
                       __ZN7SeExpr27Func1OpEPiPdPPcRNSt3__16vectorIiNS4_9allocatorIiEEEE, 
                       __ZN7SeExpr27Func2OpEPiPdPPcRNSt3__16vectorIiNS4_9allocatorIiEEEE, 
                       __ZN7SeExpr27Func3OpEPiPdPPcRNSt3__16vectorIiNS4_9allocatorIiEEEE, 
                       __ZN7SeExpr27Func4OpEPiPdPPcRNSt3__16vectorIiNS4_9allocatorIiEEEE, 
                       __ZN7SeExpr27Func5OpEPiPdPPcRNSt3__16vectorIiNS4_9allocatorIiEEEE, 
                       __ZN7SeExpr27Func6OpEPiPdPPcRNSt3__16vectorIiNS4_9allocatorIiEEEE, 
                       __ZN7SeExpr27FuncNOpEPiPdPPcRNSt3__16vectorIiNS4_9allocatorIiEEEE, 
                       __ZN7SeExpr27boxstepEdd, __ZN7SeExpr27cnoise4EiPKNS_3VecIdLi3ELb0EEE, 
                       __ZN7SeExpr27s_curveEd, __ZN7SeExpr27snoise4EiPKNS_3VecIdLi3ELb0EEE, 
                       __ZN7SeExpr27sprintfEv, __ZN7SeExpr27vnoise4EiPKNS_3VecIdLi3ELb0EEE, 
                       __ZN7SeExpr27voronoiEv, __ZN7SeExpr27wchooseEiPd, __ZN7SeExpr28ExprFunc10loadPluginEPKc, 
                       __ZN7SeExpr28ExprFunc10statisticsEv, __ZN7SeExpr28ExprFunc11loadPluginsEPKc, 
                       __ZN7SeExpr28ExprFunc11sizeInBytesEv, __ZN7SeExpr28ExprFunc12getDocStringEPKc, 
                       __ZN7SeExpr28ExprFunc12initInternalEv, __ZN7SeExpr28ExprFunc16getFunctionNamesERNSt3__16vectorINS1_12basic_stringIcNS1_11char_traitsIcEENS1_9allocatorIcEEEENS6_IS8_EEEE, 
                       __ZN7SeExpr28ExprFunc4initEv, __ZN7SeExpr28ExprFunc6defineEPKcS0_, 
                       __ZN7SeExpr28ExprFunc6defineEPKcS0_S2_, __ZN7SeExpr28ExprFunc6dynlibEv, 
                       __ZN7SeExpr28ExprFunc6lookupERKNSt3__112basic_stringIcNS1_11char_traitsIcEENS1_9allocatorIcEEEE, 
                       __ZN7SeExpr28ExprFunc7cleanupEv, __ZN7SeExpr28ExprNode11addChildrenEPS0_, 
                       __ZN7SeExpr28ExprNode4prepEbRNS_17ExprVarEnvBuilderE, __ZN7SeExpr28ExprNode8addChildEPS0_, 
                       __ZN7SeExpr28ExprNodeC1EPKNS_10ExpressionE, __ZN7SeExpr28ExprNodeC1EPKNS_10ExpressionEPS0_, 
                       __ZN7SeExpr28ExprNodeC1EPKNS_10ExpressionEPS0_RKNS_8ExprTypeE, 
                       __ZN7SeExpr28ExprNodeC1EPKNS_10ExpressionEPS0_S4_, __ZN7SeExpr28ExprNodeC1EPKNS_10ExpressionEPS0_S4_RKNS_8ExprTypeE, 
                       __ZN7SeExpr28ExprNodeC1EPKNS_10ExpressionEPS0_S4_S4_, __ZN7SeExpr28ExprNodeC1EPKNS_10ExpressionEPS0_S4_S4_RKNS_8ExprTypeE, 
                       __ZN7SeExpr28ExprNodeC1EPKNS_10ExpressionERKNS_8ExprTypeE, 
                       __ZN7SeExpr28ExprNodeC2EPKNS_10ExpressionE, __ZN7SeExpr28ExprNodeC2EPKNS_10ExpressionEPS0_, 
                       __ZN7SeExpr28ExprNodeC2EPKNS_10ExpressionEPS0_RKNS_8ExprTypeE, 
                       __ZN7SeExpr28ExprNodeC2EPKNS_10ExpressionEPS0_S4_, __ZN7SeExpr28ExprNodeC2EPKNS_10ExpressionEPS0_S4_RKNS_8ExprTypeE, 
                       __ZN7SeExpr28ExprNodeC2EPKNS_10ExpressionEPS0_S4_S4_, __ZN7SeExpr28ExprNodeC2EPKNS_10ExpressionEPS0_S4_S4_RKNS_8ExprTypeE, 
                       __ZN7SeExpr28ExprNodeC2EPKNS_10ExpressionERKNS_8ExprTypeE, 
                       __ZN7SeExpr28ExprNodeD0Ev, __ZN7SeExpr28ExprNodeD1Ev, __ZN7SeExpr28ExprNodeD2Ev, 
                       __ZN7SeExpr28Func1VOpEPiPdPPcRNSt3__16vectorIiNS4_9allocatorIiEEEE, 
                       __ZN7SeExpr28Func2VOpEPiPdPPcRNSt3__16vectorIiNS4_9allocatorIiEEEE, 
                       __ZN7SeExpr28FuncNVOpEPiPdPPcRNSt3__16vectorIiNS4_9allocatorIiEEEE, 
                       __ZN7SeExpr28_intSpecEv, __ZN7SeExpr28_strSpecEv, __ZN7SeExpr28compressEddd, 
                       __ZN7SeExpr28contrastEdd, __ZN7SeExpr28cvoronoiEv, __ZN7SeExpr28hsltorgbERKNS_3VecIdLi3ELb0EEE, 
                       __ZN7SeExpr28pvoronoiEv, __ZN7SeExpr28rgbtohslERKNS_3VecIdLi3ELb0EEE, 
                       __ZN7SeExpr28saturateEiPKNS_3VecIdLi3ELb0EEE, __ZN7SeExpr29ExprParseERPNS_8ExprNodeERNSt3__112basic_stringIcNS3_11char_traitsIcEENS3_9allocatorIcEEEERiSB_RNS3_6vectorINS3_4pairIiiEENS7_ISE_EEEEPKNS_10ExpressionEPKcb, 
                       __ZN7SeExpr29Func1VVOpEPiPdPPcRNSt3__16vectorIiNS4_9allocatorIiEEEE, 
                       __ZN7SeExpr29Func2VVOpEPiPdPPcRNSt3__16vectorIiNS4_9allocatorIiEEEE, 
                       __ZN7SeExpr29FuncNVVOpEPiPdPPcRNSt3__16vectorIiNS4_9allocatorIiEEEE, 
                       __ZN7SeExpr29cellnoiseERKNS_3VecIdLi3ELb0EEE, __ZN7SeExpr29gaussstepEddd, 
                       __ZN7SeExpr29hsiAdjustERKNS_3VecIdLi3ELb0EEEddd, __ZN7SeExpr29voronoiFnERNS_16VoronoiPointDataEiPKNS_3VecIdLi3ELb0EEE, 
                       __ZN9SeContext12setParameterERKNSt3__112basic_stringIcNS0_11char_traitsIcEENS0_9allocatorIcEEEES8_, 
                       __ZN9SeContext6globalEv, __ZN9SeContextC1EPKS_, __ZN9SeContextC2EPKS_, 
                       __ZNK7SeExpr210ExprVarEnv6lookupERKNSt3__112basic_stringIcNS1_11char_traitsIcEENS1_9allocatorIcEEEE, 
                       __ZNK7SeExpr210Expression10isConstantEv, __ZNK7SeExpr210Expression10returnTypeEv, 
                       __ZNK7SeExpr210Expression12evalMultipleEPNS_8VarBlockEimm, 
                       __ZNK7SeExpr210Expression14debugPrintLLVMEv, __ZNK7SeExpr210Expression19debugPrintParseTreeEv, 
                       __ZNK7SeExpr210Expression21debugPrintInterpreterEv, __ZNK7SeExpr210Expression4prepEv, 
                       __ZNK7SeExpr210Expression5isVecEv, __ZNK7SeExpr210Expression5parseEv, 
                       __ZNK7SeExpr210Expression6evalFPEPNS_8VarBlockE, __ZNK7SeExpr210Expression7evalStrEPNS_8VarBlockE, 
                       __ZNK7SeExpr210Expression7usesVarERKNSt3__112basic_stringIcNS1_11char_traitsIcEENS1_9allocatorIcEEEE, 
                       __ZNK7SeExpr210Expression8syntaxOKEv, __ZNK7SeExpr210Expression8usesFuncERKNSt3__112basic_stringIcNS1_11char_traitsIcEENS1_9allocatorIcEEEE, 
                       __ZNK7SeExpr211DExpression10resolveVarERKNSt3__112basic_stringIcNS1_11char_traitsIcEENS1_9allocatorIcEEEE, 
                       __ZNK7SeExpr211DExpression4nameEv, __ZNK7SeExpr211ExprNumNode16buildInterpreterEPNS_11InterpreterE, 
                       __ZNK7SeExpr211ExprStrNode16buildInterpreterEPNS_11InterpreterE, 
                       __ZNK7SeExpr211ExprVarNode16buildInterpreterEPNS_11InterpreterE, 
                       __ZNK7SeExpr211ExprVecNode16buildInterpreterEPNS_11InterpreterE, 
                       __ZNK7SeExpr211ExprVecNode5valueEv, __ZNK7SeExpr211Expressions7isValidEv, 
                       __ZNK7SeExpr211Interpreter5printEi, __ZNK7SeExpr212ExprCondNode16buildInterpreterEPNS_11InterpreterE, 
                       __ZNK7SeExpr212ExprFuncNode16buildInterpreterEPNS_11InterpreterE, 
                       __ZNK7SeExpr212ExprLocalVar16buildInterpreterEPNS_11InterpreterE, 
                       __ZNK7SeExpr213ExprBlockNode16buildInterpreterEPNS_11InterpreterE, 
                       __ZNK7SeExpr214ExprAssignNode16buildInterpreterEPNS_11InterpreterE, 
                       __ZNK7SeExpr214ExprFuncSimple16buildInterpreterEPKNS_12ExprFuncNodeEPNS_11InterpreterE, 
                       __ZNK7SeExpr214ExprModuleNode16buildInterpreterEPNS_11InterpreterE, 
                       __ZNK7SeExpr215ExprCompareNode16buildInterpreterEPNS_11InterpreterE, 
                       __ZNK7SeExpr215ExprUnaryOpNode16buildInterpreterEPNS_11InterpreterE, 
                       __ZNK7SeExpr216ExprBinaryOpNode16buildInterpreterEPNS_11InterpreterE, 
                       __ZNK7SeExpr216ExprFuncStandard16buildInterpreterEPKNS_12ExprFuncNodeEPNS_11InterpreterE, 
                       __ZNK7SeExpr216ExprFuncStandard4prepEPNS_12ExprFuncNodeEbRNS_17ExprVarEnvBuilderE, 
                       __ZNK7SeExpr217ExprCompareEqNode16buildInterpreterEPNS_11InterpreterE, 
                       __ZNK7SeExpr217ExprPrototypeNode16buildInterpreterEPNS_11InterpreterE, 
                       __ZNK7SeExpr217ExprSubscriptNode16buildInterpreterEPNS_11InterpreterE, 
                       __ZNK7SeExpr218ExprIfThenElseNode16buildInterpreterEPNS_11InterpreterE, 
                       __ZNK7SeExpr221ExprLocalFunctionNode16buildInterpreterEPNS_11InterpreterE, 
                       __ZNK7SeExpr221ExprLocalFunctionNode23buildInterpreterForCallEPKNS_12ExprFuncNodeEPNS_11InterpreterE, 
                       __ZNK7SeExpr221ExprLocalFunctionNode4prepEPNS_12ExprFuncNodeEbRNS_17ExprVarEnvBuilderE, 
                       __ZNK7SeExpr27Context18createChildContextEv, __ZNK7SeExpr28ExprNode16buildInterpreterEPNS_11InterpreterE, 
                       __ZNK9SeContext18createChildContextEv, __ZTIN7SeExpr210ExpressionE, 
                       __ZTIN7SeExpr211DExpressionE, __ZTIN7SeExpr211ExprNumNodeE, 
                       __ZTIN7SeExpr211ExprStrNodeE, __ZTIN7SeExpr211ExprVarNodeE, 
                       __ZTIN7SeExpr211ExprVecNodeE, __ZTIN7SeExpr212ExprCondNodeE, 
                       __ZTIN7SeExpr212ExprFuncNodeE, __ZTIN7SeExpr213ExprBlockNodeE, 
                       __ZTIN7SeExpr214ExprAssignNodeE, __ZTIN7SeExpr214ExprFuncSimpleE, 
                       __ZTIN7SeExpr214ExprModuleNodeE, __ZTIN7SeExpr215ExprCompareNodeE, 
                       __ZTIN7SeExpr215ExprUnaryOpNodeE, __ZTIN7SeExpr216ExprBinaryOpNodeE, 
                       __ZTIN7SeExpr216ExprFuncStandardE, __ZTIN7SeExpr217ExprCompareEqNodeE, 
                       __ZTIN7SeExpr217ExprPrototypeNodeE, __ZTIN7SeExpr217ExprSubscriptNodeE, 
                       __ZTIN7SeExpr217TypePrintExaminerE, __ZTIN7SeExpr218ExprIfThenElseNodeE, 
                       __ZTIN7SeExpr221ExprLocalFunctionNodeE, __ZTIN7SeExpr28ExprNodeE, 
                       __ZTSN7SeExpr210ExpressionE, __ZTSN7SeExpr211DExpressionE, 
                       __ZTSN7SeExpr211ExprNumNodeE, __ZTSN7SeExpr211ExprStrNodeE, 
                       __ZTSN7SeExpr211ExprVarNodeE, __ZTSN7SeExpr211ExprVecNodeE, 
                       __ZTSN7SeExpr212ExprCondNodeE, __ZTSN7SeExpr212ExprFuncNodeE, 
                       __ZTSN7SeExpr213ExprBlockNodeE, __ZTSN7SeExpr214ExprAssignNodeE, 
                       __ZTSN7SeExpr214ExprFuncSimpleE, __ZTSN7SeExpr214ExprModuleNodeE, 
                       __ZTSN7SeExpr215ExprCompareNodeE, __ZTSN7SeExpr215ExprUnaryOpNodeE, 
                       __ZTSN7SeExpr216ExprBinaryOpNodeE, __ZTSN7SeExpr216ExprFuncStandardE, 
                       __ZTSN7SeExpr217ExprCompareEqNodeE, __ZTSN7SeExpr217ExprPrototypeNodeE, 
                       __ZTSN7SeExpr217ExprSubscriptNodeE, __ZTSN7SeExpr217TypePrintExaminerE, 
                       __ZTSN7SeExpr218ExprIfThenElseNodeE, __ZTSN7SeExpr221ExprLocalFunctionNodeE, 
                       __ZTSN7SeExpr28ExprNodeE, __ZTVN7SeExpr210ExpressionE, __ZTVN7SeExpr211DExpressionE, 
                       __ZTVN7SeExpr211ExprNumNodeE, __ZTVN7SeExpr211ExprStrNodeE, 
                       __ZTVN7SeExpr211ExprVarNodeE, __ZTVN7SeExpr211ExprVecNodeE, 
                       __ZTVN7SeExpr212ExprCondNodeE, __ZTVN7SeExpr212ExprFuncNodeE, 
                       __ZTVN7SeExpr213ExprBlockNodeE, __ZTVN7SeExpr214ExprAssignNodeE, 
                       __ZTVN7SeExpr214ExprFuncSimpleE, __ZTVN7SeExpr214ExprModuleNodeE, 
                       __ZTVN7SeExpr215ExprCompareNodeE, __ZTVN7SeExpr215ExprUnaryOpNodeE, 
                       __ZTVN7SeExpr216ExprBinaryOpNodeE, __ZTVN7SeExpr216ExprFuncStandardE, 
                       __ZTVN7SeExpr217ExprCompareEqNodeE, __ZTVN7SeExpr217ExprPrototypeNodeE, 
                       __ZTVN7SeExpr217ExprSubscriptNodeE, __ZTVN7SeExpr217TypePrintExaminerE, 
                       __ZTVN7SeExpr218ExprIfThenElseNodeE, __ZTVN7SeExpr221ExprLocalFunctionNodeE, 
                       __ZTVN7SeExpr28ExprNodeE, _comments ]
    weak-symbols:    [ __ZGVZNK7SeExpr211SPrintFuncX4prepEPNS_12ExprFuncNodeEbRNS_17ExprVarEnvBuilderEE7strSpec, 
                       __ZN7SeExpr23FBMILi3ELi1ELb0EdEEvPKT2_PS1_iS1_S1_, __ZN7SeExpr23FBMILi3ELi1ELb1EdEEvPKT2_PS1_iS1_S1_, 
                       __ZN7SeExpr23FBMILi3ELi3ELb0EdEEvPKT2_PS1_iS1_S1_, __ZN7SeExpr23FBMILi3ELi3ELb1EdEEvPKT2_PS1_iS1_S1_, 
                       __ZN7SeExpr23FBMILi4ELi1ELb0EdEEvPKT2_PS1_iS1_S1_, __ZN7SeExpr23FBMILi4ELi3ELb0EdEEvPKT2_PS1_iS1_S1_, 
                       __ZN7SeExpr23degEd, __ZN7SeExpr23maxEdd, __ZN7SeExpr23minEdd, 
                       __ZN7SeExpr23radEd, __ZN7SeExpr24cosdEd, __ZN7SeExpr24sindEd, 
                       __ZN7SeExpr24tandEd, __ZN7SeExpr25CurveINS_3VecIdLi3ELb0EEEE10cvLessThanERKNS3_2CVES6_, 
                       __ZN7SeExpr25CurveINS_3VecIdLi3ELb0EEEE13preparePointsEv, 
                       __ZN7SeExpr25CurveINS_3VecIdLi3ELb0EEEE15interpTypeValidENS3_10InterpTypeE, 
                       __ZN7SeExpr25CurveINS_3VecIdLi3ELb0EEEE2CVC1EdRKS2_NS3_10InterpTypeE, 
                       __ZN7SeExpr25CurveINS_3VecIdLi3ELb0EEEE2CVC2EdRKS2_NS3_10InterpTypeE, 
                       __ZN7SeExpr25CurveINS_3VecIdLi3ELb0EEEE8addPointEdRKS2_NS3_10InterpTypeE, 
                       __ZN7SeExpr25CurveINS_3VecIdLi3ELb0EEEEC1Ev, __ZN7SeExpr25CurveINS_3VecIdLi3ELb0EEEEC2Ev, 
                       __ZN7SeExpr25CurveIdE10cvLessThanERKNS1_2CVES4_, __ZN7SeExpr25CurveIdE13preparePointsEv, 
                       __ZN7SeExpr25CurveIdE15interpTypeValidENS1_10InterpTypeE, 
                       __ZN7SeExpr25CurveIdE2CVC1EdRKdNS1_10InterpTypeE, __ZN7SeExpr25CurveIdE2CVC2EdRKdNS1_10InterpTypeE, 
                       __ZN7SeExpr25CurveIdE8addPointEdRKdNS1_10InterpTypeE, __ZN7SeExpr25CurveIdEC1Ev, 
                       __ZN7SeExpr25CurveIdEC2Ev, __ZN7SeExpr25NoiseILi1ELi1EdEEvPKT1_PS1_, 
                       __ZN7SeExpr25NoiseILi2ELi1EdEEvPKT1_PS1_, __ZN7SeExpr25NoiseILi3ELi1EdEEvPKT1_PS1_, 
                       __ZN7SeExpr25NoiseILi3ELi3EdEEvPKT1_PS1_, __ZN7SeExpr25NoiseILi4ELi1EdEEvPKT1_PS1_, 
                       __ZN7SeExpr25NoiseILi4ELi3EdEEvPKT1_PS1_, __ZN7SeExpr25acosdEd, 
                       __ZN7SeExpr25asindEd, __ZN7SeExpr25atandEd, __ZN7SeExpr25clampEddd, 
                       __ZN7SeExpr25roundEd, __ZN7SeExpr26GetVar6AssignILi10EE1fEPdS3_, 
                       __ZN7SeExpr26GetVar6AssignILi11EE1fEPdS3_, __ZN7SeExpr26GetVar6AssignILi12EE1fEPdS3_, 
                       __ZN7SeExpr26GetVar6AssignILi13EE1fEPdS3_, __ZN7SeExpr26GetVar6AssignILi14EE1fEPdS3_, 
                       __ZN7SeExpr26GetVar6AssignILi15EE1fEPdS3_, __ZN7SeExpr26GetVar6AssignILi16EE1fEPdS3_, 
                       __ZN7SeExpr26GetVar6AssignILi1EE1fEPdS3_, __ZN7SeExpr26GetVar6AssignILi2EE1fEPdS3_, 
                       __ZN7SeExpr26GetVar6AssignILi3EE1fEPdS3_, __ZN7SeExpr26GetVar6AssignILi4EE1fEPdS3_, 
                       __ZN7SeExpr26GetVar6AssignILi5EE1fEPdS3_, __ZN7SeExpr26GetVar6AssignILi6EE1fEPdS3_, 
                       __ZN7SeExpr26GetVar6AssignILi7EE1fEPdS3_, __ZN7SeExpr26GetVar6AssignILi8EE1fEPdS3_, 
                       __ZN7SeExpr26GetVar6AssignILi9EE1fEPdS3_, __ZN7SeExpr26PNoiseILi3ELi1EdEEvPKT1_PKiPS1_, 
                       __ZN7SeExpr26WalkerILb0EE12internalWalkEPNS_8ExprNodeE, __ZN7SeExpr26WalkerILb0EE12walkChildrenEPNS_8ExprNodeE, 
                       __ZN7SeExpr26WalkerILb0EE4walkEPNS_8ExprNodeE, __ZN7SeExpr26WalkerILb0EEC1EPNS_8ExaminerILb0EEE, 
                       __ZN7SeExpr26WalkerILb0EEC2EPNS_8ExaminerILb0EEE, __ZN7SeExpr26WalkerILb1EE12internalWalkEPKNS_8ExprNodeE, 
                       __ZN7SeExpr26WalkerILb1EE12walkChildrenEPKNS_8ExprNodeE, __ZN7SeExpr26WalkerILb1EE4walkEPKNS_8ExprNodeE, 
                       __ZN7SeExpr26WalkerILb1EEC1EPNS_8ExaminerILb1EEE, __ZN7SeExpr26WalkerILb1EEC2EPNS_8ExaminerILb1EEE, 
                       __ZN7SeExpr26atan2dEdd, __ZN7SeExpr26invertEd, __ZN7SeExpr27PromoteILi10EE1fEPiPdPPcRNSt3__16vectorIiNS6_9allocatorIiEEEE, 
                       __ZN7SeExpr27PromoteILi11EE1fEPiPdPPcRNSt3__16vectorIiNS6_9allocatorIiEEEE, 
                       __ZN7SeExpr27PromoteILi12EE1fEPiPdPPcRNSt3__16vectorIiNS6_9allocatorIiEEEE, 
                       __ZN7SeExpr27PromoteILi13EE1fEPiPdPPcRNSt3__16vectorIiNS6_9allocatorIiEEEE, 
                       __ZN7SeExpr27PromoteILi14EE1fEPiPdPPcRNSt3__16vectorIiNS6_9allocatorIiEEEE, 
                       __ZN7SeExpr27PromoteILi15EE1fEPiPdPPcRNSt3__16vectorIiNS6_9allocatorIiEEEE, 
                       __ZN7SeExpr27PromoteILi16EE1fEPiPdPPcRNSt3__16vectorIiNS6_9allocatorIiEEEE, 
                       __ZN7SeExpr27PromoteILi1EE1fEPiPdPPcRNSt3__16vectorIiNS6_9allocatorIiEEEE, 
                       __ZN7SeExpr27PromoteILi2EE1fEPiPdPPcRNSt3__16vectorIiNS6_9allocatorIiEEEE, 
                       __ZN7SeExpr27PromoteILi3EE1fEPiPdPPcRNSt3__16vectorIiNS6_9allocatorIiEEEE, 
                       __ZN7SeExpr27PromoteILi4EE1fEPiPdPPcRNSt3__16vectorIiNS6_9allocatorIiEEEE, 
                       __ZN7SeExpr27PromoteILi5EE1fEPiPdPPcRNSt3__16vectorIiNS6_9allocatorIiEEEE, 
                       __ZN7SeExpr27PromoteILi6EE1fEPiPdPPcRNSt3__16vectorIiNS6_9allocatorIiEEEE, 
                       __ZN7SeExpr27PromoteILi7EE1fEPiPdPPcRNSt3__16vectorIiNS6_9allocatorIiEEEE, 
                       __ZN7SeExpr27PromoteILi8EE1fEPiPdPPcRNSt3__16vectorIiNS6_9allocatorIiEEEE, 
                       __ZN7SeExpr27PromoteILi9EE1fEPiPdPPcRNSt3__16vectorIiNS6_9allocatorIiEEEE, 
                       __ZN7SeExpr29CellNoiseILi3ELi1EdEEvPKT1_PS1_, __ZN7SeExpr29CellNoiseILi3ELi3EdEEvPKT1_PS1_, 
                       __ZNK7SeExpr25CurveINS_3VecIdLi3ELb0EEEE15getChannelValueEdi, 
                       __ZNK7SeExpr25CurveINS_3VecIdLi3ELb0EEEE15getLowerBoundCVEd, 
                       __ZNK7SeExpr25CurveINS_3VecIdLi3ELb0EEEE8getValueEd, __ZNK7SeExpr25CurveIdE15getChannelValueEdi, 
                       __ZNK7SeExpr25CurveIdE15getLowerBoundCVEd, __ZNK7SeExpr25CurveIdE8getValueEd, 
                       __ZZNK7SeExpr211SPrintFuncX4prepEPNS_12ExprFuncNodeEbRNS_17ExprVarEnvBuilderEE7strSpec ]
...
