--- !tapi-tbd
tbd-version:     4
targets:         [ x86_64-macos, x86_64-maccatalyst, arm64e-macos, arm64e-maccatalyst ]
install-name:    '/System/Library/PrivateFrameworks/HealthDaemon.framework/Versions/A/HealthDaemon'
swift-abi-version: 7
exports:
  - targets:         [ x86_64-macos, x86_64-maccatalyst ]
    weak-symbols:    [ __ZTI47_HDStatisticsCollectionCalculatorImplementation, __ZTI55_HDConcreteStatisticsCollectionCalculatorImplementationI20HDStatisticsCombinedI20HDStatisticsDiscrete24HDStatisticsTimeIntervalEE, 
                       __ZTI55_HDConcreteStatisticsCollectionCalculatorImplementationI20HDStatisticsCombinedI20HDStatisticsPresence24HDStatisticsTimeIntervalEE, 
                       __ZTI55_HDConcreteStatisticsCollectionCalculatorImplementationI20HDStatisticsCombinedI22HDStatisticsCumulative24HDStatisticsTimeIntervalEE, 
                       __ZTI55_HDConcreteStatisticsCollectionCalculatorImplementationI20HDStatisticsCombinedI22HDStatisticsNoiseLevel24HDStatisticsTimeIntervalEE, 
                       __ZTI55_HDConcreteStatisticsCollectionCalculatorImplementationI20HDStatisticsCombinedI23HDStatisticsPercentiles24HDStatisticsTimeIntervalEE, 
                       __ZTI55_HDConcreteStatisticsCollectionCalculatorImplementationI20HDStatisticsCombinedI23HDStatisticsSleepStages24HDStatisticsTimeIntervalEE, 
                       __ZTI55_HDConcreteStatisticsCollectionCalculatorImplementationI20HDStatisticsCombinedI24HDStatisticsTimeIntervalS1_EE, 
                       __ZTI55_HDConcreteStatisticsCollectionCalculatorImplementationI20HDStatisticsCombinedI33HDStatisticsAverageSampleDuration24HDStatisticsTimeIntervalEE, 
                       __ZTI55_HDConcreteStatisticsCollectionCalculatorImplementationI20HDStatisticsCombinedI38HDStatisticsTemporallyWeightedDiscreteI48HDStatisticsTemporallyWeightedDiscreteParametersILd4018000000000000EEE24HDStatisticsTimeIntervalEE, 
                       __ZTI55_HDConcreteStatisticsCollectionCalculatorImplementationI20HDStatisticsCombinedI38HDStatisticsTemporallyWeightedDiscreteI48HDStatisticsTemporallyWeightedDiscreteParametersILd4046800000000000EEE24HDStatisticsTimeIntervalEE, 
                       __ZTI55_HDConcreteStatisticsCollectionCalculatorImplementationI20HDStatisticsCombinedI42HDStatisticsTemporalBucketWeightedDiscreteI52HDStatisticsTemporalBucketWeightedDiscreteParametersE24HDStatisticsTimeIntervalEE, 
                       __ZTI55_HDConcreteStatisticsCollectionCalculatorImplementationI20HDStatisticsDiscreteE, 
                       __ZTI55_HDConcreteStatisticsCollectionCalculatorImplementationI20HDStatisticsPresenceE, 
                       __ZTI55_HDConcreteStatisticsCollectionCalculatorImplementationI20HDStatisticsRelativeI20HDStatisticsCombinedI20HDStatisticsDiscrete24HDStatisticsTimeIntervalEEE, 
                       __ZTI55_HDConcreteStatisticsCollectionCalculatorImplementationI20HDStatisticsRelativeI20HDStatisticsCombinedI20HDStatisticsPresence24HDStatisticsTimeIntervalEEE, 
                       __ZTI55_HDConcreteStatisticsCollectionCalculatorImplementationI20HDStatisticsRelativeI20HDStatisticsCombinedI22HDStatisticsCumulative24HDStatisticsTimeIntervalEEE, 
                       __ZTI55_HDConcreteStatisticsCollectionCalculatorImplementationI20HDStatisticsRelativeI20HDStatisticsCombinedI22HDStatisticsNoiseLevel24HDStatisticsTimeIntervalEEE, 
                       __ZTI55_HDConcreteStatisticsCollectionCalculatorImplementationI20HDStatisticsRelativeI20HDStatisticsCombinedI23HDStatisticsPercentiles24HDStatisticsTimeIntervalEEE, 
                       __ZTI55_HDConcreteStatisticsCollectionCalculatorImplementationI20HDStatisticsRelativeI20HDStatisticsCombinedI23HDStatisticsSleepStages24HDStatisticsTimeIntervalEEE, 
                       __ZTI55_HDConcreteStatisticsCollectionCalculatorImplementationI20HDStatisticsRelativeI20HDStatisticsCombinedI24HDStatisticsTimeIntervalS2_EEE, 
                       __ZTI55_HDConcreteStatisticsCollectionCalculatorImplementationI20HDStatisticsRelativeI20HDStatisticsCombinedI33HDStatisticsAverageSampleDuration24HDStatisticsTimeIntervalEEE, 
                       __ZTI55_HDConcreteStatisticsCollectionCalculatorImplementationI20HDStatisticsRelativeI20HDStatisticsCombinedI38HDStatisticsTemporallyWeightedDiscreteI48HDStatisticsTemporallyWeightedDiscreteParametersILd4018000000000000EEE24HDStatisticsTimeIntervalEEE, 
                       __ZTI55_HDConcreteStatisticsCollectionCalculatorImplementationI20HDStatisticsRelativeI20HDStatisticsCombinedI38HDStatisticsTemporallyWeightedDiscreteI48HDStatisticsTemporallyWeightedDiscreteParametersILd4046800000000000EEE24HDStatisticsTimeIntervalEEE, 
                       __ZTI55_HDConcreteStatisticsCollectionCalculatorImplementationI20HDStatisticsRelativeI20HDStatisticsCombinedI42HDStatisticsTemporalBucketWeightedDiscreteI52HDStatisticsTemporalBucketWeightedDiscreteParametersE24HDStatisticsTimeIntervalEEE, 
                       __ZTI55_HDConcreteStatisticsCollectionCalculatorImplementationI20HDStatisticsRelativeI20HDStatisticsDiscreteEE, 
                       __ZTI55_HDConcreteStatisticsCollectionCalculatorImplementationI20HDStatisticsRelativeI20HDStatisticsPresenceEE, 
                       __ZTI55_HDConcreteStatisticsCollectionCalculatorImplementationI20HDStatisticsRelativeI22HDStatisticsCumulativeEE, 
                       __ZTI55_HDConcreteStatisticsCollectionCalculatorImplementationI20HDStatisticsRelativeI22HDStatisticsNoiseLevelEE, 
                       __ZTI55_HDConcreteStatisticsCollectionCalculatorImplementationI20HDStatisticsRelativeI23HDStatisticsPercentilesEE, 
                       __ZTI55_HDConcreteStatisticsCollectionCalculatorImplementationI20HDStatisticsRelativeI23HDStatisticsSleepStagesEE, 
                       __ZTI55_HDConcreteStatisticsCollectionCalculatorImplementationI20HDStatisticsRelativeI24HDStatisticsTimeIntervalEE, 
                       __ZTI55_HDConcreteStatisticsCollectionCalculatorImplementationI20HDStatisticsRelativeI33HDStatisticsAverageSampleDurationEE, 
                       __ZTI55_HDConcreteStatisticsCollectionCalculatorImplementationI20HDStatisticsRelativeI38HDStatisticsTemporallyWeightedDiscreteI48HDStatisticsTemporallyWeightedDiscreteParametersILd4018000000000000EEEEE, 
                       __ZTI55_HDConcreteStatisticsCollectionCalculatorImplementationI20HDStatisticsRelativeI38HDStatisticsTemporallyWeightedDiscreteI48HDStatisticsTemporallyWeightedDiscreteParametersILd4046800000000000EEEEE, 
                       __ZTI55_HDConcreteStatisticsCollectionCalculatorImplementationI20HDStatisticsRelativeI42HDStatisticsTemporalBucketWeightedDiscreteI52HDStatisticsTemporalBucketWeightedDiscreteParametersEEE, 
                       __ZTI55_HDConcreteStatisticsCollectionCalculatorImplementationI22HDStatisticsCumulativeE, 
                       __ZTI55_HDConcreteStatisticsCollectionCalculatorImplementationI22HDStatisticsNoiseLevelE, 
                       __ZTI55_HDConcreteStatisticsCollectionCalculatorImplementationI23HDStatisticsPercentilesE, 
                       __ZTI55_HDConcreteStatisticsCollectionCalculatorImplementationI23HDStatisticsSleepStagesE, 
                       __ZTI55_HDConcreteStatisticsCollectionCalculatorImplementationI24HDStatisticsTimeIntervalE, 
                       __ZTI55_HDConcreteStatisticsCollectionCalculatorImplementationI33HDStatisticsAverageSampleDurationE, 
                       __ZTI55_HDConcreteStatisticsCollectionCalculatorImplementationI38HDStatisticsTemporallyWeightedDiscreteI48HDStatisticsTemporallyWeightedDiscreteParametersILd4018000000000000EEEE, 
                       __ZTI55_HDConcreteStatisticsCollectionCalculatorImplementationI38HDStatisticsTemporallyWeightedDiscreteI48HDStatisticsTemporallyWeightedDiscreteParametersILd4046800000000000EEEE, 
                       __ZTI55_HDConcreteStatisticsCollectionCalculatorImplementationI42HDStatisticsTemporalBucketWeightedDiscreteI52HDStatisticsTemporalBucketWeightedDiscreteParametersEE, 
                       __ZTIN6health11VirtualFileE, __ZTIN6health15not_found_errorE, 
                       __ZTIN6health16MappedFileExtentE, __ZTIN6health17VirtualFilesystemE, 
                       __ZTIN6health17file_access_errorE, __ZTIN6health17transaction_errorE, 
                       __ZTIN6health18btree_access_errorE, __ZTIN6health21data_corruption_errorE, 
                       __ZTINSt3__110__back_refIcEE, __ZTINSt3__110__function6__baseIF21_HDRawLocationDatumV1dS2_EEE, 
                       __ZTINSt3__110__function6__baseIF21_HDRawLocationDatumV2dS2_EEE, 
                       __ZTINSt3__110__function6__baseIF27_HDRawQuantitySampleValueV1dS2_EEE, 
                       __ZTINSt3__110__function6__baseIFNS_12basic_stringIcNS_11char_traitsIcEENS_9allocatorIcEEEENS_13match_resultsINS_11__wrap_iterIPKcEENS5_INS_9sub_matchISC_EEEEEEEEE, 
                       __ZTINSt3__110__function6__baseIFRK20HDStatisticsCombinedI20HDStatisticsDiscrete24HDStatisticsTimeIntervalERK20HDStatisticsRelativeIS5_EEEE, 
                       __ZTINSt3__110__function6__baseIFRK20HDStatisticsCombinedI20HDStatisticsDiscrete24HDStatisticsTimeIntervalES7_EEE, 
                       __ZTINSt3__110__function6__baseIFRK20HDStatisticsCombinedI20HDStatisticsPresence24HDStatisticsTimeIntervalERK20HDStatisticsRelativeIS5_EEEE, 
                       __ZTINSt3__110__function6__baseIFRK20HDStatisticsCombinedI20HDStatisticsPresence24HDStatisticsTimeIntervalES7_EEE, 
                       __ZTINSt3__110__function6__baseIFRK20HDStatisticsCombinedI22HDStatisticsCumulative24HDStatisticsTimeIntervalERK20HDStatisticsRelativeIS5_EEEE, 
                       __ZTINSt3__110__function6__baseIFRK20HDStatisticsCombinedI22HDStatisticsCumulative24HDStatisticsTimeIntervalES7_EEE, 
                       __ZTINSt3__110__function6__baseIFRK20HDStatisticsCombinedI22HDStatisticsNoiseLevel24HDStatisticsTimeIntervalERK20HDStatisticsRelativeIS5_EEEE, 
                       __ZTINSt3__110__function6__baseIFRK20HDStatisticsCombinedI22HDStatisticsNoiseLevel24HDStatisticsTimeIntervalES7_EEE, 
                       __ZTINSt3__110__function6__baseIFRK20HDStatisticsCombinedI23HDStatisticsPercentiles24HDStatisticsTimeIntervalERK20HDStatisticsRelativeIS5_EEEE, 
                       __ZTINSt3__110__function6__baseIFRK20HDStatisticsCombinedI23HDStatisticsPercentiles24HDStatisticsTimeIntervalES7_EEE, 
                       __ZTINSt3__110__function6__baseIFRK20HDStatisticsCombinedI23HDStatisticsSleepStages24HDStatisticsTimeIntervalERK20HDStatisticsRelativeIS5_EEEE, 
                       __ZTINSt3__110__function6__baseIFRK20HDStatisticsCombinedI23HDStatisticsSleepStages24HDStatisticsTimeIntervalES7_EEE, 
                       __ZTINSt3__110__function6__baseIFRK20HDStatisticsCombinedI24HDStatisticsTimeIntervalS3_ERK20HDStatisticsRelativeIS4_EEEE, 
                       __ZTINSt3__110__function6__baseIFRK20HDStatisticsCombinedI24HDStatisticsTimeIntervalS3_ES6_EEE, 
                       __ZTINSt3__110__function6__baseIFRK20HDStatisticsCombinedI33HDStatisticsAverageSampleDuration24HDStatisticsTimeIntervalERK20HDStatisticsRelativeIS5_EEEE, 
                       __ZTINSt3__110__function6__baseIFRK20HDStatisticsCombinedI33HDStatisticsAverageSampleDuration24HDStatisticsTimeIntervalES7_EEE, 
                       __ZTINSt3__110__function6__baseIFRK20HDStatisticsCombinedI38HDStatisticsTemporallyWeightedDiscreteI48HDStatisticsTemporallyWeightedDiscreteParametersILd4018000000000000EEE24HDStatisticsTimeIntervalERK20HDStatisticsRelativeIS8_EEEE, 
                       __ZTINSt3__110__function6__baseIFRK20HDStatisticsCombinedI38HDStatisticsTemporallyWeightedDiscreteI48HDStatisticsTemporallyWeightedDiscreteParametersILd4018000000000000EEE24HDStatisticsTimeIntervalESA_EEE, 
                       __ZTINSt3__110__function6__baseIFRK20HDStatisticsCombinedI38HDStatisticsTemporallyWeightedDiscreteI48HDStatisticsTemporallyWeightedDiscreteParametersILd4046800000000000EEE24HDStatisticsTimeIntervalERK20HDStatisticsRelativeIS8_EEEE, 
                       __ZTINSt3__110__function6__baseIFRK20HDStatisticsCombinedI38HDStatisticsTemporallyWeightedDiscreteI48HDStatisticsTemporallyWeightedDiscreteParametersILd4046800000000000EEE24HDStatisticsTimeIntervalESA_EEE, 
                       __ZTINSt3__110__function6__baseIFRK20HDStatisticsCombinedI42HDStatisticsTemporalBucketWeightedDiscreteI52HDStatisticsTemporalBucketWeightedDiscreteParametersE24HDStatisticsTimeIntervalERK20HDStatisticsRelativeIS7_EEEE, 
                       __ZTINSt3__110__function6__baseIFRK20HDStatisticsCombinedI42HDStatisticsTemporalBucketWeightedDiscreteI52HDStatisticsTemporalBucketWeightedDiscreteParametersE24HDStatisticsTimeIntervalES9_EEE, 
                       __ZTINSt3__110__function6__baseIFRK20HDStatisticsDiscreteRK20HDStatisticsCombinedIS2_24HDStatisticsTimeIntervalEEEE, 
                       __ZTINSt3__110__function6__baseIFRK20HDStatisticsDiscreteRK20HDStatisticsRelativeI20HDStatisticsCombinedIS2_24HDStatisticsTimeIntervalEEEEE, 
                       __ZTINSt3__110__function6__baseIFRK20HDStatisticsDiscreteRK20HDStatisticsRelativeIS2_EEEE, 
                       __ZTINSt3__110__function6__baseIFRK20HDStatisticsDiscreteS4_EEE, 
                       __ZTINSt3__110__function6__baseIFRK20HDStatisticsPresenceRK20HDStatisticsCombinedIS2_24HDStatisticsTimeIntervalEEEE, 
                       __ZTINSt3__110__function6__baseIFRK20HDStatisticsPresenceRK20HDStatisticsRelativeI20HDStatisticsCombinedIS2_24HDStatisticsTimeIntervalEEEEE, 
                       __ZTINSt3__110__function6__baseIFRK20HDStatisticsPresenceRK20HDStatisticsRelativeIS2_EEEE, 
                       __ZTINSt3__110__function6__baseIFRK20HDStatisticsPresenceS4_EEE, 
                       __ZTINSt3__110__function6__baseIFRK22HDStatisticsCumulativeRK20HDStatisticsCombinedIS2_24HDStatisticsTimeIntervalEEEE, 
                       __ZTINSt3__110__function6__baseIFRK22HDStatisticsCumulativeRK20HDStatisticsRelativeI20HDStatisticsCombinedIS2_24HDStatisticsTimeIntervalEEEEE, 
                       __ZTINSt3__110__function6__baseIFRK22HDStatisticsCumulativeRK20HDStatisticsRelativeIS2_EEEE, 
                       __ZTINSt3__110__function6__baseIFRK22HDStatisticsCumulativeS4_EEE, 
                       __ZTINSt3__110__function6__baseIFRK22HDStatisticsNoiseLevelRK20HDStatisticsCombinedIS2_24HDStatisticsTimeIntervalEEEE, 
                       __ZTINSt3__110__function6__baseIFRK22HDStatisticsNoiseLevelRK20HDStatisticsRelativeI20HDStatisticsCombinedIS2_24HDStatisticsTimeIntervalEEEEE, 
                       __ZTINSt3__110__function6__baseIFRK22HDStatisticsNoiseLevelRK20HDStatisticsRelativeIS2_EEEE, 
                       __ZTINSt3__110__function6__baseIFRK22HDStatisticsNoiseLevelS4_EEE, 
                       __ZTINSt3__110__function6__baseIFRK23HDStatisticsPercentilesRK20HDStatisticsCombinedIS2_24HDStatisticsTimeIntervalEEEE, 
                       __ZTINSt3__110__function6__baseIFRK23HDStatisticsPercentilesRK20HDStatisticsRelativeI20HDStatisticsCombinedIS2_24HDStatisticsTimeIntervalEEEEE, 
                       __ZTINSt3__110__function6__baseIFRK23HDStatisticsPercentilesRK20HDStatisticsRelativeIS2_EEEE, 
                       __ZTINSt3__110__function6__baseIFRK23HDStatisticsPercentilesS4_EEE, 
                       __ZTINSt3__110__function6__baseIFRK23HDStatisticsSleepStagesRK20HDStatisticsCombinedIS2_24HDStatisticsTimeIntervalEEEE, 
                       __ZTINSt3__110__function6__baseIFRK23HDStatisticsSleepStagesRK20HDStatisticsRelativeI20HDStatisticsCombinedIS2_24HDStatisticsTimeIntervalEEEEE, 
                       __ZTINSt3__110__function6__baseIFRK23HDStatisticsSleepStagesRK20HDStatisticsRelativeIS2_EEEE, 
                       __ZTINSt3__110__function6__baseIFRK23HDStatisticsSleepStagesS4_EEE, 
                       __ZTINSt3__110__function6__baseIFRK24HDStatisticsTimeIntervalRK20HDStatisticsCombinedI20HDStatisticsDiscreteS2_EEEE, 
                       __ZTINSt3__110__function6__baseIFRK24HDStatisticsTimeIntervalRK20HDStatisticsCombinedI20HDStatisticsPresenceS2_EEEE, 
                       __ZTINSt3__110__function6__baseIFRK24HDStatisticsTimeIntervalRK20HDStatisticsCombinedI22HDStatisticsCumulativeS2_EEEE, 
                       __ZTINSt3__110__function6__baseIFRK24HDStatisticsTimeIntervalRK20HDStatisticsCombinedI22HDStatisticsNoiseLevelS2_EEEE, 
                       __ZTINSt3__110__function6__baseIFRK24HDStatisticsTimeIntervalRK20HDStatisticsCombinedI23HDStatisticsPercentilesS2_EEEE, 
                       __ZTINSt3__110__function6__baseIFRK24HDStatisticsTimeIntervalRK20HDStatisticsCombinedI23HDStatisticsSleepStagesS2_EEEE, 
                       __ZTINSt3__110__function6__baseIFRK24HDStatisticsTimeIntervalRK20HDStatisticsCombinedI33HDStatisticsAverageSampleDurationS2_EEEE, 
                       __ZTINSt3__110__function6__baseIFRK24HDStatisticsTimeIntervalRK20HDStatisticsCombinedI38HDStatisticsTemporallyWeightedDiscreteI48HDStatisticsTemporallyWeightedDiscreteParametersILd4018000000000000EEES2_EEEE, 
                       __ZTINSt3__110__function6__baseIFRK24HDStatisticsTimeIntervalRK20HDStatisticsCombinedI38HDStatisticsTemporallyWeightedDiscreteI48HDStatisticsTemporallyWeightedDiscreteParametersILd4046800000000000EEES2_EEEE, 
                       __ZTINSt3__110__function6__baseIFRK24HDStatisticsTimeIntervalRK20HDStatisticsCombinedI42HDStatisticsTemporalBucketWeightedDiscreteI52HDStatisticsTemporalBucketWeightedDiscreteParametersES2_EEEE, 
                       __ZTINSt3__110__function6__baseIFRK24HDStatisticsTimeIntervalRK20HDStatisticsCombinedIS2_S2_EEEE, 
                       __ZTINSt3__110__function6__baseIFRK24HDStatisticsTimeIntervalRK20HDStatisticsRelativeI20HDStatisticsCombinedI20HDStatisticsDiscreteS2_EEEEE, 
                       __ZTINSt3__110__function6__baseIFRK24HDStatisticsTimeIntervalRK20HDStatisticsRelativeI20HDStatisticsCombinedI20HDStatisticsPresenceS2_EEEEE, 
                       __ZTINSt3__110__function6__baseIFRK24HDStatisticsTimeIntervalRK20HDStatisticsRelativeI20HDStatisticsCombinedI22HDStatisticsCumulativeS2_EEEEE, 
                       __ZTINSt3__110__function6__baseIFRK24HDStatisticsTimeIntervalRK20HDStatisticsRelativeI20HDStatisticsCombinedI22HDStatisticsNoiseLevelS2_EEEEE, 
                       __ZTINSt3__110__function6__baseIFRK24HDStatisticsTimeIntervalRK20HDStatisticsRelativeI20HDStatisticsCombinedI23HDStatisticsPercentilesS2_EEEEE, 
                       __ZTINSt3__110__function6__baseIFRK24HDStatisticsTimeIntervalRK20HDStatisticsRelativeI20HDStatisticsCombinedI23HDStatisticsSleepStagesS2_EEEEE, 
                       __ZTINSt3__110__function6__baseIFRK24HDStatisticsTimeIntervalRK20HDStatisticsRelativeI20HDStatisticsCombinedI33HDStatisticsAverageSampleDurationS2_EEEEE, 
                       __ZTINSt3__110__function6__baseIFRK24HDStatisticsTimeIntervalRK20HDStatisticsRelativeI20HDStatisticsCombinedI38HDStatisticsTemporallyWeightedDiscreteI48HDStatisticsTemporallyWeightedDiscreteParametersILd4018000000000000EEES2_EEEEE, 
                       __ZTINSt3__110__function6__baseIFRK24HDStatisticsTimeIntervalRK20HDStatisticsRelativeI20HDStatisticsCombinedI38HDStatisticsTemporallyWeightedDiscreteI48HDStatisticsTemporallyWeightedDiscreteParametersILd4046800000000000EEES2_EEEEE, 
                       __ZTINSt3__110__function6__baseIFRK24HDStatisticsTimeIntervalRK20HDStatisticsRelativeI20HDStatisticsCombinedI42HDStatisticsTemporalBucketWeightedDiscreteI52HDStatisticsTemporalBucketWeightedDiscreteParametersES2_EEEEE, 
                       __ZTINSt3__110__function6__baseIFRK24HDStatisticsTimeIntervalRK20HDStatisticsRelativeI20HDStatisticsCombinedIS2_S2_EEEEE, 
                       __ZTINSt3__110__function6__baseIFRK24HDStatisticsTimeIntervalRK20HDStatisticsRelativeIS2_EEEE, 
                       __ZTINSt3__110__function6__baseIFRK24HDStatisticsTimeIntervalS4_EEE, 
                       __ZTINSt3__110__function6__baseIFRK33HDStatisticsAverageSampleDurationRK20HDStatisticsCombinedIS2_24HDStatisticsTimeIntervalEEEE, 
                       __ZTINSt3__110__function6__baseIFRK33HDStatisticsAverageSampleDurationRK20HDStatisticsRelativeI20HDStatisticsCombinedIS2_24HDStatisticsTimeIntervalEEEEE, 
                       __ZTINSt3__110__function6__baseIFRK33HDStatisticsAverageSampleDurationRK20HDStatisticsRelativeIS2_EEEE, 
                       __ZTINSt3__110__function6__baseIFRK33HDStatisticsAverageSampleDurationS4_EEE, 
                       __ZTINSt3__110__function6__baseIFRK38HDStatisticsTemporallyWeightedDiscreteI48HDStatisticsTemporallyWeightedDiscreteParametersILd4018000000000000EEERK20HDStatisticsCombinedIS5_24HDStatisticsTimeIntervalEEEE, 
                       __ZTINSt3__110__function6__baseIFRK38HDStatisticsTemporallyWeightedDiscreteI48HDStatisticsTemporallyWeightedDiscreteParametersILd4018000000000000EEERK20HDStatisticsRelativeI20HDStatisticsCombinedIS5_24HDStatisticsTimeIntervalEEEEE, 
                       __ZTINSt3__110__function6__baseIFRK38HDStatisticsTemporallyWeightedDiscreteI48HDStatisticsTemporallyWeightedDiscreteParametersILd4018000000000000EEERK20HDStatisticsRelativeIS5_EEEE, 
                       __ZTINSt3__110__function6__baseIFRK38HDStatisticsTemporallyWeightedDiscreteI48HDStatisticsTemporallyWeightedDiscreteParametersILd4018000000000000EEES7_EEE, 
                       __ZTINSt3__110__function6__baseIFRK38HDStatisticsTemporallyWeightedDiscreteI48HDStatisticsTemporallyWeightedDiscreteParametersILd4046800000000000EEERK20HDStatisticsCombinedIS5_24HDStatisticsTimeIntervalEEEE, 
                       __ZTINSt3__110__function6__baseIFRK38HDStatisticsTemporallyWeightedDiscreteI48HDStatisticsTemporallyWeightedDiscreteParametersILd4046800000000000EEERK20HDStatisticsRelativeI20HDStatisticsCombinedIS5_24HDStatisticsTimeIntervalEEEEE, 
                       __ZTINSt3__110__function6__baseIFRK38HDStatisticsTemporallyWeightedDiscreteI48HDStatisticsTemporallyWeightedDiscreteParametersILd4046800000000000EEERK20HDStatisticsRelativeIS5_EEEE, 
                       __ZTINSt3__110__function6__baseIFRK38HDStatisticsTemporallyWeightedDiscreteI48HDStatisticsTemporallyWeightedDiscreteParametersILd4046800000000000EEES7_EEE, 
                       __ZTINSt3__110__function6__baseIFRK42HDStatisticsTemporalBucketWeightedDiscreteI52HDStatisticsTemporalBucketWeightedDiscreteParametersERK20HDStatisticsCombinedIS4_24HDStatisticsTimeIntervalEEEE, 
                       __ZTINSt3__110__function6__baseIFRK42HDStatisticsTemporalBucketWeightedDiscreteI52HDStatisticsTemporalBucketWeightedDiscreteParametersERK20HDStatisticsRelativeI20HDStatisticsCombinedIS4_24HDStatisticsTimeIntervalEEEEE, 
                       __ZTINSt3__110__function6__baseIFRK42HDStatisticsTemporalBucketWeightedDiscreteI52HDStatisticsTemporalBucketWeightedDiscreteParametersERK20HDStatisticsRelativeIS4_EEEE, 
                       __ZTINSt3__110__function6__baseIFRK42HDStatisticsTemporalBucketWeightedDiscreteI52HDStatisticsTemporalBucketWeightedDiscreteParametersES6_EEE, 
                       __ZTINSt3__110__function6__baseIFbN6health15BlockAccessFile14IntegrityErrorExxRKNS_12basic_stringIcNS_11char_traitsIcEENS_9allocatorIcEEEEEEE, 
                       __ZTINSt3__110__function6__baseIFbN6health9DataStore14IntegrityErrorENS2_12BlockPointerERKNS_12basic_stringIcNS_11char_traitsIcEENS_9allocatorIcEEEEEEE, 
                       __ZTINSt3__110__function6__baseIFbRKdRK21_HDRawLocationDatumV0EEE, 
                       __ZTINSt3__110__function6__baseIFbRKdRK21_HDRawLocationDatumV1EEE, 
                       __ZTINSt3__110__function6__baseIFbRKdRK21_HDRawLocationDatumV2EEE, 
                       __ZTINSt3__110__function6__baseIFbRKdRK27_HDRawQuantitySampleValueV1EEE, 
                       __ZTINSt3__110__function6__baseIFbRKdS3_EEE, __ZTINSt3__110__function6__baseIFbRN6health15BlockAccessFile16WriteTransactionEEEE, 
                       __ZTINSt3__110__function6__baseIFbRN6health17TransactionalFile16WriteTransactionEEEE, 
                       __ZTINSt3__110__function6__baseIFbRN6health9DataStore16WriteTransactionEEEE, 
                       __ZTINSt3__110__function6__baseIFbRN6health9DataStore20MutableSampleHistoryI25LocationHistoryBehaviorV1EEEEE, 
                       __ZTINSt3__110__function6__baseIFbRN6health9DataStore20MutableSampleHistoryI25LocationHistoryBehaviorV2EEEEE, 
                       __ZTINSt3__110__function6__baseIFbRN6health9DataStore20MutableSampleHistoryI29QuantitySampleValueBehaviorV0EEEEE, 
                       __ZTINSt3__110__function6__baseIFbRN6health9DataStore20MutableSampleHistoryI29QuantitySampleValueBehaviorV1EEEEE, 
                       __ZTINSt3__110__function6__baseIFbvEEE, __ZTINSt3__110__function6__baseIFbyEEE, 
                       __ZTINSt3__110__function6__baseIFbyRKyRKN6health8FilePageEEEE, 
                       __ZTINSt3__110__function6__baseIFdddEEE, __ZTINSt3__110__function6__baseIFvRKN6health10FileExtentEEEE, 
                       __ZTINSt3__110__function6__baseIFvRKN6health15BlockAccessFile15ReadTransactionEEEE, 
                       __ZTINSt3__110__function6__baseIFvRKN6health17TransactionalFile15ReadTransactionEEEE, 
                       __ZTINSt3__110__function6__baseIFvRKN6health9DataStore13SampleHistoryI25LocationHistoryBehaviorV0EEEEE, 
                       __ZTINSt3__110__function6__baseIFvRKN6health9DataStore13SampleHistoryI25LocationHistoryBehaviorV1EEEEE, 
                       __ZTINSt3__110__function6__baseIFvRKN6health9DataStore13SampleHistoryI25LocationHistoryBehaviorV2EEEEE, 
                       __ZTINSt3__110__function6__baseIFvRKN6health9DataStore13SampleHistoryI29QuantitySampleValueBehaviorV0EEEEE, 
                       __ZTINSt3__110__function6__baseIFvRKN6health9DataStore13SampleHistoryI29QuantitySampleValueBehaviorV1EEEEE, 
                       __ZTINSt3__110__function6__baseIFvRKN6health9DataStore15ReadTransactionEEEE, 
                       __ZTINSt3__110__function6__baseIFvRKN6health9DataStore16ObjectIdentifierENS2_12BlockPointerEEEE, 
                       __ZTINSt3__110__function6__baseIFvRKNS_12basic_stringIcNS_11char_traitsIcEENS_9allocatorIcEEEEEEE, 
                       __ZTINSt3__110__function6__baseIFvxN6health13WriteAheadLog9PageEntryEEEE, 
                       __ZTINSt3__110__function6__baseIFvyEEE, __ZTINSt3__110__function6__baseIFvyRKN6health8FilePageEEEE, 
                       __ZTINSt3__111__alternateIcEE, __ZTINSt3__111__end_stateIcEE, 
                       __ZTINSt3__111__lookaheadIcNS_12regex_traitsIcEEEE, __ZTINSt3__111__match_anyIcEE, 
                       __ZTINSt3__112__match_charIcEE, __ZTINSt3__113__empty_stateIcEE, 
                       __ZTINSt3__115__has_one_stateIcEE, __ZTINSt3__115__word_boundaryIcNS_12regex_traitsIcEEEE, 
                       __ZTINSt3__116__back_ref_icaseIcNS_12regex_traitsIcEEEE, __ZTINSt3__116__owns_one_stateIcEE, 
                       __ZTINSt3__117__owns_two_statesIcEE, __ZTINSt3__117__repeat_one_loopIcEE, 
                       __ZTINSt3__118__back_ref_collateIcNS_12regex_traitsIcEEEE, 
                       __ZTINSt3__118__match_char_icaseIcNS_12regex_traitsIcEEEE, 
                       __ZTINSt3__120__bracket_expressionIcNS_12regex_traitsIcEEEE, 
                       __ZTINSt3__120__l_anchor_multilineIcEE, __ZTINSt3__120__match_char_collateIcNS_12regex_traitsIcEEEE, 
                       __ZTINSt3__120__r_anchor_multilineIcEE, __ZTINSt3__120__shared_ptr_emplaceIN6health12InMemoryFileENS_9allocatorIS2_EEEE, 
                       __ZTINSt3__120__shared_ptr_emplaceIN6health13WriteAheadLog11TransactionENS_9allocatorIS3_EEEE, 
                       __ZTINSt3__120__shared_ptr_emplaceIN6health15POSIXFilesystemENS_9allocatorIS2_EEEE, 
                       __ZTINSt3__120__shared_ptr_emplaceIN6health21POSIXMappedFileExtentENS_9allocatorIS2_EEEE, 
                       __ZTINSt3__120__shared_ptr_emplaceIN6health24InMemoryMappedFileExtentENS_9allocatorIS2_EEEE, 
                       __ZTINSt3__120__shared_ptr_emplaceIN6health9DataStoreENS_9allocatorIS2_EEEE, 
                       __ZTINSt3__120__shared_ptr_emplaceIN6health9POSIXFileENS_9allocatorIS2_EEEE, 
                       __ZTINSt3__120__shared_ptr_emplaceINS_6vectorIhNS_9allocatorIhEEEENS2_IS4_EEEE, 
                       __ZTINSt3__120__shared_ptr_pointerIPNS_13__empty_stateIcEENS_10shared_ptrIS2_E27__shared_ptr_default_deleteIS2_S2_EENS_9allocatorIS2_EEEE, 
                       __ZTINSt3__120__shared_ptr_pointerIPhNS_14default_deleteIA_hEENS_9allocatorIhEEEE, 
                       __ZTINSt3__121__empty_non_own_stateIcEE, __ZTINSt3__123__match_any_but_newlineIcEE, 
                       __ZTINSt3__126__end_marked_subexpressionIcEE, __ZTINSt3__128__begin_marked_subexpressionIcEE, 
                       __ZTINSt3__16__loopIcEE, __ZTINSt3__16__nodeIcEE, __ZTS47_HDStatisticsCollectionCalculatorImplementation, 
                       __ZTS55_HDConcreteStatisticsCollectionCalculatorImplementationI20HDStatisticsCombinedI20HDStatisticsDiscrete24HDStatisticsTimeIntervalEE, 
                       __ZTS55_HDConcreteStatisticsCollectionCalculatorImplementationI20HDStatisticsCombinedI20HDStatisticsPresence24HDStatisticsTimeIntervalEE, 
                       __ZTS55_HDConcreteStatisticsCollectionCalculatorImplementationI20HDStatisticsCombinedI22HDStatisticsCumulative24HDStatisticsTimeIntervalEE, 
                       __ZTS55_HDConcreteStatisticsCollectionCalculatorImplementationI20HDStatisticsCombinedI22HDStatisticsNoiseLevel24HDStatisticsTimeIntervalEE, 
                       __ZTS55_HDConcreteStatisticsCollectionCalculatorImplementationI20HDStatisticsCombinedI23HDStatisticsPercentiles24HDStatisticsTimeIntervalEE, 
                       __ZTS55_HDConcreteStatisticsCollectionCalculatorImplementationI20HDStatisticsCombinedI23HDStatisticsSleepStages24HDStatisticsTimeIntervalEE, 
                       __ZTS55_HDConcreteStatisticsCollectionCalculatorImplementationI20HDStatisticsCombinedI24HDStatisticsTimeIntervalS1_EE, 
                       __ZTS55_HDConcreteStatisticsCollectionCalculatorImplementationI20HDStatisticsCombinedI33HDStatisticsAverageSampleDuration24HDStatisticsTimeIntervalEE, 
                       __ZTS55_HDConcreteStatisticsCollectionCalculatorImplementationI20HDStatisticsCombinedI38HDStatisticsTemporallyWeightedDiscreteI48HDStatisticsTemporallyWeightedDiscreteParametersILd4018000000000000EEE24HDStatisticsTimeIntervalEE, 
                       __ZTS55_HDConcreteStatisticsCollectionCalculatorImplementationI20HDStatisticsCombinedI38HDStatisticsTemporallyWeightedDiscreteI48HDStatisticsTemporallyWeightedDiscreteParametersILd4046800000000000EEE24HDStatisticsTimeIntervalEE, 
                       __ZTS55_HDConcreteStatisticsCollectionCalculatorImplementationI20HDStatisticsCombinedI42HDStatisticsTemporalBucketWeightedDiscreteI52HDStatisticsTemporalBucketWeightedDiscreteParametersE24HDStatisticsTimeIntervalEE, 
                       __ZTS55_HDConcreteStatisticsCollectionCalculatorImplementationI20HDStatisticsDiscreteE, 
                       __ZTS55_HDConcreteStatisticsCollectionCalculatorImplementationI20HDStatisticsPresenceE, 
                       __ZTS55_HDConcreteStatisticsCollectionCalculatorImplementationI20HDStatisticsRelativeI20HDStatisticsCombinedI20HDStatisticsDiscrete24HDStatisticsTimeIntervalEEE, 
                       __ZTS55_HDConcreteStatisticsCollectionCalculatorImplementationI20HDStatisticsRelativeI20HDStatisticsCombinedI20HDStatisticsPresence24HDStatisticsTimeIntervalEEE, 
                       __ZTS55_HDConcreteStatisticsCollectionCalculatorImplementationI20HDStatisticsRelativeI20HDStatisticsCombinedI22HDStatisticsCumulative24HDStatisticsTimeIntervalEEE, 
                       __ZTS55_HDConcreteStatisticsCollectionCalculatorImplementationI20HDStatisticsRelativeI20HDStatisticsCombinedI22HDStatisticsNoiseLevel24HDStatisticsTimeIntervalEEE, 
                       __ZTS55_HDConcreteStatisticsCollectionCalculatorImplementationI20HDStatisticsRelativeI20HDStatisticsCombinedI23HDStatisticsPercentiles24HDStatisticsTimeIntervalEEE, 
                       __ZTS55_HDConcreteStatisticsCollectionCalculatorImplementationI20HDStatisticsRelativeI20HDStatisticsCombinedI23HDStatisticsSleepStages24HDStatisticsTimeIntervalEEE, 
                       __ZTS55_HDConcreteStatisticsCollectionCalculatorImplementationI20HDStatisticsRelativeI20HDStatisticsCombinedI24HDStatisticsTimeIntervalS2_EEE, 
                       __ZTS55_HDConcreteStatisticsCollectionCalculatorImplementationI20HDStatisticsRelativeI20HDStatisticsCombinedI33HDStatisticsAverageSampleDuration24HDStatisticsTimeIntervalEEE, 
                       __ZTS55_HDConcreteStatisticsCollectionCalculatorImplementationI20HDStatisticsRelativeI20HDStatisticsCombinedI38HDStatisticsTemporallyWeightedDiscreteI48HDStatisticsTemporallyWeightedDiscreteParametersILd4018000000000000EEE24HDStatisticsTimeIntervalEEE, 
                       __ZTS55_HDConcreteStatisticsCollectionCalculatorImplementationI20HDStatisticsRelativeI20HDStatisticsCombinedI38HDStatisticsTemporallyWeightedDiscreteI48HDStatisticsTemporallyWeightedDiscreteParametersILd4046800000000000EEE24HDStatisticsTimeIntervalEEE, 
                       __ZTS55_HDConcreteStatisticsCollectionCalculatorImplementationI20HDStatisticsRelativeI20HDStatisticsCombinedI42HDStatisticsTemporalBucketWeightedDiscreteI52HDStatisticsTemporalBucketWeightedDiscreteParametersE24HDStatisticsTimeIntervalEEE, 
                       __ZTS55_HDConcreteStatisticsCollectionCalculatorImplementationI20HDStatisticsRelativeI20HDStatisticsDiscreteEE, 
                       __ZTS55_HDConcreteStatisticsCollectionCalculatorImplementationI20HDStatisticsRelativeI20HDStatisticsPresenceEE, 
                       __ZTS55_HDConcreteStatisticsCollectionCalculatorImplementationI20HDStatisticsRelativeI22HDStatisticsCumulativeEE, 
                       __ZTS55_HDConcreteStatisticsCollectionCalculatorImplementationI20HDStatisticsRelativeI22HDStatisticsNoiseLevelEE, 
                       __ZTS55_HDConcreteStatisticsCollectionCalculatorImplementationI20HDStatisticsRelativeI23HDStatisticsPercentilesEE, 
                       __ZTS55_HDConcreteStatisticsCollectionCalculatorImplementationI20HDStatisticsRelativeI23HDStatisticsSleepStagesEE, 
                       __ZTS55_HDConcreteStatisticsCollectionCalculatorImplementationI20HDStatisticsRelativeI24HDStatisticsTimeIntervalEE, 
                       __ZTS55_HDConcreteStatisticsCollectionCalculatorImplementationI20HDStatisticsRelativeI33HDStatisticsAverageSampleDurationEE, 
                       __ZTS55_HDConcreteStatisticsCollectionCalculatorImplementationI20HDStatisticsRelativeI38HDStatisticsTemporallyWeightedDiscreteI48HDStatisticsTemporallyWeightedDiscreteParametersILd4018000000000000EEEEE, 
                       __ZTS55_HDConcreteStatisticsCollectionCalculatorImplementationI20HDStatisticsRelativeI38HDStatisticsTemporallyWeightedDiscreteI48HDStatisticsTemporallyWeightedDiscreteParametersILd4046800000000000EEEEE, 
                       __ZTS55_HDConcreteStatisticsCollectionCalculatorImplementationI20HDStatisticsRelativeI42HDStatisticsTemporalBucketWeightedDiscreteI52HDStatisticsTemporalBucketWeightedDiscreteParametersEEE, 
                       __ZTS55_HDConcreteStatisticsCollectionCalculatorImplementationI22HDStatisticsCumulativeE, 
                       __ZTS55_HDConcreteStatisticsCollectionCalculatorImplementationI22HDStatisticsNoiseLevelE, 
                       __ZTS55_HDConcreteStatisticsCollectionCalculatorImplementationI23HDStatisticsPercentilesE, 
                       __ZTS55_HDConcreteStatisticsCollectionCalculatorImplementationI23HDStatisticsSleepStagesE, 
                       __ZTS55_HDConcreteStatisticsCollectionCalculatorImplementationI24HDStatisticsTimeIntervalE, 
                       __ZTS55_HDConcreteStatisticsCollectionCalculatorImplementationI33HDStatisticsAverageSampleDurationE, 
                       __ZTS55_HDConcreteStatisticsCollectionCalculatorImplementationI38HDStatisticsTemporallyWeightedDiscreteI48HDStatisticsTemporallyWeightedDiscreteParametersILd4018000000000000EEEE, 
                       __ZTS55_HDConcreteStatisticsCollectionCalculatorImplementationI38HDStatisticsTemporallyWeightedDiscreteI48HDStatisticsTemporallyWeightedDiscreteParametersILd4046800000000000EEEE, 
                       __ZTS55_HDConcreteStatisticsCollectionCalculatorImplementationI42HDStatisticsTemporalBucketWeightedDiscreteI52HDStatisticsTemporalBucketWeightedDiscreteParametersEE, 
                       __ZTSN6health11VirtualFileE, __ZTSN6health15not_found_errorE, 
                       __ZTSN6health16MappedFileExtentE, __ZTSN6health17VirtualFilesystemE, 
                       __ZTSN6health17file_access_errorE, __ZTSN6health17transaction_errorE, 
                       __ZTSN6health18btree_access_errorE, __ZTSN6health21data_corruption_errorE, 
                       __ZTSNSt3__110__back_refIcEE, __ZTSNSt3__110__function6__baseIF21_HDRawLocationDatumV1dS2_EEE, 
                       __ZTSNSt3__110__function6__baseIF21_HDRawLocationDatumV2dS2_EEE, 
                       __ZTSNSt3__110__function6__baseIF27_HDRawQuantitySampleValueV1dS2_EEE, 
                       __ZTSNSt3__110__function6__baseIFNS_12basic_stringIcNS_11char_traitsIcEENS_9allocatorIcEEEENS_13match_resultsINS_11__wrap_iterIPKcEENS5_INS_9sub_matchISC_EEEEEEEEE, 
                       __ZTSNSt3__110__function6__baseIFRK20HDStatisticsCombinedI20HDStatisticsDiscrete24HDStatisticsTimeIntervalERK20HDStatisticsRelativeIS5_EEEE, 
                       __ZTSNSt3__110__function6__baseIFRK20HDStatisticsCombinedI20HDStatisticsDiscrete24HDStatisticsTimeIntervalES7_EEE, 
                       __ZTSNSt3__110__function6__baseIFRK20HDStatisticsCombinedI20HDStatisticsPresence24HDStatisticsTimeIntervalERK20HDStatisticsRelativeIS5_EEEE, 
                       __ZTSNSt3__110__function6__baseIFRK20HDStatisticsCombinedI20HDStatisticsPresence24HDStatisticsTimeIntervalES7_EEE, 
                       __ZTSNSt3__110__function6__baseIFRK20HDStatisticsCombinedI22HDStatisticsCumulative24HDStatisticsTimeIntervalERK20HDStatisticsRelativeIS5_EEEE, 
                       __ZTSNSt3__110__function6__baseIFRK20HDStatisticsCombinedI22HDStatisticsCumulative24HDStatisticsTimeIntervalES7_EEE, 
                       __ZTSNSt3__110__function6__baseIFRK20HDStatisticsCombinedI22HDStatisticsNoiseLevel24HDStatisticsTimeIntervalERK20HDStatisticsRelativeIS5_EEEE, 
                       __ZTSNSt3__110__function6__baseIFRK20HDStatisticsCombinedI22HDStatisticsNoiseLevel24HDStatisticsTimeIntervalES7_EEE, 
                       __ZTSNSt3__110__function6__baseIFRK20HDStatisticsCombinedI23HDStatisticsPercentiles24HDStatisticsTimeIntervalERK20HDStatisticsRelativeIS5_EEEE, 
                       __ZTSNSt3__110__function6__baseIFRK20HDStatisticsCombinedI23HDStatisticsPercentiles24HDStatisticsTimeIntervalES7_EEE, 
                       __ZTSNSt3__110__function6__baseIFRK20HDStatisticsCombinedI23HDStatisticsSleepStages24HDStatisticsTimeIntervalERK20HDStatisticsRelativeIS5_EEEE, 
                       __ZTSNSt3__110__function6__baseIFRK20HDStatisticsCombinedI23HDStatisticsSleepStages24HDStatisticsTimeIntervalES7_EEE, 
                       __ZTSNSt3__110__function6__baseIFRK20HDStatisticsCombinedI24HDStatisticsTimeIntervalS3_ERK20HDStatisticsRelativeIS4_EEEE, 
                       __ZTSNSt3__110__function6__baseIFRK20HDStatisticsCombinedI24HDStatisticsTimeIntervalS3_ES6_EEE, 
                       __ZTSNSt3__110__function6__baseIFRK20HDStatisticsCombinedI33HDStatisticsAverageSampleDuration24HDStatisticsTimeIntervalERK20HDStatisticsRelativeIS5_EEEE, 
                       __ZTSNSt3__110__function6__baseIFRK20HDStatisticsCombinedI33HDStatisticsAverageSampleDuration24HDStatisticsTimeIntervalES7_EEE, 
                       __ZTSNSt3__110__function6__baseIFRK20HDStatisticsCombinedI38HDStatisticsTemporallyWeightedDiscreteI48HDStatisticsTemporallyWeightedDiscreteParametersILd4018000000000000EEE24HDStatisticsTimeIntervalERK20HDStatisticsRelativeIS8_EEEE, 
                       __ZTSNSt3__110__function6__baseIFRK20HDStatisticsCombinedI38HDStatisticsTemporallyWeightedDiscreteI48HDStatisticsTemporallyWeightedDiscreteParametersILd4018000000000000EEE24HDStatisticsTimeIntervalESA_EEE, 
                       __ZTSNSt3__110__function6__baseIFRK20HDStatisticsCombinedI38HDStatisticsTemporallyWeightedDiscreteI48HDStatisticsTemporallyWeightedDiscreteParametersILd4046800000000000EEE24HDStatisticsTimeIntervalERK20HDStatisticsRelativeIS8_EEEE, 
                       __ZTSNSt3__110__function6__baseIFRK20HDStatisticsCombinedI38HDStatisticsTemporallyWeightedDiscreteI48HDStatisticsTemporallyWeightedDiscreteParametersILd4046800000000000EEE24HDStatisticsTimeIntervalESA_EEE, 
                       __ZTSNSt3__110__function6__baseIFRK20HDStatisticsCombinedI42HDStatisticsTemporalBucketWeightedDiscreteI52HDStatisticsTemporalBucketWeightedDiscreteParametersE24HDStatisticsTimeIntervalERK20HDStatisticsRelativeIS7_EEEE, 
                       __ZTSNSt3__110__function6__baseIFRK20HDStatisticsCombinedI42HDStatisticsTemporalBucketWeightedDiscreteI52HDStatisticsTemporalBucketWeightedDiscreteParametersE24HDStatisticsTimeIntervalES9_EEE, 
                       __ZTSNSt3__110__function6__baseIFRK20HDStatisticsDiscreteRK20HDStatisticsCombinedIS2_24HDStatisticsTimeIntervalEEEE, 
                       __ZTSNSt3__110__function6__baseIFRK20HDStatisticsDiscreteRK20HDStatisticsRelativeI20HDStatisticsCombinedIS2_24HDStatisticsTimeIntervalEEEEE, 
                       __ZTSNSt3__110__function6__baseIFRK20HDStatisticsDiscreteRK20HDStatisticsRelativeIS2_EEEE, 
                       __ZTSNSt3__110__function6__baseIFRK20HDStatisticsDiscreteS4_EEE, 
                       __ZTSNSt3__110__function6__baseIFRK20HDStatisticsPresenceRK20HDStatisticsCombinedIS2_24HDStatisticsTimeIntervalEEEE, 
                       __ZTSNSt3__110__function6__baseIFRK20HDStatisticsPresenceRK20HDStatisticsRelativeI20HDStatisticsCombinedIS2_24HDStatisticsTimeIntervalEEEEE, 
                       __ZTSNSt3__110__function6__baseIFRK20HDStatisticsPresenceRK20HDStatisticsRelativeIS2_EEEE, 
                       __ZTSNSt3__110__function6__baseIFRK20HDStatisticsPresenceS4_EEE, 
                       __ZTSNSt3__110__function6__baseIFRK22HDStatisticsCumulativeRK20HDStatisticsCombinedIS2_24HDStatisticsTimeIntervalEEEE, 
                       __ZTSNSt3__110__function6__baseIFRK22HDStatisticsCumulativeRK20HDStatisticsRelativeI20HDStatisticsCombinedIS2_24HDStatisticsTimeIntervalEEEEE, 
                       __ZTSNSt3__110__function6__baseIFRK22HDStatisticsCumulativeRK20HDStatisticsRelativeIS2_EEEE, 
                       __ZTSNSt3__110__function6__baseIFRK22HDStatisticsCumulativeS4_EEE, 
                       __ZTSNSt3__110__function6__baseIFRK22HDStatisticsNoiseLevelRK20HDStatisticsCombinedIS2_24HDStatisticsTimeIntervalEEEE, 
                       __ZTSNSt3__110__function6__baseIFRK22HDStatisticsNoiseLevelRK20HDStatisticsRelativeI20HDStatisticsCombinedIS2_24HDStatisticsTimeIntervalEEEEE, 
                       __ZTSNSt3__110__function6__baseIFRK22HDStatisticsNoiseLevelRK20HDStatisticsRelativeIS2_EEEE, 
                       __ZTSNSt3__110__function6__baseIFRK22HDStatisticsNoiseLevelS4_EEE, 
                       __ZTSNSt3__110__function6__baseIFRK23HDStatisticsPercentilesRK20HDStatisticsCombinedIS2_24HDStatisticsTimeIntervalEEEE, 
                       __ZTSNSt3__110__function6__baseIFRK23HDStatisticsPercentilesRK20HDStatisticsRelativeI20HDStatisticsCombinedIS2_24HDStatisticsTimeIntervalEEEEE, 
                       __ZTSNSt3__110__function6__baseIFRK23HDStatisticsPercentilesRK20HDStatisticsRelativeIS2_EEEE, 
                       __ZTSNSt3__110__function6__baseIFRK23HDStatisticsPercentilesS4_EEE, 
                       __ZTSNSt3__110__function6__baseIFRK23HDStatisticsSleepStagesRK20HDStatisticsCombinedIS2_24HDStatisticsTimeIntervalEEEE, 
                       __ZTSNSt3__110__function6__baseIFRK23HDStatisticsSleepStagesRK20HDStatisticsRelativeI20HDStatisticsCombinedIS2_24HDStatisticsTimeIntervalEEEEE, 
                       __ZTSNSt3__110__function6__baseIFRK23HDStatisticsSleepStagesRK20HDStatisticsRelativeIS2_EEEE, 
                       __ZTSNSt3__110__function6__baseIFRK23HDStatisticsSleepStagesS4_EEE, 
                       __ZTSNSt3__110__function6__baseIFRK24HDStatisticsTimeIntervalRK20HDStatisticsCombinedI20HDStatisticsDiscreteS2_EEEE, 
                       __ZTSNSt3__110__function6__baseIFRK24HDStatisticsTimeIntervalRK20HDStatisticsCombinedI20HDStatisticsPresenceS2_EEEE, 
                       __ZTSNSt3__110__function6__baseIFRK24HDStatisticsTimeIntervalRK20HDStatisticsCombinedI22HDStatisticsCumulativeS2_EEEE, 
                       __ZTSNSt3__110__function6__baseIFRK24HDStatisticsTimeIntervalRK20HDStatisticsCombinedI22HDStatisticsNoiseLevelS2_EEEE, 
                       __ZTSNSt3__110__function6__baseIFRK24HDStatisticsTimeIntervalRK20HDStatisticsCombinedI23HDStatisticsPercentilesS2_EEEE, 
                       __ZTSNSt3__110__function6__baseIFRK24HDStatisticsTimeIntervalRK20HDStatisticsCombinedI23HDStatisticsSleepStagesS2_EEEE, 
                       __ZTSNSt3__110__function6__baseIFRK24HDStatisticsTimeIntervalRK20HDStatisticsCombinedI33HDStatisticsAverageSampleDurationS2_EEEE, 
                       __ZTSNSt3__110__function6__baseIFRK24HDStatisticsTimeIntervalRK20HDStatisticsCombinedI38HDStatisticsTemporallyWeightedDiscreteI48HDStatisticsTemporallyWeightedDiscreteParametersILd4018000000000000EEES2_EEEE, 
                       __ZTSNSt3__110__function6__baseIFRK24HDStatisticsTimeIntervalRK20HDStatisticsCombinedI38HDStatisticsTemporallyWeightedDiscreteI48HDStatisticsTemporallyWeightedDiscreteParametersILd4046800000000000EEES2_EEEE, 
                       __ZTSNSt3__110__function6__baseIFRK24HDStatisticsTimeIntervalRK20HDStatisticsCombinedI42HDStatisticsTemporalBucketWeightedDiscreteI52HDStatisticsTemporalBucketWeightedDiscreteParametersES2_EEEE, 
                       __ZTSNSt3__110__function6__baseIFRK24HDStatisticsTimeIntervalRK20HDStatisticsCombinedIS2_S2_EEEE, 
                       __ZTSNSt3__110__function6__baseIFRK24HDStatisticsTimeIntervalRK20HDStatisticsRelativeI20HDStatisticsCombinedI20HDStatisticsDiscreteS2_EEEEE, 
                       __ZTSNSt3__110__function6__baseIFRK24HDStatisticsTimeIntervalRK20HDStatisticsRelativeI20HDStatisticsCombinedI20HDStatisticsPresenceS2_EEEEE, 
                       __ZTSNSt3__110__function6__baseIFRK24HDStatisticsTimeIntervalRK20HDStatisticsRelativeI20HDStatisticsCombinedI22HDStatisticsCumulativeS2_EEEEE, 
                       __ZTSNSt3__110__function6__baseIFRK24HDStatisticsTimeIntervalRK20HDStatisticsRelativeI20HDStatisticsCombinedI22HDStatisticsNoiseLevelS2_EEEEE, 
                       __ZTSNSt3__110__function6__baseIFRK24HDStatisticsTimeIntervalRK20HDStatisticsRelativeI20HDStatisticsCombinedI23HDStatisticsPercentilesS2_EEEEE, 
                       __ZTSNSt3__110__function6__baseIFRK24HDStatisticsTimeIntervalRK20HDStatisticsRelativeI20HDStatisticsCombinedI23HDStatisticsSleepStagesS2_EEEEE, 
                       __ZTSNSt3__110__function6__baseIFRK24HDStatisticsTimeIntervalRK20HDStatisticsRelativeI20HDStatisticsCombinedI33HDStatisticsAverageSampleDurationS2_EEEEE, 
                       __ZTSNSt3__110__function6__baseIFRK24HDStatisticsTimeIntervalRK20HDStatisticsRelativeI20HDStatisticsCombinedI38HDStatisticsTemporallyWeightedDiscreteI48HDStatisticsTemporallyWeightedDiscreteParametersILd4018000000000000EEES2_EEEEE, 
                       __ZTSNSt3__110__function6__baseIFRK24HDStatisticsTimeIntervalRK20HDStatisticsRelativeI20HDStatisticsCombinedI38HDStatisticsTemporallyWeightedDiscreteI48HDStatisticsTemporallyWeightedDiscreteParametersILd4046800000000000EEES2_EEEEE, 
                       __ZTSNSt3__110__function6__baseIFRK24HDStatisticsTimeIntervalRK20HDStatisticsRelativeI20HDStatisticsCombinedI42HDStatisticsTemporalBucketWeightedDiscreteI52HDStatisticsTemporalBucketWeightedDiscreteParametersES2_EEEEE, 
                       __ZTSNSt3__110__function6__baseIFRK24HDStatisticsTimeIntervalRK20HDStatisticsRelativeI20HDStatisticsCombinedIS2_S2_EEEEE, 
                       __ZTSNSt3__110__function6__baseIFRK24HDStatisticsTimeIntervalRK20HDStatisticsRelativeIS2_EEEE, 
                       __ZTSNSt3__110__function6__baseIFRK24HDStatisticsTimeIntervalS4_EEE, 
                       __ZTSNSt3__110__function6__baseIFRK33HDStatisticsAverageSampleDurationRK20HDStatisticsCombinedIS2_24HDStatisticsTimeIntervalEEEE, 
                       __ZTSNSt3__110__function6__baseIFRK33HDStatisticsAverageSampleDurationRK20HDStatisticsRelativeI20HDStatisticsCombinedIS2_24HDStatisticsTimeIntervalEEEEE, 
                       __ZTSNSt3__110__function6__baseIFRK33HDStatisticsAverageSampleDurationRK20HDStatisticsRelativeIS2_EEEE, 
                       __ZTSNSt3__110__function6__baseIFRK33HDStatisticsAverageSampleDurationS4_EEE, 
                       __ZTSNSt3__110__function6__baseIFRK38HDStatisticsTemporallyWeightedDiscreteI48HDStatisticsTemporallyWeightedDiscreteParametersILd4018000000000000EEERK20HDStatisticsCombinedIS5_24HDStatisticsTimeIntervalEEEE, 
                       __ZTSNSt3__110__function6__baseIFRK38HDStatisticsTemporallyWeightedDiscreteI48HDStatisticsTemporallyWeightedDiscreteParametersILd4018000000000000EEERK20HDStatisticsRelativeI20HDStatisticsCombinedIS5_24HDStatisticsTimeIntervalEEEEE, 
                       __ZTSNSt3__110__function6__baseIFRK38HDStatisticsTemporallyWeightedDiscreteI48HDStatisticsTemporallyWeightedDiscreteParametersILd4018000000000000EEERK20HDStatisticsRelativeIS5_EEEE, 
                       __ZTSNSt3__110__function6__baseIFRK38HDStatisticsTemporallyWeightedDiscreteI48HDStatisticsTemporallyWeightedDiscreteParametersILd4018000000000000EEES7_EEE, 
                       __ZTSNSt3__110__function6__baseIFRK38HDStatisticsTemporallyWeightedDiscreteI48HDStatisticsTemporallyWeightedDiscreteParametersILd4046800000000000EEERK20HDStatisticsCombinedIS5_24HDStatisticsTimeIntervalEEEE, 
                       __ZTSNSt3__110__function6__baseIFRK38HDStatisticsTemporallyWeightedDiscreteI48HDStatisticsTemporallyWeightedDiscreteParametersILd4046800000000000EEERK20HDStatisticsRelativeI20HDStatisticsCombinedIS5_24HDStatisticsTimeIntervalEEEEE, 
                       __ZTSNSt3__110__function6__baseIFRK38HDStatisticsTemporallyWeightedDiscreteI48HDStatisticsTemporallyWeightedDiscreteParametersILd4046800000000000EEERK20HDStatisticsRelativeIS5_EEEE, 
                       __ZTSNSt3__110__function6__baseIFRK38HDStatisticsTemporallyWeightedDiscreteI48HDStatisticsTemporallyWeightedDiscreteParametersILd4046800000000000EEES7_EEE, 
                       __ZTSNSt3__110__function6__baseIFRK42HDStatisticsTemporalBucketWeightedDiscreteI52HDStatisticsTemporalBucketWeightedDiscreteParametersERK20HDStatisticsCombinedIS4_24HDStatisticsTimeIntervalEEEE, 
                       __ZTSNSt3__110__function6__baseIFRK42HDStatisticsTemporalBucketWeightedDiscreteI52HDStatisticsTemporalBucketWeightedDiscreteParametersERK20HDStatisticsRelativeI20HDStatisticsCombinedIS4_24HDStatisticsTimeIntervalEEEEE, 
                       __ZTSNSt3__110__function6__baseIFRK42HDStatisticsTemporalBucketWeightedDiscreteI52HDStatisticsTemporalBucketWeightedDiscreteParametersERK20HDStatisticsRelativeIS4_EEEE, 
                       __ZTSNSt3__110__function6__baseIFRK42HDStatisticsTemporalBucketWeightedDiscreteI52HDStatisticsTemporalBucketWeightedDiscreteParametersES6_EEE, 
                       __ZTSNSt3__110__function6__baseIFbN6health15BlockAccessFile14IntegrityErrorExxRKNS_12basic_stringIcNS_11char_traitsIcEENS_9allocatorIcEEEEEEE, 
                       __ZTSNSt3__110__function6__baseIFbN6health9DataStore14IntegrityErrorENS2_12BlockPointerERKNS_12basic_stringIcNS_11char_traitsIcEENS_9allocatorIcEEEEEEE, 
                       __ZTSNSt3__110__function6__baseIFbRKdRK21_HDRawLocationDatumV0EEE, 
                       __ZTSNSt3__110__function6__baseIFbRKdRK21_HDRawLocationDatumV1EEE, 
                       __ZTSNSt3__110__function6__baseIFbRKdRK21_HDRawLocationDatumV2EEE, 
                       __ZTSNSt3__110__function6__baseIFbRKdRK27_HDRawQuantitySampleValueV1EEE, 
                       __ZTSNSt3__110__function6__baseIFbRKdS3_EEE, __ZTSNSt3__110__function6__baseIFbRN6health15BlockAccessFile16WriteTransactionEEEE, 
                       __ZTSNSt3__110__function6__baseIFbRN6health17TransactionalFile16WriteTransactionEEEE, 
                       __ZTSNSt3__110__function6__baseIFbRN6health9DataStore16WriteTransactionEEEE, 
                       __ZTSNSt3__110__function6__baseIFbRN6health9DataStore20MutableSampleHistoryI25LocationHistoryBehaviorV1EEEEE, 
                       __ZTSNSt3__110__function6__baseIFbRN6health9DataStore20MutableSampleHistoryI25LocationHistoryBehaviorV2EEEEE, 
                       __ZTSNSt3__110__function6__baseIFbRN6health9DataStore20MutableSampleHistoryI29QuantitySampleValueBehaviorV0EEEEE, 
                       __ZTSNSt3__110__function6__baseIFbRN6health9DataStore20MutableSampleHistoryI29QuantitySampleValueBehaviorV1EEEEE, 
                       __ZTSNSt3__110__function6__baseIFbvEEE, __ZTSNSt3__110__function6__baseIFbyEEE, 
                       __ZTSNSt3__110__function6__baseIFbyRKyRKN6health8FilePageEEEE, 
                       __ZTSNSt3__110__function6__baseIFdddEEE, __ZTSNSt3__110__function6__baseIFvRKN6health10FileExtentEEEE, 
                       __ZTSNSt3__110__function6__baseIFvRKN6health15BlockAccessFile15ReadTransactionEEEE, 
                       __ZTSNSt3__110__function6__baseIFvRKN6health17TransactionalFile15ReadTransactionEEEE, 
                       __ZTSNSt3__110__function6__baseIFvRKN6health9DataStore13SampleHistoryI25LocationHistoryBehaviorV0EEEEE, 
                       __ZTSNSt3__110__function6__baseIFvRKN6health9DataStore13SampleHistoryI25LocationHistoryBehaviorV1EEEEE, 
                       __ZTSNSt3__110__function6__baseIFvRKN6health9DataStore13SampleHistoryI25LocationHistoryBehaviorV2EEEEE, 
                       __ZTSNSt3__110__function6__baseIFvRKN6health9DataStore13SampleHistoryI29QuantitySampleValueBehaviorV0EEEEE, 
                       __ZTSNSt3__110__function6__baseIFvRKN6health9DataStore13SampleHistoryI29QuantitySampleValueBehaviorV1EEEEE, 
                       __ZTSNSt3__110__function6__baseIFvRKN6health9DataStore15ReadTransactionEEEE, 
                       __ZTSNSt3__110__function6__baseIFvRKN6health9DataStore16ObjectIdentifierENS2_12BlockPointerEEEE, 
                       __ZTSNSt3__110__function6__baseIFvRKNS_12basic_stringIcNS_11char_traitsIcEENS_9allocatorIcEEEEEEE, 
                       __ZTSNSt3__110__function6__baseIFvxN6health13WriteAheadLog9PageEntryEEEE, 
                       __ZTSNSt3__110__function6__baseIFvyEEE, __ZTSNSt3__110__function6__baseIFvyRKN6health8FilePageEEEE, 
                       __ZTSNSt3__110shared_ptrINS_13__empty_stateIcEEE27__shared_ptr_default_deleteIS2_S2_EE, 
                       __ZTSNSt3__111__alternateIcEE, __ZTSNSt3__111__end_stateIcEE, 
                       __ZTSNSt3__111__lookaheadIcNS_12regex_traitsIcEEEE, __ZTSNSt3__111__match_anyIcEE, 
                       __ZTSNSt3__112__match_charIcEE, __ZTSNSt3__113__empty_stateIcEE, 
                       __ZTSNSt3__114default_deleteIA_hEE, __ZTSNSt3__115__has_one_stateIcEE, 
                       __ZTSNSt3__115__word_boundaryIcNS_12regex_traitsIcEEEE, __ZTSNSt3__116__back_ref_icaseIcNS_12regex_traitsIcEEEE, 
                       __ZTSNSt3__116__owns_one_stateIcEE, __ZTSNSt3__117__owns_two_statesIcEE, 
                       __ZTSNSt3__117__repeat_one_loopIcEE, __ZTSNSt3__118__back_ref_collateIcNS_12regex_traitsIcEEEE, 
                       __ZTSNSt3__118__match_char_icaseIcNS_12regex_traitsIcEEEE, 
                       __ZTSNSt3__120__bracket_expressionIcNS_12regex_traitsIcEEEE, 
                       __ZTSNSt3__120__l_anchor_multilineIcEE, __ZTSNSt3__120__match_char_collateIcNS_12regex_traitsIcEEEE, 
                       __ZTSNSt3__120__r_anchor_multilineIcEE, __ZTSNSt3__120__shared_ptr_emplaceIN6health12InMemoryFileENS_9allocatorIS2_EEEE, 
                       __ZTSNSt3__120__shared_ptr_emplaceIN6health13WriteAheadLog11TransactionENS_9allocatorIS3_EEEE, 
                       __ZTSNSt3__120__shared_ptr_emplaceIN6health15POSIXFilesystemENS_9allocatorIS2_EEEE, 
                       __ZTSNSt3__120__shared_ptr_emplaceIN6health21POSIXMappedFileExtentENS_9allocatorIS2_EEEE, 
                       __ZTSNSt3__120__shared_ptr_emplaceIN6health24InMemoryMappedFileExtentENS_9allocatorIS2_EEEE, 
                       __ZTSNSt3__120__shared_ptr_emplaceIN6health9DataStoreENS_9allocatorIS2_EEEE, 
                       __ZTSNSt3__120__shared_ptr_emplaceIN6health9POSIXFileENS_9allocatorIS2_EEEE, 
                       __ZTSNSt3__120__shared_ptr_emplaceINS_6vectorIhNS_9allocatorIhEEEENS2_IS4_EEEE, 
                       __ZTSNSt3__120__shared_ptr_pointerIPNS_13__empty_stateIcEENS_10shared_ptrIS2_E27__shared_ptr_default_deleteIS2_S2_EENS_9allocatorIS2_EEEE, 
                       __ZTSNSt3__120__shared_ptr_pointerIPhNS_14default_deleteIA_hEENS_9allocatorIhEEEE, 
                       __ZTSNSt3__121__empty_non_own_stateIcEE, __ZTSNSt3__123__match_any_but_newlineIcEE, 
                       __ZTSNSt3__126__end_marked_subexpressionIcEE, __ZTSNSt3__128__begin_marked_subexpressionIcEE, 
                       __ZTSNSt3__16__loopIcEE, __ZTSNSt3__16__nodeIcEE ]
  - targets:         [ x86_64-macos, x86_64-maccatalyst, arm64e-macos, arm64e-maccatalyst ]
    symbols:         [ '_$s10SampleType12HealthDaemon09HDBatchedA9IteratingPTl', 
                       '_$s10SampleType12HealthDaemon17HDSampleIteratingPTl', '_$s12HealthDaemon010HDClinicalA10LinkEntityC0aB10Foundation08HDSQLiteE11SchemaSwiftAAMc', 
                       '_$s12HealthDaemon010HDClinicalA10LinkEntityC11foreignKeysSDySSSo08HDSQLiteE10ForeignKeyCGyFZ', 
                       '_$s12HealthDaemon010HDClinicalA10LinkEntityC11joinClauses11forPropertyShySo18HDSQLiteJoinClauseCGSgSS_tFZ', 
                       '_$s12HealthDaemon010HDClinicalA10LinkEntityC12persistentIDACs5Int64V_tcfC', 
                       '_$s12HealthDaemon010HDClinicalA10LinkEntityC12persistentIDACs5Int64V_tcfc', 
                       '_$s12HealthDaemon010HDClinicalA10LinkEntityC13databaseTableSSyFZ', 
                       '_$s12HealthDaemon010HDClinicalA10LinkEntityC14JoinedPropertyO17accountIdentifieryA2EmFWC', 
                       '_$s12HealthDaemon010HDClinicalA10LinkEntityC14JoinedPropertyO8allCasesSayAEGvgZ', 
                       '_$s12HealthDaemon010HDClinicalA10LinkEntityC14JoinedPropertyO8allCasesSayAEGvpZMV', 
                       '_$s12HealthDaemon010HDClinicalA10LinkEntityC14JoinedPropertyO8rawValueAESgSS_tcfC', 
                       '_$s12HealthDaemon010HDClinicalA10LinkEntityC14JoinedPropertyO8rawValueSSvg', 
                       '_$s12HealthDaemon010HDClinicalA10LinkEntityC14JoinedPropertyO8rawValueSSvpMV', 
                       '_$s12HealthDaemon010HDClinicalA10LinkEntityC14JoinedPropertyOMa', 
                       '_$s12HealthDaemon010HDClinicalA10LinkEntityC14JoinedPropertyOMn', 
                       '_$s12HealthDaemon010HDClinicalA10LinkEntityC14JoinedPropertyON', 
                       '_$s12HealthDaemon010HDClinicalA10LinkEntityC14JoinedPropertyOSHAAMc', 
                       '_$s12HealthDaemon010HDClinicalA10LinkEntityC14JoinedPropertyOSQAAMc', 
                       '_$s12HealthDaemon010HDClinicalA10LinkEntityC14JoinedPropertyOSYAAMc', 
                       '_$s12HealthDaemon010HDClinicalA10LinkEntityC14JoinedPropertyOs12CaseIterableAAMc', 
                       '_$s12HealthDaemon010HDClinicalA10LinkEntityC14uniquedColumnsSaySSGyFZ', 
                       '_$s12HealthDaemon010HDClinicalA10LinkEntityC15protectionClassSo08HDSQLitee10ProtectionG0VyFZ', 
                       '_$s12HealthDaemon010HDClinicalA10LinkEntityC21propertyForSyncAnchorSSyFZ', 
                       '_$s12HealthDaemon010HDClinicalA10LinkEntityC23propertyForSyncIdentitySSSgyFZ', 
                       '_$s12HealthDaemon010HDClinicalA10LinkEntityC25propertyForSyncProvenanceSSyFZ', 
                       '_$s12HealthDaemon010HDClinicalA10LinkEntityC7columnsSaySo014HDSQLiteSchemaE0C0aB10FoundationE16ColumnDefinitionVGvgZ', 
                       '_$s12HealthDaemon010HDClinicalA10LinkEntityC7columnsSaySo014HDSQLiteSchemaE0C0aB10FoundationE16ColumnDefinitionVGvpZMV', 
                       '_$s12HealthDaemon010HDClinicalA10LinkEntityC8PropertyO10identifieryA2EmFWC', 
                       '_$s12HealthDaemon010HDClinicalA10LinkEntityC8PropertyO10syncAnchoryA2EmFWC', 
                       '_$s12HealthDaemon010HDClinicalA10LinkEntityC8PropertyO12accountRowIDyA2EmFWC', 
                       '_$s12HealthDaemon010HDClinicalA10LinkEntityC8PropertyO12linkPasscodeyA2EmFWC', 
                       '_$s12HealthDaemon010HDClinicalA10LinkEntityC8PropertyO12manifestDatayA2EmFWC', 
                       '_$s12HealthDaemon010HDClinicalA10LinkEntityC8PropertyO12syncIdentityyA2EmFWC', 
                       '_$s12HealthDaemon010HDClinicalA10LinkEntityC8PropertyO14syncProvenanceyA2EmFWC', 
                       '_$s12HealthDaemon010HDClinicalA10LinkEntityC8PropertyO16manifestResolvedyA2EmFWC', 
                       '_$s12HealthDaemon010HDClinicalA10LinkEntityC8PropertyO17dateAddedTimezoneyA2EmFWC', 
                       '_$s12HealthDaemon010HDClinicalA10LinkEntityC8PropertyO30manifestResolutionBlockedUntilyA2EmFWC', 
                       '_$s12HealthDaemon010HDClinicalA10LinkEntityC8PropertyO5rowidyA2EmFWC', 
                       '_$s12HealthDaemon010HDClinicalA10LinkEntityC8PropertyO7deletedyA2EmFWC', 
                       '_$s12HealthDaemon010HDClinicalA10LinkEntityC8PropertyO7linkKeyyA2EmFWC', 
                       '_$s12HealthDaemon010HDClinicalA10LinkEntityC8PropertyO7linkURLyA2EmFWC', 
                       '_$s12HealthDaemon010HDClinicalA10LinkEntityC8PropertyO8allCasesSayAEGvgZ', 
                       '_$s12HealthDaemon010HDClinicalA10LinkEntityC8PropertyO8allCasesSayAEGvpZMV', 
                       '_$s12HealthDaemon010HDClinicalA10LinkEntityC8PropertyO8rawValueAESgSS_tcfC', 
                       '_$s12HealthDaemon010HDClinicalA10LinkEntityC8PropertyO8rawValueSSvg', 
                       '_$s12HealthDaemon010HDClinicalA10LinkEntityC8PropertyO8rawValueSSvpMV', 
                       '_$s12HealthDaemon010HDClinicalA10LinkEntityC8PropertyO9dateAddedyA2EmFWC', 
                       '_$s12HealthDaemon010HDClinicalA10LinkEntityC8PropertyO9linkFlagsyA2EmFWC', 
                       '_$s12HealthDaemon010HDClinicalA10LinkEntityC8PropertyO9linkLabelyA2EmFWC', 
                       '_$s12HealthDaemon010HDClinicalA10LinkEntityC8PropertyOMa', 
                       '_$s12HealthDaemon010HDClinicalA10LinkEntityC8PropertyOMn', 
                       '_$s12HealthDaemon010HDClinicalA10LinkEntityC8PropertyON', 
                       '_$s12HealthDaemon010HDClinicalA10LinkEntityC8PropertyOSHAAMc', 
                       '_$s12HealthDaemon010HDClinicalA10LinkEntityC8PropertyOSQAAMc', 
                       '_$s12HealthDaemon010HDClinicalA10LinkEntityC8PropertyOSYAAMc', 
                       '_$s12HealthDaemon010HDClinicalA10LinkEntityC8PropertyOs12CaseIterableAAMc', 
                       '_$s12HealthDaemon010HDClinicalA10LinkEntityCACycfC', '_$s12HealthDaemon010HDClinicalA10LinkEntityCACycfc', 
                       '_$s12HealthDaemon010HDClinicalA10LinkEntityCMa', '_$s12HealthDaemon010HDClinicalA10LinkEntityCMn', 
                       '_$s12HealthDaemon010HDClinicalA10LinkEntityCMo', '_$s12HealthDaemon010HDClinicalA10LinkEntityCN', 
                       '_$s12HealthDaemon010HDClinicalA10LinkEntityCfD', '_$s12HealthDaemon010ObservableA13TypeEvaluatorMp', 
                       '_$s12HealthDaemon010ObservableA13TypeEvaluatorP7observe13configuration7profile12eventHandlery17ConfigurationKindQz_So9HDProfileCys6ResultOyyts5Error_pGYbctFTj', 
                       '_$s12HealthDaemon010ObservableA13TypeEvaluatorP7observe13configuration7profile12eventHandlery17ConfigurationKindQz_So9HDProfileCys6ResultOyyts5Error_pGYbctFTq', 
                       '_$s12HealthDaemon010ObservableA13TypeEvaluatorPAA0adE0Tb', 
                       '_$s12HealthDaemon010ObservableA13TypeEvaluatorPAAE15evaluate_erased13configuration7profile10completiony10Foundation4DataV_So9HDProfileCy0A3Kit18EvaluationResponseOyAJGYbctF', 
                       '_$s12HealthDaemon010ObservableA13TypeEvaluatorPAAE15observe_assumed13configuration7profile10completionyqd___So9HDProfileCy0A3Kit18EvaluationResponseOyqd_0_GYbcts8SendableRd__sANRd_0_r0_lF', 
                       '_$s12HealthDaemon010ObservableA13TypeEvaluatorTL', '_$s12HealthDaemon010ObservableA21TypeEvaluatorProviderMp', 
                       '_$s12HealthDaemon010ObservableA21TypeEvaluatorProviderP04makecE00cE4KindQzyFTj', 
                       '_$s12HealthDaemon010ObservableA21TypeEvaluatorProviderP04makecE00cE4KindQzyFTq', 
                       '_$s12HealthDaemon010ObservableA21TypeEvaluatorProviderP0cE4KindAC_AA0cadE0Tn', 
                       '_$s12HealthDaemon010ObservableA21TypeEvaluatorProviderPAA0adeF0Tb', 
                       '_$s12HealthDaemon010ObservableA21TypeEvaluatorProviderTL', 
                       '_$s12HealthDaemon04ListA13TypeEvaluatorMp', '_$s12HealthDaemon04ListA13TypeEvaluatorP13iterate_typed13configuration11transaction7profiles11AnyIteratorVy9ModelKindQzG013ConfigurationN0Qz_So21HDDatabaseTransactionCSo9HDProfileCtKFTj', 
                       '_$s12HealthDaemon04ListA13TypeEvaluatorP13iterate_typed13configuration11transaction7profiles11AnyIteratorVy9ModelKindQzG013ConfigurationN0Qz_So21HDDatabaseTransactionCSo9HDProfileCtKFTq', 
                       '_$s12HealthDaemon04ListA13TypeEvaluatorPAA0adE0Tb', '_$s12HealthDaemon04ListA13TypeEvaluatorPAAE12list_assumed13configuration11transaction7profileSayqd_0_Gqd___So21HDDatabaseTransactionCSgSo9HDProfileCtKr0_lF', 
                       '_$s12HealthDaemon04ListA13TypeEvaluatorPAAE15batched_assumed13configuration9batchSize11transaction7profiles11AnyIteratorVySayqd_0_GGqd___SiSo21HDDatabaseTransactionCSo9HDProfileCtKr0_lF', 
                       '_$s12HealthDaemon04ListA13TypeEvaluatorPAAE15iterate_assumed13configuration11transaction7profiles11AnyIteratorVyqd_0_Gqd___So21HDDatabaseTransactionCSo9HDProfileCtKr0_lF', 
                       '_$s12HealthDaemon04ListA13TypeEvaluatorPAASe9ModelKindRpzSEAERQrlE15evaluate_erased13configuration7profile10completiony10Foundation4DataV_So9HDProfileCy0A3Kit18EvaluationResponseOyALGYbctF', 
                       '_$s12HealthDaemon04ListA13TypeEvaluatorPAASo8NSObjectC9ModelKindRczSo14NSSecureCodingAGRQrlE15evaluate_erased13configuration7profile10completiony10Foundation4DataV_So9HDProfileCy0A3Kit18EvaluationResponseOyAOGYbctF', 
                       '_$s12HealthDaemon04ListA13TypeEvaluatorTL', '_$s12HealthDaemon04ListA21TypeEvaluatorProviderMp', 
                       '_$s12HealthDaemon04ListA21TypeEvaluatorProviderP04makecE00cE4KindQzyFTj', 
                       '_$s12HealthDaemon04ListA21TypeEvaluatorProviderP04makecE00cE4KindQzyFTq', 
                       '_$s12HealthDaemon04ListA21TypeEvaluatorProviderP0cE4KindAC_AA0cadE0Tn', 
                       '_$s12HealthDaemon04ListA21TypeEvaluatorProviderPAA0adeF0Tb', 
                       '_$s12HealthDaemon04ListA21TypeEvaluatorProviderTL', '_$s12HealthDaemon04TestA14TypeQueryRelayC0A3Kit0adeF0AAMc', 
                       '_$s12HealthDaemon04TestA14TypeQueryRelayC4send15queryIdentifier04typeI06action13configuration10completiony10Foundation4UUIDV_AJ4DataVA2Nys6ResultOyyts5Error_pGctF', 
                       '_$s12HealthDaemon04TestA14TypeQueryRelayC6cancel15queryIdentifier10completiony10Foundation4UUIDV_ys6ResultOyyts5Error_pGctF', 
                       '_$s12HealthDaemon04TestA14TypeQueryRelayC7context7receiveAcA0D8Executor_p_So9HDProfileCt_y10Foundation4UUIDV_0A3Kit18EvaluationResponseOyAI4DataVGtYbctcfC', 
                       '_$s12HealthDaemon04TestA14TypeQueryRelayC7context7receiveAcA0D8Executor_p_So9HDProfileCt_y10Foundation4UUIDV_0A3Kit18EvaluationResponseOyAI4DataVGtYbctcfCTj', 
                       '_$s12HealthDaemon04TestA14TypeQueryRelayC7context7receiveAcA0D8Executor_p_So9HDProfileCt_y10Foundation4UUIDV_0A3Kit18EvaluationResponseOyAI4DataVGtYbctcfCTq', 
                       '_$s12HealthDaemon04TestA14TypeQueryRelayC7context7receiveAcA0D8Executor_p_So9HDProfileCt_y10Foundation4UUIDV_0A3Kit18EvaluationResponseOyAI4DataVGtYbctcfc', 
                       '_$s12HealthDaemon04TestA14TypeQueryRelayCMa', '_$s12HealthDaemon04TestA14TypeQueryRelayCMm', 
                       '_$s12HealthDaemon04TestA14TypeQueryRelayCMn', '_$s12HealthDaemon04TestA14TypeQueryRelayCMo', 
                       '_$s12HealthDaemon04TestA14TypeQueryRelayCMu', '_$s12HealthDaemon04TestA14TypeQueryRelayCN', 
                       '_$s12HealthDaemon04TestA14TypeQueryRelayCfD', '_$s12HealthDaemon04TestA14TypeQueryRelayCfd', 
                       '_$s12HealthDaemon0A12TypeProviderMp', '_$s12HealthDaemon0A12TypeProviderP11healthTypesSay0A3Kit0C10IdentifierV_AA0ac9EvaluatorD0_ptGyFTj', 
                       '_$s12HealthDaemon0A12TypeProviderP11healthTypesSay0A3Kit0C10IdentifierV_AA0ac9EvaluatorD0_ptGyFTq', 
                       '_$s12HealthDaemon0A12TypeProviderTL', '_$s12HealthDaemon0A13TypeEvaluatorMp', 
                       '_$s12HealthDaemon0A13TypeEvaluatorP15evaluate_erased13configuration7profile10completiony10Foundation4DataV_So9HDProfileCy0A3Kit18EvaluationResponseOyAJGYbctFTj', 
                       '_$s12HealthDaemon0A13TypeEvaluatorP15evaluate_erased13configuration7profile10completiony10Foundation4DataV_So9HDProfileCy0A3Kit18EvaluationResponseOyAJGYbctFTq', 
                       '_$s12HealthDaemon0A13TypeEvaluatorP17ConfigurationKindAC_SETn', 
                       '_$s12HealthDaemon0A13TypeEvaluatorP17ConfigurationKindAC_SeTn', 
                       '_$s12HealthDaemon0A13TypeEvaluatorP5state15Synchronization5MutexVy9StateKindQzGvrTj', 
                       '_$s12HealthDaemon0A13TypeEvaluatorP5state15Synchronization5MutexVy9StateKindQzGvrTq', 
                       '_$s12HealthDaemon0A13TypeEvaluatorP6cancelyyFTj', '_$s12HealthDaemon0A13TypeEvaluatorP6cancelyyFTq', 
                       '_$s12HealthDaemon0A13TypeEvaluatorP9StateKindAC_AA0acdE0Tn', 
                       '_$s12HealthDaemon0A13TypeEvaluatorPAAE11isCancelledSbvg', 
                       '_$s12HealthDaemon0A13TypeEvaluatorPAAE11isCancelledSbvpMV', 
                       '_$s12HealthDaemon0A13TypeEvaluatorPAAE12setCancelledSbyF', 
                       '_$s12HealthDaemon0A13TypeEvaluatorPAAE16state_initialize15queryIdentifier0A3Kit10QueryTokenV10Foundation4UUIDV_tF', 
                       '_$s12HealthDaemon0A13TypeEvaluatorPAAE6cancelyyF', '_$s12HealthDaemon0A13TypeEvaluatorTL', 
                       '_$s12HealthDaemon0A17DatabaseProvidingMp', '_$s12HealthDaemon0A17DatabaseProvidingP06healthC0So08HDHealthC0_pvgTj', 
                       '_$s12HealthDaemon0A17DatabaseProvidingP06healthC0So08HDHealthC0_pvgTq', 
                       '_$s12HealthDaemon0A17DatabaseProvidingTL', '_$s12HealthDaemon0A18TypeEvaluatorStateMp', 
                       '_$s12HealthDaemon0A18TypeEvaluatorStateP11isCancelledSbvMTj', 
                       '_$s12HealthDaemon0A18TypeEvaluatorStateP11isCancelledSbvMTq', 
                       '_$s12HealthDaemon0A18TypeEvaluatorStateP11isCancelledSbvgTj', 
                       '_$s12HealthDaemon0A18TypeEvaluatorStateP11isCancelledSbvgTq', 
                       '_$s12HealthDaemon0A18TypeEvaluatorStateP11isCancelledSbvsTj', 
                       '_$s12HealthDaemon0A18TypeEvaluatorStateP11isCancelledSbvsTq', 
                       '_$s12HealthDaemon0A18TypeEvaluatorStateTL', '_$s12HealthDaemon0A21TypeEvaluatorProviderMp', 
                       '_$s12HealthDaemon0A21TypeEvaluatorProviderP04makeD06actionAA0acD0_p0A3Kit11QueryActionO_tKFTj', 
                       '_$s12HealthDaemon0A21TypeEvaluatorProviderP04makeD06actionAA0acD0_p0A3Kit11QueryActionO_tKFTq', 
                       '_$s12HealthDaemon0A21TypeEvaluatorProviderPAAE04makeD06actionAA0acD0_p0A3Kit11QueryActionO_tKF', 
                       '_$s12HealthDaemon0A21TypeEvaluatorProviderTL', '_$s12HealthDaemon0B24QueryDescriptorEvaluatorMp', 
                       '_$s12HealthDaemon0B24QueryDescriptorEvaluatorP0A3Kit0cdE0Tb', 
                       '_$s12HealthDaemon0B24QueryDescriptorEvaluatorP12list_assumed05queryD011transactionSayqd_1_Gqd___So21HDDatabaseTransactionCSgtK0A3Kit04ListcD8ProtocolRd__17ConfigurationKindQyd__Rsd_0_05ModelP0Qyd__Rsd_1_r1_lFTj', 
                       '_$s12HealthDaemon0B24QueryDescriptorEvaluatorP12list_assumed05queryD011transactionSayqd_1_Gqd___So21HDDatabaseTransactionCSgtK0A3Kit04ListcD8ProtocolRd__17ConfigurationKindQyd__Rsd_0_05ModelP0Qyd__Rsd_1_r1_lFTq', 
                       '_$s12HealthDaemon0B24QueryDescriptorEvaluatorP15batched_assumed05queryD09batchSize11transactions11AnyIteratorVySayqd_1_GGqd___SiSo21HDDatabaseTransactionCtK0A3Kit04ListcD8ProtocolRd__17ConfigurationKindQyd__Rsd_0_05ModelT0Qyd__Rsd_1_r1_lFTj', 
                       '_$s12HealthDaemon0B24QueryDescriptorEvaluatorP15batched_assumed05queryD09batchSize11transactions11AnyIteratorVySayqd_1_GGqd___SiSo21HDDatabaseTransactionCtK0A3Kit04ListcD8ProtocolRd__17ConfigurationKindQyd__Rsd_0_05ModelT0Qyd__Rsd_1_r1_lFTq', 
                       '_$s12HealthDaemon0B24QueryDescriptorEvaluatorP15iterate_assumed05queryD011transactions11AnyIteratorVyqd_1_Gqd___So21HDDatabaseTransactionCtK0A3Kit04ListcD8ProtocolRd__17ConfigurationKindQyd__Rsd_0_05ModelR0Qyd__Rsd_1_r1_lFTj', 
                       '_$s12HealthDaemon0B24QueryDescriptorEvaluatorP15iterate_assumed05queryD011transactions11AnyIteratorVyqd_1_Gqd___So21HDDatabaseTransactionCtK0A3Kit04ListcD8ProtocolRd__17ConfigurationKindQyd__Rsd_0_05ModelR0Qyd__Rsd_1_r1_lFTq', 
                       '_$s12HealthDaemon0B24QueryDescriptorEvaluatorP17state_transactionyqd__qd__So21HDDatabaseTransactionCKXEKlFTj', 
                       '_$s12HealthDaemon0B24QueryDescriptorEvaluatorP17state_transactionyqd__qd__So21HDDatabaseTransactionCKXEKlFTq', 
                       '_$s12HealthDaemon0B24QueryDescriptorEvaluatorTL', '_$s12HealthDaemon0a5TypesB6PluginC16pluginIdentifierSSvg', 
                       '_$s12HealthDaemon0a5TypesB6PluginC16pluginIdentifierSSvpMV', 
                       '_$s12HealthDaemon0a5TypesB6PluginC17taskServerClassesSayyXlXpGyF', 
                       '_$s12HealthDaemon0a5TypesB6PluginC9extension3forSo08HDHealthB9Extension_pSgSo0gB0_p_tF', 
                       '_$s12HealthDaemon0a5TypesB6PluginC9extension3forSo18HDProfileExtension_pSgSo0G0C_tF', 
                       '_$s12HealthDaemon0a5TypesB6PluginCACycfC', '_$s12HealthDaemon0a5TypesB6PluginCACycfc', 
                       '_$s12HealthDaemon0a5TypesB6PluginCMa', '_$s12HealthDaemon0a5TypesB6PluginCMn', 
                       '_$s12HealthDaemon0a5TypesB6PluginCMo', '_$s12HealthDaemon0a5TypesB6PluginCN', 
                       '_$s12HealthDaemon0a5TypesB6PluginCfD', '_$s12HealthDaemon0aB11UUIDSupportO9allZeroes10Foundation4UUIDVvgZ', 
                       '_$s12HealthDaemon0aB11UUIDSupportO9allZeroes10Foundation4UUIDVvpZMV', 
                       '_$s12HealthDaemon0aB11UUIDSupportOMa', '_$s12HealthDaemon0aB11UUIDSupportOMn', 
                       '_$s12HealthDaemon0aB11UUIDSupportON', '_$s12HealthDaemon11HDOHSEntityC0aB10Foundation25HDSQLiteEntitySchemaSwiftAAMc', 
                       '_$s12HealthDaemon11HDOHSEntityC11foreignKeysSDySSSo24HDSQLiteEntityForeignKeyCGyFZ', 
                       '_$s12HealthDaemon11HDOHSEntityC12persistentIDACs5Int64V_tcfC', 
                       '_$s12HealthDaemon11HDOHSEntityC12persistentIDACs5Int64V_tcfc', 
                       '_$s12HealthDaemon11HDOHSEntityC13databaseTableSSyFZ', '_$s12HealthDaemon11HDOHSEntityC15isBackedByTableSbyFZ', 
                       '_$s12HealthDaemon11HDOHSEntityC15protectionClassSo024HDSQLiteEntityProtectionE0VyFZ', 
                       '_$s12HealthDaemon11HDOHSEntityC16isConcreteEntitySbyFZ', 
                       '_$s12HealthDaemon11HDOHSEntityC7columnsSaySo20HDSQLiteSchemaEntityC0aB10FoundationE16ColumnDefinitionVGvgZ', 
                       '_$s12HealthDaemon11HDOHSEntityC7columnsSaySo20HDSQLiteSchemaEntityC0aB10FoundationE16ColumnDefinitionVGvpZMV', 
                       '_$s12HealthDaemon11HDOHSEntityC8PropertyO5hasADyA2EmFWC', 
                       '_$s12HealthDaemon11HDOHSEntityC8PropertyO5hasHSyA2EmFWC', 
                       '_$s12HealthDaemon11HDOHSEntityC8PropertyO6hasFTLyA2EmFWC', 
                       '_$s12HealthDaemon11HDOHSEntityC8PropertyO6hasSSDyA2EmFWC', 
                       '_$s12HealthDaemon11HDOHSEntityC8PropertyO8allCasesSayAEGvgZ', 
                       '_$s12HealthDaemon11HDOHSEntityC8PropertyO8allCasesSayAEGvpZMV', 
                       '_$s12HealthDaemon11HDOHSEntityC8PropertyO8hasKNINPyA2EmFWC', 
                       '_$s12HealthDaemon11HDOHSEntityC8PropertyO8rawValueAESgSS_tcfC', 
                       '_$s12HealthDaemon11HDOHSEntityC8PropertyO8rawValueSSvg', 
                       '_$s12HealthDaemon11HDOHSEntityC8PropertyO8rawValueSSvpMV', 
                       '_$s12HealthDaemon11HDOHSEntityC8PropertyOMa', '_$s12HealthDaemon11HDOHSEntityC8PropertyOMn', 
                       '_$s12HealthDaemon11HDOHSEntityC8PropertyON', '_$s12HealthDaemon11HDOHSEntityC8PropertyOSHAAMc', 
                       '_$s12HealthDaemon11HDOHSEntityC8PropertyOSQAAMc', '_$s12HealthDaemon11HDOHSEntityC8PropertyOSYAAMc', 
                       '_$s12HealthDaemon11HDOHSEntityC8PropertyOs12CaseIterableAAMc', 
                       '_$s12HealthDaemon11HDOHSEntityCACycfC', '_$s12HealthDaemon11HDOHSEntityCACycfc', 
                       '_$s12HealthDaemon11HDOHSEntityCMa', '_$s12HealthDaemon11HDOHSEntityCMn', 
                       '_$s12HealthDaemon11HDOHSEntityCMo', '_$s12HealthDaemon11HDOHSEntityCN', 
                       '_$s12HealthDaemon11HDOHSEntityCfD', '_$s12HealthDaemon12HDCMSwimDataC10strokeTypeSo21HKSwimmingStrokeStyleVvgTj', 
                       '_$s12HealthDaemon12HDCMSwimDataC10strokeTypeSo21HKSwimmingStrokeStyleVvgTq', 
                       '_$s12HealthDaemon12HDCMSwimDataC10strokeTypeSo21HKSwimmingStrokeStyleVvpMV', 
                       '_$s12HealthDaemon12HDCMSwimDataC11strokeCountSivgTj', '_$s12HealthDaemon12HDCMSwimDataC11strokeCountSivgTq', 
                       '_$s12HealthDaemon12HDCMSwimDataC11strokeCountSivpMV', '_$s12HealthDaemon12HDCMSwimDataC12segmentSwolfSdSgvgTj', 
                       '_$s12HealthDaemon12HDCMSwimDataC12segmentSwolfSdSgvgTq', 
                       '_$s12HealthDaemon12HDCMSwimDataC12segmentSwolfSdSgvpMV', 
                       '_$s12HealthDaemon12HDCMSwimDataC5swolfSdSgvgTj', '_$s12HealthDaemon12HDCMSwimDataC5swolfSdSgvgTq', 
                       '_$s12HealthDaemon12HDCMSwimDataC5swolfSdSgvpMV', '_$s12HealthDaemon12HDCMSwimDataC7endDate10Foundation0F0VSgvgTj', 
                       '_$s12HealthDaemon12HDCMSwimDataC7endDate10Foundation0F0VSgvgTq', 
                       '_$s12HealthDaemon12HDCMSwimDataC7endDate10Foundation0F0VSgvpMV', 
                       '_$s12HealthDaemon12HDCMSwimDataC7segmentSivgTj', '_$s12HealthDaemon12HDCMSwimDataC7segmentSivgTq', 
                       '_$s12HealthDaemon12HDCMSwimDataC7segmentSivpMV', '_$s12HealthDaemon12HDCMSwimDataC8distanceSdvgTj', 
                       '_$s12HealthDaemon12HDCMSwimDataC8distanceSdvgTq', '_$s12HealthDaemon12HDCMSwimDataC8distanceSdvpMV', 
                       '_$s12HealthDaemon12HDCMSwimDataC8lapCountSivgTj', '_$s12HealthDaemon12HDCMSwimDataC8lapCountSivgTq', 
                       '_$s12HealthDaemon12HDCMSwimDataC8lapCountSivpMV', '_$s12HealthDaemon12HDCMSwimDataC8recordIdSivgTj', 
                       '_$s12HealthDaemon12HDCMSwimDataC8recordIdSivgTq', '_$s12HealthDaemon12HDCMSwimDataC8recordIdSivpMV', 
                       '_$s12HealthDaemon12HDCMSwimDataC8sourceId10Foundation4UUIDVSgvgTj', 
                       '_$s12HealthDaemon12HDCMSwimDataC8sourceId10Foundation4UUIDVSgvgTq', 
                       '_$s12HealthDaemon12HDCMSwimDataC8sourceId10Foundation4UUIDVSgvpMV', 
                       '_$s12HealthDaemon12HDCMSwimDataC9startDate10Foundation0F0VSgvgTj', 
                       '_$s12HealthDaemon12HDCMSwimDataC9startDate10Foundation0F0VSgvgTq', 
                       '_$s12HealthDaemon12HDCMSwimDataC9startDate10Foundation0F0VSgvpMV', 
                       '_$s12HealthDaemon12HDCMSwimDataCACycfC', '_$s12HealthDaemon12HDCMSwimDataCACycfc', 
                       '_$s12HealthDaemon12HDCMSwimDataCMa', '_$s12HealthDaemon12HDCMSwimDataCMn', 
                       '_$s12HealthDaemon12HDCMSwimDataCMo', '_$s12HealthDaemon12HDCMSwimDataCMu', 
                       '_$s12HealthDaemon12HDCMSwimDataCN', '_$s12HealthDaemon12HDCMSwimDataCfD', 
                       '_$s12HealthDaemon12StateStorageV11isCancelledSbvM', '_$s12HealthDaemon12StateStorageV11isCancelledSbvg', 
                       '_$s12HealthDaemon12StateStorageV11isCancelledSbvpMV', '_$s12HealthDaemon12StateStorageV11isCancelledSbvs', 
                       '_$s12HealthDaemon12StateStorageVAA0a13TypeEvaluatorC0AAMc', 
                       '_$s12HealthDaemon12StateStorageVAA0a13TypeEvaluatorC0AAWP', 
                       '_$s12HealthDaemon12StateStorageVACycfC', '_$s12HealthDaemon12StateStorageVMa', 
                       '_$s12HealthDaemon12StateStorageVMn', '_$s12HealthDaemon12StateStorageVN', 
                       '_$s12HealthDaemon12TypeExecutorMp', '_$s12HealthDaemon12TypeExecutorP12list_assumed15queryIdentifier04typeH013configuration11transaction7profileSayqd_0_G10Foundation4UUIDV_0A3Kit0cH0Vqd__So21HDDatabaseTransactionCSgSo9HDProfileCtKs8SendableRd__sAVRd_0_r0_lFTj', 
                       '_$s12HealthDaemon12TypeExecutorP12list_assumed15queryIdentifier04typeH013configuration11transaction7profileSayqd_0_G10Foundation4UUIDV_0A3Kit0cH0Vqd__So21HDDatabaseTransactionCSgSo9HDProfileCtKs8SendableRd__sAVRd_0_r0_lFTq', 
                       '_$s12HealthDaemon12TypeExecutorP14executionQueueSo17OS_dispatch_queueCvgTj', 
                       '_$s12HealthDaemon12TypeExecutorP14executionQueueSo17OS_dispatch_queueCvgTq', 
                       '_$s12HealthDaemon12TypeExecutorP15batched_assumed15queryIdentifier04typeH013configuration9batchSize11transaction7profiles11AnyIteratorVySayqd_0_GG10Foundation4UUIDV_0A3Kit0cH0Vqd__SiSo21HDDatabaseTransactionCSo9HDProfileCtKs8SendableRd__sAYRd_0_r0_lFTj', 
                       '_$s12HealthDaemon12TypeExecutorP15batched_assumed15queryIdentifier04typeH013configuration9batchSize11transaction7profiles11AnyIteratorVySayqd_0_GG10Foundation4UUIDV_0A3Kit0cH0Vqd__SiSo21HDDatabaseTransactionCSo9HDProfileCtKs8SendableRd__sAYRd_0_r0_lFTq', 
                       '_$s12HealthDaemon12TypeExecutorP15evaluate_erased15queryIdentifier04typeH06action13configuration7profile8responsey10Foundation4UUIDV_AK4DataVA2OSo9HDProfileCyAM_0A3Kit18EvaluationResponseOyAOGtYbctFTj', 
                       '_$s12HealthDaemon12TypeExecutorP15evaluate_erased15queryIdentifier04typeH06action13configuration7profile8responsey10Foundation4UUIDV_AK4DataVA2OSo9HDProfileCyAM_0A3Kit18EvaluationResponseOyAOGtYbctFTq', 
                       '_$s12HealthDaemon12TypeExecutorP15iterate_assumed15queryIdentifier04typeH013configuration11transaction7profiles11AnyIteratorVyqd_0_G10Foundation4UUIDV_0A3Kit0cH0Vqd__So21HDDatabaseTransactionCSo9HDProfileCtKs8SendableRd__sAWRd_0_r0_lFTj', 
                       '_$s12HealthDaemon12TypeExecutorP15iterate_assumed15queryIdentifier04typeH013configuration11transaction7profiles11AnyIteratorVyqd_0_G10Foundation4UUIDV_0A3Kit0cH0Vqd__So21HDDatabaseTransactionCSo9HDProfileCtKs8SendableRd__sAWRd_0_r0_lFTq', 
                       '_$s12HealthDaemon12TypeExecutorP15observe_assumed15queryIdentifier04typeH013configuration7profile8response0A3Kit10QueryTokenV10Foundation4UUIDV_AJ0cH0Vqd__So9HDProfileCyAJ18EvaluationResponseOyqd_0_GYbcts8SendableRd__sAWRd_0_r0_lFTj', 
                       '_$s12HealthDaemon12TypeExecutorP15observe_assumed15queryIdentifier04typeH013configuration7profile8response0A3Kit10QueryTokenV10Foundation4UUIDV_AJ0cH0Vqd__So9HDProfileCyAJ18EvaluationResponseOyqd_0_GYbcts8SendableRd__sAWRd_0_r0_lFTq', 
                       '_$s12HealthDaemon12TypeExecutorP6cancel15queryIdentifiery10Foundation4UUIDV_tFTj', 
                       '_$s12HealthDaemon12TypeExecutorP6cancel15queryIdentifiery10Foundation4UUIDV_tFTq', 
                       '_$s12HealthDaemon12TypeExecutorTL', '_$s12HealthDaemon12TypeRegistryMp', 
                       '_$s12HealthDaemon12TypeRegistryPyAA0aC17EvaluatorProvider_pSg0A3Kit0C10IdentifierVcigTj', 
                       '_$s12HealthDaemon12TypeRegistryPyAA0aC17EvaluatorProvider_pSg0A3Kit0C10IdentifierVcigTq', 
                       '_$s12HealthDaemon12TypeRegistryTL', '_$s12HealthDaemon12batched_sync16queryDescriptors9evaluator11transaction9batchSizes11AnyIteratorVySay9ModelKindQzGGxQp_txxQp_t_q_So21HDDatabaseTransactionCSitKRvz0A3Kit27ListQueryDescriptorProtocolRzAA0bsT9EvaluatorR_r0_lF', 
                       '_$s12HealthDaemon12iterate_sync16queryDescriptors9evaluator11transactions11AnyIteratorVy9ModelKindQzGxQp_txxQp_t_q_So21HDDatabaseTransactionCtKRvz0A3Kit27ListQueryDescriptorProtocolRzAA0bqR9EvaluatorR_r0_lF', 
                       '_$s12HealthDaemon13HDSwimTrackerC08makeSwimD0AA08HDCMSwimD5Proxy_pyFTj', 
                       '_$s12HealthDaemon13HDSwimTrackerC08makeSwimD0AA08HDCMSwimD5Proxy_pyFTq', 
                       '_$s12HealthDaemon13HDSwimTrackerC15fetchLatestData10completionyySb_s5Error_pSgtc_tFTj', 
                       '_$s12HealthDaemon13HDSwimTrackerC15fetchLatestData10completionyySb_s5Error_pSgtc_tFTq', 
                       '_$s12HealthDaemon13HDSwimTrackerC16registerObserveryyAA010HDSwimmingF0_pFTj', 
                       '_$s12HealthDaemon13HDSwimTrackerC16registerObserveryyAA010HDSwimmingF0_pFTq', 
                       '_$s12HealthDaemon13HDSwimTrackerC4stopyyFTj', '_$s12HealthDaemon13HDSwimTrackerC4stopyyFTq', 
                       '_$s12HealthDaemon13HDSwimTrackerC5start4withy10Foundation4UUIDV_tFTj', 
                       '_$s12HealthDaemon13HDSwimTrackerC5start4withy10Foundation4UUIDV_tFTq', 
                       '_$s12HealthDaemon13HDSwimTrackerC7profileACSo9HDProfileC_tcfC', 
                       '_$s12HealthDaemon13HDSwimTrackerC7profileACSo9HDProfileC_tcfCTj', 
                       '_$s12HealthDaemon13HDSwimTrackerC7profileACSo9HDProfileC_tcfCTq', 
                       '_$s12HealthDaemon13HDSwimTrackerC7profileACSo9HDProfileC_tcfc', 
                       '_$s12HealthDaemon13HDSwimTrackerC7trackerAA08HDCMSwimD5Proxy_pvMTj', 
                       '_$s12HealthDaemon13HDSwimTrackerC7trackerAA08HDCMSwimD5Proxy_pvMTq', 
                       '_$s12HealthDaemon13HDSwimTrackerC7trackerAA08HDCMSwimD5Proxy_pvgTj', 
                       '_$s12HealthDaemon13HDSwimTrackerC7trackerAA08HDCMSwimD5Proxy_pvgTq', 
                       '_$s12HealthDaemon13HDSwimTrackerC7trackerAA08HDCMSwimD5Proxy_pvpMV', 
                       '_$s12HealthDaemon13HDSwimTrackerC7trackerAA08HDCMSwimD5Proxy_pvsTj', 
                       '_$s12HealthDaemon13HDSwimTrackerC7trackerAA08HDCMSwimD5Proxy_pvsTq', 
                       '_$s12HealthDaemon13HDSwimTrackerCACycfC', '_$s12HealthDaemon13HDSwimTrackerCACycfc', 
                       '_$s12HealthDaemon13HDSwimTrackerCMa', '_$s12HealthDaemon13HDSwimTrackerCMn', 
                       '_$s12HealthDaemon13HDSwimTrackerCMo', '_$s12HealthDaemon13HDSwimTrackerCMu', 
                       '_$s12HealthDaemon13HDSwimTrackerCN', '_$s12HealthDaemon13HDSwimTrackerCfD', 
                       '_$s12HealthDaemon13SchemaVersionMp', '_$s12HealthDaemon13SchemaVersionP6futureSivgZTj', 
                       '_$s12HealthDaemon13SchemaVersionP6futureSivgZTq', '_$s12HealthDaemon13SchemaVersionP7currentSivgZTj', 
                       '_$s12HealthDaemon13SchemaVersionP7currentSivgZTq', '_$s12HealthDaemon13SchemaVersionTL', 
                       '_$s12HealthDaemon15HDCMSwimTrackerC11stopUpdatesyyFTj', '_$s12HealthDaemon15HDCMSwimTrackerC11stopUpdatesyyFTq', 
                       '_$s12HealthDaemon15HDCMSwimTrackerC12startUpdates10fromRecord7handleryAA0C4DataCSg_ySayAHGSg_s5Error_pSgtctFTj', 
                       '_$s12HealthDaemon15HDCMSwimTrackerC12startUpdates10fromRecord7handleryAA0C4DataCSg_ySayAHGSg_s5Error_pSgtctFTq', 
                       '_$s12HealthDaemon15HDCMSwimTrackerC16querySwimUpdates10fromRecord7handleryAA0C4DataCSg_ySayAHGSg_s5Error_pSgtctFTj', 
                       '_$s12HealthDaemon15HDCMSwimTrackerC16querySwimUpdates10fromRecord7handleryAA0C4DataCSg_ySayAHGSg_s5Error_pSgtctFTq', 
                       '_$s12HealthDaemon15HDCMSwimTrackerCACycfC', '_$s12HealthDaemon15HDCMSwimTrackerCACycfc', 
                       '_$s12HealthDaemon15HDCMSwimTrackerCMa', '_$s12HealthDaemon15HDCMSwimTrackerCMn', 
                       '_$s12HealthDaemon15HDCMSwimTrackerCMo', '_$s12HealthDaemon15HDCMSwimTrackerCMu', 
                       '_$s12HealthDaemon15HDCMSwimTrackerCN', '_$s12HealthDaemon15HDCMSwimTrackerCfD', 
                       '_$s12HealthDaemon15HDWorkoutHelperC018removeLastNodeFromG7WrapperySo017HKWorkoutActivitygI0CSgAGFZ', 
                       '_$s12HealthDaemon15HDWorkoutHelperC13removeSubtree4from8activitySo28HKWorkoutActivityNodeWrapperCSgAI_So0iJ0CtFZ', 
                       '_$s12HealthDaemon15HDWorkoutHelperC19activityNodeWrapper4fromSo017HKWorkoutActivityfG0CSo0iJ0C_tFZ', 
                       '_$s12HealthDaemon15HDWorkoutHelperC26workoutActivityNodeWrapper4from06targetF08childrenSo09HKWorkoutfgH0CSgAJ_So0lF0CSayALGtFZ', 
                       '_$s12HealthDaemon15HDWorkoutHelperC26workoutActivityNodeWrapper4from10activities13insertionTypeSo09HKWorkoutfgH0CSgAJ_SaySo0mF0CGSo0mfg9InsertionL0VtFZ', 
                       '_$s12HealthDaemon15HDWorkoutHelperC26workoutActivityNodeWrapper4from13configuration9startDate8metadata13insertionTypeSo09HKWorkoutfgH0CSgAL_So0P13ConfigurationC10Foundation0L0VSDySSypGSgSo0pfg9InsertionO0VtFZ', 
                       '_$s12HealthDaemon15HDWorkoutHelperC28replaceActivityInNodeWrapper_8activitySo09HKWorkoutfhI0CSgAH_So0kF0CtFZ', 
                       '_$s12HealthDaemon15HDWorkoutHelperC8activity4from9startDate8metadataSo17HKWorkoutActivityCSgSo0J13ConfigurationC_10Foundation0H0VSDySSypGSgtFZ', 
                       '_$s12HealthDaemon15HDWorkoutHelperCACycfC', '_$s12HealthDaemon15HDWorkoutHelperCACycfc', 
                       '_$s12HealthDaemon15HDWorkoutHelperCMa', '_$s12HealthDaemon15HDWorkoutHelperCMn', 
                       '_$s12HealthDaemon15HDWorkoutHelperCMo', '_$s12HealthDaemon15HDWorkoutHelperCN', 
                       '_$s12HealthDaemon15HDWorkoutHelperCfD', '_$s12HealthDaemon15SQLiteStatementV4bindyy10Foundation4DataVSgF', 
                       '_$s12HealthDaemon15SQLiteStatementV4bindyy10Foundation4DateVSgF', 
                       '_$s12HealthDaemon15SQLiteStatementV4bindyy10Foundation4UUIDVSgF', 
                       '_$s12HealthDaemon15SQLiteStatementV4bindyySSSgF', '_$s12HealthDaemon15SQLiteStatementV4bindyySbSgF', 
                       '_$s12HealthDaemon15SQLiteStatementV4bindyySdSgF', '_$s12HealthDaemon15SQLiteStatementV4bindyySiSgF', 
                       '_$s12HealthDaemon15SQLiteStatementV4bindyys5Int64VSgF', '_$s12HealthDaemon15SQLiteStatementVMa', 
                       '_$s12HealthDaemon15SQLiteStatementVMn', '_$s12HealthDaemon15SQLiteStatementVN', 
                       '_$s12HealthDaemon16HDDataCacheStoreC10anchorDate10Foundation0G0Vvg', 
                       '_$s12HealthDaemon16HDDataCacheStoreC10anchorDate10Foundation0G0VvpMV', 
                       '_$s12HealthDaemon16HDDataCacheStoreC10saveCaches_16generationNumberySaySo06HKDataD9Providing_pG_SitKF', 
                       '_$s12HealthDaemon16HDDataCacheStoreC11cachesExist13forIdentifierSbSS_tKF', 
                       '_$s12HealthDaemon16HDDataCacheStoreC12deleteCaches16forBucketIndices16generationNumberyShySiG_SitKF', 
                       '_$s12HealthDaemon16HDDataCacheStoreC12sourceEntitySo08HDSourceG0Cvg', 
                       '_$s12HealthDaemon16HDDataCacheStoreC12sourceEntitySo08HDSourceG0CvpMV', 
                       '_$s12HealthDaemon16HDDataCacheStoreC18intervalComponents10Foundation04DateG0Vvg', 
                       '_$s12HealthDaemon16HDDataCacheStoreC18intervalComponents10Foundation04DateG0VvpMV', 
                       '_$s12HealthDaemon16HDDataCacheStoreC20enumerateForInterval_11cachedClass23anchorAfterDatabaseScan12cacheHandlery10Foundation04DateH0VSg_So06HKDataD9Providing_So8NSObjectCXcXps5Int64VzSbSoAL_pSg_SbSiSgs5Error_pSgtctKF', 
                       '_$s12HealthDaemon16HDDataCacheStoreC22saveEmptyBucketMarkers03forH7Indices16generationNumberyShySiG_SitKF', 
                       '_$s12HealthDaemon16HDDataCacheStoreC7profile15cacheIdentifier15queryDescriptor23invalidationDescriptors12sourceEntity10anchorDate18intervalComponents25timeIntervalToBucketIndexACSo9HDProfileC_SS0A3Kit23HKCachedQueryParameters_pSgSaySo07HDQueryJ0CGSo08HDSourceN0C10Foundation0P0VAV0pR0VSiSd_AXtctcfC', 
                       '_$s12HealthDaemon16HDDataCacheStoreC7profile15cacheIdentifier15queryDescriptor23invalidationDescriptors12sourceEntity10anchorDate18intervalComponents25timeIntervalToBucketIndexACSo9HDProfileC_SS0A3Kit23HKCachedQueryParameters_pSgSaySo07HDQueryJ0CGSo08HDSourceN0C10Foundation0P0VAV0pR0VSiSd_AXtctcfCTj', 
                       '_$s12HealthDaemon16HDDataCacheStoreC7profile15cacheIdentifier15queryDescriptor23invalidationDescriptors12sourceEntity10anchorDate18intervalComponents25timeIntervalToBucketIndexACSo9HDProfileC_SS0A3Kit23HKCachedQueryParameters_pSgSaySo07HDQueryJ0CGSo08HDSourceN0C10Foundation0P0VAV0pR0VSiSd_AXtctcfCTq', 
                       '_$s12HealthDaemon16HDDataCacheStoreC7profile15cacheIdentifier15queryDescriptor23invalidationDescriptors12sourceEntity10anchorDate18intervalComponents25timeIntervalToBucketIndexACSo9HDProfileC_SS0A3Kit23HKCachedQueryParameters_pSgSaySo07HDQueryJ0CGSo08HDSourceN0C10Foundation0P0VAV0pR0VSiSd_AXtctcfc', 
                       '_$s12HealthDaemon16HDDataCacheStoreCMa', '_$s12HealthDaemon16HDDataCacheStoreCMm', 
                       '_$s12HealthDaemon16HDDataCacheStoreCMn', '_$s12HealthDaemon16HDDataCacheStoreCMo', 
                       '_$s12HealthDaemon16HDDataCacheStoreCMu', '_$s12HealthDaemon16HDDataCacheStoreCN', 
                       '_$s12HealthDaemon16HDDataCacheStoreCfD', '_$s12HealthDaemon16HDDataCacheStoreCfd', 
                       '_$s12HealthDaemon17HDSampleIteratingMp', '_$s12HealthDaemon17HDSampleIteratingPAAE7batched9batchSizeQrSi_tF', 
                       '_$s12HealthDaemon17HDSampleIteratingPAAE7batched9batchSizeQrSi_tFQOMQ', 
                       '_$s12HealthDaemon17HDSampleIteratingPAAE7flatMapyQrs6ResultOyqd__s5Error_pG10SampleTypeQzcSo8HKSampleCRbd__lF', 
                       '_$s12HealthDaemon17HDSampleIteratingPAAE7flatMapyQrs6ResultOyqd__s5Error_pG10SampleTypeQzcSo8HKSampleCRbd__lFQOMQ', 
                       '_$s12HealthDaemon17HDSampleIteratingPAAE8mapErroryQrqd__s0F0_pcsAERd__lF', 
                       '_$s12HealthDaemon17HDSampleIteratingPAAE8mapErroryQrqd__s0F0_pcsAERd__lFQOMQ', 
                       '_$s12HealthDaemon17HDSampleIteratingPSTTb', '_$s12HealthDaemon17HDSampleIteratingPStTb', 
                       '_$s12HealthDaemon17HDSampleIteratingTL', '_$s12HealthDaemon17HDSampleIteratorsO10singleType9predicate15sortDescriptors15encodingOptions5limit7profileQr0A3Kit17HKSamplePredicateVyxG_Say10Foundation14SortDescriptorVyxGGSDySSypGSgSiSgSo9HDProfileCtSo0O0CRbzlFZ', 
                       '_$s12HealthDaemon17HDSampleIteratorsO10singleType9predicate15sortDescriptors15encodingOptions5limit7profileQr0A3Kit17HKSamplePredicateVyxG_Say10Foundation14SortDescriptorVyxGGSDySSypGSgSiSgSo9HDProfileCtSo0O0CRbzlFZQOMQ', 
                       '_$s12HealthDaemon17HDSampleIteratorsO10singleType9predicate15sortDescriptors15encodingOptions5limit9batchSize7profileQr0A3Kit17HKSamplePredicateVyxG_Say10Foundation14SortDescriptorVyxGGSDySSypGSgSiSgSiSo9HDProfileCtSo0Q0CRbzlFZ', 
                       '_$s12HealthDaemon17HDSampleIteratorsO10singleType9predicate15sortDescriptors15encodingOptions5limit9batchSize7profileQr0A3Kit17HKSamplePredicateVyxG_Say10Foundation14SortDescriptorVyxGGSDySSypGSgSiSgSiSo9HDProfileCtSo0Q0CRbzlFZQOMQ', 
                       '_$s12HealthDaemon17HDSampleIteratorsO12BaseIteratorC10predicates17nsSortDescriptors15encodingOptions5limit7profileAE0A3Kit17HKSamplePredicateVyxGxQp_SaySo16NSSortDescriptorCGSDySSypGSgSiSgSo9HDProfileCtcRvzSo0P0CRbzlufC', 
                       '_$s12HealthDaemon17HDSampleIteratorsO12BaseIteratorC10predicates17nsSortDescriptors15encodingOptions5limit7profileAE0A3Kit17HKSamplePredicateVyxGxQp_SaySo16NSSortDescriptorCGSDySSypGSgSiSgSo9HDProfileCtcRvzSo0P0CRbzlufCTj', 
                       '_$s12HealthDaemon17HDSampleIteratorsO12BaseIteratorC10predicates17nsSortDescriptors15encodingOptions5limit7profileAE0A3Kit17HKSamplePredicateVyxGxQp_SaySo16NSSortDescriptorCGSDySSypGSgSiSgSo9HDProfileCtcRvzSo0P0CRbzlufCTq', 
                       '_$s12HealthDaemon17HDSampleIteratorsO12BaseIteratorC10predicates17nsSortDescriptors15encodingOptions5limit7profileAE0A3Kit17HKSamplePredicateVyxGxQp_SaySo16NSSortDescriptorCGSDySSypGSgSiSgSo9HDProfileCtcRvzSo0P0CRbzlufc', 
                       '_$s12HealthDaemon17HDSampleIteratorsO12BaseIteratorC4nexts6ResultOySo8HKSampleCs5Error_pGSgyF', 
                       '_$s12HealthDaemon17HDSampleIteratorsO12BaseIteratorCAA0C9IteratingAAMc', 
                       '_$s12HealthDaemon17HDSampleIteratorsO12BaseIteratorCAA0C9IteratingAAWP', 
                       '_$s12HealthDaemon17HDSampleIteratorsO12BaseIteratorCMa', 
                       '_$s12HealthDaemon17HDSampleIteratorsO12BaseIteratorCMm', 
                       '_$s12HealthDaemon17HDSampleIteratorsO12BaseIteratorCMn', 
                       '_$s12HealthDaemon17HDSampleIteratorsO12BaseIteratorCMo', 
                       '_$s12HealthDaemon17HDSampleIteratorsO12BaseIteratorCMu', 
                       '_$s12HealthDaemon17HDSampleIteratorsO12BaseIteratorCN', '_$s12HealthDaemon17HDSampleIteratorsO12BaseIteratorCSTAAMc', 
                       '_$s12HealthDaemon17HDSampleIteratorsO12BaseIteratorCStAAMc', 
                       '_$s12HealthDaemon17HDSampleIteratorsO12BaseIteratorCfD', 
                       '_$s12HealthDaemon17HDSampleIteratorsO12BaseIteratorCfd', 
                       '_$s12HealthDaemon17HDSampleIteratorsO13staticContent7samples5errorQrSayxG_s5Error_pSgtSo8HKSampleCRbzlFZ', 
                       '_$s12HealthDaemon17HDSampleIteratorsO13staticContent7samples5errorQrSayxG_s5Error_pSgtSo8HKSampleCRbzlFZQOMQ', 
                       '_$s12HealthDaemon17HDSampleIteratorsO15BatchedIteratorC4nexts6ResultOySayxGq_GSgyF', 
                       '_$s12HealthDaemon17HDSampleIteratorsO15BatchedIteratorC8iterator9batchSizeAEy_xq_q0_Gq0__SitcfC', 
                       '_$s12HealthDaemon17HDSampleIteratorsO15BatchedIteratorC8iterator9batchSizeAEy_xq_q0_Gq0__SitcfCTj', 
                       '_$s12HealthDaemon17HDSampleIteratorsO15BatchedIteratorC8iterator9batchSizeAEy_xq_q0_Gq0__SitcfCTq', 
                       '_$s12HealthDaemon17HDSampleIteratorsO15BatchedIteratorC8iterator9batchSizeAEy_xq_q0_Gq0__Sitcfc', 
                       '_$s12HealthDaemon17HDSampleIteratorsO15BatchedIteratorC9batchSizeSivg', 
                       '_$s12HealthDaemon17HDSampleIteratorsO15BatchedIteratorC9batchSizeSivpMV', 
                       '_$s12HealthDaemon17HDSampleIteratorsO15BatchedIteratorCMa', 
                       '_$s12HealthDaemon17HDSampleIteratorsO15BatchedIteratorCMn', 
                       '_$s12HealthDaemon17HDSampleIteratorsO15BatchedIteratorCMo', 
                       '_$s12HealthDaemon17HDSampleIteratorsO15BatchedIteratorCMu', 
                       '_$s12HealthDaemon17HDSampleIteratorsO15BatchedIteratorCfD', 
                       '_$s12HealthDaemon17HDSampleIteratorsO15BatchedIteratorCfd', 
                       '_$s12HealthDaemon17HDSampleIteratorsO15BatchedIteratorCy_xq_q0_GAA24HDBatchedSampleIteratingAASo8HKSampleCRbzs5Error_pRs_s6ResultOyxsAJ_pG7ElementRt0_rlMc', 
                       '_$s12HealthDaemon17HDSampleIteratorsO15BatchedIteratorCy_xq_q0_GSTAAMc', 
                       '_$s12HealthDaemon17HDSampleIteratorsO15BatchedIteratorCy_xq_q0_GStAAMc', 
                       '_$s12HealthDaemon17HDSampleIteratorsO19FlatMappingIteratorV4nexts6ResultOyxq_GSgyF', 
                       '_$s12HealthDaemon17HDSampleIteratorsO19FlatMappingIteratorV8iterator9transformAEy_xq_q0_q1_Gq0__s6ResultOyxq_Gq1_ctcfC', 
                       '_$s12HealthDaemon17HDSampleIteratorsO19FlatMappingIteratorVMa', 
                       '_$s12HealthDaemon17HDSampleIteratorsO19FlatMappingIteratorVMn', 
                       '_$s12HealthDaemon17HDSampleIteratorsO19FlatMappingIteratorVy_xq_q0_q1_GAA0C9IteratingAASo8HKSampleCRbzs5Error_pRs_s6ResultOyq1_sAJ_pG7ElementRt0_rlMc', 
                       '_$s12HealthDaemon17HDSampleIteratorsO19FlatMappingIteratorVy_xq_q0_q1_GSTAAMc', 
                       '_$s12HealthDaemon17HDSampleIteratorsO19FlatMappingIteratorVy_xq_q0_q1_GStAAMc', 
                       '_$s12HealthDaemon17HDSampleIteratorsO20ErrorMappingIteratorV4nexts6ResultOyxq_GSgyF', 
                       '_$s12HealthDaemon17HDSampleIteratorsO20ErrorMappingIteratorV8iterator9transformAEy_xq_q0_q1_Gq0__q_q1_ctcfC', 
                       '_$s12HealthDaemon17HDSampleIteratorsO20ErrorMappingIteratorVMa', 
                       '_$s12HealthDaemon17HDSampleIteratorsO20ErrorMappingIteratorVMn', 
                       '_$s12HealthDaemon17HDSampleIteratorsO20ErrorMappingIteratorVy_xq_q0_q1_GSTAAMc', 
                       '_$s12HealthDaemon17HDSampleIteratorsO20ErrorMappingIteratorVy_xq_q0_q1_GStAAMc', 
                       '_$s12HealthDaemon17HDSampleIteratorsO21StaticContentIteratorV4nexts6ResultOyxq_GSgyF', 
                       '_$s12HealthDaemon17HDSampleIteratorsO21StaticContentIteratorV6values5errorAEy_xq_GSayxG_q_SgtcfC', 
                       '_$s12HealthDaemon17HDSampleIteratorsO21StaticContentIteratorVMa', 
                       '_$s12HealthDaemon17HDSampleIteratorsO21StaticContentIteratorVMn', 
                       '_$s12HealthDaemon17HDSampleIteratorsO21StaticContentIteratorVy_xq_GAA0C9IteratingAASo8HKSampleCRbzs5Error_pRs_rlMc', 
                       '_$s12HealthDaemon17HDSampleIteratorsO21StaticContentIteratorVy_xq_GSTAAMc', 
                       '_$s12HealthDaemon17HDSampleIteratorsO21StaticContentIteratorVy_xq_GStAAMc', 
                       '_$s12HealthDaemon17HDSampleIteratorsO9multiType10predicates15sortDescriptors15encodingOptions5limit7profileAC12BaseIteratorC0A3Kit17HKSamplePredicateVyxGxQp_Say10Foundation14SortDescriptorVySo0Q0CGGSDySSypGSgSiSgSo9HDProfileCtRvzATRbzlFZ', 
                       '_$s12HealthDaemon17HDSampleIteratorsO9multiType10predicates17nsSortDescriptors15encodingOptions5limit7profileAC12BaseIteratorC0A3Kit17HKSamplePredicateVyxGxQp_SaySo16NSSortDescriptorCGSDySSypGSgSiSgSo9HDProfileCtRvzSo0R0CRbzlFZ', 
                       '_$s12HealthDaemon17HDSampleIteratorsOMa', '_$s12HealthDaemon17HDSampleIteratorsOMn', 
                       '_$s12HealthDaemon17HDSampleIteratorsON', '_$s12HealthDaemon18DatabaseStatisticsO010initializeD011transaction4dateSDyAC3KeyVAC5ValueVG_SDySi0A3Kit11HKCloudSyncO4ShowV0L8IdentityVGtSo21HDDatabaseTransactionC_10Foundation4DateVtKFZ', 
                       '_$s12HealthDaemon18DatabaseStatisticsO06updateD08previous4date12databaseSize12syncIdentity31groupPreferredComputationMethod0H00A3Kit11HKCloudSyncO4ShowV12RecordDetailO0cU0V_SDySSSo8NSNumberCGtASSg_10Foundation4DateVs5Int64VSiAS0nO0OyXKSo08HDHealthC0_ptKFZ', 
                       '_$s12HealthDaemon18DatabaseStatisticsO07computeD08database6result12currentShard6methodSdSo08HDSQLiteC0C_SDyAC3KeyVAC5ValueVGzSi0A3Kit11HKCloudSyncO4ShowV12RecordDetailO0cS0V17ComputationMethodOtKFZ', 
                       '_$s12HealthDaemon18DatabaseStatisticsO11shardLengthSdvgZ', 
                       '_$s12HealthDaemon18DatabaseStatisticsO11shardLengthSdvpZMV', 
                       '_$s12HealthDaemon18DatabaseStatisticsO13firstShardEndSdvgZ', 
                       '_$s12HealthDaemon18DatabaseStatisticsO13firstShardEndSdvpZMV', 
                       '_$s12HealthDaemon18DatabaseStatisticsO15firstShardStartSdvgZ', 
                       '_$s12HealthDaemon18DatabaseStatisticsO15firstShardStartSdvpZMV', 
                       '_$s12HealthDaemon18DatabaseStatisticsO16evaluateDataLoss6detail12otherDetails4dateSb0A3Kit11HKCloudSyncO4ShowV12RecordDetailO0cQ0V_x10Foundation4DateVtSTRzAP7ElementRtzlFZ', 
                       '_$s12HealthDaemon18DatabaseStatisticsO18dataLossLowerBoundSivgZ', 
                       '_$s12HealthDaemon18DatabaseStatisticsO18dataLossLowerBoundSivpZMV', 
                       '_$s12HealthDaemon18DatabaseStatisticsO18dataLossUpperBoundSivgZ', 
                       '_$s12HealthDaemon18DatabaseStatisticsO18dataLossUpperBoundSivpZMV', 
                       '_$s12HealthDaemon18DatabaseStatisticsO21dataLossCandidateRows6detail4dateSay0A3Kit11HKCloudSyncO4ShowV12RecordDetailO0cP0V3RowVGAO_10Foundation4DateVtFZ', 
                       '_$s12HealthDaemon18DatabaseStatisticsO21switchToFastThresholds5Int64VvgZ', 
                       '_$s12HealthDaemon18DatabaseStatisticsO21switchToFastThresholds5Int64VvpZMV', 
                       '_$s12HealthDaemon18DatabaseStatisticsO22excludedSyncIdentities8database6result12syncIdentityySo08HDSQLiteC0C_SDyAC3KeyVAC5ValueVGzSitKFZ', 
                       '_$s12HealthDaemon18DatabaseStatisticsO23switchFromFastThresholds5Int64VvgZ', 
                       '_$s12HealthDaemon18DatabaseStatisticsO23switchFromFastThresholds5Int64VvpZMV', 
                       '_$s12HealthDaemon18DatabaseStatisticsO25evaluateCandidateDataLoss6source4rows6detail4dateSb0A3Kit11HKCloudSyncO4ShowV12RecordDetailO0cR0V_SayAQ3RowVGAQ10Foundation4DateVtFZ', 
                       '_$s12HealthDaemon18DatabaseStatisticsO28resolveUsedComputationMethod09preferredgH0014groupPreferredgH00A3Kit11HKCloudSyncO4ShowV12RecordDetailO0cQ0V0gH0OAQ_AQyXKtFZ', 
                       '_$s12HealthDaemon18DatabaseStatisticsO33resolvePreferredComputationMethod08previousH012databaseSize0A3Kit11HKCloudSyncO4ShowV12RecordDetailO0cQ0V0gH0OAQSg_s5Int64VtFZ', 
                       '_$s12HealthDaemon18DatabaseStatisticsO3KeyV12syncIdentitySivg', 
                       '_$s12HealthDaemon18DatabaseStatisticsO3KeyV12syncIdentitySivpMV', 
                       '_$s12HealthDaemon18DatabaseStatisticsO3KeyV2eeoiySbAE_AEtFZ', 
                       '_$s12HealthDaemon18DatabaseStatisticsO3KeyV4hash4intoys6HasherVz_tF', 
                       '_$s12HealthDaemon18DatabaseStatisticsO3KeyV5shard12syncIdentityAESi_SitcfC', 
                       '_$s12HealthDaemon18DatabaseStatisticsO3KeyV5shardSivg', '_$s12HealthDaemon18DatabaseStatisticsO3KeyV5shardSivpMV', 
                       '_$s12HealthDaemon18DatabaseStatisticsO3KeyV9hashValueSivg', 
                       '_$s12HealthDaemon18DatabaseStatisticsO3KeyV9hashValueSivpMV', 
                       '_$s12HealthDaemon18DatabaseStatisticsO3KeyVMa', '_$s12HealthDaemon18DatabaseStatisticsO3KeyVMn', 
                       '_$s12HealthDaemon18DatabaseStatisticsO3KeyVN', '_$s12HealthDaemon18DatabaseStatisticsO3KeyVSHAAMc', 
                       '_$s12HealthDaemon18DatabaseStatisticsO3KeyVSQAAMc', '_$s12HealthDaemon18DatabaseStatisticsO5ValueV2eeoiySbAE_AEtFZ', 
                       '_$s12HealthDaemon18DatabaseStatisticsO5ValueV5count9isPushingAESi_SbtcfC', 
                       '_$s12HealthDaemon18DatabaseStatisticsO5ValueV5countSivg', 
                       '_$s12HealthDaemon18DatabaseStatisticsO5ValueV5countSivpMV', 
                       '_$s12HealthDaemon18DatabaseStatisticsO5ValueV9isPushingSbvg', 
                       '_$s12HealthDaemon18DatabaseStatisticsO5ValueV9isPushingSbvpMV', 
                       '_$s12HealthDaemon18DatabaseStatisticsO5ValueVMa', '_$s12HealthDaemon18DatabaseStatisticsO5ValueVMn', 
                       '_$s12HealthDaemon18DatabaseStatisticsO5ValueVN', '_$s12HealthDaemon18DatabaseStatisticsO5ValueVSQAAMc', 
                       '_$s12HealthDaemon18DatabaseStatisticsO5shard30timeIntervalSinceReferenceDateSiSd_tFZ', 
                       '_$s12HealthDaemon18DatabaseStatisticsO5shard4dateSi10Foundation4DateV_tFZ', 
                       '_$s12HealthDaemon18DatabaseStatisticsO7compute8database4date12syncIdentity12currentShard6method0A3Kit11HKCloudSyncO4ShowV12RecordDetailO0cR0V24RowsWithModificationDateV_SdtSo08HDHealthC0_p_10Foundation0V0VS2iAR17ComputationMethodOtKFZ', 
                       '_$s12HealthDaemon18DatabaseStatisticsO7resolve8dataLoss8previousSo034HDCloudSyncDeviceContextRecordDataG5StateVSb_AHtFZ', 
                       '_$s12HealthDaemon18DatabaseStatisticsO9detailTTLSdvgZ', '_$s12HealthDaemon18DatabaseStatisticsO9detailTTLSdvpZMV', 
                       '_$s12HealthDaemon18DatabaseStatisticsOMa', '_$s12HealthDaemon18DatabaseStatisticsOMn', 
                       '_$s12HealthDaemon18DatabaseStatisticsON', '_$s12HealthDaemon18HDDataCacheManagerC13cacheProvider3for0A3Kit16HKCacheProviding_pSgAF23HKCachedQueryParameters_pXp_tF', 
                       '_$s12HealthDaemon18HDDataCacheManagerC22cacheProviderAvailable3forSb0A3Kit23HKCachedQueryParameters_pXp_tF', 
                       '_$s12HealthDaemon18HDDataCacheManagerC8register8providery0A3Kit16HKCacheProviding_p_tF', 
                       '_$s12HealthDaemon18HDDataCacheManagerCACycfC', '_$s12HealthDaemon18HDDataCacheManagerCACycfc', 
                       '_$s12HealthDaemon18HDDataCacheManagerCMa', '_$s12HealthDaemon18HDDataCacheManagerCMn', 
                       '_$s12HealthDaemon18HDDataCacheManagerCMo', '_$s12HealthDaemon18HDDataCacheManagerCN', 
                       '_$s12HealthDaemon18HDDataCacheManagerCfD', '_$s12HealthDaemon18HDDataCacheSessionC09enumerateD7Buckets13updateHandlerySbSo06HKDataD9Providing_pSg_s5Error_pSgtc_tKF', 
                       '_$s12HealthDaemon18HDDataCacheSessionC0D12BucketResultV5cacheSo06HKDataD9Providing_pSgvg', 
                       '_$s12HealthDaemon18HDDataCacheSessionC0D12BucketResultV5cacheSo06HKDataD9Providing_pSgvpMV', 
                       '_$s12HealthDaemon18HDDataCacheSessionC0D12BucketResultV5errors5Error_pSgvg', 
                       '_$s12HealthDaemon18HDDataCacheSessionC0D12BucketResultV5errors5Error_pSgvpMV', 
                       '_$s12HealthDaemon18HDDataCacheSessionC0D12BucketResultVMa', 
                       '_$s12HealthDaemon18HDDataCacheSessionC0D12BucketResultVMn', 
                       '_$s12HealthDaemon18HDDataCacheSessionC0D12BucketResultVN', 
                       '_$s12HealthDaemon18HDDataCacheSessionC10saveCaches_6anchorySaySo06HKDataD9Providing_pG_SiSgtKF', 
                       '_$s12HealthDaemon18HDDataCacheSessionC11cachesExist13forIdentifierSbSS_tKF', 
                       '_$s12HealthDaemon18HDDataCacheSessionC13queryInterval10Foundation04DateG0VSgvg', 
                       '_$s12HealthDaemon18HDDataCacheSessionC13queryInterval10Foundation04DateG0VSgvpMV', 
                       '_$s12HealthDaemon18HDDataCacheSessionC14cacheEntryHitsSivg', 
                       '_$s12HealthDaemon18HDDataCacheSessionC14cacheEntryHitsSivpMV', 
                       '_$s12HealthDaemon18HDDataCacheSessionC16cacheEntryMissesSivg', 
                       '_$s12HealthDaemon18HDDataCacheSessionC16cacheEntryMissesSivpMV', 
                       '_$s12HealthDaemon18HDDataCacheSessionC21cachedQueryParameters13queryInterval7context12sourceEntity7profileACSg0A3Kit015HKAllowedCachedgH0O_10Foundation04DateJ0VSgSo06HKDataD7Context_pSgSo08HDSourceM0CSo9HDProfileCtcfC', 
                       '_$s12HealthDaemon18HDDataCacheSessionC21cachedQueryParameters13queryInterval7context12sourceEntity7profileACSg0A3Kit015HKAllowedCachedgH0O_10Foundation04DateJ0VSgSo06HKDataD7Context_pSgSo08HDSourceM0CSo9HDProfileCtcfCTj', 
                       '_$s12HealthDaemon18HDDataCacheSessionC21cachedQueryParameters13queryInterval7context12sourceEntity7profileACSg0A3Kit015HKAllowedCachedgH0O_10Foundation04DateJ0VSgSo06HKDataD7Context_pSgSo08HDSourceM0CSo9HDProfileCtcfCTq', 
                       '_$s12HealthDaemon18HDDataCacheSessionC21cachedQueryParameters13queryInterval7context12sourceEntity7profileACSg0A3Kit015HKAllowedCachedgH0O_10Foundation04DateJ0VSgSo06HKDataD7Context_pSgSo08HDSourceM0CSo9HDProfileCtcfc', 
                       '_$s12HealthDaemon18HDDataCacheSessionC6finishyyKF', '_$s12HealthDaemon18HDDataCacheSessionC7contextSo06HKDataD7Context_pSgvM', 
                       '_$s12HealthDaemon18HDDataCacheSessionC7contextSo06HKDataD7Context_pSgvg', 
                       '_$s12HealthDaemon18HDDataCacheSessionC7contextSo06HKDataD7Context_pSgvpMV', 
                       '_$s12HealthDaemon18HDDataCacheSessionC7contextSo06HKDataD7Context_pSgvs', 
                       '_$s12HealthDaemon18HDDataCacheSessionCACycfC', '_$s12HealthDaemon18HDDataCacheSessionCACycfc', 
                       '_$s12HealthDaemon18HDDataCacheSessionCMa', '_$s12HealthDaemon18HDDataCacheSessionCMn', 
                       '_$s12HealthDaemon18HDDataCacheSessionCMo', '_$s12HealthDaemon18HDDataCacheSessionCMu', 
                       '_$s12HealthDaemon18HDDataCacheSessionCN', '_$s12HealthDaemon18HDDataCacheSessionCfD', 
                       '_$s12HealthDaemon18HDWorkoutSetEntityC0aB10Foundation08HDSQLiteE11SchemaSwiftAAMc', 
                       '_$s12HealthDaemon18HDWorkoutSetEntityC12persistentIDACs5Int64V_tcfC', 
                       '_$s12HealthDaemon18HDWorkoutSetEntityC12persistentIDACs5Int64V_tcfc', 
                       '_$s12HealthDaemon18HDWorkoutSetEntityC7columnsSaySo014HDSQLiteSchemaE0C0aB10FoundationE16ColumnDefinitionVGvgZ', 
                       '_$s12HealthDaemon18HDWorkoutSetEntityC7columnsSaySo014HDSQLiteSchemaE0C0aB10FoundationE16ColumnDefinitionVGvpZMV', 
                       '_$s12HealthDaemon18HDWorkoutSetEntityCACycfC', '_$s12HealthDaemon18HDWorkoutSetEntityCACycfc', 
                       '_$s12HealthDaemon18HDWorkoutSetEntityCMa', '_$s12HealthDaemon18HDWorkoutSetEntityCMn', 
                       '_$s12HealthDaemon18HDWorkoutSetEntityCMo', '_$s12HealthDaemon18HDWorkoutSetEntityCN', 
                       '_$s12HealthDaemon18HDWorkoutSetEntityCfD', '_$s12HealthDaemon18HKRestingHeartRateV5valueSo10HKQuantityCvg', 
                       '_$s12HealthDaemon18HKRestingHeartRateV5valueSo10HKQuantityCvpMV', 
                       '_$s12HealthDaemon18HKRestingHeartRateV9isDefaultSbvg', '_$s12HealthDaemon18HKRestingHeartRateV9isDefaultSbvpMV', 
                       '_$s12HealthDaemon18HKRestingHeartRateVMa', '_$s12HealthDaemon18HKRestingHeartRateVMn', 
                       '_$s12HealthDaemon18HKRestingHeartRateVN', '_$s12HealthDaemon19AuthorizationStatusC013authorizationD03for16bundleIdentifier13sourceManager14healthDatabaseSDySo12HKObjectTypeCSo8NSNumberCGShyAJG_SSSgSo08HDSourceJ0CSo08HDHealthL0_ptKFZ', 
                       '_$s12HealthDaemon19AuthorizationStatusC013authorizationD9ForRecord3for0edG018clientEntitlementsSo015HDAuthorizationdG0CSo12HKObjectTypeC_AISgSo15_HKEntitlementsCtFZ', 
                       '_$s12HealthDaemon19AuthorizationStatusC12isAuthorized3for7sharing18clientEntitlements013authorizationD0ySo12HKObjectTypeC_SbSo15_HKEntitlementsCSo010HKInternalcD0VtKFZ', 
                       '_$s12HealthDaemon19AuthorizationStatusCACycfC', '_$s12HealthDaemon19AuthorizationStatusCACycfc', 
                       '_$s12HealthDaemon19AuthorizationStatusCMa', '_$s12HealthDaemon19AuthorizationStatusCMn', 
                       '_$s12HealthDaemon19AuthorizationStatusCMo', '_$s12HealthDaemon19AuthorizationStatusCN', 
                       '_$s12HealthDaemon19AuthorizationStatusCfD', '_$s12HealthDaemon19CacheEvictionPolicyV09calculateD6Target16currentSizeBytes0H11BucketCountSiSgs5Int64V_SitF', 
                       '_$s12HealthDaemon19CacheEvictionPolicyV11shouldEvict16currentSizeBytesSbs5Int64V_tF', 
                       '_$s12HealthDaemon19CacheEvictionPolicyV11targetRatioSdvg', 
                       '_$s12HealthDaemon19CacheEvictionPolicyV11targetRatioSdvpMV', 
                       '_$s12HealthDaemon19CacheEvictionPolicyV12maxSizeBytes11targetRatioACs5Int64V_SdtcfC', 
                       '_$s12HealthDaemon19CacheEvictionPolicyV12maxSizeBytess5Int64Vvg', 
                       '_$s12HealthDaemon19CacheEvictionPolicyV12maxSizeBytess5Int64VvpMV', 
                       '_$s12HealthDaemon19CacheEvictionPolicyV7defaultACvgZ', '_$s12HealthDaemon19CacheEvictionPolicyV7defaultACvpZMV', 
                       '_$s12HealthDaemon19CacheEvictionPolicyVMa', '_$s12HealthDaemon19CacheEvictionPolicyVMn', 
                       '_$s12HealthDaemon19CacheEvictionPolicyVN', '_$s12HealthDaemon19HDWorkoutZoneHelperC010codableForD12GroupWrapperySo016HDCodableWorkoutdH0CSgSo09HKWorkoutdhI0CFZ', 
                       '_$s12HealthDaemon19HDWorkoutZoneHelperC21metadataKeysAndValues3forSDySSypGSg0A3Kit09HKWorkoutD5GroupV_tFZ', 
                       '_$s12HealthDaemon19HDWorkoutZoneHelperC21metadataKeysAndValues3forSDySSypGSgSDySo14HKQuantityTypeCSo09HKWorkoutD12GroupWrapperCG_tFZ', 
                       '_$s12HealthDaemon19HDWorkoutZoneHelperC21metadataKeysAndValues3forSDySSypGSgSo09HKWorkoutD12GroupWrapperC_tFZ', 
                       '_$s12HealthDaemon19HDWorkoutZoneHelperC29zoneGroupWrappersFromCodables_12activityUUIDSDySo14HKQuantityTypeCSo09HKWorkoutdG7WrapperCGSgSaySo016HDCodableWorkoutdG0CG_10Foundation0L0VtFZ', 
                       '_$s12HealthDaemon19HDWorkoutZoneHelperC29zoneGroupWrappersFromMetadata_12activityUUIDSDySo14HKQuantityTypeCSo09HKWorkoutdG7WrapperCGSgSDySSypGSg_10Foundation0L0VtFZ', 
                       '_$s12HealthDaemon19HDWorkoutZoneHelperCACycfC', '_$s12HealthDaemon19HDWorkoutZoneHelperCACycfc', 
                       '_$s12HealthDaemon19HDWorkoutZoneHelperCMa', '_$s12HealthDaemon19HDWorkoutZoneHelperCMn', 
                       '_$s12HealthDaemon19HDWorkoutZoneHelperCMo', '_$s12HealthDaemon19HDWorkoutZoneHelperCN', 
                       '_$s12HealthDaemon19HDWorkoutZoneHelperCfD', '_$s12HealthDaemon19JournalEntryWrapperC13OperationTypeAA018ProfileJournalableF0_pXpvgZTj', 
                       '_$s12HealthDaemon19JournalEntryWrapperC13OperationTypeAA018ProfileJournalableF0_pXpvgZTq', 
                       '_$s12HealthDaemon19JournalEntryWrapperC13OperationTypeAA018ProfileJournalableF0_pXpvpZMV', 
                       '_$s12HealthDaemon19JournalEntryWrapperC5coderACSgSo7NSCoderC_tcfC', 
                       '_$s12HealthDaemon19JournalEntryWrapperC5coderACSgSo7NSCoderC_tcfc', 
                       '_$s12HealthDaemon19JournalEntryWrapperCACycfC', '_$s12HealthDaemon19JournalEntryWrapperCACycfc', 
                       '_$s12HealthDaemon19JournalEntryWrapperCMa', '_$s12HealthDaemon19JournalEntryWrapperCMn', 
                       '_$s12HealthDaemon19JournalEntryWrapperCMo', '_$s12HealthDaemon19JournalEntryWrapperCMu', 
                       '_$s12HealthDaemon19JournalEntryWrapperCN', '_$s12HealthDaemon19JournalEntryWrapperCfD', 
                       '_$s12HealthDaemon19JournalEntryWrapperCyACxKcAA27ProfileJournalableOperationRzlufC', 
                       '_$s12HealthDaemon19JournalEntryWrapperCyACxKcAA27ProfileJournalableOperationRzlufCTj', 
                       '_$s12HealthDaemon19JournalEntryWrapperCyACxKcAA27ProfileJournalableOperationRzlufCTq', 
                       '_$s12HealthDaemon19JournalEntryWrapperCyACxKcAA27ProfileJournalableOperationRzlufc', 
                       '_$s12HealthDaemon19ObservationExecutorMp', '_$s12HealthDaemon19ObservationExecutorP13stopObserving10identifiery10Foundation4UUIDV_tFTj', 
                       '_$s12HealthDaemon19ObservationExecutorP13stopObserving10identifiery10Foundation4UUIDV_tFTq', 
                       '_$s12HealthDaemon19ObservationExecutorP14startObserving5types12eventHandler10Foundation4UUIDVShySo12HKSampleTypeCG_yALYbctFTj', 
                       '_$s12HealthDaemon19ObservationExecutorP14startObserving5types12eventHandler10Foundation4UUIDVShySo12HKSampleTypeCG_yALYbctFTq', 
                       '_$s12HealthDaemon19ObservationExecutorTL', '_$s12HealthDaemon20HDWorkoutSetMeEntityC0aB10Foundation08HDSQLiteF11SchemaSwiftAAMc', 
                       '_$s12HealthDaemon20HDWorkoutSetMeEntityC12persistentIDACs5Int64V_tcfC', 
                       '_$s12HealthDaemon20HDWorkoutSetMeEntityC12persistentIDACs5Int64V_tcfc', 
                       '_$s12HealthDaemon20HDWorkoutSetMeEntityC7columnsSaySo014HDSQLiteSchemaF0C0aB10FoundationE16ColumnDefinitionVGvgZ', 
                       '_$s12HealthDaemon20HDWorkoutSetMeEntityC7columnsSaySo014HDSQLiteSchemaF0C0aB10FoundationE16ColumnDefinitionVGvpZMV', 
                       '_$s12HealthDaemon20HDWorkoutSetMeEntityCACycfC', '_$s12HealthDaemon20HDWorkoutSetMeEntityCACycfc', 
                       '_$s12HealthDaemon20HDWorkoutSetMeEntityCMa', '_$s12HealthDaemon20HDWorkoutSetMeEntityCMn', 
                       '_$s12HealthDaemon20HDWorkoutSetMeEntityCMo', '_$s12HealthDaemon20HDWorkoutSetMeEntityCN', 
                       '_$s12HealthDaemon20HDWorkoutSetMeEntityCfD', '_$s12HealthDaemon20HDWorkoutZonesEntityC0aB10Foundation08HDSQLiteE11SchemaSwiftAAMc', 
                       '_$s12HealthDaemon20HDWorkoutZonesEntityC12persistentIDACs5Int64V_tcfC', 
                       '_$s12HealthDaemon20HDWorkoutZonesEntityC12persistentIDACs5Int64V_tcfc', 
                       '_$s12HealthDaemon20HDWorkoutZonesEntityC15insertOrReplace16workoutZoneGroup13inTransactionSayAC6RecordVG0A3Kit09HKWorkoutjK0V_So010HDDatabaseM0CtKFZTj', 
                       '_$s12HealthDaemon20HDWorkoutZonesEntityC15insertOrReplace16workoutZoneGroup13inTransactionSayAC6RecordVG0A3Kit09HKWorkoutjK0V_So010HDDatabaseM0CtKFZTq', 
                       '_$s12HealthDaemon20HDWorkoutZonesEntityC15insertOrReplace16workoutZoneGroup7ownerID10inDatabaseSayAC6RecordVG0A3Kit09HKWorkoutjK0V_s5Int64VSo08HDSQLiteO0CtKFZTj', 
                       '_$s12HealthDaemon20HDWorkoutZonesEntityC15insertOrReplace16workoutZoneGroup7ownerID10inDatabaseSayAC6RecordVG0A3Kit09HKWorkoutjK0V_s5Int64VSo08HDSQLiteO0CtKFZTq', 
                       '_$s12HealthDaemon20HDWorkoutZonesEntityC15insertOrReplace29workoutZoneGroupWrapperByType7ownerID13inTransactionySDySo010HKQuantityN0CSo09HKWorkoutjkL0CG_s5Int64VSo010HDDatabaseR0CtKFZTj', 
                       '_$s12HealthDaemon20HDWorkoutZonesEntityC15insertOrReplace29workoutZoneGroupWrapperByType7ownerID13inTransactionySDySo010HKQuantityN0CSo09HKWorkoutjkL0CG_s5Int64VSo010HDDatabaseR0CtKFZTq', 
                       '_$s12HealthDaemon20HDWorkoutZonesEntityC16workoutZoneGroup3for9ownerUUID12quantityType10inDatabase0A3Kit09HKWorkoutgH0VSgs5Int64V_10Foundation0K0VSo010HKQuantityM0CSo08HDSQLiteO0CtKFZTj', 
                       '_$s12HealthDaemon20HDWorkoutZonesEntityC16workoutZoneGroup3for9ownerUUID12quantityType10inDatabase0A3Kit09HKWorkoutgH0VSgs5Int64V_10Foundation0K0VSo010HKQuantityM0CSo08HDSQLiteO0CtKFZTq', 
                       '_$s12HealthDaemon20HDWorkoutZonesEntityC23workoutZoneGroupPerType3for9ownerUUID13inTransactionSDySo010HKQuantityJ0C0A3Kit09HKWorkoutgH0VGSgs5Int64V_10Foundation0M0VSo010HDDatabaseO0CtFZTj', 
                       '_$s12HealthDaemon20HDWorkoutZonesEntityC23workoutZoneGroupPerType3for9ownerUUID13inTransactionSDySo010HKQuantityJ0C0A3Kit09HKWorkoutgH0VGSgs5Int64V_10Foundation0M0VSo010HDDatabaseO0CtFZTq', 
                       '_$s12HealthDaemon20HDWorkoutZonesEntityC23workoutZoneGroupWrapper3for9ownerUUID12quantityType10inDatabaseSo09HKWorkoutghI0Cs5Int64V_10Foundation0L0VSo010HKQuantityN0CSo08HDSQLiteP0CtKFZTj', 
                       '_$s12HealthDaemon20HDWorkoutZonesEntityC23workoutZoneGroupWrapper3for9ownerUUID12quantityType10inDatabaseSo09HKWorkoutghI0Cs5Int64V_10Foundation0L0VSo010HKQuantityN0CSo08HDSQLiteP0CtKFZTq', 
                       '_$s12HealthDaemon20HDWorkoutZonesEntityC24persistentIDForOwnerUUID_11transactions5Int64V10Foundation0I0V_So21HDDatabaseTransactionCtKFZTj', 
                       '_$s12HealthDaemon20HDWorkoutZonesEntityC24persistentIDForOwnerUUID_11transactions5Int64V10Foundation0I0V_So21HDDatabaseTransactionCtKFZTq', 
                       '_$s12HealthDaemon20HDWorkoutZonesEntityC31workoutZoneGroupWrappersPerType3for9ownerUUID13inTransactionSDySo010HKQuantityK0CSo09HKWorkoutgH7WrapperCGSgs5Int64V_10Foundation0N0VSo010HDDatabaseP0CtFZTj', 
                       '_$s12HealthDaemon20HDWorkoutZonesEntityC31workoutZoneGroupWrappersPerType3for9ownerUUID13inTransactionSDySo010HKQuantityK0CSo09HKWorkoutgH7WrapperCGSgs5Int64V_10Foundation0N0VSo010HDDatabaseP0CtFZTq', 
                       '_$s12HealthDaemon20HDWorkoutZonesEntityC6RecordV2eeoiySbAE_AEtFZ', 
                       '_$s12HealthDaemon20HDWorkoutZonesEntityC6RecordVMa', '_$s12HealthDaemon20HDWorkoutZonesEntityC6RecordVMn', 
                       '_$s12HealthDaemon20HDWorkoutZonesEntityC6RecordVN', '_$s12HealthDaemon20HDWorkoutZonesEntityC6RecordVSQAAMc', 
                       '_$s12HealthDaemon20HDWorkoutZonesEntityC6insert4zone5index12quantityType6source7ownerID8duration8databaseAC6RecordV0A3Kit13HKWorkoutZoneV_SiSo010HKQuantityJ0CAN0rS13ConfigurationV6SourceOs5Int64VSdSo16HDSQLiteDatabaseCtKFZTj', 
                       '_$s12HealthDaemon20HDWorkoutZonesEntityC6insert4zone5index12quantityType6source7ownerID8duration8databaseAC6RecordV0A3Kit13HKWorkoutZoneV_SiSo010HKQuantityJ0CAN0rS13ConfigurationV6SourceOs5Int64VSdSo16HDSQLiteDatabaseCtKFZTq', 
                       '_$s12HealthDaemon20HDWorkoutZonesEntityC7columnsSaySo014HDSQLiteSchemaE0C0aB10FoundationE16ColumnDefinitionVGvgZ', 
                       '_$s12HealthDaemon20HDWorkoutZonesEntityC7columnsSaySo014HDSQLiteSchemaE0C0aB10FoundationE16ColumnDefinitionVGvpZMV', 
                       '_$s12HealthDaemon20HDWorkoutZonesEntityC9enumerate13withPredicate5limit10inDatabase18enumerationHandlerySo08HDSQLiteH0CSg_SiSo0nK0CSbs5Int64V_AC6RecordVtKXEtKFZTj', 
                       '_$s12HealthDaemon20HDWorkoutZonesEntityC9enumerate13withPredicate5limit10inDatabase18enumerationHandlerySo08HDSQLiteH0CSg_SiSo0nK0CSbs5Int64V_AC6RecordVtKXEtKFZTq', 
                       '_$s12HealthDaemon20HDWorkoutZonesEntityC9enumerate3for12quantityType5limit10inDatabase18enumerationHandlerys5Int64V_So010HKQuantityI0CSgSiSo08HDSQLiteL0CSbAK_AC6RecordVtKXEtKFZTj', 
                       '_$s12HealthDaemon20HDWorkoutZonesEntityC9enumerate3for12quantityType5limit10inDatabase18enumerationHandlerys5Int64V_So010HKQuantityI0CSgSiSo08HDSQLiteL0CSbAK_AC6RecordVtKXEtKFZTq', 
                       '_$s12HealthDaemon20HDWorkoutZonesEntityCACycfC', '_$s12HealthDaemon20HDWorkoutZonesEntityCACycfc', 
                       '_$s12HealthDaemon20HDWorkoutZonesEntityCMa', '_$s12HealthDaemon20HDWorkoutZonesEntityCMn', 
                       '_$s12HealthDaemon20HDWorkoutZonesEntityCMo', '_$s12HealthDaemon20HDWorkoutZonesEntityCMu', 
                       '_$s12HealthDaemon20HDWorkoutZonesEntityCN', '_$s12HealthDaemon20HDWorkoutZonesEntityCfD', 
                       '_$s12HealthDaemon20LocalStorageProviderMp', '_$s12HealthDaemon20LocalStorageProviderP0cD7CodableAC_AA010EpochBasedcD6CodingTn', 
                       '_$s12HealthDaemon20LocalStorageProviderP25fetchLocallyPersistedData0cD7CodableQzSgyKFTj', 
                       '_$s12HealthDaemon20LocalStorageProviderP25fetchLocallyPersistedData0cD7CodableQzSgyKFTq', 
                       '_$s12HealthDaemon20LocalStorageProviderP8setModelyy0cD7CodableQzKFTj', 
                       '_$s12HealthDaemon20LocalStorageProviderP8setModelyy0cD7CodableQzKFTq', 
                       '_$s12HealthDaemon20LocalStorageProviderTL', '_$s12HealthDaemon20PluginDatabaseSchemaMp', 
                       '_$s12HealthDaemon20PluginDatabaseSchemaP22registerMigrationSteps4with_ySo18HDDatabaseMigratorC_SbtFZTj', 
                       '_$s12HealthDaemon20PluginDatabaseSchemaP22registerMigrationSteps4with_ySo18HDDatabaseMigratorC_SbtFZTq', 
                       '_$s12HealthDaemon20PluginDatabaseSchemaP7VersionAC_AA0eF0Tn', 
                       '_$s12HealthDaemon20PluginDatabaseSchemaP7version4withSiSb_tFZTj', 
                       '_$s12HealthDaemon20PluginDatabaseSchemaP7version4withSiSb_tFZTq', 
                       '_$s12HealthDaemon20PluginDatabaseSchemaP8entities4withSayyXlXpGSb_tFZTj', 
                       '_$s12HealthDaemon20PluginDatabaseSchemaP8entities4withSayyXlXpGSb_tFZTq', 
                       '_$s12HealthDaemon20PluginDatabaseSchemaPAAE7version4withSiSb_tFZ', 
                       '_$s12HealthDaemon20PluginDatabaseSchemaTL', '_$s12HealthDaemon20TypeExecutorProviderMp', 
                       '_$s12HealthDaemon20TypeExecutorProviderP04typeD0AA0cD0_pvgTj', 
                       '_$s12HealthDaemon20TypeExecutorProviderP04typeD0AA0cD0_pvgTq', 
                       '_$s12HealthDaemon20TypeExecutorProviderTL', '_$s12HealthDaemon21HDCacheProviderTypeIDV2eeoiySbAC_ACtFZ', 
                       '_$s12HealthDaemon21HDCacheProviderTypeIDV4hash4intoys6HasherVz_tF', 
                       '_$s12HealthDaemon21HDCacheProviderTypeIDV9hashValueSivg', 
                       '_$s12HealthDaemon21HDCacheProviderTypeIDV9hashValueSivpMV', 
                       '_$s12HealthDaemon21HDCacheProviderTypeIDVMa', '_$s12HealthDaemon21HDCacheProviderTypeIDVMn', 
                       '_$s12HealthDaemon21HDCacheProviderTypeIDVN', '_$s12HealthDaemon21HDCacheProviderTypeIDVSHAAMc', 
                       '_$s12HealthDaemon21HDCacheProviderTypeIDVSQAAMc', '_$s12HealthDaemon21HDCacheProviderTypeIDVyACypXpcfC', 
                       '_$s12HealthDaemon21HDWorkoutZonesBuilderC13RecoveryStateV17accumulatorStatesAC012AccumulatorsfG0VSgvg', 
                       '_$s12HealthDaemon21HDWorkoutZonesBuilderC13RecoveryStateV17accumulatorStatesAC012AccumulatorsfG0VSgvpMV', 
                       '_$s12HealthDaemon21HDWorkoutZonesBuilderC13RecoveryStateV26heartRateZoneConfiguration0A3Kit09HKWorkoutjK0VSgvg', 
                       '_$s12HealthDaemon21HDWorkoutZonesBuilderC13RecoveryStateV26heartRateZoneConfiguration0A3Kit09HKWorkoutjK0VSgvpMV', 
                       '_$s12HealthDaemon21HDWorkoutZonesBuilderC13RecoveryStateV29cyclingPowerZoneConfiguration0A3Kit09HKWorkoutjK0VSgvg', 
                       '_$s12HealthDaemon21HDWorkoutZonesBuilderC13RecoveryStateV29cyclingPowerZoneConfiguration0A3Kit09HKWorkoutjK0VSgvpMV', 
                       '_$s12HealthDaemon21HDWorkoutZonesBuilderC13RecoveryStateVMa', 
                       '_$s12HealthDaemon21HDWorkoutZonesBuilderC13RecoveryStateVMn', 
                       '_$s12HealthDaemon21HDWorkoutZonesBuilderC13RecoveryStateVN', 
                       '_$s12HealthDaemon21HDWorkoutZonesBuilderC14processSamplesyySaySo0C8Quantity_pGFTj', 
                       '_$s12HealthDaemon21HDWorkoutZonesBuilderC14processSamplesyySaySo0C8Quantity_pGFTq', 
                       '_$s12HealthDaemon21HDWorkoutZonesBuilderC20currentWorkoutEventsSaySo14HKWorkoutEventCGvg', 
                       '_$s12HealthDaemon21HDWorkoutZonesBuilderC20currentWorkoutEventsSaySo14HKWorkoutEventCGvpMV', 
                       '_$s12HealthDaemon21HDWorkoutZonesBuilderC20workoutZoneDidChange3for03newG8Duration08previousgL09zoneGroup14lastSampleDateyAA0cG11AccumulatorC_0A3Kit09HKWorkoutgL0VSgAoL0ugO0V10Foundation0R0VtF', 
                       '_$s12HealthDaemon21HDWorkoutZonesBuilderC21didEndWorkoutActivityyySo09HKWorkoutI0CFTj', 
                       '_$s12HealthDaemon21HDWorkoutZonesBuilderC21didEndWorkoutActivityyySo09HKWorkoutI0CFTq', 
                       '_$s12HealthDaemon21HDWorkoutZonesBuilderC23didBeginWorkoutActivityyySo09HKWorkoutI0CFTj', 
                       '_$s12HealthDaemon21HDWorkoutZonesBuilderC23didBeginWorkoutActivityyySo09HKWorkoutI0CFTq', 
                       '_$s12HealthDaemon21HDWorkoutZonesBuilderC25AccumulatorsRecoveryStateV20accumulatorSnapshotsAESayAA0C15ZoneAccumulatorC8SnapshotVGSg_tcfC', 
                       '_$s12HealthDaemon21HDWorkoutZonesBuilderC25AccumulatorsRecoveryStateV20accumulatorSnapshotsSayAA0C15ZoneAccumulatorC8SnapshotVGSgvg', 
                       '_$s12HealthDaemon21HDWorkoutZonesBuilderC25AccumulatorsRecoveryStateV20accumulatorSnapshotsSayAA0C15ZoneAccumulatorC8SnapshotVGSgvpMV', 
                       '_$s12HealthDaemon21HDWorkoutZonesBuilderC25AccumulatorsRecoveryStateV2eeoiySbAE_AEtFZ', 
                       '_$s12HealthDaemon21HDWorkoutZonesBuilderC25AccumulatorsRecoveryStateV4fromAEs7Decoder_p_tKcfC', 
                       '_$s12HealthDaemon21HDWorkoutZonesBuilderC25AccumulatorsRecoveryStateV6encode2toys7Encoder_p_tKF', 
                       '_$s12HealthDaemon21HDWorkoutZonesBuilderC25AccumulatorsRecoveryStateVMa', 
                       '_$s12HealthDaemon21HDWorkoutZonesBuilderC25AccumulatorsRecoveryStateVMn', 
                       '_$s12HealthDaemon21HDWorkoutZonesBuilderC25AccumulatorsRecoveryStateVN', 
                       '_$s12HealthDaemon21HDWorkoutZonesBuilderC25AccumulatorsRecoveryStateVSEAAMc', 
                       '_$s12HealthDaemon21HDWorkoutZonesBuilderC25AccumulatorsRecoveryStateVSQAAMc', 
                       '_$s12HealthDaemon21HDWorkoutZonesBuilderC25AccumulatorsRecoveryStateVSeAAMc', 
                       '_$s12HealthDaemon21HDWorkoutZonesBuilderC7recover4with17currentActivitiesyAC25AccumulatorsRecoveryStateVSg_SaySo17HKWorkoutActivityCGtF', 
                       '_$s12HealthDaemon21HDWorkoutZonesBuilderC8delegate26heartRateZoneConfiguration012cyclingPoweriJ0AcA0cdE8Delegate_p_0A3Kit09HKWorkoutiJ0VSgAKtcfC', 
                       '_$s12HealthDaemon21HDWorkoutZonesBuilderC8delegate26heartRateZoneConfiguration012cyclingPoweriJ0AcA0cdE8Delegate_p_0A3Kit09HKWorkoutiJ0VSgAKtcfCTj', 
                       '_$s12HealthDaemon21HDWorkoutZonesBuilderC8delegate26heartRateZoneConfiguration012cyclingPoweriJ0AcA0cdE8Delegate_p_0A3Kit09HKWorkoutiJ0VSgAKtcfCTq', 
                       '_$s12HealthDaemon21HDWorkoutZonesBuilderC8delegate26heartRateZoneConfiguration012cyclingPoweriJ0AcA0cdE8Delegate_p_0A3Kit09HKWorkoutiJ0VSgAKtcfc', 
                       '_$s12HealthDaemon21HDWorkoutZonesBuilderCAA0C23ZoneAccumulatorDelegateAAMc', 
                       '_$s12HealthDaemon21HDWorkoutZonesBuilderCAA0C23ZoneAccumulatorDelegateAAWP', 
                       '_$s12HealthDaemon21HDWorkoutZonesBuilderCACycfC', '_$s12HealthDaemon21HDWorkoutZonesBuilderCACycfc', 
                       '_$s12HealthDaemon21HDWorkoutZonesBuilderCMa', '_$s12HealthDaemon21HDWorkoutZonesBuilderCMn', 
                       '_$s12HealthDaemon21HDWorkoutZonesBuilderCMo', '_$s12HealthDaemon21HDWorkoutZonesBuilderCMu', 
                       '_$s12HealthDaemon21HDWorkoutZonesBuilderCN', '_$s12HealthDaemon21HDWorkoutZonesBuilderCfD', 
                       '_$s12HealthDaemon22DatabaseJournalMetricsC18loggingDescriptionSSvg', 
                       '_$s12HealthDaemon22DatabaseJournalMetricsC18loggingDescriptionSSvpMV', 
                       '_$s12HealthDaemon22DatabaseJournalMetricsC3add9className4size8durationySS_SiSdtF', 
                       '_$s12HealthDaemon22DatabaseJournalMetricsCACycfC', '_$s12HealthDaemon22DatabaseJournalMetricsCACycfc', 
                       '_$s12HealthDaemon22DatabaseJournalMetricsCMa', '_$s12HealthDaemon22DatabaseJournalMetricsCMn', 
                       '_$s12HealthDaemon22DatabaseJournalMetricsCMo', '_$s12HealthDaemon22DatabaseJournalMetricsCN', 
                       '_$s12HealthDaemon22DatabaseJournalMetricsCfD', '_$s12HealthDaemon22DatabaseSchemaProviderMp', 
                       '_$s12HealthDaemon22DatabaseSchemaProviderP011unprotectedcD0AA06PlugincD0_pXpvgZTj', 
                       '_$s12HealthDaemon22DatabaseSchemaProviderP011unprotectedcD0AA06PlugincD0_pXpvgZTq', 
                       '_$s12HealthDaemon22DatabaseSchemaProviderP09protectedcD0AA06PlugincD0_pXpvgZTj', 
                       '_$s12HealthDaemon22DatabaseSchemaProviderP09protectedcD0AA06PlugincD0_pXpvgZTq', 
                       '_$s12HealthDaemon22DatabaseSchemaProviderP22futureMigrationEnabledSbvgTj', 
                       '_$s12HealthDaemon22DatabaseSchemaProviderP22futureMigrationEnabledSbvgTq', 
                       '_$s12HealthDaemon22DatabaseSchemaProviderPAAE13schemaVersion3forSiSo29HDSQLiteEntityProtectionClassV_tF', 
                       '_$s12HealthDaemon22DatabaseSchemaProviderPAAE17addMigrationSteps3for2toySo29HDSQLiteEntityProtectionClassV_So18HDDatabaseMigratorCtF', 
                       '_$s12HealthDaemon22DatabaseSchemaProviderPAAE8entities3forSayyXlXpGSo29HDSQLiteEntityProtectionClassV_tF', 
                       '_$s12HealthDaemon22DatabaseSchemaProviderTL', '_$s12HealthDaemon22HDWorkoutSetMeEqEntityC0aB10Foundation08HDSQLiteG11SchemaSwiftAAMc', 
                       '_$s12HealthDaemon22HDWorkoutSetMeEqEntityC12persistentIDACs5Int64V_tcfC', 
                       '_$s12HealthDaemon22HDWorkoutSetMeEqEntityC12persistentIDACs5Int64V_tcfc', 
                       '_$s12HealthDaemon22HDWorkoutSetMeEqEntityC7columnsSaySo014HDSQLiteSchemaG0C0aB10FoundationE16ColumnDefinitionVGvgZ', 
                       '_$s12HealthDaemon22HDWorkoutSetMeEqEntityC7columnsSaySo014HDSQLiteSchemaG0C0aB10FoundationE16ColumnDefinitionVGvpZMV', 
                       '_$s12HealthDaemon22HDWorkoutSetMeEqEntityCACycfC', '_$s12HealthDaemon22HDWorkoutSetMeEqEntityCACycfc', 
                       '_$s12HealthDaemon22HDWorkoutSetMeEqEntityCMa', '_$s12HealthDaemon22HDWorkoutSetMeEqEntityCMn', 
                       '_$s12HealthDaemon22HDWorkoutSetMeEqEntityCMo', '_$s12HealthDaemon22HDWorkoutSetMeEqEntityCN', 
                       '_$s12HealthDaemon22HDWorkoutSetMeEqEntityCfD', '_$s12HealthDaemon22SleepSessionQueryErrorO010isDatabaseF0Sbvg', 
                       '_$s12HealthDaemon22SleepSessionQueryErrorO010isDatabaseF0SbvpMV', 
                       '_$s12HealthDaemon22SleepSessionQueryErrorO018underlyingDatabaseF0So7NSErrorCSgvg', 
                       '_$s12HealthDaemon22SleepSessionQueryErrorO018underlyingDatabaseF0So7NSErrorCSgvpMV', 
                       '_$s12HealthDaemon22SleepSessionQueryErrorO023isDatabaseAccessibilityF0Sbvg', 
                       '_$s12HealthDaemon22SleepSessionQueryErrorO023isDatabaseAccessibilityF0SbvpMV', 
                       '_$s12HealthDaemon22SleepSessionQueryErrorO02nsF0So7NSErrorCSgvg', 
                       '_$s12HealthDaemon22SleepSessionQueryErrorO02nsF0So7NSErrorCSgvpMV', 
                       '_$s12HealthDaemon22SleepSessionQueryErrorO17sampleEnumerationyACSo7NSErrorCcACmFWC', 
                       '_$s12HealthDaemon22SleepSessionQueryErrorO20invalidConfigurationyA2CmFWC', 
                       '_$s12HealthDaemon22SleepSessionQueryErrorO20userSettingsPrefetchyACSo7NSErrorCcACmFWC', 
                       '_$s12HealthDaemon22SleepSessionQueryErrorO21statisticsCalculationyACSo7NSErrorCcACmFWC', 
                       '_$s12HealthDaemon22SleepSessionQueryErrorO24calculatorCreationFailedyA2CmFWC', 
                       '_$s12HealthDaemon22SleepSessionQueryErrorO2eeoiySbAC_ACtFZ', 
                       '_$s12HealthDaemon22SleepSessionQueryErrorO4hash4intoys6HasherVz_tF', 
                       '_$s12HealthDaemon22SleepSessionQueryErrorO7unknownyACSo7NSErrorCSgcACmFWC', 
                       '_$s12HealthDaemon22SleepSessionQueryErrorO9hashValueSivg', 
                       '_$s12HealthDaemon22SleepSessionQueryErrorO9hashValueSivpMV', 
                       '_$s12HealthDaemon22SleepSessionQueryErrorOMa', '_$s12HealthDaemon22SleepSessionQueryErrorOMn', 
                       '_$s12HealthDaemon22SleepSessionQueryErrorON', '_$s12HealthDaemon22SleepSessionQueryErrorOSHAAMc', 
                       '_$s12HealthDaemon22SleepSessionQueryErrorOSQAAMc', '_$s12HealthDaemon22SleepSessionQueryErrorOs0F0AAMc', 
                       '_$s12HealthDaemon23HDBQuantitySampleEntityC010isConcreteE0SbyFZ', 
                       '_$s12HealthDaemon23HDBQuantitySampleEntityC0aB10Foundation08HDSQLiteE11SchemaSwiftAAMc', 
                       '_$s12HealthDaemon23HDBQuantitySampleEntityC11foreignKeysSDySSSo08HDSQLiteE10ForeignKeyCGyFZ', 
                       '_$s12HealthDaemon23HDBQuantitySampleEntityC12persistentIDACs5Int64V_tcfC', 
                       '_$s12HealthDaemon23HDBQuantitySampleEntityC12persistentIDACs5Int64V_tcfc', 
                       '_$s12HealthDaemon23HDBQuantitySampleEntityC13databaseTableSSyFZ', 
                       '_$s12HealthDaemon23HDBQuantitySampleEntityC15isBackedByTableSbyFZ', 
                       '_$s12HealthDaemon23HDBQuantitySampleEntityC15protectionClassSo08HDSQLitee10ProtectionG0VyFZ', 
                       '_$s12HealthDaemon23HDBQuantitySampleEntityC7columnsSaySo014HDSQLiteSchemaE0C0aB10FoundationE16ColumnDefinitionVGvgZ', 
                       '_$s12HealthDaemon23HDBQuantitySampleEntityC7columnsSaySo014HDSQLiteSchemaE0C0aB10FoundationE16ColumnDefinitionVGvpZMV', 
                       '_$s12HealthDaemon23HDBQuantitySampleEntityC8PropertyO12originalUnityA2EmFWC', 
                       '_$s12HealthDaemon23HDBQuantitySampleEntityC8PropertyO14aOriginalValueyA2EmFWC', 
                       '_$s12HealthDaemon23HDBQuantitySampleEntityC8PropertyO14bOriginalValueyA2EmFWC', 
                       '_$s12HealthDaemon23HDBQuantitySampleEntityC8PropertyO6aValueyA2EmFWC', 
                       '_$s12HealthDaemon23HDBQuantitySampleEntityC8PropertyO6bValueyA2EmFWC', 
                       '_$s12HealthDaemon23HDBQuantitySampleEntityC8PropertyO8allCasesSayAEGvgZ', 
                       '_$s12HealthDaemon23HDBQuantitySampleEntityC8PropertyO8allCasesSayAEGvpZMV', 
                       '_$s12HealthDaemon23HDBQuantitySampleEntityC8PropertyO8rawValueAESgSS_tcfC', 
                       '_$s12HealthDaemon23HDBQuantitySampleEntityC8PropertyO8rawValueSSvg', 
                       '_$s12HealthDaemon23HDBQuantitySampleEntityC8PropertyO8rawValueSSvpMV', 
                       '_$s12HealthDaemon23HDBQuantitySampleEntityC8PropertyOMa', 
                       '_$s12HealthDaemon23HDBQuantitySampleEntityC8PropertyOMn', 
                       '_$s12HealthDaemon23HDBQuantitySampleEntityC8PropertyON', 
                       '_$s12HealthDaemon23HDBQuantitySampleEntityC8PropertyOSHAAMc', 
                       '_$s12HealthDaemon23HDBQuantitySampleEntityC8PropertyOSQAAMc', 
                       '_$s12HealthDaemon23HDBQuantitySampleEntityC8PropertyOSYAAMc', 
                       '_$s12HealthDaemon23HDBQuantitySampleEntityC8PropertyOs12CaseIterableAAMc', 
                       '_$s12HealthDaemon23HDBQuantitySampleEntityCACycfC', '_$s12HealthDaemon23HDBQuantitySampleEntityCACycfc', 
                       '_$s12HealthDaemon23HDBQuantitySampleEntityCMa', '_$s12HealthDaemon23HDBQuantitySampleEntityCMn', 
                       '_$s12HealthDaemon23HDBQuantitySampleEntityCMo', '_$s12HealthDaemon23HDBQuantitySampleEntityCN', 
                       '_$s12HealthDaemon23HDBQuantitySampleEntityCfD', '_$s12HealthDaemon23HDCommandLineDispatcherC10addCommand_4help5blockySS_SSSgAGSaySSGYbctFTj', 
                       '_$s12HealthDaemon23HDCommandLineDispatcherC10addCommand_4help5blockySS_SSSgAGSaySSGYbctFTq', 
                       '_$s12HealthDaemon23HDCommandLineDispatcherC11allCommandsSaySSGyFTj', 
                       '_$s12HealthDaemon23HDCommandLineDispatcherC11allCommandsSaySSGyFTq', 
                       '_$s12HealthDaemon23HDCommandLineDispatcherC18addDefaultCommands3forySo8HDDaemonC_tFTj', 
                       '_$s12HealthDaemon23HDCommandLineDispatcherC18addDefaultCommands3forySo8HDDaemonC_tFTq', 
                       '_$s12HealthDaemon23HDCommandLineDispatcherC4help3forSSSgSS_tFTj', 
                       '_$s12HealthDaemon23HDCommandLineDispatcherC4help3forSSSgSS_tFTq', 
                       '_$s12HealthDaemon23HDCommandLineDispatcherC8dispatchySSSgSSFTj', 
                       '_$s12HealthDaemon23HDCommandLineDispatcherC8dispatchySSSgSSFTq', 
                       '_$s12HealthDaemon23HDCommandLineDispatcherCACycfC', '_$s12HealthDaemon23HDCommandLineDispatcherCACycfc', 
                       '_$s12HealthDaemon23HDCommandLineDispatcherCMa', '_$s12HealthDaemon23HDCommandLineDispatcherCMn', 
                       '_$s12HealthDaemon23HDCommandLineDispatcherCMo', '_$s12HealthDaemon23HDCommandLineDispatcherCMu', 
                       '_$s12HealthDaemon23HDCommandLineDispatcherCN', '_$s12HealthDaemon23HDCommandLineDispatcherCfD', 
                       '_$s12HealthDaemon23HDSwimmingDataCollectorC016onDemandSwimmingD9DidUpdateyySayAA08HDCMSwimD0CGFTj', 
                       '_$s12HealthDaemon23HDSwimmingDataCollectorC016onDemandSwimmingD9DidUpdateyySayAA08HDCMSwimD0CGFTq', 
                       '_$s12HealthDaemon23HDSwimmingDataCollectorC018historicalSwimmingD9DidUpdate_9referenceySayAA08HDCMSwimD0CG_AGtFTj', 
                       '_$s12HealthDaemon23HDSwimmingDataCollectorC018historicalSwimmingD9DidUpdate_9referenceySayAA08HDCMSwimD0CG_AGtFTq', 
                       '_$s12HealthDaemon23HDSwimmingDataCollectorC10identifier3forSSSo16HDDataAggregatorC_tFTj', 
                       '_$s12HealthDaemon23HDSwimmingDataCollectorC10identifier3forSSSo16HDDataAggregatorC_tFTq', 
                       '_$s12HealthDaemon23HDSwimmingDataCollectorC14dataAggregator_19wantsCollectionWithySo06HDDataG0C_So0kE13ConfigurationCtFTj', 
                       '_$s12HealthDaemon23HDSwimmingDataCollectorC14dataAggregator_19wantsCollectionWithySo06HDDataG0C_So0kE13ConfigurationCtFTq', 
                       '_$s12HealthDaemon23HDSwimmingDataCollectorC14dataAggregator_29requestsCollectionThroughDate10completionySo06HDDataG0C_10Foundation0K0VySb_s5Error_pSgtctFTj', 
                       '_$s12HealthDaemon23HDSwimmingDataCollectorC14dataAggregator_29requestsCollectionThroughDate10completionySo06HDDataG0C_10Foundation0K0VySb_s5Error_pSgtctFTq', 
                       '_$s12HealthDaemon23HDSwimmingDataCollectorC15beginCollection3for24lastPersistedSensorDatumySo16HDDataAggregatorC_So011HDCollectedkL0_pSgtFTj', 
                       '_$s12HealthDaemon23HDSwimmingDataCollectorC15beginCollection3for24lastPersistedSensorDatumySo16HDDataAggregatorC_So011HDCollectedkL0_pSgtFTq', 
                       '_$s12HealthDaemon23HDSwimmingDataCollectorC16sensorDatumClass3foryXlXpSo16HDDataAggregatorC_tFTj', 
                       '_$s12HealthDaemon23HDSwimmingDataCollectorC16sensorDatumClass3foryXlXpSo16HDDataAggregatorC_tFTq', 
                       '_$s12HealthDaemon23HDSwimmingDataCollectorC6source3forSo8HKSourceCSgSo16HDDataAggregatorC_tFTj', 
                       '_$s12HealthDaemon23HDSwimmingDataCollectorC6source3forSo8HKSourceCSgSo16HDDataAggregatorC_tFTq', 
                       '_$s12HealthDaemon23HDSwimmingDataCollectorC7profile7trackerACSo9HDProfileCSg_AA13HDSwimTrackerCtcfC', 
                       '_$s12HealthDaemon23HDSwimmingDataCollectorC7profile7trackerACSo9HDProfileCSg_AA13HDSwimTrackerCtcfCTj', 
                       '_$s12HealthDaemon23HDSwimmingDataCollectorC7profile7trackerACSo9HDProfileCSg_AA13HDSwimTrackerCtcfCTq', 
                       '_$s12HealthDaemon23HDSwimmingDataCollectorC7profile7trackerACSo9HDProfileCSg_AA13HDSwimTrackerCtcfc', 
                       '_$s12HealthDaemon23HDSwimmingDataCollectorCACycfC', '_$s12HealthDaemon23HDSwimmingDataCollectorCACycfc', 
                       '_$s12HealthDaemon23HDSwimmingDataCollectorCMa', '_$s12HealthDaemon23HDSwimmingDataCollectorCMn', 
                       '_$s12HealthDaemon23HDSwimmingDataCollectorCMo', '_$s12HealthDaemon23HDSwimmingDataCollectorCMu', 
                       '_$s12HealthDaemon23HDSwimmingDataCollectorCN', '_$s12HealthDaemon23HDSwimmingDataCollectorCfD', 
                       '_$s12HealthDaemon23HDWorkoutStrengthHelperC02isD13ConfigurationySbSo09HKWorkoutG0CFZ', 
                       '_$s12HealthDaemon23HDWorkoutStrengthHelperC02isD16TrainingActivityySbSo09HKWorkoutH0CFZ', 
                       '_$s12HealthDaemon23HDWorkoutStrengthHelperC12exerciseTypeySo8NSNumberCSgSo17HKWorkoutActivityCFZ', 
                       '_$s12HealthDaemon23HDWorkoutStrengthHelperC12muscleGroupsySo5NSSetCSgSo17HKWorkoutActivityCFZ', 
                       '_$s12HealthDaemon23HDWorkoutStrengthHelperC14isRestActivityySbSo09HKWorkoutH0CFZ', 
                       '_$s12HealthDaemon23HDWorkoutStrengthHelperC23codableSetsFromActivityySaySo19HDCodableWorkoutSetCGSgSo09HKWorkoutI0CFZ', 
                       '_$s12HealthDaemon23HDWorkoutStrengthHelperC29exerciseTypeFromConfigurationySo8NSNumberCSgSo09HKWorkoutI0CFZ', 
                       '_$s12HealthDaemon23HDWorkoutStrengthHelperC29muscleGroupsFromConfigurationySo8NSNumberCSgSo09HKWorkoutI0CFZ', 
                       '_$s12HealthDaemon23HDWorkoutStrengthHelperC32allMuscleGroupsFromConfigurationySo5NSSetCSgSo09HKWorkoutJ0CFZ', 
                       '_$s12HealthDaemon23HDWorkoutStrengthHelperCACycfC', '_$s12HealthDaemon23HDWorkoutStrengthHelperCACycfc', 
                       '_$s12HealthDaemon23HDWorkoutStrengthHelperCMa', '_$s12HealthDaemon23HDWorkoutStrengthHelperCMn', 
                       '_$s12HealthDaemon23HDWorkoutStrengthHelperCMo', '_$s12HealthDaemon23HDWorkoutStrengthHelperCN', 
                       '_$s12HealthDaemon23HDWorkoutStrengthHelperCfD', '_$s12HealthDaemon24HDBatchedSampleIteratingMp', 
                       '_$s12HealthDaemon24HDBatchedSampleIteratingP9batchSizeSivgTj', 
                       '_$s12HealthDaemon24HDBatchedSampleIteratingP9batchSizeSivgTq', 
                       '_$s12HealthDaemon24HDBatchedSampleIteratingPSTTb', '_$s12HealthDaemon24HDBatchedSampleIteratingPStTb', 
                       '_$s12HealthDaemon24HDBatchedSampleIteratingTL', '_$s12HealthDaemon24HDSwimmingEventCollectorC29onDemandSwimmingDataDidUpdateyySayAA08HDCMSwimI0CGFTj', 
                       '_$s12HealthDaemon24HDSwimmingEventCollectorC29onDemandSwimmingDataDidUpdateyySayAA08HDCMSwimI0CGFTq', 
                       '_$s12HealthDaemon24HDSwimmingEventCollectorC31historicalSwimmingDataDidUpdate_9referenceySayAA08HDCMSwimH0CG_AGtFTj', 
                       '_$s12HealthDaemon24HDSwimmingEventCollectorC31historicalSwimmingDataDidUpdate_9referenceySayAA08HDCMSwimH0CG_AGtFTq', 
                       '_$s12HealthDaemon24HDSwimmingEventCollectorC7profile8delegateACSo9HDProfileC_So09HDWorkoutdE8Delegate_ptcfC', 
                       '_$s12HealthDaemon24HDSwimmingEventCollectorC7profile8delegateACSo9HDProfileC_So09HDWorkoutdE8Delegate_ptcfc', 
                       '_$s12HealthDaemon24HDSwimmingEventCollectorCACycfC', '_$s12HealthDaemon24HDSwimmingEventCollectorCACycfc', 
                       '_$s12HealthDaemon24HDSwimmingEventCollectorCMa', '_$s12HealthDaemon24HDSwimmingEventCollectorCMn', 
                       '_$s12HealthDaemon24HDSwimmingEventCollectorCMo', '_$s12HealthDaemon24HDSwimmingEventCollectorCMu', 
                       '_$s12HealthDaemon24HDSwimmingEventCollectorCN', '_$s12HealthDaemon24HDSwimmingEventCollectorCfD', 
                       '_$s12HealthDaemon24HDWorkoutZoneAccumulatorC011durationForD0ySdSg0A3Kit09HKWorkoutD0VFTj', 
                       '_$s12HealthDaemon24HDWorkoutZoneAccumulatorC011durationForD0ySdSg0A3Kit09HKWorkoutD0VFTq', 
                       '_$s12HealthDaemon24HDWorkoutZoneAccumulatorC07currentD8Duration0A3Kit09HKWorkoutdG0VSgvgTj', 
                       '_$s12HealthDaemon24HDWorkoutZoneAccumulatorC07currentD8Duration0A3Kit09HKWorkoutdG0VSgvgTq', 
                       '_$s12HealthDaemon24HDWorkoutZoneAccumulatorC07currentD8Duration0A3Kit09HKWorkoutdG0VSgvpMV', 
                       '_$s12HealthDaemon24HDWorkoutZoneAccumulatorC12activityUUID10Foundation0G0Vvg', 
                       '_$s12HealthDaemon24HDWorkoutZoneAccumulatorC12activityUUID10Foundation0G0VvpMV', 
                       '_$s12HealthDaemon24HDWorkoutZoneAccumulatorC12activityUUID13configuration0F9StartDate0f3EndJ08delegate15sampleProcessorAC10Foundation0G0V_0A3Kit09HKWorkoutD13ConfigurationVAJ0J0VAQSgAA0cdE8Delegate_pAA0cD16SampleProcessing_pSgtcfC', 
                       '_$s12HealthDaemon24HDWorkoutZoneAccumulatorC12activityUUID13configuration0F9StartDate0f3EndJ08delegate15sampleProcessorAC10Foundation0G0V_0A3Kit09HKWorkoutD13ConfigurationVAJ0J0VAQSgAA0cdE8Delegate_pAA0cD16SampleProcessing_pSgtcfCTj', 
                       '_$s12HealthDaemon24HDWorkoutZoneAccumulatorC12activityUUID13configuration0F9StartDate0f3EndJ08delegate15sampleProcessorAC10Foundation0G0V_0A3Kit09HKWorkoutD13ConfigurationVAJ0J0VAQSgAA0cdE8Delegate_pAA0cD16SampleProcessing_pSgtcfCTq', 
                       '_$s12HealthDaemon24HDWorkoutZoneAccumulatorC12activityUUID13configuration0F9StartDate0f3EndJ08delegate15sampleProcessorAC10Foundation0G0V_0A3Kit09HKWorkoutD13ConfigurationVAJ0J0VAQSgAA0cdE8Delegate_pAA0cD16SampleProcessing_pSgtcfc', 
                       '_$s12HealthDaemon24HDWorkoutZoneAccumulatorC12quantityTypeSo010HKQuantityG0CvgTj', 
                       '_$s12HealthDaemon24HDWorkoutZoneAccumulatorC12quantityTypeSo010HKQuantityG0CvgTq', 
                       '_$s12HealthDaemon24HDWorkoutZoneAccumulatorC12quantityTypeSo010HKQuantityG0CvpMV', 
                       '_$s12HealthDaemon24HDWorkoutZoneAccumulatorC13configuration0A3Kit09HKWorkoutD13ConfigurationVvg', 
                       '_$s12HealthDaemon24HDWorkoutZoneAccumulatorC13configuration0A3Kit09HKWorkoutD13ConfigurationVvpMV', 
                       '_$s12HealthDaemon24HDWorkoutZoneAccumulatorC13zoneDurationsSay0A3Kit09HKWorkoutD8DurationVGvgTj', 
                       '_$s12HealthDaemon24HDWorkoutZoneAccumulatorC13zoneDurationsSay0A3Kit09HKWorkoutD8DurationVGvgTq', 
                       '_$s12HealthDaemon24HDWorkoutZoneAccumulatorC13zoneDurationsSay0A3Kit09HKWorkoutD8DurationVGvpMV', 
                       '_$s12HealthDaemon24HDWorkoutZoneAccumulatorC14processSamplesyAC8SnapshotVSgSaySo0C8Quantity_pGFTj', 
                       '_$s12HealthDaemon24HDWorkoutZoneAccumulatorC14processSamplesyAC8SnapshotVSgSaySo0C8Quantity_pGFTq', 
                       '_$s12HealthDaemon24HDWorkoutZoneAccumulatorC17activityStartDate10Foundation0H0Vvg', 
                       '_$s12HealthDaemon24HDWorkoutZoneAccumulatorC17activityStartDate10Foundation0H0VvpMV', 
                       '_$s12HealthDaemon24HDWorkoutZoneAccumulatorC4stop15activityEndDatey10Foundation0I0VSg_tFTj', 
                       '_$s12HealthDaemon24HDWorkoutZoneAccumulatorC4stop15activityEndDatey10Foundation0I0VSg_tFTq', 
                       '_$s12HealthDaemon24HDWorkoutZoneAccumulatorC5reset4withyAC8SnapshotV_tF', 
                       '_$s12HealthDaemon24HDWorkoutZoneAccumulatorC5zonesSay0A3Kit09HKWorkoutD0VGvgTj', 
                       '_$s12HealthDaemon24HDWorkoutZoneAccumulatorC5zonesSay0A3Kit09HKWorkoutD0VGvgTq', 
                       '_$s12HealthDaemon24HDWorkoutZoneAccumulatorC5zonesSay0A3Kit09HKWorkoutD0VGvpMV', 
                       '_$s12HealthDaemon24HDWorkoutZoneAccumulatorC8SnapshotV014zoneDurationByD0SDy0A3Kit09HKWorkoutD0VAG0kdH0VGvg', 
                       '_$s12HealthDaemon24HDWorkoutZoneAccumulatorC8SnapshotV014zoneDurationByD0SDy0A3Kit09HKWorkoutD0VAG0kdH0VGvpMV', 
                       '_$s12HealthDaemon24HDWorkoutZoneAccumulatorC8SnapshotV06activeD9StartDate10Foundation0I0VSgvg', 
                       '_$s12HealthDaemon24HDWorkoutZoneAccumulatorC8SnapshotV06activeD9StartDate10Foundation0I0VSgvpMV', 
                       '_$s12HealthDaemon24HDWorkoutZoneAccumulatorC8SnapshotV07currentD00A3Kit09HKWorkoutD0VSgvg', 
                       '_$s12HealthDaemon24HDWorkoutZoneAccumulatorC8SnapshotV07currentD00A3Kit09HKWorkoutD0VSgvpMV', 
                       '_$s12HealthDaemon24HDWorkoutZoneAccumulatorC8SnapshotV12activityUUID10Foundation0H0Vvg', 
                       '_$s12HealthDaemon24HDWorkoutZoneAccumulatorC8SnapshotV12activityUUID10Foundation0H0VvpMV', 
                       '_$s12HealthDaemon24HDWorkoutZoneAccumulatorC8SnapshotV13configuration0A3Kit09HKWorkoutD13ConfigurationVvg', 
                       '_$s12HealthDaemon24HDWorkoutZoneAccumulatorC8SnapshotV13configuration0A3Kit09HKWorkoutD13ConfigurationVvpMV', 
                       '_$s12HealthDaemon24HDWorkoutZoneAccumulatorC8SnapshotV13configuration12activityUUID0H9StartDate014zoneDurationByD007currentD0019lastProcessedSampleK00pq5EventK006activedjK00p6ResumeK08isPaused0h3EndK0AE0A3Kit09HKWorkoutD13ConfigurationV_10Foundation0I0VAT0K0VSDyAQ0zD0VAQ0zdM0VGAZSgAXSgA3_A3_A3_SbA3_tcfC', 
                       '_$s12HealthDaemon24HDWorkoutZoneAccumulatorC8SnapshotV14lastResumeDate10Foundation0I0VSgvg', 
                       '_$s12HealthDaemon24HDWorkoutZoneAccumulatorC8SnapshotV14lastResumeDate10Foundation0I0VSgvpMV', 
                       '_$s12HealthDaemon24HDWorkoutZoneAccumulatorC8SnapshotV15activityEndDate10Foundation0I0VSgvg', 
                       '_$s12HealthDaemon24HDWorkoutZoneAccumulatorC8SnapshotV15activityEndDate10Foundation0I0VSgvpMV', 
                       '_$s12HealthDaemon24HDWorkoutZoneAccumulatorC8SnapshotV17activityStartDate10Foundation0I0Vvg', 
                       '_$s12HealthDaemon24HDWorkoutZoneAccumulatorC8SnapshotV17activityStartDate10Foundation0I0VvpMV', 
                       '_$s12HealthDaemon24HDWorkoutZoneAccumulatorC8SnapshotV22lastProcessedEventDate10Foundation0J0VSgvg', 
                       '_$s12HealthDaemon24HDWorkoutZoneAccumulatorC8SnapshotV22lastProcessedEventDate10Foundation0J0VSgvpMV', 
                       '_$s12HealthDaemon24HDWorkoutZoneAccumulatorC8SnapshotV23lastProcessedSampleDate10Foundation0J0VSgvg', 
                       '_$s12HealthDaemon24HDWorkoutZoneAccumulatorC8SnapshotV23lastProcessedSampleDate10Foundation0J0VSgvpMV', 
                       '_$s12HealthDaemon24HDWorkoutZoneAccumulatorC8SnapshotV2eeoiySbAE_AEtFZ', 
                       '_$s12HealthDaemon24HDWorkoutZoneAccumulatorC8SnapshotV4fromAEs7Decoder_p_tKcfC', 
                       '_$s12HealthDaemon24HDWorkoutZoneAccumulatorC8SnapshotV6encode2toys7Encoder_p_tKF', 
                       '_$s12HealthDaemon24HDWorkoutZoneAccumulatorC8SnapshotV8isPausedSbvg', 
                       '_$s12HealthDaemon24HDWorkoutZoneAccumulatorC8SnapshotV8isPausedSbvpMV', 
                       '_$s12HealthDaemon24HDWorkoutZoneAccumulatorC8SnapshotVMa', 
                       '_$s12HealthDaemon24HDWorkoutZoneAccumulatorC8SnapshotVMn', 
                       '_$s12HealthDaemon24HDWorkoutZoneAccumulatorC8SnapshotVN', 
                       '_$s12HealthDaemon24HDWorkoutZoneAccumulatorC8SnapshotVSEAAMc', 
                       '_$s12HealthDaemon24HDWorkoutZoneAccumulatorC8SnapshotVSQAAMc', 
                       '_$s12HealthDaemon24HDWorkoutZoneAccumulatorC8SnapshotVSeAAMc', 
                       '_$s12HealthDaemon24HDWorkoutZoneAccumulatorCACycfC', '_$s12HealthDaemon24HDWorkoutZoneAccumulatorCACycfc', 
                       '_$s12HealthDaemon24HDWorkoutZoneAccumulatorCMa', '_$s12HealthDaemon24HDWorkoutZoneAccumulatorCMn', 
                       '_$s12HealthDaemon24HDWorkoutZoneAccumulatorCMo', '_$s12HealthDaemon24HDWorkoutZoneAccumulatorCMu', 
                       '_$s12HealthDaemon24HDWorkoutZoneAccumulatorCN', '_$s12HealthDaemon24HDWorkoutZoneAccumulatorCfD', 
                       '_$s12HealthDaemon25HDWorkoutBuilderSetEntityC12persistentIDACs5Int64V_tcfC', 
                       '_$s12HealthDaemon25HDWorkoutBuilderSetEntityC12persistentIDACs5Int64V_tcfc', 
                       '_$s12HealthDaemon25HDWorkoutBuilderSetEntityCACycfC', '_$s12HealthDaemon25HDWorkoutBuilderSetEntityCACycfc', 
                       '_$s12HealthDaemon25HDWorkoutBuilderSetEntityCMa', '_$s12HealthDaemon25HDWorkoutBuilderSetEntityCMn', 
                       '_$s12HealthDaemon25HDWorkoutBuilderSetEntityCMo', '_$s12HealthDaemon25HDWorkoutBuilderSetEntityCN', 
                       '_$s12HealthDaemon25HDWorkoutBuilderSetEntityCfD', '_$s12HealthDaemon25SleepDaySummaryEnumeratorC11descriptionSSvgTj', 
                       '_$s12HealthDaemon25SleepDaySummaryEnumeratorC11descriptionSSvgTq', 
                       '_$s12HealthDaemon25SleepDaySummaryEnumeratorC11descriptionSSvpMV', 
                       '_$s12HealthDaemon25SleepDaySummaryEnumeratorC12makeIterators03AnyH0Vys6ResultOy0A3Kit0cdE0VAA0C17SessionQueryErrorOGGyFTj', 
                       '_$s12HealthDaemon25SleepDaySummaryEnumeratorC12makeIterators03AnyH0Vys6ResultOy0A3Kit0cdE0VAA0C17SessionQueryErrorOGGyFTq', 
                       '_$s12HealthDaemon25SleepDaySummaryEnumeratorC7profile5range13configuration7debugIDACSo9HDProfileC_SNy0A3Kit0cD0VGAJ0cdE0V18QueryConfigurationVSStcfC', 
                       '_$s12HealthDaemon25SleepDaySummaryEnumeratorCMa', '_$s12HealthDaemon25SleepDaySummaryEnumeratorCMm', 
                       '_$s12HealthDaemon25SleepDaySummaryEnumeratorCMn', '_$s12HealthDaemon25SleepDaySummaryEnumeratorCMo', 
                       '_$s12HealthDaemon25SleepDaySummaryEnumeratorCMu', '_$s12HealthDaemon25SleepDaySummaryEnumeratorCN', 
                       '_$s12HealthDaemon25SleepDaySummaryEnumeratorCSTAAMc', '_$s12HealthDaemon25SleepDaySummaryEnumeratorCfD', 
                       '_$s12HealthDaemon25SleepDaySummaryEnumeratorCfd', '_$s12HealthDaemon25SleepDaySummaryEnumeratorCs23CustomStringConvertibleAAMc', 
                       '_$s12HealthDaemon26HDUnsmoothedLocationEntityC06insertD4Data_14healthDatabaseySaySo10CLLocationCG_So08HDHealthI0_ptKFZTj', 
                       '_$s12HealthDaemon26HDUnsmoothedLocationEntityC06insertD4Data_14healthDatabaseySaySo10CLLocationCG_So08HDHealthI0_ptKFZTq', 
                       '_$s12HealthDaemon26HDUnsmoothedLocationEntityC0aB10Foundation08HDSQLiteE11SchemaSwiftAAMc', 
                       '_$s12HealthDaemon26HDUnsmoothedLocationEntityC12persistentIDACs5Int64V_tcfC', 
                       '_$s12HealthDaemon26HDUnsmoothedLocationEntityC12persistentIDACs5Int64V_tcfc', 
                       '_$s12HealthDaemon26HDUnsmoothedLocationEntityC15deleteLocations6before14healthDatabasey10Foundation4DateV_So08HDHealthJ0_ptKFZTj', 
                       '_$s12HealthDaemon26HDUnsmoothedLocationEntityC15deleteLocations6before14healthDatabasey10Foundation4DateV_So08HDHealthJ0_ptKFZTq', 
                       '_$s12HealthDaemon26HDUnsmoothedLocationEntityC18deleteAllLocations14healthDatabaseySo08HDHealthJ0_p_tKFZTj', 
                       '_$s12HealthDaemon26HDUnsmoothedLocationEntityC18deleteAllLocations14healthDatabaseySo08HDHealthJ0_p_tKFZTq', 
                       '_$s12HealthDaemon26HDUnsmoothedLocationEntityC24fetchUnsmoothedLocations9startDate03endJ014healthDatabaseSaySo10CLLocationCG10Foundation0J0V_AMSo08HDHealthM0_ptKFZTj', 
                       '_$s12HealthDaemon26HDUnsmoothedLocationEntityC24fetchUnsmoothedLocations9startDate03endJ014healthDatabaseSaySo10CLLocationCG10Foundation0J0V_AMSo08HDHealthM0_ptKFZTq', 
                       '_$s12HealthDaemon26HDUnsmoothedLocationEntityC27fetchAllUnsmoothedLocations14healthDatabaseSaySo10CLLocationCGSo08HDHealthK0_p_tKFZTj', 
                       '_$s12HealthDaemon26HDUnsmoothedLocationEntityC27fetchAllUnsmoothedLocations14healthDatabaseSaySo10CLLocationCGSo08HDHealthK0_p_tKFZTq', 
                       '_$s12HealthDaemon26HDUnsmoothedLocationEntityC7columnsSaySo014HDSQLiteSchemaE0C0aB10FoundationE16ColumnDefinitionVGvgZ', 
                       '_$s12HealthDaemon26HDUnsmoothedLocationEntityC7columnsSaySo014HDSQLiteSchemaE0C0aB10FoundationE16ColumnDefinitionVGvpZMV', 
                       '_$s12HealthDaemon26HDUnsmoothedLocationEntityC8PropertyO13speedAccuracyyA2EmFWC', 
                       '_$s12HealthDaemon26HDUnsmoothedLocationEntityC8PropertyO14courseAccuracyyA2EmFWC', 
                       '_$s12HealthDaemon26HDUnsmoothedLocationEntityC8PropertyO16verticalAccuracyyA2EmFWC', 
                       '_$s12HealthDaemon26HDUnsmoothedLocationEntityC8PropertyO17signalEnvironmentyA2EmFWC', 
                       '_$s12HealthDaemon26HDUnsmoothedLocationEntityC8PropertyO18horizontalAccuracyyA2EmFWC', 
                       '_$s12HealthDaemon26HDUnsmoothedLocationEntityC8PropertyO5speedyA2EmFWC', 
                       '_$s12HealthDaemon26HDUnsmoothedLocationEntityC8PropertyO6courseyA2EmFWC', 
                       '_$s12HealthDaemon26HDUnsmoothedLocationEntityC8PropertyO8allCasesSayAEGvgZ', 
                       '_$s12HealthDaemon26HDUnsmoothedLocationEntityC8PropertyO8allCasesSayAEGvpZMV', 
                       '_$s12HealthDaemon26HDUnsmoothedLocationEntityC8PropertyO8altitudeyA2EmFWC', 
                       '_$s12HealthDaemon26HDUnsmoothedLocationEntityC8PropertyO8latitudeyA2EmFWC', 
                       '_$s12HealthDaemon26HDUnsmoothedLocationEntityC8PropertyO8rawValueAESgSS_tcfC', 
                       '_$s12HealthDaemon26HDUnsmoothedLocationEntityC8PropertyO8rawValueSSvg', 
                       '_$s12HealthDaemon26HDUnsmoothedLocationEntityC8PropertyO8rawValueSSvpMV', 
                       '_$s12HealthDaemon26HDUnsmoothedLocationEntityC8PropertyO9longitudeyA2EmFWC', 
                       '_$s12HealthDaemon26HDUnsmoothedLocationEntityC8PropertyO9timestampyA2EmFWC', 
                       '_$s12HealthDaemon26HDUnsmoothedLocationEntityC8PropertyOMa', 
                       '_$s12HealthDaemon26HDUnsmoothedLocationEntityC8PropertyOMn', 
                       '_$s12HealthDaemon26HDUnsmoothedLocationEntityC8PropertyON', 
                       '_$s12HealthDaemon26HDUnsmoothedLocationEntityC8PropertyOSHAAMc', 
                       '_$s12HealthDaemon26HDUnsmoothedLocationEntityC8PropertyOSQAAMc', 
                       '_$s12HealthDaemon26HDUnsmoothedLocationEntityC8PropertyOSYAAMc', 
                       '_$s12HealthDaemon26HDUnsmoothedLocationEntityC8PropertyOs12CaseIterableAAMc', 
                       '_$s12HealthDaemon26HDUnsmoothedLocationEntityCACycfC', '_$s12HealthDaemon26HDUnsmoothedLocationEntityCACycfc', 
                       '_$s12HealthDaemon26HDUnsmoothedLocationEntityCMa', '_$s12HealthDaemon26HDUnsmoothedLocationEntityCMn', 
                       '_$s12HealthDaemon26HDUnsmoothedLocationEntityCMo', '_$s12HealthDaemon26HDUnsmoothedLocationEntityCMu', 
                       '_$s12HealthDaemon26HDUnsmoothedLocationEntityCN', '_$s12HealthDaemon26HDUnsmoothedLocationEntityCfD', 
                       '_$s12HealthDaemon26RecentSleepDaySummaryCacheO0G5EntryV11descriptionSSvg', 
                       '_$s12HealthDaemon26RecentSleepDaySummaryCacheO0G5EntryV11descriptionSSvpMV', 
                       '_$s12HealthDaemon26RecentSleepDaySummaryCacheO0G5EntryV2eeoiySbAE_AEtFZ', 
                       '_$s12HealthDaemon26RecentSleepDaySummaryCacheO0G5EntryV4fromAEs7Decoder_p_tKcfC', 
                       '_$s12HealthDaemon26RecentSleepDaySummaryCacheO0G5EntryV4hash4intoys6HasherVz_tF', 
                       '_$s12HealthDaemon26RecentSleepDaySummaryCacheO0G5EntryV6encode2toys7Encoder_p_tKF', 
                       '_$s12HealthDaemon26RecentSleepDaySummaryCacheO0G5EntryV9hashValueSivg', 
                       '_$s12HealthDaemon26RecentSleepDaySummaryCacheO0G5EntryV9hashValueSivpMV', 
                       '_$s12HealthDaemon26RecentSleepDaySummaryCacheO0G5EntryVMa', 
                       '_$s12HealthDaemon26RecentSleepDaySummaryCacheO0G5EntryVMn', 
                       '_$s12HealthDaemon26RecentSleepDaySummaryCacheO0G5EntryVN', 
                       '_$s12HealthDaemon26RecentSleepDaySummaryCacheO0G5EntryVSEAAMc', 
                       '_$s12HealthDaemon26RecentSleepDaySummaryCacheO0G5EntryVSHAAMc', 
                       '_$s12HealthDaemon26RecentSleepDaySummaryCacheO0G5EntryVSQAAMc', 
                       '_$s12HealthDaemon26RecentSleepDaySummaryCacheO0G5EntryVSeAAMc', 
                       '_$s12HealthDaemon26RecentSleepDaySummaryCacheO0G5EntryVs23CustomStringConvertibleAAMc', 
                       '_$s12HealthDaemon26RecentSleepDaySummaryCacheO9QueryPlanV11descriptionSSvg', 
                       '_$s12HealthDaemon26RecentSleepDaySummaryCacheO9QueryPlanV11descriptionSSvpMV', 
                       '_$s12HealthDaemon26RecentSleepDaySummaryCacheO9QueryPlanV13CreationErrorO019cacheEntryRetrievalK0yA2GmFWC', 
                       '_$s12HealthDaemon26RecentSleepDaySummaryCacheO9QueryPlanV13CreationErrorO08databasehK0yAGSo7NSErrorCcAGmFWC', 
                       '_$s12HealthDaemon26RecentSleepDaySummaryCacheO9QueryPlanV13CreationErrorO24missingProtectedDatabaseyA2GmFWC', 
                       '_$s12HealthDaemon26RecentSleepDaySummaryCacheO9QueryPlanV13CreationErrorO25incompatibleConfigurationyA2GmFWC', 
                       '_$s12HealthDaemon26RecentSleepDaySummaryCacheO9QueryPlanV13CreationErrorO2eeoiySbAG_AGtFZ', 
                       '_$s12HealthDaemon26RecentSleepDaySummaryCacheO9QueryPlanV13CreationErrorOMa', 
                       '_$s12HealthDaemon26RecentSleepDaySummaryCacheO9QueryPlanV13CreationErrorOMn', 
                       '_$s12HealthDaemon26RecentSleepDaySummaryCacheO9QueryPlanV13CreationErrorON', 
                       '_$s12HealthDaemon26RecentSleepDaySummaryCacheO9QueryPlanV13CreationErrorOSQAAMc', 
                       '_$s12HealthDaemon26RecentSleepDaySummaryCacheO9QueryPlanV13CreationErrorOs0K0AAMc', 
                       '_$s12HealthDaemon26RecentSleepDaySummaryCacheO9QueryPlanVMa', 
                       '_$s12HealthDaemon26RecentSleepDaySummaryCacheO9QueryPlanVMn', 
                       '_$s12HealthDaemon26RecentSleepDaySummaryCacheO9QueryPlanVN', 
                       '_$s12HealthDaemon26RecentSleepDaySummaryCacheO9QueryPlanVs23CustomStringConvertibleAAMc', 
                       '_$s12HealthDaemon26RecentSleepDaySummaryCacheOMa', '_$s12HealthDaemon26RecentSleepDaySummaryCacheOMn', 
                       '_$s12HealthDaemon26RecentSleepDaySummaryCacheON', '_$s12HealthDaemon26SampleObservationEvaluatorC10sampleTypeACSo08HKSampleG0C_tcfC', 
                       '_$s12HealthDaemon26SampleObservationEvaluatorC10sampleTypeACSo08HKSampleG0C_tcfCTj', 
                       '_$s12HealthDaemon26SampleObservationEvaluatorC10sampleTypeACSo08HKSampleG0C_tcfCTq', 
                       '_$s12HealthDaemon26SampleObservationEvaluatorC10sampleTypeACSo08HKSampleG0C_tcfc', 
                       '_$s12HealthDaemon26SampleObservationEvaluatorC5state15Synchronization5MutexVyAA0cD12StateStorageVGvr', 
                       '_$s12HealthDaemon26SampleObservationEvaluatorC6cancelyyF', 
                       '_$s12HealthDaemon26SampleObservationEvaluatorC7observe13configuration7profile12eventHandlery0A3Kit18EmptyConfigurationV_So9HDProfileCys6ResultOyyts5Error_pGYbctF', 
                       '_$s12HealthDaemon26SampleObservationEvaluatorCAA010Observablea4TypeE0AAMc', 
                       '_$s12HealthDaemon26SampleObservationEvaluatorCAA010Observablea4TypeE0AAWP', 
                       '_$s12HealthDaemon26SampleObservationEvaluatorCAA0a4TypeE0AAMc', 
                       '_$s12HealthDaemon26SampleObservationEvaluatorCAA0a4TypeE0AAWP', 
                       '_$s12HealthDaemon26SampleObservationEvaluatorCMa', '_$s12HealthDaemon26SampleObservationEvaluatorCMm', 
                       '_$s12HealthDaemon26SampleObservationEvaluatorCMn', '_$s12HealthDaemon26SampleObservationEvaluatorCMo', 
                       '_$s12HealthDaemon26SampleObservationEvaluatorCMu', '_$s12HealthDaemon26SampleObservationEvaluatorCN', 
                       '_$s12HealthDaemon26SampleObservationEvaluatorCfD', '_$s12HealthDaemon26SampleObservationEvaluatorCfd', 
                       '_$s12HealthDaemon27DerivedObservationEvaluatorC13observedTypesACSay0A3Kit010ObservableA4Type_pAE18EmptyConfigurationV0dL4KindAeFPRts_XPG_tcfC', 
                       '_$s12HealthDaemon27DerivedObservationEvaluatorC13observedTypesACSay0A3Kit010ObservableA4Type_pAE18EmptyConfigurationV0dL4KindAeFPRts_XPG_tcfCTj', 
                       '_$s12HealthDaemon27DerivedObservationEvaluatorC13observedTypesACSay0A3Kit010ObservableA4Type_pAE18EmptyConfigurationV0dL4KindAeFPRts_XPG_tcfCTq', 
                       '_$s12HealthDaemon27DerivedObservationEvaluatorC13observedTypesACSay0A3Kit010ObservableA4Type_pAE18EmptyConfigurationV0dL4KindAeFPRts_XPG_tcfc', 
                       '_$s12HealthDaemon27DerivedObservationEvaluatorC5state15Synchronization5MutexVyAA0cD12StateStorageVGvr', 
                       '_$s12HealthDaemon27DerivedObservationEvaluatorC6cancelyyF', 
                       '_$s12HealthDaemon27DerivedObservationEvaluatorC7observe13configuration7profile12eventHandlery0A3Kit18EmptyConfigurationV_So9HDProfileCys6ResultOyyts5Error_pGYbctF', 
                       '_$s12HealthDaemon27DerivedObservationEvaluatorCAA010Observablea4TypeE0AAMc', 
                       '_$s12HealthDaemon27DerivedObservationEvaluatorCAA010Observablea4TypeE0AAWP', 
                       '_$s12HealthDaemon27DerivedObservationEvaluatorCAA0a4TypeE0AAMc', 
                       '_$s12HealthDaemon27DerivedObservationEvaluatorCAA0a4TypeE0AAWP', 
                       '_$s12HealthDaemon27DerivedObservationEvaluatorCMa', '_$s12HealthDaemon27DerivedObservationEvaluatorCMm', 
                       '_$s12HealthDaemon27DerivedObservationEvaluatorCMn', '_$s12HealthDaemon27DerivedObservationEvaluatorCMo', 
                       '_$s12HealthDaemon27DerivedObservationEvaluatorCMu', '_$s12HealthDaemon27DerivedObservationEvaluatorCN', 
                       '_$s12HealthDaemon27DerivedObservationEvaluatorCfD', '_$s12HealthDaemon27DerivedObservationEvaluatorCfd', 
                       '_$s12HealthDaemon27HDPreferredWorkoutZoneStoreC012cyclingPowerdE13Configuration0A3Kit09HKCyclingh5ZonesI0VyKF', 
                       '_$s12HealthDaemon27HDPreferredWorkoutZoneStoreC012cyclingPowerdE20ConfigurationWrapper3forSo09HKCyclingh5ZonesiJ0CSgSo9HDProfileC_tYaKFZ', 
                       '_$s12HealthDaemon27HDPreferredWorkoutZoneStoreC012cyclingPowerdE20ConfigurationWrapper3forSo09HKCyclingh5ZonesiJ0CSgSo9HDProfileC_tYaKFZTu', 
                       '_$s12HealthDaemon27HDPreferredWorkoutZoneStoreC015setCyclingPowerdE13Configuration3for7wrapperySo9HDProfileC_So09HKCyclingi5ZonesJ7WrapperCtKFZ', 
                       '_$s12HealthDaemon27HDPreferredWorkoutZoneStoreC015setCyclingPowerdE13Configuration_6reasony0A3Kit09HKCyclingi5ZonesJ0V_SStKF', 
                       '_$s12HealthDaemon27HDPreferredWorkoutZoneStoreC015systemHeartRateE13Configuration9zoneCount07maximumhI007restinghI00A3Kit09HKWorkouteJ0VSi_So10HKQuantityCALtKFZ', 
                       '_$s12HealthDaemon27HDPreferredWorkoutZoneStoreC021setPreferredHeartRateE19ConfigurationSource3for12sourceStringySo9HDProfileC_SStYaKFZ', 
                       '_$s12HealthDaemon27HDPreferredWorkoutZoneStoreC021setPreferredHeartRateE19ConfigurationSource3for12sourceStringySo9HDProfileC_SStYaKFZTu', 
                       '_$s12HealthDaemon27HDPreferredWorkoutZoneStoreC09heartRateE15SettingsWrapper3forSo09HKWorkoute5Hearth13ConfigurationiJ0CSo9HDProfileC_tYaKFZ', 
                       '_$s12HealthDaemon27HDPreferredWorkoutZoneStoreC09heartRateE15SettingsWrapper3forSo09HKWorkoute5Hearth13ConfigurationiJ0CSo9HDProfileC_tYaKFZTu', 
                       '_$s12HealthDaemon27HDPreferredWorkoutZoneStoreC09preferreddE13Configuration3for0A3Kit09HKWorkouteH0VSgSo14HKQuantityTypeC_tKFTj', 
                       '_$s12HealthDaemon27HDPreferredWorkoutZoneStoreC09preferreddE13Configuration3for0A3Kit09HKWorkouteH0VSgSo14HKQuantityTypeC_tKFTq', 
                       '_$s12HealthDaemon27HDPreferredWorkoutZoneStoreC09preferreddE13Configuration3for12quantityType0A3Kit09HKWorkouteH0VSgSo9HDProfileC_So010HKQuantityK0CtKFZTj', 
                       '_$s12HealthDaemon27HDPreferredWorkoutZoneStoreC09preferreddE13Configuration3for12quantityType0A3Kit09HKWorkouteH0VSgSo9HDProfileC_So010HKQuantityK0CtKFZTq', 
                       '_$s12HealthDaemon27HDPreferredWorkoutZoneStoreC09preferreddE20ConfigurationWrapper3for12quantityTypeSo09HKWorkoutehI0CSgSo9HDProfileC_So010HKQuantityL0CtYaKFZTj', 
                       '_$s12HealthDaemon27HDPreferredWorkoutZoneStoreC09preferreddE20ConfigurationWrapper3for12quantityTypeSo09HKWorkoutehI0CSgSo9HDProfileC_So010HKQuantityL0CtYaKFZTjTu', 
                       '_$s12HealthDaemon27HDPreferredWorkoutZoneStoreC09preferreddE20ConfigurationWrapper3for12quantityTypeSo09HKWorkoutehI0CSgSo9HDProfileC_So010HKQuantityL0CtYaKFZTq', 
                       '_$s12HealthDaemon27HDPreferredWorkoutZoneStoreC15HeartRateSampleC05heartH015computationDateAESo10HKQuantityC_10Foundation0L0VtcfC', 
                       '_$s12HealthDaemon27HDPreferredWorkoutZoneStoreC15HeartRateSampleC05heartH015computationDateAESo10HKQuantityC_10Foundation0L0VtcfCTj', 
                       '_$s12HealthDaemon27HDPreferredWorkoutZoneStoreC15HeartRateSampleC05heartH015computationDateAESo10HKQuantityC_10Foundation0L0VtcfCTq', 
                       '_$s12HealthDaemon27HDPreferredWorkoutZoneStoreC15HeartRateSampleC05heartH015computationDateAESo10HKQuantityC_10Foundation0L0Vtcfc', 
                       '_$s12HealthDaemon27HDPreferredWorkoutZoneStoreC15HeartRateSampleC4fromAEs7Decoder_p_tKcfC', 
                       '_$s12HealthDaemon27HDPreferredWorkoutZoneStoreC15HeartRateSampleC4fromAEs7Decoder_p_tKcfCTj', 
                       '_$s12HealthDaemon27HDPreferredWorkoutZoneStoreC15HeartRateSampleC4fromAEs7Decoder_p_tKcfCTq', 
                       '_$s12HealthDaemon27HDPreferredWorkoutZoneStoreC15HeartRateSampleC4fromAEs7Decoder_p_tKcfc', 
                       '_$s12HealthDaemon27HDPreferredWorkoutZoneStoreC15HeartRateSampleC6encode2toys7Encoder_p_tKFTj', 
                       '_$s12HealthDaemon27HDPreferredWorkoutZoneStoreC15HeartRateSampleC6encode2toys7Encoder_p_tKFTq', 
                       '_$s12HealthDaemon27HDPreferredWorkoutZoneStoreC15HeartRateSampleC9serialize10Foundation4DataVyKFTj', 
                       '_$s12HealthDaemon27HDPreferredWorkoutZoneStoreC15HeartRateSampleC9serialize10Foundation4DataVyKFTq', 
                       '_$s12HealthDaemon27HDPreferredWorkoutZoneStoreC15HeartRateSampleCMa', 
                       '_$s12HealthDaemon27HDPreferredWorkoutZoneStoreC15HeartRateSampleCMm', 
                       '_$s12HealthDaemon27HDPreferredWorkoutZoneStoreC15HeartRateSampleCMn', 
                       '_$s12HealthDaemon27HDPreferredWorkoutZoneStoreC15HeartRateSampleCMo', 
                       '_$s12HealthDaemon27HDPreferredWorkoutZoneStoreC15HeartRateSampleCMu', 
                       '_$s12HealthDaemon27HDPreferredWorkoutZoneStoreC15HeartRateSampleCN', 
                       '_$s12HealthDaemon27HDPreferredWorkoutZoneStoreC15HeartRateSampleCSEAAMc', 
                       '_$s12HealthDaemon27HDPreferredWorkoutZoneStoreC15HeartRateSampleCSeAAMc', 
                       '_$s12HealthDaemon27HDPreferredWorkoutZoneStoreC15HeartRateSampleCfD', 
                       '_$s12HealthDaemon27HDPreferredWorkoutZoneStoreC15HeartRateSampleCfd', 
                       '_$s12HealthDaemon27HDPreferredWorkoutZoneStoreC16restingHeartRateAA09HKRestinghI0Vvg', 
                       '_$s12HealthDaemon27HDPreferredWorkoutZoneStoreC16restingHeartRateAA09HKRestinghI0VvpMV', 
                       '_$s12HealthDaemon27HDPreferredWorkoutZoneStoreC24ageBasedMaximumHeartRateSo10HKQuantityCSgvg', 
                       '_$s12HealthDaemon27HDPreferredWorkoutZoneStoreC24ageBasedMaximumHeartRateSo10HKQuantityCSgvpMV', 
                       '_$s12HealthDaemon27HDPreferredWorkoutZoneStoreC32setPreferredManualHeartRateZones3for07wrappedL0ySo9HDProfileC_SaySo09HKWorkoutE7WrapperCGtYaKFZ', 
                       '_$s12HealthDaemon27HDPreferredWorkoutZoneStoreC32setPreferredManualHeartRateZones3for07wrappedL0ySo9HDProfileC_SaySo09HKWorkoutE7WrapperCGtYaKFZTu', 
                       '_$s12HealthDaemon27HDPreferredWorkoutZoneStoreC7profile14keyValueDomain20queryResultsProvider024functionalThresholdPowerF020cloudSyncCoordinatorACSo9HDProfileC_So05HDKeyiJ0CAA0cdef5QuerylM0_pAA012HDFunctionaloP8Fetching_pAA07HDCloudrS7Pushing_pSgtcfC', 
                       '_$s12HealthDaemon27HDPreferredWorkoutZoneStoreC7profile14keyValueDomain20queryResultsProvider024functionalThresholdPowerF020cloudSyncCoordinatorACSo9HDProfileC_So05HDKeyiJ0CAA0cdef5QuerylM0_pAA012HDFunctionaloP8Fetching_pAA07HDCloudrS7Pushing_pSgtcfCTj', 
                       '_$s12HealthDaemon27HDPreferredWorkoutZoneStoreC7profile14keyValueDomain20queryResultsProvider024functionalThresholdPowerF020cloudSyncCoordinatorACSo9HDProfileC_So05HDKeyiJ0CAA0cdef5QuerylM0_pAA012HDFunctionaloP8Fetching_pAA07HDCloudrS7Pushing_pSgtcfCTq', 
                       '_$s12HealthDaemon27HDPreferredWorkoutZoneStoreC7profile14keyValueDomain20queryResultsProvider024functionalThresholdPowerF020cloudSyncCoordinatorACSo9HDProfileC_So05HDKeyiJ0CAA0cdef5QuerylM0_pAA012HDFunctionaloP8Fetching_pAA07HDCloudrS7Pushing_pSgtcfc', 
                       '_$s12HealthDaemon27HDPreferredWorkoutZoneStoreC7profileACSo9HDProfileC_tcfC', 
                       '_$s12HealthDaemon27HDPreferredWorkoutZoneStoreCACycfC', '_$s12HealthDaemon27HDPreferredWorkoutZoneStoreCACycfc', 
                       '_$s12HealthDaemon27HDPreferredWorkoutZoneStoreCMa', '_$s12HealthDaemon27HDPreferredWorkoutZoneStoreCMn', 
                       '_$s12HealthDaemon27HDPreferredWorkoutZoneStoreCMo', '_$s12HealthDaemon27HDPreferredWorkoutZoneStoreCMu', 
                       '_$s12HealthDaemon27HDPreferredWorkoutZoneStoreCN', '_$s12HealthDaemon27HDPreferredWorkoutZoneStoreCfD', 
                       '_$s12HealthDaemon27HDWorkoutBuilderSetMeEntityC12persistentIDACs5Int64V_tcfC', 
                       '_$s12HealthDaemon27HDWorkoutBuilderSetMeEntityC12persistentIDACs5Int64V_tcfc', 
                       '_$s12HealthDaemon27HDWorkoutBuilderSetMeEntityCACycfC', '_$s12HealthDaemon27HDWorkoutBuilderSetMeEntityCACycfc', 
                       '_$s12HealthDaemon27HDWorkoutBuilderSetMeEntityCMa', '_$s12HealthDaemon27HDWorkoutBuilderSetMeEntityCMn', 
                       '_$s12HealthDaemon27HDWorkoutBuilderSetMeEntityCMo', '_$s12HealthDaemon27HDWorkoutBuilderSetMeEntityCN', 
                       '_$s12HealthDaemon27HDWorkoutBuilderSetMeEntityCfD', '_$s12HealthDaemon27HDWorkoutBuilderZonesEntityC12persistentIDACs5Int64V_tcfC', 
                       '_$s12HealthDaemon27HDWorkoutBuilderZonesEntityC12persistentIDACs5Int64V_tcfc', 
                       '_$s12HealthDaemon27HDWorkoutBuilderZonesEntityCACycfC', '_$s12HealthDaemon27HDWorkoutBuilderZonesEntityCACycfc', 
                       '_$s12HealthDaemon27HDWorkoutBuilderZonesEntityCMa', '_$s12HealthDaemon27HDWorkoutBuilderZonesEntityCMn', 
                       '_$s12HealthDaemon27HDWorkoutBuilderZonesEntityCMo', '_$s12HealthDaemon27HDWorkoutBuilderZonesEntityCN', 
                       '_$s12HealthDaemon27HDWorkoutBuilderZonesEntityCfD', '_$s12HealthDaemon27ObservationExecutorProviderMp', 
                       '_$s12HealthDaemon27ObservationExecutorProviderP011observationD0AA0cD0_pvgTj', 
                       '_$s12HealthDaemon27ObservationExecutorProviderP011observationD0AA0cD0_pvgTq', 
                       '_$s12HealthDaemon27ObservationExecutorProviderTL', '_$s12HealthDaemon27ProfileJournalableOperationMp', 
                       '_$s12HealthDaemon27ProfileJournalableOperationP0aB10Foundation0dE0Tb', 
                       '_$s12HealthDaemon27ProfileJournalableOperationP19journalEntryWrapperAA07JournalgH0CyKFTj', 
                       '_$s12HealthDaemon27ProfileJournalableOperationP19journalEntryWrapperAA07JournalgH0CyKFTq', 
                       '_$s12HealthDaemon27ProfileJournalableOperationP7context4from7ContextQzSgSo9HDProfileC_tFZTj', 
                       '_$s12HealthDaemon27ProfileJournalableOperationP7context4from7ContextQzSgSo9HDProfileC_tFZTq', 
                       '_$s12HealthDaemon27ProfileJournalableOperationPA2A0A17DatabaseProviding7ContextRpzrlE011transactionH0So021HDDatabaseTransactionH0Cvg', 
                       '_$s12HealthDaemon27ProfileJournalableOperationPA2A0A17DatabaseProviding7ContextRpzrlE011transactionH0So021HDDatabaseTransactionH0CvpMV', 
                       '_$s12HealthDaemon27ProfileJournalableOperationPA2A0A17DatabaseProviding7ContextRpzrlE16performOrJournal4with0aB10Foundation0dE6ResultOAF_tKF', 
                       '_$s12HealthDaemon27ProfileJournalableOperationTL', '_$s12HealthDaemon27healthTypesPluginIdentifierSSvg', 
                       '_$s12HealthDaemon28EpochBasedLocalStorageCodingMp', '_$s12HealthDaemon28EpochBasedLocalStorageCodingP033purgeCoherentMetadataAndIncrementC0yyKFTj', 
                       '_$s12HealthDaemon28EpochBasedLocalStorageCodingP033purgeCoherentMetadataAndIncrementC0yyKFTq', 
                       '_$s12HealthDaemon28EpochBasedLocalStorageCodingP14logDescriptionSSvgTj', 
                       '_$s12HealthDaemon28EpochBasedLocalStorageCodingP14logDescriptionSSvgTq', 
                       '_$s12HealthDaemon28EpochBasedLocalStorageCodingP5epochs5Int64VvMTj', 
                       '_$s12HealthDaemon28EpochBasedLocalStorageCodingP5epochs5Int64VvMTq', 
                       '_$s12HealthDaemon28EpochBasedLocalStorageCodingP5epochs5Int64VvgTj', 
                       '_$s12HealthDaemon28EpochBasedLocalStorageCodingP5epochs5Int64VvgTq', 
                       '_$s12HealthDaemon28EpochBasedLocalStorageCodingP5epochs5Int64VvsTj', 
                       '_$s12HealthDaemon28EpochBasedLocalStorageCodingP5epochs5Int64VvsTq', 
                       '_$s12HealthDaemon28EpochBasedLocalStorageCodingP5merge4withyx_tKFTj', 
                       '_$s12HealthDaemon28EpochBasedLocalStorageCodingP5merge4withyx_tKFTq', 
                       '_$s12HealthDaemon28EpochBasedLocalStorageCodingP8makeCopyxyFTj', 
                       '_$s12HealthDaemon28EpochBasedLocalStorageCodingP8makeCopyxyFTq', 
                       '_$s12HealthDaemon28EpochBasedLocalStorageCodingTL', '_$s12HealthDaemon29HDCloudSyncCoordinatorPushingMp', 
                       '_$s12HealthDaemon29HDCloudSyncCoordinatorPushingP15syncAllProfiles4with10completionSo10NSProgressCSo0cD7ContextC_ySb_s5Error_pSgtctFTj', 
                       '_$s12HealthDaemon29HDCloudSyncCoordinatorPushingP15syncAllProfiles4with10completionSo10NSProgressCSo0cD7ContextC_ySb_s5Error_pSgtctFTq', 
                       '_$s12HealthDaemon29HDCloudSyncCoordinatorPushingTL', '_$s12HealthDaemon29HDHealthStoreClientAssertionsC010invalidateF0yyFTj', 
                       '_$s12HealthDaemon29HDHealthStoreClientAssertionsC010invalidateF0yyFTq', 
                       '_$s12HealthDaemon29HDHealthStoreClientAssertionsC013accessibilityF0SaySo11HDAssertionCGSgyFTj', 
                       '_$s12HealthDaemon29HDHealthStoreClientAssertionsC013accessibilityF0SaySo11HDAssertionCGSgyFTq', 
                       '_$s12HealthDaemon29HDHealthStoreClientAssertionsC14firstAssertionSo11HDAssertionCSgyFTj', 
                       '_$s12HealthDaemon29HDHealthStoreClientAssertionsC14firstAssertionSo11HDAssertionCSgyFTq', 
                       '_$s12HealthDaemon29HDHealthStoreClientAssertionsC19addAssertionMapping9assertionySo11HDAssertionC_tFTj', 
                       '_$s12HealthDaemon29HDHealthStoreClientAssertionsC19addAssertionMapping9assertionySo11HDAssertionC_tFTq', 
                       '_$s12HealthDaemon29HDHealthStoreClientAssertionsC22removeAssertionMapping9assertionySo11HDAssertionC_tFTj', 
                       '_$s12HealthDaemon29HDHealthStoreClientAssertionsC22removeAssertionMapping9assertionySo11HDAssertionC_tFTq', 
                       '_$s12HealthDaemon29HDHealthStoreClientAssertionsC44assertionForHKDatabaseAccessibilityAssertion010hkDatabasejK0So11HDAssertionCSgSo0ijK0C_tFTj', 
                       '_$s12HealthDaemon29HDHealthStoreClientAssertionsC44assertionForHKDatabaseAccessibilityAssertion010hkDatabasejK0So11HDAssertionCSgSo0ijK0C_tFTq', 
                       '_$s12HealthDaemon29HDHealthStoreClientAssertionsCACycfC', 
                       '_$s12HealthDaemon29HDHealthStoreClientAssertionsCACycfc', 
                       '_$s12HealthDaemon29HDHealthStoreClientAssertionsCMa', '_$s12HealthDaemon29HDHealthStoreClientAssertionsCMn', 
                       '_$s12HealthDaemon29HDHealthStoreClientAssertionsCMo', '_$s12HealthDaemon29HDHealthStoreClientAssertionsCMu', 
                       '_$s12HealthDaemon29HDHealthStoreClientAssertionsCN', '_$s12HealthDaemon29HDHealthStoreClientAssertionsCfD', 
                       '_$s12HealthDaemon29HDWorkoutBuilderSetMeEqEntityC12persistentIDACs5Int64V_tcfC', 
                       '_$s12HealthDaemon29HDWorkoutBuilderSetMeEqEntityC12persistentIDACs5Int64V_tcfc', 
                       '_$s12HealthDaemon29HDWorkoutBuilderSetMeEqEntityCACycfC', 
                       '_$s12HealthDaemon29HDWorkoutBuilderSetMeEqEntityCACycfc', 
                       '_$s12HealthDaemon29HDWorkoutBuilderSetMeEqEntityCMa', '_$s12HealthDaemon29HDWorkoutBuilderSetMeEqEntityCMn', 
                       '_$s12HealthDaemon29HDWorkoutBuilderSetMeEqEntityCMo', '_$s12HealthDaemon29HDWorkoutBuilderSetMeEqEntityCN', 
                       '_$s12HealthDaemon29HDWorkoutBuilderSetMeEqEntityCfD', '_$s12HealthDaemon29HDWorkoutZoneSampleProcessingMp', 
                       '_$s12HealthDaemon29HDWorkoutZoneSampleProcessingP7processySo0C8Quantity_pSoAE_pFTj', 
                       '_$s12HealthDaemon29HDWorkoutZoneSampleProcessingP7processySo0C8Quantity_pSoAE_pFTq', 
                       '_$s12HealthDaemon29HDWorkoutZoneSampleProcessingTL', '_$s12HealthDaemon29HDWorkoutZonesBuilderDelegateMp', 
                       '_$s12HealthDaemon29HDWorkoutZonesBuilderDelegateP17saveRecoveryState_16updatedSnapshotsyAA0cdE0C012AccumulatorshI0V_SayAA0C15ZoneAccumulatorC8SnapshotVGtFTj', 
                       '_$s12HealthDaemon29HDWorkoutZonesBuilderDelegateP17saveRecoveryState_16updatedSnapshotsyAA0cdE0C012AccumulatorshI0V_SayAA0C15ZoneAccumulatorC8SnapshotVGtFTq', 
                       '_$s12HealthDaemon29HDWorkoutZonesBuilderDelegateP20currentWorkoutEventsSaySo14HKWorkoutEventCGvgTj', 
                       '_$s12HealthDaemon29HDWorkoutZonesBuilderDelegateP20currentWorkoutEventsSaySo14HKWorkoutEventCGvgTq', 
                       '_$s12HealthDaemon29HDWorkoutZonesBuilderDelegateP20workoutZoneDidChange3for03newH8Duration08previoushM09zoneGroup14lastSampleDatey10Foundation4UUIDV_0A3Kit09HKWorkouthM0VSgApM0whP0VAJ0S0VtFTj', 
                       '_$s12HealthDaemon29HDWorkoutZonesBuilderDelegateP20workoutZoneDidChange3for03newH8Duration08previoushM09zoneGroup14lastSampleDatey10Foundation4UUIDV_0A3Kit09HKWorkouthM0VSgApM0whP0VAJ0S0VtFTq', 
                       '_$s12HealthDaemon29HDWorkoutZonesBuilderDelegateTL', '_$s12HealthDaemon29SampleObservationStateStorageV11isCancelledSbvM', 
                       '_$s12HealthDaemon29SampleObservationStateStorageV11isCancelledSbvg', 
                       '_$s12HealthDaemon29SampleObservationStateStorageV11isCancelledSbvpMV', 
                       '_$s12HealthDaemon29SampleObservationStateStorageV11isCancelledSbvs', 
                       '_$s12HealthDaemon29SampleObservationStateStorageVAA0a13TypeEvaluatorE0AAMc', 
                       '_$s12HealthDaemon29SampleObservationStateStorageVAA0a13TypeEvaluatorE0AAWP', 
                       '_$s12HealthDaemon29SampleObservationStateStorageVMa', '_$s12HealthDaemon29SampleObservationStateStorageVMn', 
                       '_$s12HealthDaemon29SampleObservationStateStorageVN', '_$s12HealthDaemon29SleepDaySummaryEnumeratorShimC7profile17gregorianCalendar17morningIndexRange11currentDate9ascending7options15debugIdentifierACSo9HDProfileC_10Foundation0J0VSo05HKDaylM0aAM0O0VSbSo07HKSleepdE12QueryOptionsVSSSgtcfC', 
                       '_$s12HealthDaemon29SleepDaySummaryEnumeratorShimC7profile17gregorianCalendar17morningIndexRange11currentDate9ascending7options15debugIdentifierACSo9HDProfileC_10Foundation0J0VSo05HKDaylM0aAM0O0VSbSo07HKSleepdE12QueryOptionsVSSSgtcfCTj', 
                       '_$s12HealthDaemon29SleepDaySummaryEnumeratorShimC7profile17gregorianCalendar17morningIndexRange11currentDate9ascending7options15debugIdentifierACSo9HDProfileC_10Foundation0J0VSo05HKDaylM0aAM0O0VSbSo07HKSleepdE12QueryOptionsVSSSgtcfCTq', 
                       '_$s12HealthDaemon29SleepDaySummaryEnumeratorShimC7profile17gregorianCalendar17morningIndexRange11currentDate9ascending7options15debugIdentifierACSo9HDProfileC_10Foundation0J0VSo05HKDaylM0aAM0O0VSbSo07HKSleepdE12QueryOptionsVSSSgtcfc', 
                       '_$s12HealthDaemon29SleepDaySummaryEnumeratorShimC9enumerate7handleryySo07HKSleepdE0C_Spy10ObjectiveC8ObjCBoolVGtXE_tKF', 
                       '_$s12HealthDaemon29SleepDaySummaryEnumeratorShimCACycfC', 
                       '_$s12HealthDaemon29SleepDaySummaryEnumeratorShimCACycfc', 
                       '_$s12HealthDaemon29SleepDaySummaryEnumeratorShimCMa', '_$s12HealthDaemon29SleepDaySummaryEnumeratorShimCMn', 
                       '_$s12HealthDaemon29SleepDaySummaryEnumeratorShimCMo', '_$s12HealthDaemon29SleepDaySummaryEnumeratorShimCMu', 
                       '_$s12HealthDaemon29SleepDaySummaryEnumeratorShimCN', '_$s12HealthDaemon29SleepDaySummaryEnumeratorShimCfD', 
                       '_$s12HealthDaemon30DerivedObservationStateStorageV11isCancelledSbvM', 
                       '_$s12HealthDaemon30DerivedObservationStateStorageV11isCancelledSbvg', 
                       '_$s12HealthDaemon30DerivedObservationStateStorageV11isCancelledSbvpMV', 
                       '_$s12HealthDaemon30DerivedObservationStateStorageV11isCancelledSbvs', 
                       '_$s12HealthDaemon30DerivedObservationStateStorageVAA0a13TypeEvaluatorE0AAMc', 
                       '_$s12HealthDaemon30DerivedObservationStateStorageVAA0a13TypeEvaluatorE0AAWP', 
                       '_$s12HealthDaemon30DerivedObservationStateStorageVMa', '_$s12HealthDaemon30DerivedObservationStateStorageVMn', 
                       '_$s12HealthDaemon30DerivedObservationStateStorageVN', '_$s12HealthDaemon30SleepSessionQueryServerFactoryC015sleepComparisoneF5ClassyXlXpyFZ', 
                       '_$s12HealthDaemon30SleepSessionQueryServerFactoryC018sleepDayCollectioneF5ClassyXlXpyFZ', 
                       '_$s12HealthDaemon30SleepSessionQueryServerFactoryC025sleepCollectionComparisoneF5ClassyXlXpyFZ', 
                       '_$s12HealthDaemon30SleepSessionQueryServerFactoryC05sleepdeF5ClassyXlXpyFZ', 
                       '_$s12HealthDaemon30SleepSessionQueryServerFactoryC08sleepDayeF5ClassyXlXpyFZ', 
                       '_$s12HealthDaemon30SleepSessionQueryServerFactoryCACycfC', 
                       '_$s12HealthDaemon30SleepSessionQueryServerFactoryCACycfc', 
                       '_$s12HealthDaemon30SleepSessionQueryServerFactoryCMa', '_$s12HealthDaemon30SleepSessionQueryServerFactoryCMn', 
                       '_$s12HealthDaemon30SleepSessionQueryServerFactoryCMo', '_$s12HealthDaemon30SleepSessionQueryServerFactoryCN', 
                       '_$s12HealthDaemon30SleepSessionQueryServerFactoryCfD', '_$s12HealthDaemon31HDFunctionalThresholdPowerStoreC23fetchMostRecentAppleFTP0A3Kit09HKCyclinge10FunctionalD0VSgyF', 
                       '_$s12HealthDaemon31HDFunctionalThresholdPowerStoreC7profileACSo9HDProfileC_tcfC', 
                       '_$s12HealthDaemon31HDFunctionalThresholdPowerStoreC7profileACSo9HDProfileC_tcfCTj', 
                       '_$s12HealthDaemon31HDFunctionalThresholdPowerStoreC7profileACSo9HDProfileC_tcfCTq', 
                       '_$s12HealthDaemon31HDFunctionalThresholdPowerStoreC7profileACSo9HDProfileC_tcfc', 
                       '_$s12HealthDaemon31HDFunctionalThresholdPowerStoreCAA0cdE8FetchingAAMc', 
                       '_$s12HealthDaemon31HDFunctionalThresholdPowerStoreCAA0cdE8FetchingAAWP', 
                       '_$s12HealthDaemon31HDFunctionalThresholdPowerStoreCMa', '_$s12HealthDaemon31HDFunctionalThresholdPowerStoreCMm', 
                       '_$s12HealthDaemon31HDFunctionalThresholdPowerStoreCMn', '_$s12HealthDaemon31HDFunctionalThresholdPowerStoreCMo', 
                       '_$s12HealthDaemon31HDFunctionalThresholdPowerStoreCMu', '_$s12HealthDaemon31HDFunctionalThresholdPowerStoreCN', 
                       '_$s12HealthDaemon31HDFunctionalThresholdPowerStoreCfD', '_$s12HealthDaemon31HDFunctionalThresholdPowerStoreCfd', 
                       '_$s12HealthDaemon31SleepDaySummaryCachedEnumeratorC11descriptionSSvgTj', 
                       '_$s12HealthDaemon31SleepDaySummaryCachedEnumeratorC11descriptionSSvgTq', 
                       '_$s12HealthDaemon31SleepDaySummaryCachedEnumeratorC11descriptionSSvpMV', 
                       '_$s12HealthDaemon31SleepDaySummaryCachedEnumeratorC12makeIteratorQryFQOMQ', 
                       '_$s12HealthDaemon31SleepDaySummaryCachedEnumeratorC12makeIteratorQryFTj', 
                       '_$s12HealthDaemon31SleepDaySummaryCachedEnumeratorC12makeIteratorQryFTq', 
                       '_$s12HealthDaemon31SleepDaySummaryCachedEnumeratorC7profile11transaction5range17gregorianCalendar13calendarCache13configuration7debugIDACSo9HDProfileC_So21HDDatabaseTransactionCSNy0A3Kit0cD0VG10Foundation0L0VSo010HKCalendarN0CAO0cdE0V18QueryConfigurationVSStcfC', 
                       '_$s12HealthDaemon31SleepDaySummaryCachedEnumeratorCMa', '_$s12HealthDaemon31SleepDaySummaryCachedEnumeratorCMm', 
                       '_$s12HealthDaemon31SleepDaySummaryCachedEnumeratorCMn', '_$s12HealthDaemon31SleepDaySummaryCachedEnumeratorCMo', 
                       '_$s12HealthDaemon31SleepDaySummaryCachedEnumeratorCMu', '_$s12HealthDaemon31SleepDaySummaryCachedEnumeratorCN', 
                       '_$s12HealthDaemon31SleepDaySummaryCachedEnumeratorCSTAAMc', 
                       '_$s12HealthDaemon31SleepDaySummaryCachedEnumeratorCfD', '_$s12HealthDaemon31SleepDaySummaryCachedEnumeratorCfd', 
                       '_$s12HealthDaemon31SleepDaySummaryCachedEnumeratorCs23CustomStringConvertibleAAMc', 
                       '_$s12HealthDaemon32HDDatabaseDetailAnalyticsManagerC011reportDailyE04with10completionySo32HDAnalyticsSubmissionCoordinatorC_ySo19NSMutableDictionaryCSg_So24HDPeriodicActivityResultVs5Error_pSgtctF', 
                       '_$s12HealthDaemon32HDDatabaseDetailAnalyticsManagerC11daemonReadyyySo08HDHealthB0_pF', 
                       '_$s12HealthDaemon32HDDatabaseDetailAnalyticsManagerC7profile015eventSubmissionF0ACSo9HDProfileC_So016HKAnalyticsEventiF0CtcfC', 
                       '_$s12HealthDaemon32HDDatabaseDetailAnalyticsManagerC7profile015eventSubmissionF0ACSo9HDProfileC_So016HKAnalyticsEventiF0CtcfCTj', 
                       '_$s12HealthDaemon32HDDatabaseDetailAnalyticsManagerC7profile015eventSubmissionF0ACSo9HDProfileC_So016HKAnalyticsEventiF0CtcfCTq', 
                       '_$s12HealthDaemon32HDDatabaseDetailAnalyticsManagerC7profile015eventSubmissionF0ACSo9HDProfileC_So016HKAnalyticsEventiF0Ctcfc', 
                       '_$s12HealthDaemon32HDDatabaseDetailAnalyticsManagerCACycfC', 
                       '_$s12HealthDaemon32HDDatabaseDetailAnalyticsManagerCACycfc', 
                       '_$s12HealthDaemon32HDDatabaseDetailAnalyticsManagerCMa', 
                       '_$s12HealthDaemon32HDDatabaseDetailAnalyticsManagerCMn', 
                       '_$s12HealthDaemon32HDDatabaseDetailAnalyticsManagerCMo', 
                       '_$s12HealthDaemon32HDDatabaseDetailAnalyticsManagerCMu', 
                       '_$s12HealthDaemon32HDDatabaseDetailAnalyticsManagerCN', '_$s12HealthDaemon32HDDatabaseDetailAnalyticsManagerCfD', 
                       '_$s12HealthDaemon32HDWorkoutZoneAccumulatorDelegateMp', '_$s12HealthDaemon32HDWorkoutZoneAccumulatorDelegateP07workoutD9DidChange3for03newD8Duration08previousdL09zoneGroup14lastSampleDateyAA0cdE0C_0A3Kit09HKWorkoutdL0VSgAoL0tdO0V10Foundation0R0VtFTj', 
                       '_$s12HealthDaemon32HDWorkoutZoneAccumulatorDelegateP07workoutD9DidChange3for03newD8Duration08previousdL09zoneGroup14lastSampleDateyAA0cdE0C_0A3Kit09HKWorkoutdL0VSgAoL0tdO0V10Foundation0R0VtFTq', 
                       '_$s12HealthDaemon32HDWorkoutZoneAccumulatorDelegateP20currentWorkoutEventsSaySo14HKWorkoutEventCGvgTj', 
                       '_$s12HealthDaemon32HDWorkoutZoneAccumulatorDelegateP20currentWorkoutEventsSaySo14HKWorkoutEventCGvgTq', 
                       '_$s12HealthDaemon32HDWorkoutZoneAccumulatorDelegateTL', '_$s12HealthDaemon34EpochBasedSyncStateUpdaterDelegateC010fetchCloudF0_07codableeF07profile5errorSo23HKFailableBooleanResultVSAySo13HDSyncCodable_pSgG_So09HDCodableeF0CSo9HDProfileCSAySo7NSErrorCSgGSgtFTj', 
                       '_$s12HealthDaemon34EpochBasedSyncStateUpdaterDelegateC010fetchCloudF0_07codableeF07profile5errorSo23HKFailableBooleanResultVSAySo13HDSyncCodable_pSgG_So09HDCodableeF0CSo9HDProfileCSAySo7NSErrorCSgGSgtFTq', 
                       '_$s12HealthDaemon34EpochBasedSyncStateUpdaterDelegateC010fetchLocalF0_7profile11transactionySAySo13HDSyncCodable_pSgG_So9HDProfileCSo21HDDatabaseTransactionCtKFTj', 
                       '_$s12HealthDaemon34EpochBasedSyncStateUpdaterDelegateC010fetchLocalF0_7profile11transactionySAySo13HDSyncCodable_pSgG_So9HDProfileCSo21HDDatabaseTransactionCtKFTq', 
                       '_$s12HealthDaemon34EpochBasedSyncStateUpdaterDelegateC012persistCloudF0_7profileySo13HDSyncCodable_p_So9HDProfileCtKFTj', 
                       '_$s12HealthDaemon34EpochBasedSyncStateUpdaterDelegateC012persistCloudF0_7profileySo13HDSyncCodable_p_So9HDProfileCtKFTq', 
                       '_$s12HealthDaemon34EpochBasedSyncStateUpdaterDelegateC09supportedE12VersionRangeSo06HDSyncjK0avg', 
                       '_$s12HealthDaemon34EpochBasedSyncStateUpdaterDelegateC09supportedE12VersionRangeSo06HDSyncjK0avpMV', 
                       '_$s12HealthDaemon34EpochBasedSyncStateUpdaterDelegateC12shouldUpdate010withMergedF005cloudF005localF07profile11transaction5errorSo07HDStateE11MergeResultVSAySo13HDSyncCodable_pSgG_SoAM_pSoAM_pSo9HDProfileCSo21HDDatabaseTransactionCSAySo7NSErrorCSgGSgtFTj', 
                       '_$s12HealthDaemon34EpochBasedSyncStateUpdaterDelegateC12shouldUpdate010withMergedF005cloudF005localF07profile11transaction5errorSo07HDStateE11MergeResultVSAySo13HDSyncCodable_pSgG_SoAM_pSoAM_pSo9HDProfileCSo21HDDatabaseTransactionCSAySo7NSErrorCSgGSgtFTq', 
                       '_$s12HealthDaemon34EpochBasedSyncStateUpdaterDelegateC3keySSvg', 
                       '_$s12HealthDaemon34EpochBasedSyncStateUpdaterDelegateC3keySSvpMV', 
                       '_$s12HealthDaemon34EpochBasedSyncStateUpdaterDelegateC5storexvg', 
                       '_$s12HealthDaemon34EpochBasedSyncStateUpdaterDelegateC5storexvpMV', 
                       '_$s12HealthDaemon34EpochBasedSyncStateUpdaterDelegateC6domainSSvg', 
                       '_$s12HealthDaemon34EpochBasedSyncStateUpdaterDelegateC6domainSSvpMV', 
                       '_$s12HealthDaemon34EpochBasedSyncStateUpdaterDelegateC6logger3key09supportedE12VersionRange6domain5store18maxDataSizeInBytesACyxG2os6LoggerV_SSSo06HDSynclM0aSSxSitcfC', 
                       '_$s12HealthDaemon34EpochBasedSyncStateUpdaterDelegateC6logger3key09supportedE12VersionRange6domain5store18maxDataSizeInBytesACyxG2os6LoggerV_SSSo06HDSynclM0aSSxSitcfCTj', 
                       '_$s12HealthDaemon34EpochBasedSyncStateUpdaterDelegateC6logger3key09supportedE12VersionRange6domain5store18maxDataSizeInBytesACyxG2os6LoggerV_SSSo06HDSynclM0aSSxSitcfCTq', 
                       '_$s12HealthDaemon34EpochBasedSyncStateUpdaterDelegateC6logger3key09supportedE12VersionRange6domain5store18maxDataSizeInBytesACyxG2os6LoggerV_SSSo06HDSynclM0aSSxSitcfc', 
                       '_$s12HealthDaemon34EpochBasedSyncStateUpdaterDelegateC6update_09withMergeF07profileySo09HDCodableeF0C_So13HDSyncCodable_pSo9HDProfileCtKFTj', 
                       '_$s12HealthDaemon34EpochBasedSyncStateUpdaterDelegateC6update_09withMergeF07profileySo09HDCodableeF0C_So13HDSyncCodable_pSo9HDProfileCtKFTq', 
                       '_$s12HealthDaemon34EpochBasedSyncStateUpdaterDelegateCACyxGycfC', 
                       '_$s12HealthDaemon34EpochBasedSyncStateUpdaterDelegateCACyxGycfc', 
                       '_$s12HealthDaemon34EpochBasedSyncStateUpdaterDelegateCMa', 
                       '_$s12HealthDaemon34EpochBasedSyncStateUpdaterDelegateCMn', 
                       '_$s12HealthDaemon34EpochBasedSyncStateUpdaterDelegateCMo', 
                       '_$s12HealthDaemon34EpochBasedSyncStateUpdaterDelegateCMu', 
                       '_$s12HealthDaemon34EpochBasedSyncStateUpdaterDelegateCfD', 
                       '_$s12HealthDaemon34HDFunctionalThresholdPowerFetchingMp', 
                       '_$s12HealthDaemon34HDFunctionalThresholdPowerFetchingP23fetchMostRecentAppleFTP0A3Kit09HKCyclinge10FunctionalD0VSgyFTj', 
                       '_$s12HealthDaemon34HDFunctionalThresholdPowerFetchingP23fetchMostRecentAppleFTP0A3Kit09HKCyclinge10FunctionalD0VSgyFTq', 
                       '_$s12HealthDaemon34HDFunctionalThresholdPowerFetchingTL', 
                       '_$s12HealthDaemon34HKStatisticsCollectionCacheContextC6filterACSo9_HKFilterCSg_tcfC', 
                       '_$s12HealthDaemon34HKStatisticsCollectionCacheContextC6filterACSo9_HKFilterCSg_tcfCTj', 
                       '_$s12HealthDaemon34HKStatisticsCollectionCacheContextC6filterACSo9_HKFilterCSg_tcfCTq', 
                       '_$s12HealthDaemon34HKStatisticsCollectionCacheContextC6filterACSo9_HKFilterCSg_tcfc', 
                       '_$s12HealthDaemon34HKStatisticsCollectionCacheContextCACycfC', 
                       '_$s12HealthDaemon34HKStatisticsCollectionCacheContextCACycfc', 
                       '_$s12HealthDaemon34HKStatisticsCollectionCacheContextCMa', 
                       '_$s12HealthDaemon34HKStatisticsCollectionCacheContextCMn', 
                       '_$s12HealthDaemon34HKStatisticsCollectionCacheContextCMo', 
                       '_$s12HealthDaemon34HKStatisticsCollectionCacheContextCMu', 
                       '_$s12HealthDaemon34HKStatisticsCollectionCacheContextCN', 
                       '_$s12HealthDaemon34HKStatisticsCollectionCacheContextCfD', 
                       '_$s12HealthDaemon36RecentSleepDaySummaryCacheDataSourceMp', 
                       '_$s12HealthDaemon36RecentSleepDaySummaryCacheDataSourceP03maxd8AnalysisI11OrderAnchors5Int64VyKFTj', 
                       '_$s12HealthDaemon36RecentSleepDaySummaryCacheDataSourceP03maxd8AnalysisI11OrderAnchors5Int64VyKFTq', 
                       '_$s12HealthDaemon36RecentSleepDaySummaryCacheDataSourceP07currentG5Entry3forAA0cdefG0O0gK0VSg0A3Kit0deF0V18QueryConfigurationV_tKFTj', 
                       '_$s12HealthDaemon36RecentSleepDaySummaryCacheDataSourceP07currentG5Entry3forAA0cdefG0O0gK0VSg0A3Kit0deF0V18QueryConfigurationV_tKFTq', 
                       '_$s12HealthDaemon36RecentSleepDaySummaryCacheDataSourceP13changesByType11sinceAnchorSDySo08HKSampleL0CSo0oL6ChangeCGs5Int64V_tKFTj', 
                       '_$s12HealthDaemon36RecentSleepDaySummaryCacheDataSourceP13changesByType11sinceAnchorSDySo08HKSampleL0CSo0oL6ChangeCGs5Int64V_tKFTq', 
                       '_$s12HealthDaemon36RecentSleepDaySummaryCacheDataSourceP15maxPersistentIDs5Int64VyKFTj', 
                       '_$s12HealthDaemon36RecentSleepDaySummaryCacheDataSourceP15maxPersistentIDs5Int64VyKFTq', 
                       '_$s12HealthDaemon36RecentSleepDaySummaryCacheDataSourceP4saveyyAA0cdefG0O0G5EntryVFTj', 
                       '_$s12HealthDaemon36RecentSleepDaySummaryCacheDataSourceP4saveyyAA0cdefG0O0G5EntryVFTq', 
                       '_$s12HealthDaemon36RecentSleepDaySummaryCacheDataSourceTL', 
                       '_$s12HealthDaemon36TrailingDailyAverageWindowResultObjCC11sampleCountSivg', 
                       '_$s12HealthDaemon36TrailingDailyAverageWindowResultObjCC11sampleCountSivpMV', 
                       '_$s12HealthDaemon36TrailingDailyAverageWindowResultObjCC12daysWithDataSivg', 
                       '_$s12HealthDaemon36TrailingDailyAverageWindowResultObjCC12daysWithDataSivpMV', 
                       '_$s12HealthDaemon36TrailingDailyAverageWindowResultObjCC7averageSo8NSNumberCSgvg', 
                       '_$s12HealthDaemon36TrailingDailyAverageWindowResultObjCC7averageSo8NSNumberCSgvpMV', 
                       '_$s12HealthDaemon36TrailingDailyAverageWindowResultObjCC8dayIndexSivg', 
                       '_$s12HealthDaemon36TrailingDailyAverageWindowResultObjCC8dayIndexSivpMV', 
                       '_$s12HealthDaemon36TrailingDailyAverageWindowResultObjCCACycfC', 
                       '_$s12HealthDaemon36TrailingDailyAverageWindowResultObjCCACycfc', 
                       '_$s12HealthDaemon36TrailingDailyAverageWindowResultObjCCMa', 
                       '_$s12HealthDaemon36TrailingDailyAverageWindowResultObjCCMn', 
                       '_$s12HealthDaemon36TrailingDailyAverageWindowResultObjCCMo', 
                       '_$s12HealthDaemon36TrailingDailyAverageWindowResultObjCCMu', 
                       '_$s12HealthDaemon36TrailingDailyAverageWindowResultObjCCN', 
                       '_$s12HealthDaemon36TrailingDailyAverageWindowResultObjCCfD', 
                       '_$s12HealthDaemon40HDStatisticsCollectionQueryCacheProviderC0A3Kit16HKCacheProvidingAAMc', 
                       '_$s12HealthDaemon40HDStatisticsCollectionQueryCacheProviderC11cachedClassSo06HKDataF9Providing_So8NSObjectCXcXpvg', 
                       '_$s12HealthDaemon40HDStatisticsCollectionQueryCacheProviderC11cachedClassSo06HKDataF9Providing_So8NSObjectCXcXpvpMV', 
                       '_$s12HealthDaemon40HDStatisticsCollectionQueryCacheProviderC12cacheSession3for10anchorDate18intervalComponents7options13mergeStrategy24authorizationStatusValue6filter11sourceOrder13queryInterval7context0V6Entity7profileAA06HDDatafI0CSgSo14HKQuantityTypeC_10Foundation0L0VAV0lN0VSo19HKStatisticsOptionsVSo018_HKStatisticsMergeQ0VSuSo9_HKFilterCSgSaySo8NSNumberCGSgAV0lY0VSgSo06HKDataF7Context_pSgSo14HDSourceEntityCSo9HDProfileCtFZ', 
                       '_$s12HealthDaemon40HDStatisticsCollectionQueryCacheProviderC13anchorDateFory10Foundation0I0V0A3Kit012HKStatisticsd6CachedE10ParametersVF', 
                       '_$s12HealthDaemon40HDStatisticsCollectionQueryCacheProviderC14makeDataSourceySo0cde6ServeriJ0_pSgSo9HDProfileC_So14HKQuantityTypeCSo17HDSQLitePredicateCSgShySo14HDSourceEntityCGSgSo9_HKFilterCSgSitcvM', 
                       '_$s12HealthDaemon40HDStatisticsCollectionQueryCacheProviderC14makeDataSourceySo0cde6ServeriJ0_pSgSo9HDProfileC_So14HKQuantityTypeCSo17HDSQLitePredicateCSgShySo14HDSourceEntityCGSgSo9_HKFilterCSgSitcvg', 
                       '_$s12HealthDaemon40HDStatisticsCollectionQueryCacheProviderC14makeDataSourceySo0cde6ServeriJ0_pSgSo9HDProfileC_So14HKQuantityTypeCSo17HDSQLitePredicateCSgShySo14HDSourceEntityCGSgSo9_HKFilterCSgSitcvpMV', 
                       '_$s12HealthDaemon40HDStatisticsCollectionQueryCacheProviderC14makeDataSourceySo0cde6ServeriJ0_pSgSo9HDProfileC_So14HKQuantityTypeCSo17HDSQLitePredicateCSgShySo14HDSourceEntityCGSgSo9_HKFilterCSgSitcvs', 
                       '_$s12HealthDaemon40HDStatisticsCollectionQueryCacheProviderC15fetchResultsFor_13bucketIndexes7context13resultHandlery0A3Kit012HKStatisticsd6CachedE10ParametersV_ShySiGSgSo06HKDataF7Context_pSgySaySo0tF9Providing_pG_SiSgSbs5Error_pSgtctKF', 
                       '_$s12HealthDaemon40HDStatisticsCollectionQueryCacheProviderC19authorizationOracle7profileACSo021HDClientAuthorizationI0C_So9HDProfileCtcfC', 
                       '_$s12HealthDaemon40HDStatisticsCollectionQueryCacheProviderC19authorizationOracle7profileACSo021HDClientAuthorizationI0C_So9HDProfileCtcfCTj', 
                       '_$s12HealthDaemon40HDStatisticsCollectionQueryCacheProviderC19authorizationOracle7profileACSo021HDClientAuthorizationI0C_So9HDProfileCtcfCTq', 
                       '_$s12HealthDaemon40HDStatisticsCollectionQueryCacheProviderC19authorizationOracle7profileACSo021HDClientAuthorizationI0C_So9HDProfileCtcfc', 
                       '_$s12HealthDaemon40HDStatisticsCollectionQueryCacheProviderC21intervalComponentsFory10Foundation04DateI0V0A3Kit012HKStatisticsd6CachedE10ParametersVF', 
                       '_$s12HealthDaemon40HDStatisticsCollectionQueryCacheProviderC26invalidationDescriptorsForySayypG0A3Kit012HKStatisticsd6CachedE10ParametersVF', 
                       '_$s12HealthDaemon40HDStatisticsCollectionQueryCacheProviderC28timeIntervalToBucketIndexFor_0hI010anchorDateSi0A3Kit012HKStatisticsd6CachedE10ParametersV_Sd10Foundation0O0VtF', 
                       '_$s12HealthDaemon40HDStatisticsCollectionQueryCacheProviderC8register19authorizationOracle7profileySo021HDClientAuthorizationJ0C_So9HDProfileCtFZ', 
                       '_$s12HealthDaemon40HDStatisticsCollectionQueryCacheProviderCACycfC', 
                       '_$s12HealthDaemon40HDStatisticsCollectionQueryCacheProviderCACycfc', 
                       '_$s12HealthDaemon40HDStatisticsCollectionQueryCacheProviderCMa', 
                       '_$s12HealthDaemon40HDStatisticsCollectionQueryCacheProviderCMn', 
                       '_$s12HealthDaemon40HDStatisticsCollectionQueryCacheProviderCMo', 
                       '_$s12HealthDaemon40HDStatisticsCollectionQueryCacheProviderCMu', 
                       '_$s12HealthDaemon40HDStatisticsCollectionQueryCacheProviderCN', 
                       '_$s12HealthDaemon40HDStatisticsCollectionQueryCacheProviderCfD', 
                       '_$s12HealthDaemon40TrailingDailyAverageWindowCalculatorObjCC15windowedResults7fromDay02toL0SayAA0cdef6ResultH1CCGSi_SitF', 
                       '_$s12HealthDaemon40TrailingDailyAverageWindowCalculatorObjCC18windowLengthInDays07minimumL8WithData12isCumulativeACSi_SiSbtcfC', 
                       '_$s12HealthDaemon40TrailingDailyAverageWindowCalculatorObjCC18windowLengthInDays07minimumL8WithData12isCumulativeACSi_SiSbtcfCTj', 
                       '_$s12HealthDaemon40TrailingDailyAverageWindowCalculatorObjCC18windowLengthInDays07minimumL8WithData12isCumulativeACSi_SiSbtcfCTq', 
                       '_$s12HealthDaemon40TrailingDailyAverageWindowCalculatorObjCC18windowLengthInDays07minimumL8WithData12isCumulativeACSi_SiSbtcfc', 
                       '_$s12HealthDaemon40TrailingDailyAverageWindowCalculatorObjCC6addDay5index5value11sampleCountySi_SdSitF', 
                       '_$s12HealthDaemon40TrailingDailyAverageWindowCalculatorObjCCACycfC', 
                       '_$s12HealthDaemon40TrailingDailyAverageWindowCalculatorObjCCACycfc', 
                       '_$s12HealthDaemon40TrailingDailyAverageWindowCalculatorObjCCMa', 
                       '_$s12HealthDaemon40TrailingDailyAverageWindowCalculatorObjCCMn', 
                       '_$s12HealthDaemon40TrailingDailyAverageWindowCalculatorObjCCMo', 
                       '_$s12HealthDaemon40TrailingDailyAverageWindowCalculatorObjCCMu', 
                       '_$s12HealthDaemon40TrailingDailyAverageWindowCalculatorObjCCN', 
                       '_$s12HealthDaemon40TrailingDailyAverageWindowCalculatorObjCCfD', 
                       '_$s12HealthDaemon41DatabaseAccessibilityAssertionStoreServerC014remote_requestcdE018forOwnerIdentifier11contextType10isRecovery10completionySS_So010HKDatabasee7ContextN0VSbySo0rdE0CSg_s5Error_pSgtYbctF', 
                       '_$s12HealthDaemon41DatabaseAccessibilityAssertionStoreServerC017remote_invalidatecdE0yySo010HKDatabasedE0CSgF', 
                       '_$s12HealthDaemon41DatabaseAccessibilityAssertionStoreServerCMa', 
                       '_$s12HealthDaemon41DatabaseAccessibilityAssertionStoreServerCMn', 
                       '_$s12HealthDaemon41DatabaseAccessibilityAssertionStoreServerCMo', 
                       '_$s12HealthDaemon41DatabaseAccessibilityAssertionStoreServerCMu', 
                       '_$s12HealthDaemon41DatabaseAccessibilityAssertionStoreServerCN', 
                       '_$s12HealthDaemon41DatabaseAccessibilityAssertionStoreServerCfD', 
                       '_$s12HealthDaemon47HDPreferredWorkoutZoneStoreQueryResultsProviderMp', 
                       '_$s12HealthDaemon47HDPreferredWorkoutZoneStoreQueryResultsProviderP23averageRestingHeartRateSo10HKQuantityCSgvgTj', 
                       '_$s12HealthDaemon47HDPreferredWorkoutZoneStoreQueryResultsProviderP23averageRestingHeartRateSo10HKQuantityCSgvgTq', 
                       '_$s12HealthDaemon47HDPreferredWorkoutZoneStoreQueryResultsProviderP3ageSiSgvgTj', 
                       '_$s12HealthDaemon47HDPreferredWorkoutZoneStoreQueryResultsProviderP3ageSiSgvgTq', 
                       '_$s12HealthDaemon47HDPreferredWorkoutZoneStoreQueryResultsProviderTL', 
                       '_$s12HealthDaemon56HDUserNotificationSystemApertureContentDefinitionWrapperC07contentH00aB10Foundation0cdefgH0Cvg', 
                       '_$s12HealthDaemon56HDUserNotificationSystemApertureContentDefinitionWrapperC07contentH00aB10Foundation0cdefgH0CvpMV', 
                       '_$s12HealthDaemon56HDUserNotificationSystemApertureContentDefinitionWrapperC15systemColorName0j5ImageL025preventAutomaticDismissalACSS_SSSbtcfC', 
                       '_$s12HealthDaemon56HDUserNotificationSystemApertureContentDefinitionWrapperC15systemColorName0j5ImageL025preventAutomaticDismissalACSS_SSSbtcfCTj', 
                       '_$s12HealthDaemon56HDUserNotificationSystemApertureContentDefinitionWrapperC15systemColorName0j5ImageL025preventAutomaticDismissalACSS_SSSbtcfCTq', 
                       '_$s12HealthDaemon56HDUserNotificationSystemApertureContentDefinitionWrapperC15systemColorName0j5ImageL025preventAutomaticDismissalACSS_SSSbtcfc', 
                       '_$s12HealthDaemon56HDUserNotificationSystemApertureContentDefinitionWrapperCACycfC', 
                       '_$s12HealthDaemon56HDUserNotificationSystemApertureContentDefinitionWrapperCACycfc', 
                       '_$s12HealthDaemon56HDUserNotificationSystemApertureContentDefinitionWrapperCMa', 
                       '_$s12HealthDaemon56HDUserNotificationSystemApertureContentDefinitionWrapperCMn', 
                       '_$s12HealthDaemon56HDUserNotificationSystemApertureContentDefinitionWrapperCMo', 
                       '_$s12HealthDaemon56HDUserNotificationSystemApertureContentDefinitionWrapperCMu', 
                       '_$s12HealthDaemon56HDUserNotificationSystemApertureContentDefinitionWrapperCN', 
                       '_$s12HealthDaemon56HDUserNotificationSystemApertureContentDefinitionWrapperCfD', 
                       '_$s12HealthDaemon9list_sync16queryDescriptors9evaluator11transactionSay9ModelKindQzGxQp_txxQp_t_q_So21HDDatabaseTransactionCSgtKRvz0A3Kit27ListQueryDescriptorProtocolRzAA0boP9EvaluatorR_r0_lF', 
                       '_$s17ConfigurationKind12HealthDaemon0C13TypeEvaluatorPTl', 
                       '_$s17ListEvaluatorKind12HealthDaemon0ad4TypeB8ProviderPTl', 
                       '_$s19LocalStorageCodable12HealthDaemon0aB8ProviderPTl', '_$s23ObservableEvaluatorKind12HealthDaemon0ad4TypeB8ProviderPTl', 
                       '_$s7Version12HealthDaemon20PluginDatabaseSchemaPTl', '_$s9HealthKit04ListA4TypeP0A6DaemonAA13ConfigurationO13Constructible0cF4KindRpzAF09WithQueryD0AIRQAF0I12TimeIntervalAIRQSe05ModelH0RpzSEAMRQrlE15queryLatestSync04timeL02inAMSgSNy10Foundation4DateVGSg_qd__tKAD0eJ19DescriptorEvaluatorRd__lF', 
                       '_$s9HealthKit04ListA4TypeP0A6DaemonAA13ConfigurationO13Constructible0cF4KindRpzAF09WithQueryD0AIRQAF0I12TimeIntervalAIRQSo8NSObjectC05ModelH0RczSo14NSSecureCodingAORQrlE15queryLatestSync04timeL02inAOSgSNy10Foundation4DateVGSg_qd__tKAD0eJ19DescriptorEvaluatorRd__lF', 
                       '_$s9HealthKit10HKDatabaseO7PruningO17DeletedSampleInfoV0A6DaemonE7profile13referenceDateAGSo9HDProfileC_10Foundation0K0VtKcfC', 
                       '_$s9HealthKit10HKDatabaseO7PruningO19DeletedSampleDetailV0A6DaemonE0efG5ErrorO07deletedF14EntityNotFoundyA2JmFWC', 
                       '_$s9HealthKit10HKDatabaseO7PruningO19DeletedSampleDetailV0A6DaemonE0efG5ErrorO2eeoiySbAJ_AJtFZ', 
                       '_$s9HealthKit10HKDatabaseO7PruningO19DeletedSampleDetailV0A6DaemonE0efG5ErrorO4hash4intoys6HasherVz_tF', 
                       '_$s9HealthKit10HKDatabaseO7PruningO19DeletedSampleDetailV0A6DaemonE0efG5ErrorO9hashValueSivg', 
                       '_$s9HealthKit10HKDatabaseO7PruningO19DeletedSampleDetailV0A6DaemonE0efG5ErrorO9hashValueSivpMV', 
                       '_$s9HealthKit10HKDatabaseO7PruningO19DeletedSampleDetailV0A6DaemonE0efG5ErrorOMa', 
                       '_$s9HealthKit10HKDatabaseO7PruningO19DeletedSampleDetailV0A6DaemonE0efG5ErrorOMn', 
                       '_$s9HealthKit10HKDatabaseO7PruningO19DeletedSampleDetailV0A6DaemonE0efG5ErrorON', 
                       '_$s9HealthKit10HKDatabaseO7PruningO19DeletedSampleDetailV0A6DaemonE0efG5ErrorOSHAHMc', 
                       '_$s9HealthKit10HKDatabaseO7PruningO19DeletedSampleDetailV0A6DaemonE0efG5ErrorOSQAHMc', 
                       '_$s9HealthKit10HKDatabaseO7PruningO19DeletedSampleDetailV0A6DaemonE0efG5ErrorOs0I0AHMc', 
                       '_$s9HealthKit10HKDatabaseO7PruningO19DeletedSampleDetailV0A6DaemonE7profile22matchingPredicatesOnly13referenceDate10sampleUUID6filterAGSo9HDProfileC_Sb10Foundation0N0VAP0P0VSbAG0eF0VXEtKcfC', 
                       '_$s9HealthKit10HKDatabaseO7PruningO19DeletedSampleDetailV0A6DaemonE7profile22matchingPredicatesOnly13referenceDate16createdOnOrAfter0O6Before5limit6filterAGSo9HDProfileC_Sb10Foundation0N0VATSgAUSiSbAG0eF0VXEtKcfC', 
                       '_$s9HealthKit10HKDatabaseO7PruningO19DeletedSampleDetailV0A6DaemonE7profile22matchingPredicatesOnly13referenceDate6anchor5limit6filterAGSo9HDProfileC_Sb10Foundation0N0Vs5Int64VSiSbAG0eF0VXEtKcfC', 
                       '_$s9HealthKit10HKDatabaseO7PruningO25ShowWithDeletedSampleInfoV0A6DaemonE7profile13referenceDateAGSo9HDProfileC_10Foundation0M0VtKcfC', 
                       '_$s9HealthKit10HKDatabaseO7PruningO27ClassifiedDeletedSampleInfoV0A6DaemonE7profile13referenceDate16createdOnOrAfter0M6Before5limitAGSo9HDProfileC_10Foundation0L0VARSgASSitKcfC', 
                       '_$s9HealthKit10HKDatabaseO7PruningO27ClassifiedDeletedSampleInfoV0A6DaemonE7profile13referenceDate6anchor5limitAGSo9HDProfileC_10Foundation0L0Vs5Int64VSitKcfC', 
                       '_$s9HealthKit10HKDatabaseO7PruningO4ShowV0A6DaemonE7profile13referenceDate27deletedSampleSyncEntityOnlyAGSo9HDProfileC_10Foundation0I0VSbtKcfC', 
                       '_$s9HealthKit10HKDatabaseO7PruningO4ShowV0D20RestrictionPredicateV0A6DaemonE7storeId9predicateAI10Foundation4UUIDV_So08HDSampledfG0CtcfC', 
                       '_$s9HealthKit10HKDatabaseO7PruningO4ShowV0D20RestrictionPredicateV14ClassificationO0A6DaemonE7matchesSbvg', 
                       '_$s9HealthKit10HKDatabaseO7PruningO4ShowV0D20RestrictionPredicateV14ClassificationO0A6DaemonE7matchesSbvpMV', 
                       '_$s9HealthKit10HKDatabaseO7PruningO4ShowV12SyncIdentityV0A6DaemonE8identityAISo010HDDatabasedefG0C_tcfC', 
                       '_$s9HealthKit10HKDatabaseO7PruningO4ShowV13ConfigurationV0A6DaemonE7profileAISo9HDProfileC_tcfC', 
                       '_$s9HealthKit10HKDatabaseO7PruningO4ShowV20SyncEntityIdentifierV0A6DaemonE10identifierAISo06HDSyncgH0C_tcfC', 
                       '_$s9HealthKit10HKDatabaseO7PruningO4ShowV5StoreV0A6DaemonE5storeAISo010HDDatabasede4SyncF0C_tcfC', 
                       '_$s9HealthKit10HKDatabaseO7PruningO4ShowV6EntityV0A6DaemonE6entityAISo010HDDatabasedeF0C_tcfC', 
                       '_$s9HealthKit11HKCloudSyncO4ShowV12RecordDetailO08DatabaseG0V0A6DaemonE7codableAISgSo07HDCloudD20CodableDeviceContextC_tcfC', 
                       '_$s9HealthKit11HKCloudSyncO4ShowV12RecordDetailO08DatabaseG0V0A6DaemonE7codableyySo07HDCloudD20CodableDeviceContextCF', 
                       '_$s9HealthKit16HKCacheProvidingP0A6DaemonE14associatedTypeAD015HDCacheProviderG2IDVyF', 
                       '_$s9HealthKit23HKCachedQueryParametersP0A6DaemonE14providerTypeIDAD015HDCacheProviderhI0VyFZ', 
                       '_$s9HealthKit27ListQueryDescriptorProtocolP0A6DaemonE12batched_sync2in11transaction9batchSizes11AnyIteratorVySay9ModelKindQzGGqd___So21HDDatabaseTransactionCSitKAD0gdE9EvaluatorRd__lF', 
                       '_$s9HealthKit27ListQueryDescriptorProtocolP0A6DaemonE12iterate_sync2in11transactions11AnyIteratorVy9ModelKindQzGqd___So21HDDatabaseTransactionCtKAD0gdE9EvaluatorRd__lF', 
                       '_$s9HealthKit27ListQueryDescriptorProtocolP0A6DaemonE9list_sync2in11transactionSay9ModelKindQzGqd___So21HDDatabaseTransactionCSgtKAD0gdE9EvaluatorRd__lF', 
                       '_$s9ModelKind12HealthDaemon0C13TypeEvaluatorPTl', '_$s9StateKind12HealthDaemon0C13TypeEvaluatorPTl', 
                       '_$sSo14HDHealthEntityC12HealthDaemonE19withReadTransaction2in7context7performxSo0A8Database_p_So010HDDatabaseG7ContextCSgxSo08HDSQLiteK0C_So0lG0CtKXEtKs8SendableRzlFZ', 
                       '_$sSo14HDHealthEntityC12HealthDaemonE20withWriteTransaction2in7context7performxSo0A8Database_p_So010HDDatabaseG7ContextCSgxSo08HDSQLiteK0C_So0lG0CtKXEtKlFZ', 
                       '_$sSo14HDHealthEntityC12HealthDaemonE8database4fromSo16HDSQLiteDatabaseCSo21HDDatabaseTransactionC_tKFZ', 
                       '_$sSo16HDHealthDatabaseP12HealthDaemonE18performTransaction4with18transactionHandler015inaccessibilityI0ySo010HDDatabaseF7ContextCSg_ySo0kF0CKXEys5Error_pKXEtKF', 
                       '_$sSo16HDHealthDatabaseP12HealthDaemonE18performTransaction4with18transactionHandlerqd__So010HDDatabaseF7ContextCSg_qd__So0jF0CKXEtKlF', 
                       '_$sSo16HDHealthDatabaseP12HealthDaemonE30performHighPriorityTransactionyqd__qd__yKXEKlF', 
                       '_$sSo16HDHealthDatabaseP12HealthDaemonE7perform4with_qd__So28HDDatabaseTransactionContextC_qd__yKXEtKlF', 
                       '_$sSo16HDKeyValueDomainC12HealthDaemonE012propertyListB03forypSgSS_tKF', 
                       '_$sSo16HDKeyValueDomainC12HealthDaemonE4data3for10Foundation4DataVSgSS_tKF', 
                       '_$sSo16HDKeyValueDomainC12HealthDaemonE4date3for10Foundation4DateVSgSS_tKF', 
                       '_$sSo16HDKeyValueDomainC12HealthDaemonE6number3forSo8NSNumberCSgSS_tKF', 
                       '_$sSo16HDKeyValueDomainC12HealthDaemonE6string3forSSSgSS_tKF', 
                       '_$sSo16HDKeyValueDomainC12HealthDaemonE8quantity3for4unitSo10HKQuantityCSgSS_So6HKUnitCtKF', 
                       '_$sSo16HDSQLiteDatabaseC12HealthDaemonE18executeUncachedSQL_14bindingHandler011enumerationI0ySS_yAC15SQLiteStatementVnXESb0cD10Foundation0kB3RowVnKXEtKF', 
                       '_$sSo16HDSQLiteDatabaseC12HealthDaemonE18executeUncachedSQL_14bindingHandlerySS_yAC15SQLiteStatementVnXEtKF', 
                       '_$sSo18HDCloudSyncManagerC12HealthDaemonE21restoreCompletionDate10Foundation0H0VSgyKF', 
                       '_$sSo18HDDatabaseMigratorC12HealthDaemonE12addMigration3for9toVersion16foreignKeyStatus7handlerySS_SiSo0af7ForeignkL0VySo0aF11TransactionC_SitKctF', 
                       '_$sSo18HDDatabaseMigratorC12HealthDaemonE31migrateWorkoutZonesFromMetadatayySo0A20MigrationTransactionCKF', 
                       '_$sSo19_HKObjectTypeAnchorC12HealthDaemonE11descriptionSSvg', 
                       '_$sSo20HDNetworkPathMonitorC12HealthDaemonE07networkB11ConstrainedSbvg', 
                       '_$sSo20HDNetworkPathMonitorC12HealthDaemonE07networkB11ConstrainedSbvpMV', 
                       '_$sSo20HDNetworkPathMonitorC12HealthDaemonE07networkB9ExpensiveSbvg', 
                       '_$sSo20HDNetworkPathMonitorC12HealthDaemonE07networkB9ExpensiveSbvpMV', 
                       '_$sSo20HDNetworkPathMonitorC12HealthDaemonE07networkB9SatisfiedSbvg', 
                       '_$sSo20HDNetworkPathMonitorC12HealthDaemonE07networkB9SatisfiedSbvpMV', 
                       '_$sSo20HDNetworkPathMonitorC12HealthDaemonE3add_5queueySo0aB8Observer_p_So012OS_dispatch_G0CSgtF', 
                       '_$sSo20HDNetworkPathMonitorC12HealthDaemonE6removeyySo0aB8Observer_pF', 
                       '_$sSo20HDNetworkPathMonitorCMa', '_$sSo21HDDatabasePruningShowC12HealthDaemonE17deletedSampleInfo7profile13referenceDate10Foundation4DataVSo9HDProfileC_AG0K0VtKFZ', 
                       '_$sSo21HDDatabasePruningShowC12HealthDaemonE19deletedSampleDetail7profile22matchingPredicatesOnly13referenceDate10sampleUUID10Foundation4DataVSo9HDProfileC_SbAI0N0VAI0P0VtKFZ', 
                       '_$sSo21HDDatabasePruningShowC12HealthDaemonE20deletedSamplesDetail7profile22matchingPredicatesOnly020samplesWithDifferentb8OutcomesL013referenceDate16createdOnOrAfter0S6Before5limit10Foundation4DataVSo9HDProfileC_S2bAL0R0VARSgASSitKFZ', 
                       '_$sSo21HDDatabasePruningShowC12HealthDaemonE20deletedSamplesDetail7profile22matchingPredicatesOnly020samplesWithDifferentb8OutcomesL013referenceDate6anchor5limit10Foundation4DataVSo9HDProfileC_S2bAK0R0Vs5Int64VSitKFZ', 
                       '_$sSo21HDDatabasePruningShowC12HealthDaemonE24showAndDeletedSampleInfo7profile13referenceDate10Foundation4DataVSo9HDProfileC_AG0M0VtKFZ', 
                       '_$sSo21HDDatabasePruningShowC12HealthDaemonE27classifiedDeletedSampleInfo7profile13referenceDate16createdOnOrAfter0M6Before5limit10Foundation4DataVSo9HDProfileC_AJ0L0VAPSgAQSitKFZ', 
                       '_$sSo21HDDatabasePruningShowC12HealthDaemonE27classifiedDeletedSampleInfo7profile13referenceDate6anchor5limit10Foundation4DataVSo9HDProfileC_AI0L0Vs5Int64VSitKFZ', 
                       '_$sSo21HDDatabasePruningShowC12HealthDaemonE4show7profile18deletedSamplesOnly13referenceDate10Foundation4DataVSo9HDProfileC_SbAH0L0VtKFZ', 
                       '_$sSo21HDDatabasePruningShowC12HealthDaemonEABycfC', '_$sSo21HDDatabasePruningShowC12HealthDaemonEABycfc', 
                       '_$sSo21HDDatabasePruningShowCMa', '_$sSo22HDBasicDatabaseJournalC12HealthDaemonE07currentC7ChapterSo09HDJournalG0_pSgvg', 
                       '_$sSo22HDBasicDatabaseJournalC12HealthDaemonE07currentC7ChapterSo09HDJournalG0_pSgvpMV', 
                       '_$sSo22HDBasicDatabaseJournalC12HealthDaemonE07currentC7ChapterSo09HDJournalG0_pSgvs', 
                       '_$sSo22HDBasicDatabaseJournalC12HealthDaemonE07maximumC5BytesSo8NSNumberCSgvg', 
                       '_$sSo22HDBasicDatabaseJournalC12HealthDaemonE07maximumC5BytesSo8NSNumberCSgvpMV', 
                       '_$sSo22HDBasicDatabaseJournalC12HealthDaemonE07maximumC5BytesSo8NSNumberCSgvs', 
                       '_$sSo22HDBasicDatabaseJournalC12HealthDaemonE10sizeOnDiskSivg', 
                       '_$sSo22HDBasicDatabaseJournalC12HealthDaemonE10sizeOnDiskSivpMV', 
                       '_$sSo22HDBasicDatabaseJournalC12HealthDaemonE12mergeEntries_05applyG0ySaySo21HDJournalChapterEntry_pG_ySS_SayypGSiSdtctF', 
                       '_$sSo22HDBasicDatabaseJournalC12HealthDaemonE19journalDirectoryURL10Foundation0H0Vvg', 
                       '_$sSo22HDBasicDatabaseJournalC12HealthDaemonE19journalDirectoryURL10Foundation0H0VvpMV', 
                       '_$sSo22HDBasicDatabaseJournalC12HealthDaemonE34serializedDataEnumerationThresholdSivg', 
                       '_$sSo22HDBasicDatabaseJournalC12HealthDaemonE34serializedDataEnumerationThresholdSivpMV', 
                       '_$sSo22HDBasicDatabaseJournalC12HealthDaemonE34serializedDataEnumerationThresholdSivs', 
                       '_$sSo22HDBasicDatabaseJournalC12HealthDaemonE4path15loggingCategoryABSS_So9OS_os_logCtcfC', 
                       '_$sSo22HDBasicDatabaseJournalC12HealthDaemonE4path15loggingCategoryABSS_So9OS_os_logCtcfc', 
                       '_$sSo22HDBasicDatabaseJournalC12HealthDaemonE7addData_14didAppendEntryySaySo14NSSecureCoding_pG_ySS_SitctKF', 
                       '_$sSo22HDBasicDatabaseJournalC12HealthDaemonEABycfC', '_$sSo22HDBasicDatabaseJournalC12HealthDaemonEABycfc', 
                       '_$sSo22HDBasicDatabaseJournalCMa', '_$sSo22HDCloudSyncCoordinatorC12HealthDaemon0abC7PushingACMc', 
                       '_$sSo22HDCloudSyncCoordinatorC12HealthDaemon0abC7PushingACWP', 
                       '_$sSo22HDWorkoutBuilderEntityC12HealthDaemonE014deleteActivityC0_11transactionySo0abgC0C_So21HDDatabaseTransactionCtKFZ', 
                       '_$sSo22HDWorkoutBuilderEntityC12HealthDaemonE04zoneB13RecoveryState2inAC0a5ZonesB0C0gH0VSgSo21HDDatabaseTransactionC_tF', 
                       '_$sSo22HDWorkoutBuilderEntityC12HealthDaemonE21setZoneConfigurations09heartRateG13Configuration012cyclingPowergK013inTransactiony0D3Kit09HKWorkoutgK0VSg_AKSo010HDDatabaseO0CtKF', 
                       '_$sSo22HDWorkoutBuilderEntityC12HealthDaemonE23updateAccumulatorStates_13inTransactionyAC0a5ZonesB0C25AccumulatorsRecoveryStateV_So010HDDatabaseJ0CtKF', 
                       '_$sSo22HDWorkoutBuilderServerC12HealthDaemon0a5ZonesB8DelegateACMc', 
                       '_$sSo22HDWorkoutBuilderServerC12HealthDaemon0a5ZonesB8DelegateACWP', 
                       '_$sSo22HDWorkoutBuilderServerC12HealthDaemonE011createZonesB03for15primaryActivity27customConfigurationWrappersAC0agB0CSgSo0aB6EntityC_So09HKWorkoutJ0CSDySo14HKQuantityTypeCSo0o4ZoneL7WrapperCGSgtF', 
                       '_$sSo22HDWorkoutBuilderServerC12HealthDaemonE011createZonesB03for15primaryActivity8delegate20customConfigurationsAC0agB0CSgSo0aB6EntityC_So09HKWorkoutJ0CAC0agB8Delegate_pSDySo14HKQuantityTypeC0D3Kit0O17ZoneConfigurationVGSgtF', 
                       '_$sSo22HDWorkoutBuilderServerC12HealthDaemonE012_createZonesB11ForRecovery2of15currentActivity11transactionAC0agB0CSgSo0aB6EntityC_So09HKWorkoutL0CSgSo21HDDatabaseTransactionCtF', 
                       '_$sSo22HDWorkoutBuilderServerC12HealthDaemonE17saveRecoveryState_16updatedSnapshotsyAC0a5ZonesB0C012AccumulatorsgH0V_SayAC0A15ZoneAccumulatorC8SnapshotVGtF', 
                       '_$sSo22HDWorkoutBuilderServerC12HealthDaemonE20currentWorkoutEventsSaySo14HKWorkoutEventCGvg', 
                       '_$sSo22HDWorkoutBuilderServerC12HealthDaemonE20currentWorkoutEventsSaySo14HKWorkoutEventCGvpMV', 
                       '_$sSo22HDWorkoutBuilderServerC12HealthDaemonE20workoutZoneDidChange3for03newG8Duration08previousgL09zoneGroup14lastSampleDatey10Foundation4UUIDV_0D3Kit09HKWorkoutgL0VSgApM0vgO0VAJ0R0VtF', 
                       '_$sSo22HDWorkoutBuilderServerC12HealthDaemonE24zoneConfigurationWrapper3forSo013HKWorkoutZonegH0CSgSo14HKQuantityTypeC_tYaKF', 
                       '_$sSo22HDWorkoutBuilderServerC12HealthDaemonE24zoneConfigurationWrapper3forSo013HKWorkoutZonegH0CSgSo14HKQuantityTypeC_tYaKFTu', 
                       '_$sSo22HDWorkoutBuilderServerC12HealthDaemonE33setCustomZoneConfigurationWrapper_3forySo09HKWorkouthiJ0CSg_So14HKQuantityTypeCtKF', 
                       '_$sSo22HDWorkoutSessionEntityC12HealthDaemonE26currentActivityNodeWrapper11transaction8outErrorSo09HKWorkoutghI0CSgSo21HDDatabaseTransactionC_SAySo7NSErrorCSgGSgtF', 
                       '_$sSo22HDWorkoutSessionEntityC12HealthDaemonE29setCurrentActivityNodeWrapper_11transaction8outErrorSbSo09HKWorkouthiJ0CSg_So21HDDatabaseTransactionCSAySo7NSErrorCSgGSgtF', 
                       '_$sSo23HDWorkoutActivityEntityC12HealthDaemonE11insertZones_8database8outErrorSbSDySo14HKQuantityTypeCSo25HKWorkoutZoneGroupWrapperCG_So16HDSQLiteDatabaseCSAySo7NSErrorCSgGSgtF', 
                       '_$sSo23HDWorkoutActivityEntityC12HealthDaemonE16activityNodeTree3for07primaryB011transaction0D3Kit09HKWorkoutbG0Vs6UInt64V_So0mB0CSgSo21HDDatabaseTransactionCtKFZ', 
                       '_$sSo23HDWorkoutActivityEntityC12HealthDaemonE23activityNodeTreeWrapper07forRootB07ownerID11transactionSo09HKWorkoutbgI0CSo0oB0C_s6UInt64VSo21HDDatabaseTransactionCtKFZ', 
                       '_$sSo23HDWorkoutActivityEntityC12HealthDaemonE23activityNodeTreeWrapper3for11transactionSo09HKWorkoutbgI0Cs6UInt64V_So21HDDatabaseTransactionCtKFZ', 
                       '_$sSo23HKSleepScheduleWeekdaysV12HealthDaemonE12makeIterators08IndexingG0VySayABGGyF', 
                       '_$sSo23HKSleepScheduleWeekdaysVSH12HealthDaemonMc', '_$sSo23HKSleepScheduleWeekdaysVST12HealthDaemonMc', 
                       '_$sSo24HDWorkoutSessionSnapshotC12HealthDaemonE09isPrimaryB0Sbvg', 
                       '_$sSo24HDWorkoutSessionSnapshotC12HealthDaemonE09isPrimaryB0SbvpMV', 
                       '_$sSo24HDWorkoutSessionSnapshotC12HealthDaemonE10identifier10Foundation4UUIDVvg', 
                       '_$sSo24HDWorkoutSessionSnapshotC12HealthDaemonE10identifier10Foundation4UUIDVvpMV', 
                       '_$sSo24HDWorkoutSessionSnapshotC12HealthDaemonE10identifier20workoutConfiguration22clientBundleIdentifier0i11ApplicationK011sessionType13internalState015currentActivityH012isFirstParty0S6ActiveAB10Foundation4UUIDV_So09HKWorkoutH0CSSSgARSo0ybN0VSo01_yb6ServerP0VAQSgS2btcfC', 
                       '_$sSo24HDWorkoutSessionSnapshotC12HealthDaemonE10identifier20workoutConfiguration22clientBundleIdentifier0i11ApplicationK011sessionType13internalState015currentActivityH012isFirstParty0S6ActiveAB10Foundation4UUIDV_So09HKWorkoutH0CSSSgARSo0ybN0VSo01_yb6ServerP0VAQSgS2btcfc', 
                       '_$sSo24HDWorkoutSessionSnapshotC12HealthDaemonE11publicStateSo09HKWorkoutbG0Vvg', 
                       '_$sSo24HDWorkoutSessionSnapshotC12HealthDaemonE11publicStateSo09HKWorkoutbG0VvpMV', 
                       '_$sSo24HDWorkoutSessionSnapshotC12HealthDaemonE12isFirstPartySbvg', 
                       '_$sSo24HDWorkoutSessionSnapshotC12HealthDaemonE12isFirstPartySbvpMV', 
                       '_$sSo24HDWorkoutSessionSnapshotC12HealthDaemonE12isFirstPartySbvpWvd', 
                       '_$sSo24HDWorkoutSessionSnapshotC12HealthDaemonE15isInterruptibleSbvg', 
                       '_$sSo24HDWorkoutSessionSnapshotC12HealthDaemonE15isInterruptibleSbvpMV', 
                       '_$sSo24HDWorkoutSessionSnapshotC12HealthDaemonE21isInHeartRateRecoverySbvg', 
                       '_$sSo24HDWorkoutSessionSnapshotC12HealthDaemonE21isInHeartRateRecoverySbvpMV', 
                       '_$sSo24HDWorkoutSessionSnapshotC12HealthDaemonE22clientBundleIdentifierSSSgvg', 
                       '_$sSo24HDWorkoutSessionSnapshotC12HealthDaemonE22clientBundleIdentifierSSSgvpMV', 
                       '_$sSo24HDWorkoutSessionSnapshotC12HealthDaemonE22clientBundleIdentifierSSSgvpWvd', 
                       '_$sSo24HDWorkoutSessionSnapshotC12HealthDaemonE27clientApplicationIdentifierSSSgvg', 
                       '_$sSo24HDWorkoutSessionSnapshotC12HealthDaemonE27clientApplicationIdentifierSSSgvpMV', 
                       '_$sSo24HDWorkoutSessionSnapshotC12HealthDaemonE27clientApplicationIdentifierSSSgvpWvd', 
                       '_$sSo24HDWorkoutSessionSnapshotC12HealthDaemonE28currentActivityConfigurationSo09HKWorkoutH0Cvg', 
                       '_$sSo24HDWorkoutSessionSnapshotC12HealthDaemonE28currentActivityConfigurationSo09HKWorkoutH0CvpMV', 
                       '_$sSo24HDWorkoutSessionSnapshotC12HealthDaemonE28currentActivityConfigurationSo09HKWorkoutH0CvpWvd', 
                       '_$sSo24HDWorkoutSessionSnapshotC12HealthDaemonE8isActiveSbvg', 
                       '_$sSo24HDWorkoutSessionSnapshotC12HealthDaemonE8isActiveSbvpMV', 
                       '_$sSo24HDWorkoutSessionSnapshotC12HealthDaemonE8isActiveSbvpWvd', 
                       '_$sSo24HDWorkoutSessionSnapshotC12HealthDaemonE8isGymKitSbvg', 
                       '_$sSo24HDWorkoutSessionSnapshotC12HealthDaemonE8isGymKitSbvpMV', 
                       '_$sSo24HDWorkoutSessionSnapshotC12HealthDaemonE8isPausedSbvg', 
                       '_$sSo24HDWorkoutSessionSnapshotC12HealthDaemonE8isPausedSbvpMV', 
                       '_$sSo24HDWorkoutSessionSnapshotCMa', '_$sSo25HDWorkoutAssertionManagerC12HealthDaemonE016takeLiveActivityB015ownerIdentifier012clientBundleJ011explanationSo11HDAssertionCSgSS_S2StF', 
                       '_$sSo25HDWorkoutAssertionManagerC12HealthDaemonE09assertionC0_0F11InvalidatedySo011HDAssertionC0C_So0H0CtF', 
                       '_$sSo25HDWorkoutAssertionManagerC12HealthDaemonE16makeRBSAssertion19assertionIdentifier3pid11explanationSo0G0CSS_s5Int32VSSSgtF', 
                       '_$sSo25HDWorkoutAssertionManagerC12HealthDaemonE16takeRBSAssertion15ownerIdentifier09assertionI03pid11explanationSo11HDAssertionCSgSS_SSs5Int32VSSSgtF', 
                       '_$sSo25HDWorkoutAssertionManagerC12HealthDaemonEABycfC', 
                       '_$sSo25HDWorkoutAssertionManagerC12HealthDaemonEABycfc', 
                       '_$sSo25HDWorkoutAssertionManagerCMa', '_$sSo27HDObjectAnchorChangeManagerC12HealthDaemonE11addObserver_8forTypesySo0abcH0_p_ShySo12HKObjectTypeCGtF', 
                       '_$sSo27HDObjectAnchorChangeManagerC12HealthDaemonE12fetchAnchorsSo013_HKObjectTypeB0CyKF', 
                       '_$sSo27HDObjectAnchorChangeManagerC12HealthDaemonE21diagnosticDescriptionSSyF', 
                       '_$sSo27HDObjectAnchorChangeManagerC12HealthDaemonE22addObserverForAllTypesyySo0abcH0_pF', 
                       '_$sSo27HDObjectAnchorChangeManagerC12HealthDaemonE6removeyySo0abC8Observer_pF', 
                       '_$sSo27HDObjectAnchorChangeManagerC12HealthDaemonE7profileABSo9HDProfileC_tcfC', 
                       '_$sSo27HDObjectAnchorChangeManagerC12HealthDaemonE7profileABSo9HDProfileC_tcfc', 
                       '_$sSo27HDObjectAnchorChangeManagerC12HealthDaemonEABycfC', 
                       '_$sSo27HDObjectAnchorChangeManagerC12HealthDaemonEABycfc', 
                       '_$sSo27HDObjectAnchorChangeManagerCMa', '_$sSo27HDTrainingLoadChangeManagerC12HealthDaemonE17drainCeilingDelaySdvMZ', 
                       '_$sSo27HDTrainingLoadChangeManagerC12HealthDaemonE17drainCeilingDelaySdvgZ', 
                       '_$sSo27HDTrainingLoadChangeManagerC12HealthDaemonE17drainCeilingDelaySdvsZ', 
                       '_$sSo27HDTrainingLoadChangeManagerC12HealthDaemonE18drainDebounceDelaySdvMZ', 
                       '_$sSo27HDTrainingLoadChangeManagerC12HealthDaemonE18drainDebounceDelaySdvgZ', 
                       '_$sSo27HDTrainingLoadChangeManagerC12HealthDaemonE18drainDebounceDelaySdvsZ', 
                       '_$sSo27HDTrainingLoadChangeManagerC12HealthDaemonE7profileABSo9HDProfileC_tcfC', 
                       '_$sSo27HDTrainingLoadChangeManagerC12HealthDaemonE7profileABSo9HDProfileC_tcfc', 
                       '_$sSo27HDTrainingLoadChangeManagerC12HealthDaemonEABycfC', 
                       '_$sSo27HDTrainingLoadChangeManagerC12HealthDaemonEABycfc', 
                       '_$sSo27HDTrainingLoadChangeManagerCMa', '_$sSo28HDCloudSyncManagerRecordTaskC12HealthDaemonE7manager7context22accessibilityAssertion10completionABSo0abC0C_So0aB7ContextCSo11HDAssertionCSgySo0abc8PipelineE0C_Sbs5Error_pSgtctcfC', 
                       '_$sSo28HDCloudSyncManagerRecordTaskC12HealthDaemonE7manager7context22accessibilityAssertion10completionABSo0abC0C_So0aB7ContextCSo11HDAssertionCSgySo0abc8PipelineE0C_Sbs5Error_pSgtctcfc', 
                       '_$sSo28HDCloudSyncManagerRecordTaskC12HealthDaemonE8pipeline3forSo0aB8PipelineCSo0aB10RepositoryC_tF', 
                       '_$sSo28HDCloudSyncManagerRecordTaskCMa', '_$sSo30HDCloudSyncDeviceContextRecordC12HealthDaemonE18updateDatabaseSizeyySo8NSNumberCSgF', 
                       '_$sSo30HDCloudSyncDeviceContextRecordC12HealthDaemonE28unitTestConfigureForDataLoss4with05otherE0y10Foundation4DateV_ABtF', 
                       '_$sSo30HDCloudSyncDeviceContextRecordC12HealthDaemonE30updateSupportsSampleExpirationyySbF', 
                       '_$sSo30HDCloudSyncDeviceContextRecordC12HealthDaemonE43unitTestVerifyThatRecordsContainsStatisticsSbyF', 
                       '_$sSo31HDDatabaseAvailabilityConditionC12HealthDaemonE02isC3MetSbyF', 
                       '_$sSo31HDDatabaseAvailabilityConditionC12HealthDaemonE16setReadyCallbackyyySbcF', 
                       '_$sSo31HDDatabaseAvailabilityConditionC12HealthDaemonE8database_31protectedDataDidBecomeAvailableySo16HDHealthDatabase_p_SbtF', 
                       '_$sSo31HDDatabaseAvailabilityConditionC12HealthDaemonEABycfC', 
                       '_$sSo31HDDatabaseAvailabilityConditionC12HealthDaemonEABycfc', 
                       '_$sSo31HDDatabaseAvailabilityConditionC12HealthDaemonE_15loggingCategoryABSo0A0C_So9OS_os_logCtcfC', 
                       '_$sSo31HDDatabaseAvailabilityConditionC12HealthDaemonE_15loggingCategoryABSo0A0C_So9OS_os_logCtcfc', 
                       '_$sSo31HDDatabaseAvailabilityConditionCMa', '_$sSo32HDAnalyticsSubmissionCoordinatorC12HealthDaemonE011maintenanceC20_reportCoreAnalytics13operationName8database22pendingOperationsCount06activenO014timeUntilStart8canceled8timedOut11elapsedTime18isImmediateRequest5asyncySS_SSS3iS2bSiS2btF', 
                       '_$sSo32HDCloudSyncPipelineStageDescribeC12HealthDaemonE13configuration10cloudState29respositoryDescriptionHandlerABSo0aB22OperationConfigurationC_So0ab5CloudJ0CSgySo0abcdL0CctcfC', 
                       '_$sSo32HDCloudSyncPipelineStageDescribeC12HealthDaemonE13configuration10cloudState29respositoryDescriptionHandlerABSo0aB22OperationConfigurationC_So0ab5CloudJ0CSgySo0abcdL0Cctcfc', 
                       '_$sSo32HDCloudSyncPipelineStageDescribeC12HealthDaemonE13configuration10cloudStateABSo0aB22OperationConfigurationC_So0ab5CloudJ0CSgtcfC', 
                       '_$sSo32HDCloudSyncPipelineStageDescribeC12HealthDaemonE13configuration10cloudStateABSo0aB22OperationConfigurationC_So0ab5CloudJ0CSgtcfc', 
                       '_$sSo32HDCloudSyncPipelineStageDescribeC12HealthDaemonE4mainyyF', 
                       '_$sSo32HDCloudSyncPipelineStageDescribeCMa', '_$sSo33HDCloudSyncRecordPrintDescriptionC12HealthDaemonEABycfC', 
                       '_$sSo33HDCloudSyncRecordPrintDescriptionC12HealthDaemonEABycfc', 
                       '_$sSo33HDCloudSyncRecordPrintDescriptionCMa', '_$sSo34HDDatabasePruningShowDeletedSampleC12HealthDaemonE8classify20restrictionPredicate12activeStores0F3Kit10HKDatabaseO0B0O0C0V0b11RestrictionJ0V14ClassificationOAO_Shy10Foundation4UUIDVGtF', 
                       '_$sSo35HDCloudSyncPipelineStageDescriptionC12HealthDaemonE10serialized13prettyPrinted10Foundation4DataVSb_tKF', 
                       '_$sSo35HDCloudSyncPipelineStageDescriptionC12HealthDaemonE11descriptionSSvg', 
                       '_$sSo35HDCloudSyncPipelineStageDescriptionC12HealthDaemonE14setAccountInfo9partition19hasValidCredentials13accountStatus010encryptionP0ABSS_SbS2StF', 
                       '_$sSo35HDCloudSyncPipelineStageDescriptionC12HealthDaemonE18descriptionForLogs10Foundation4DataVyF', 
                       '_$sSo35HDCloudSyncPipelineStageDescriptionC12HealthDaemonE4copy4withyp10ObjectiveC6NSZoneVSg_tF', 
                       '_$sSo35HDCloudSyncPipelineStageDescriptionC12HealthDaemonE5merge4withA2B_tF', 
                       '_$sSo35HDCloudSyncPipelineStageDescriptionC12HealthDaemonEABycfC', 
                       '_$sSo35HDCloudSyncPipelineStageDescriptionC12HealthDaemonEABycfc', 
                       '_$sSo35HDCloudSyncPipelineStageDescriptionCMa', '_$sSo41HDCloudSyncDeleteOrphanedRecordsOperationC12HealthDaemonE13configuration10cloudStateABSo0abF13ConfigurationC_So0ab5CloudK0CSgtcfC', 
                       '_$sSo41HDCloudSyncDeleteOrphanedRecordsOperationC12HealthDaemonE13configuration10cloudStateABSo0abF13ConfigurationC_So0ab5CloudK0CSgtcfc', 
                       '_$sSo41HDCloudSyncDeleteOrphanedRecordsOperationC12HealthDaemonE4mainyyF', 
                       '_$sSo41HDCloudSyncDeleteOrphanedRecordsOperationCMa', '_$sSo8HDDaemonC12HealthDaemonE13isUnitTestingSbyFZ', 
                       '_$sSo9HDProfileC12HealthDaemon0C24QueryDescriptorEvaluatorACMc', 
                       '_$sSo9HDProfileC12HealthDaemon0C24QueryDescriptorEvaluatorACWP', 
                       '_$sSo9HDProfileC12HealthDaemon12TypeRegistryACMc', '_$sSo9HDProfileC12HealthDaemon12TypeRegistryACWP', 
                       '_$sSo9HDProfileC12HealthDaemon20TypeExecutorProviderACMc', 
                       '_$sSo9HDProfileC12HealthDaemon20TypeExecutorProviderACWP', 
                       '_$sSo9HDProfileC12HealthDaemon27ObservationExecutorProviderACMc', 
                       '_$sSo9HDProfileC12HealthDaemon27ObservationExecutorProviderACWP', 
                       '_$sSo9HDProfileC12HealthDaemonE12list_assumed15queryDescriptor11transactionSayq0_Gx_So21HDDatabaseTransactionCSgtK0B3Kit09ListQueryG8ProtocolRz17ConfigurationKindQzRs_05ModelP0QzRs0_r1_lF', 
                       '_$sSo9HDProfileC12HealthDaemonE12typeExecutorAC04TypeE0_pvg', 
                       '_$sSo9HDProfileC12HealthDaemonE12typeExecutorAC04TypeE0_pvpMV', 
                       '_$sSo9HDProfileC12HealthDaemonE13evaluate_list15queryDescriptor10completion0B3Kit10QueryTokenVx_ys6ResultOySayq0_Gs5Error_pGYbctAG04ListjG8ProtocolRz17ConfigurationKindQzRs_SeR0_SER0_05ModelQ0QzRs0_r1_lF', 
                       '_$sSo9HDProfileC12HealthDaemonE13evaluate_list15queryDescriptor10completion0B3Kit10QueryTokenVx_ys6ResultOySayq0_Gs5Error_pGYbctAG04ListjG8ProtocolRz17ConfigurationKindQzRs_So8NSObjectCRb0_So14NSSecureCodingR0_05ModelQ0QzRs0_r1_lF', 
                       '_$sSo9HDProfileC12HealthDaemonE13evaluate_list15queryDescriptorSayq0_Gx_tYaK0B3Kit09ListQueryG8ProtocolRz17ConfigurationKindQzRs_SeR0_SER0_05ModelM0QzRs0_r1_lF', 
                       '_$sSo9HDProfileC12HealthDaemonE13evaluate_list15queryDescriptorSayq0_Gx_tYaK0B3Kit09ListQueryG8ProtocolRz17ConfigurationKindQzRs_SeR0_SER0_05ModelM0QzRs0_r1_lFTu', 
                       '_$sSo9HDProfileC12HealthDaemonE13evaluate_list15queryDescriptorSayq0_Gx_tYaK0B3Kit09ListQueryG8ProtocolRz17ConfigurationKindQzRs_So8NSObjectCRb0_So14NSSecureCodingR0_05ModelM0QzRs0_r1_lF', 
                       '_$sSo9HDProfileC12HealthDaemonE13evaluate_list15queryDescriptorSayq0_Gx_tYaK0B3Kit09ListQueryG8ProtocolRz17ConfigurationKindQzRs_So8NSObjectCRb0_So14NSSecureCodingR0_05ModelM0QzRs0_r1_lFTu', 
                       '_$sSo9HDProfileC12HealthDaemonE15batched_assumed15queryDescriptor9batchSize11transactions11AnyIteratorVySayq0_GGx_SiSo21HDDatabaseTransactionCtK0B3Kit09ListQueryG8ProtocolRz17ConfigurationKindQzRs_05ModelT0QzRs0_r1_lF', 
                       '_$sSo9HDProfileC12HealthDaemonE15iterate_assumed15queryDescriptor11transactions11AnyIteratorVyq0_Gx_So21HDDatabaseTransactionCtK0B3Kit09ListQueryG8ProtocolRz17ConfigurationKindQzRs_05ModelR0QzRs0_r1_lF', 
                       '_$sSo9HDProfileC12HealthDaemonE16evaluate_batched15queryDescriptor9batchSize0H7Handler0B3Kit10QueryTokenVx_Siys6ResultOySayq0_GSgs5Error_pGYbctAH04ListlG8ProtocolRz17ConfigurationKindQzRs_SeR0_SER0_05ModelS0QzRs0_r1_lF', 
                       '_$sSo9HDProfileC12HealthDaemonE16evaluate_batched15queryDescriptor9batchSize0H7Handler0B3Kit10QueryTokenVx_Siys6ResultOySayq0_GSgs5Error_pGYbctAH04ListlG8ProtocolRz17ConfigurationKindQzRs_So8NSObjectCRb0_So14NSSecureCodingR0_05ModelS0QzRs0_r1_lF', 
                       '_$sSo9HDProfileC12HealthDaemonE16evaluate_batched15queryDescriptor9batchSizeScsySayq0_Gs5Error_pGx_Sit0B3Kit09ListQueryG8ProtocolRz17ConfigurationKindQzRs_SeR0_SER0_05ModelP0QzRs0_r1_lF', 
                       '_$sSo9HDProfileC12HealthDaemonE16evaluate_batched15queryDescriptor9batchSizeScsySayq0_Gs5Error_pGx_Sit0B3Kit09ListQueryG8ProtocolRz17ConfigurationKindQzRs_So8NSObjectCRb0_So14NSSecureCodingR0_05ModelP0QzRs0_r1_lF', 
                       '_$sSo9HDProfileC12HealthDaemonE16evaluate_iterate15queryDescriptor13resultHandler0B3Kit10QueryTokenVx_ys6ResultOyq0_Sgs5Error_pGYbctAG04ListkG8ProtocolRz17ConfigurationKindQzRs_SeR0_SER0_05ModelR0QzRs0_r1_lF', 
                       '_$sSo9HDProfileC12HealthDaemonE16evaluate_iterate15queryDescriptor13resultHandler0B3Kit10QueryTokenVx_ys6ResultOyq0_Sgs5Error_pGYbctAG04ListkG8ProtocolRz17ConfigurationKindQzRs_So8NSObjectCRb0_So14NSSecureCodingR0_05ModelR0QzRs0_r1_lF', 
                       '_$sSo9HDProfileC12HealthDaemonE16evaluate_iterate15queryDescriptorScsyq0_s5Error_pGx_t0B3Kit09ListQueryG8ProtocolRz17ConfigurationKindQzRs_SeR0_SER0_05ModelN0QzRs0_r1_lF', 
                       '_$sSo9HDProfileC12HealthDaemonE16evaluate_iterate15queryDescriptorScsyq0_s5Error_pGx_t0B3Kit09ListQueryG8ProtocolRz17ConfigurationKindQzRs_So8NSObjectCRb0_So14NSSecureCodingR0_05ModelN0QzRs0_r1_lF', 
                       '_$sSo9HDProfileC12HealthDaemonE17state_transactionyxxSo21HDDatabaseTransactionCKXEKlF', 
                       '_$sSo9HDProfileC12HealthDaemonE19observationExecutorAC011ObservationE0_pvg', 
                       '_$sSo9HDProfileC12HealthDaemonE19observationExecutorAC011ObservationE0_pvpMV', 
                       '_$sSo9HDProfileC12HealthDaemonE7observe21observationDescriptor12eventHandler0B3Kit10QueryTokenVx_ys6ResultOyyts5Error_pGYbctAG011ObservationjF8ProtocolRz17ConfigurationKindQzRs_r0_lF', 
                       '_$sSo9HDProfileC12HealthDaemonE7observe21observationDescriptorScsyyts5Error_pGx_t0B3Kit016ObservationQueryF8ProtocolRz17ConfigurationKindQzRs_r0_lF', 
                       '_$sSo9HDProfileC12HealthDaemonEyAC0B21TypeEvaluatorProvider_pSg0B3Kit0D10IdentifierVcig', 
                       '_$sSo9HDProfileC12HealthDaemonEyAC0B21TypeEvaluatorProvider_pSg0B3Kit0D10IdentifierVcipMV', 
                       '_$sSo9HDProfileC9HealthKit24QueryDescriptorEvaluator0B6DaemonMc', 
                       _DirectoryPathForHDDemoDataProfileType, _DisplayNameForHDDemoDataProfileType, 
                       _HDAccountOwnerEntityPropertyBirthDate, _HDAccountOwnerEntityPropertyName, 
                       _HDActivityCacheEntityEncodingOptionIncludePrivateProperties, 
                       _HDActivityCacheEntityEncodingOptionIncludeStatistics, _HDActivityCacheEntityPredicateForCacheIndex, 
                       _HDActivityCacheEntityPredicateForCacheIndexRange, _HDActivityCacheEntityPredicateForCacheIndices, 
                       _HDActivityCacheEntityPredicateForCachesInDateComponentsRange, 
                       _HDActivityCacheEntityPropertyActiveHours, _HDActivityCacheEntityPropertyActiveHoursGoal, 
                       _HDActivityCacheEntityPropertyActiveHoursGoalDate, _HDActivityCacheEntityPropertyActivityMoveMode, 
                       _HDActivityCacheEntityPropertyBriskMinutes, _HDActivityCacheEntityPropertyBriskMinutesGoal, 
                       _HDActivityCacheEntityPropertyBriskMinutesGoalDate, _HDActivityCacheEntityPropertyCacheIndex, 
                       _HDActivityCacheEntityPropertyDailyBriskMinutesStatistics, 
                       _HDActivityCacheEntityPropertyDailyEnergyBurnedStatistics, 
                       _HDActivityCacheEntityPropertyDailyMoveMinutesStatistics, 
                       _HDActivityCacheEntityPropertyDeepBreathingDuration, _HDActivityCacheEntityPropertyEnergyBurned, 
                       _HDActivityCacheEntityPropertyEnergyBurnedGoal, _HDActivityCacheEntityPropertyEnergyBurnedGoalDate, 
                       _HDActivityCacheEntityPropertyFlights, _HDActivityCacheEntityPropertyMoveMinutes, 
                       _HDActivityCacheEntityPropertyMoveMinutesGoal, _HDActivityCacheEntityPropertyMoveMinutesGoalDate, 
                       _HDActivityCacheEntityPropertyPaused, _HDActivityCacheEntityPropertyPushes, 
                       _HDActivityCacheEntityPropertySequence, _HDActivityCacheEntityPropertySteps, 
                       _HDActivityCacheEntityPropertyWalkingDistance, _HDActivityCacheEntityPropertyWheelchairUse, 
                       _HDActivityGoalScheduleEntityPropertyFridayGoal, _HDActivityGoalScheduleEntityPropertyGoalType, 
                       _HDActivityGoalScheduleEntityPropertyMondayGoal, _HDActivityGoalScheduleEntityPropertySaturdayGoal, 
                       _HDActivityGoalScheduleEntityPropertySundayGoal, _HDActivityGoalScheduleEntityPropertyThursdayGoal, 
                       _HDActivityGoalScheduleEntityPropertyTuesdayGoal, _HDActivityGoalScheduleEntityPropertyUnitString, 
                       _HDActivityGoalScheduleEntityPropertyWednesdayGoal, _HDAdHocConceptEntityPropertyConceptIdentifier, 
                       _HDAddStateHandler, _HDAggregateQuantitySensorData, _HDAggregateQuantitySensorDataThroughDate, 
                       _HDAllergyRecordEntityPropertyAllergyCodingCollection, _HDAllergyRecordEntityPropertyAllergyTypeCoding, 
                       _HDAllergyRecordEntityPropertyAsserter, _HDAllergyRecordEntityPropertyCategoryCoding, 
                       _HDAllergyRecordEntityPropertyClinicalStatusCoding, _HDAllergyRecordEntityPropertyCriticalityCoding, 
                       _HDAllergyRecordEntityPropertyLastOccurrenceDate, _HDAllergyRecordEntityPropertyOnsetDate, 
                       _HDAllergyRecordEntityPropertyReactions, _HDAllergyRecordEntityPropertyRecordedDate, 
                       _HDAllergyRecordEntityPropertyVerificationStatusCoding, _HDAnalyticsBucketedNumberOfStandAndIdleHours, 
                       _HDAnalyticsCountOfIntervalsForCategoryType, _HDAnalyticsCountOfIntervalsForQuantityType, 
                       _HDAnalyticsCountOfSamples, _HDAnalyticsCountOfSleepDaysWithStandHoursPriorToDate, 
                       _HDAnalyticsStatisticsCollectionOfIntervalsForQuantityType, 
                       _HDAssociationEntityDidReceiveSyncObjectsNotification, _HDAssociationEntityPredicateForAssociatedObjects, 
                       _HDAssociationEntityPredicateForAssociationEntityForNotType, 
                       _HDAssociationEntityPredicateForAssociationEntityWithBehavior, 
                       _HDAssociationEntityPredicateForAssociationEntityWithType, 
                       _HDAssociationEntityPredicateForChildEndDate, _HDAssociationEntityPredicateForChildObjectsAssociatedWithParentObject, 
                       _HDAssociationEntityPredicateForChildObjectsAssociatedWithParentObjectForType, 
                       _HDAssociationEntityPredicateForChildObjectsWhereAssocationExistsWithParentObject, 
                       _HDAssociationEntityPropertyBehavior, _HDAssociationEntityPropertyChildDataID, 
                       _HDAssociationEntityPropertyChildDataType, _HDAssociationEntityPropertyChildUUID, 
                       _HDAssociationEntityPropertyCreationDate, _HDAssociationEntityPropertyDeleted, 
                       _HDAssociationEntityPropertyDestinationObjectID, _HDAssociationEntityPropertyDestinationSubObjectID, 
                       _HDAssociationEntityPropertyParentDataType, _HDAssociationEntityPropertyParentUUID, 
                       _HDAssociationEntityPropertyProvenance, _HDAssociationEntityPropertyRowID, 
                       _HDAssociationEntityPropertySourceObjectID, _HDAssociationEntityPropertySyncIdentity, 
                       _HDAssociationEntityPropertyType, _HDAttachmentEntityPropertyIdentifier, 
                       _HDAttachmentReferencePredicateForAttachmentIdentifier, _HDAttachmentReferencePredicateForNonTombstoneAttachmentIdentifier, 
                       _HDAttachmentReferencePredicateForObjectAndSchemaIdentifier, 
                       _HDAttachmentReferencePredicateForReferenceIdentifier, _HDAttachmentReferencePredicateForSchemaIdentifier, 
                       _HDAttachmentReferencePredicateForUnsynchronizedReferences, 
                       _HDAttachmentReferencePredicateForUnsynchronizedTombstones, 
                       _HDAttachmentReferenceTombstoneAttachmentIdentifier, _HDAttachmentReferenceTombstoneObjectIdentifier, 
                       _HDAttachmentReferenceTombstoneOptions, _HDAttachmentReferenceTombstoneSchemaIdentifier, 
                       _HDAttachmentReferenceTombstoneSchemaVersion, _HDAttachmentSchemaProviderVersionMinimumValid, 
                       _HDAttachmentSchemaProviderVersionUnknown, _HDAttachmentSchemaProviderVersionUnsupported, 
                       _HDAuthorizationEntityPropertyAvailabilityEndDate, _HDAuthorizationEntityPropertyAvailabilityStartDate, 
                       _HDAuthorizationEntityPropertyDateModified, _HDAuthorizationEntityPropertyDeletedObjectAnchor, 
                       _HDAuthorizationEntityPropertyExpiryDate, _HDAuthorizationEntityPropertyMode, 
                       _HDAuthorizationEntityPropertyModificationEpoch, _HDAuthorizationEntityPropertyObjectLimitAnchor, 
                       _HDAuthorizationEntityPropertyObjectLimitDateModified, _HDAuthorizationEntityPropertyObjectTypeCode, 
                       _HDAuthorizationEntityPropertyReminderDate, _HDAuthorizationEntityPropertyRequest, 
                       _HDAuthorizationEntityPropertySourceIdentifer, _HDAuthorizationEntityPropertyStatus, 
                       _HDAuthorizationEntityPropertySyncIdentity, _HDAuthorizationEntityPropertySyncProvenance, 
                       _HDAuthorizationIdentifiersFromCodableSharingAuthorizations, 
                       _HDBackgroundFeatureDeliveryAnalyticsEventTypeDelivery, _HDBackgroundFeatureDeliveryAnalyticsEventTypeError, 
                       _HDBackgroundLaunchInvalidationStringsKey, _HDBackgroundObservationSupportedForDataTypeCode, 
                       _HDBackstopSyncCompletionUnitTestNotification, _HDBackstopSyncLastConsiderationDateKey, 
                       _HDBackstopSyncRefusedUnitTestNotification, _HDBinnedAnalyticsValue, 
                       _HDBirthDateEntityPropertyDateComponents, _HDBucketedDatabaseSizeInMB, 
                       _HDBuiltinOrderedSyncEntities, _HDBuiltinStateSyncEntities, 
                       _HDBuiltinSyncEntityClassForType, _HDCKAcceptanceStatusToString, 
                       _HDCKDatabaseScopeToString, _HDCKPermissionToString, _HDCKRoleToString, 
                       _HDCPSWhitelistedProvidersDefaultsKey, _HDCachedQueryMetadataEntityPropertyQueryIdentifier, 
                       _HDCategorySampleEntityPredicateEqualToValues, _HDCategorySampleEntityPredicateForValue, 
                       _HDCategorySampleEntityPropertyValue, _HDCategorySampleSyncVersionRange, 
                       _HDClinicalAccountEntityPropertyClinicalSharingFirstSharedDate, 
                       _HDClinicalAccountEntityPropertyClinicalSharingLastSharedDate, 
                       _HDClinicalAccountEntityPropertyClinicalSharingMultiDeviceStatus, 
                       _HDClinicalAccountEntityPropertyClinicalSharingPrimaryDeviceName, 
                       _HDClinicalAccountEntityPropertyClinicalSharingUserStatus, 
                       _HDClinicalAccountEntityPropertyCreationDate, _HDClinicalAccountEntityPropertyCredentialID, 
                       _HDClinicalAccountEntityPropertyCredentialState, _HDClinicalAccountEntityPropertyFailedFetchAttemptsCount, 
                       _HDClinicalAccountEntityPropertyGatewayExternalID, _HDClinicalAccountEntityPropertyGatewayID, 
                       _HDClinicalAccountEntityPropertyGatewayLastReportedStatus, 
                       _HDClinicalAccountEntityPropertyIdentifier, _HDClinicalAccountEntityPropertyLastExtractedRowID, 
                       _HDClinicalAccountEntityPropertyLastExtractedRulesVersion, 
                       _HDClinicalAccountEntityPropertyLastFailedFetchDate, _HDClinicalAccountEntityPropertyLastFetchDate, 
                       _HDClinicalAccountEntityPropertyLastFullFetchDate, _HDClinicalAccountEntityPropertyLastSubmittedRowID, 
                       _HDClinicalAccountEntityPropertyModificationDate, _HDClinicalAccountEntityPropertyPatientHash, 
                       _HDClinicalAccountEntityPropertySignedClinicalDataIssuerIdentifier, 
                       _HDClinicalAccountEntityPropertySignedClinicalDataIssuerROWID, 
                       _HDClinicalAccountEntityPropertySyncAnchor, _HDClinicalAccountEntityPropertySyncIdentifier, 
                       _HDClinicalAccountEntityPropertySyncIdentity, _HDClinicalAccountEntityPropertySyncProvenance, 
                       _HDClinicalAccountEntityPropertyUserEnabled, _HDClinicalAccountEventEntityPropertyAccountIdentifier, 
                       _HDClinicalAccountEventEntityPropertyCaller, _HDClinicalAccountEventEntityPropertyCredentialStateAfter, 
                       _HDClinicalAccountEventEntityPropertyCredentialStateBefore, 
                       _HDClinicalAccountEventEntityPropertyEventDescription, _HDClinicalAccountEventEntityPropertyTimestamp, 
                       _HDClinicalAccountEventEntityPropertyType, _HDClinicalAuthorizationSessionEntityPropertyAccountID, 
                       _HDClinicalAuthorizationSessionEntityPropertyAccountIdentifier, 
                       _HDClinicalAuthorizationSessionEntityPropertyCode, _HDClinicalAuthorizationSessionEntityPropertyCreationDate, 
                       _HDClinicalAuthorizationSessionEntityPropertyGatewayExternalID, 
                       _HDClinicalAuthorizationSessionEntityPropertyGatewayID, _HDClinicalAuthorizationSessionEntityPropertyPKCEVerifier, 
                       _HDClinicalAuthorizationSessionEntityPropertyQuery, _HDClinicalAuthorizationSessionEntityPropertyRequestedScope, 
                       _HDClinicalAuthorizationSessionEntityPropertyState, _HDClinicalDeletedAccountEntityPropertyDeletionDate, 
                       _HDClinicalDeletedAccountEntityPropertyDeletionReason, _HDClinicalDeletedAccountEntityPropertySyncIdentifier, 
                       _HDClinicalDeletedAccountEntityPropertySyncIdentity, _HDClinicalDeletedAccountEntityPropertySyncProvenance, 
                       _HDClinicalGatewayContentCountryKey, _HDClinicalGatewayContentFHIRVersionKey, 
                       _HDClinicalGatewayEntityPropertyExternalID, _HDClinicalGatewayEntityPropertyLastReportedStatus, 
                       _HDClinicalGatewayEntityPropertyRawContent, _HDClinicalGatewayEntityPropertyRevision, 
                       _HDClinicalGatewayEntityPropertySyncAnchor, _HDClinicalGatewayEntityPropertySyncIdentity, 
                       _HDClinicalGatewayEntityPropertySyncProvenance, _HDClinicalNoteRecordEntityPropertyAuthors, 
                       _HDClinicalNoteRecordEntityPropertyCategoriesCodingCollections, 
                       _HDClinicalNoteRecordEntityPropertyDocumentTypeCodingCollection, 
                       _HDClinicalNoteRecordEntityPropertyNoteCreationDate, _HDClinicalNoteRecordEntityPropertyRelevantEndDate, 
                       _HDClinicalNoteRecordEntityPropertyRelevantStartDate, _HDClinicalNoteRecordEntityPropertyStatusCoding, 
                       _HDClinicalOptInStudyHealthCloudEnvironmentKey, _HDClinicalRecordEntityPropertyDisplayName, 
                       _HDClinicalRecordEntityPropertyFHIRResourceData, _HDClinicalRecordEntityPropertyFHIRResourceFHIRVersionMajor, 
                       _HDClinicalRecordEntityPropertyFHIRResourceFHIRVersionMinor, 
                       _HDClinicalRecordEntityPropertyFHIRResourceFHIRVersionPatch, 
                       _HDClinicalRecordEntityPropertyFHIRResourceIdentifier, _HDClinicalRecordEntityPropertyFHIRResourceLastUpdatedDate, 
                       _HDClinicalRecordEntityPropertyFHIRResourceResourceType, _HDClinicalRecordEntityPropertyFHIRResourceSourceURL, 
                       _HDClinicalRecordEntityPropertyOriginalFHIRResourceROWID, 
                       _HDClinicalRecordEntityPropertyOriginalSignedClinicalDataRecordROWID, 
                       _HDCloudSyncAccountInfoDefault, _HDCloudSyncAnalyticsDaysSincePreviousFullSync, 
                       _HDCloudSyncAnalyticsFullSyncReason, _HDCloudSyncAnalyticsShardResponsible, 
                       _HDCloudSyncAttachmentManagementUUID, _HDCloudSyncAttachmentReferenceEpoch, 
                       _HDCloudSyncAttachmentReferenceTombstoneEpoch, _HDCloudSyncChangeRecordSequenceRecordReferenceKey, 
                       _HDCloudSyncChangeRecordType, _HDCloudSyncCircleIdentifierKey, 
                       _HDCloudSyncCloudKitContainerIdentifier, _HDCloudSyncCloudKitSecureContainerIdentifier, 
                       _HDCloudSyncCodableAttachmentManagementRecordReadFrom, _HDCloudSyncCodableAttachmentReadFrom, 
                       _HDCloudSyncCodableAttachmentReferenceReadFrom, _HDCloudSyncCodableAttachmentReferenceTombstoneReadFrom, 
                       _HDCloudSyncCodableAttachmentReferenceTombstonesReadFrom, 
                       _HDCloudSyncCodableChangeReadFrom, _HDCloudSyncCodableDeviceContextDatabaseDetailReadFrom, 
                       _HDCloudSyncCodableDeviceContextDatabaseDetailRowReadFrom, 
                       _HDCloudSyncCodableDeviceContextReadFrom, _HDCloudSyncCodableDeviceKeyValueReadFrom, 
                       _HDCloudSyncCodableLogReadFrom, _HDCloudSyncCodableMedicalIDReadFrom, 
                       _HDCloudSyncCodableProfileIdentifierReadFrom, _HDCloudSyncCodableRegisteredStoreReadFrom, 
                       _HDCloudSyncCodableRegistryReadFrom, _HDCloudSyncCodableSequenceReadFrom, 
                       _HDCloudSyncCodableShardPredicateReadFrom, _HDCloudSyncCodableSharedSummaryAuthorizationRecordReadFrom, 
                       _HDCloudSyncCodableSharedSummaryParticipantRecordReadFrom, 
                       _HDCloudSyncCodableSharedSummaryRecordReadFrom, _HDCloudSyncCodableSharedSummaryTransactionRecordReadFrom, 
                       _HDCloudSyncCodableStateReadFrom, _HDCloudSyncCodableStoreReadFrom, 
                       _HDCloudSyncContextPurposeToString, _HDCloudSyncCoordinatorKeyValueDomain, 
                       _HDCloudSyncCountDict, _HDCloudSyncCountOfSuccessfulSyncs, 
                       _HDCloudSyncCountOfTotalSyncs, _HDCloudSyncCurrentRebaseActiveTimeDefaultsKey, 
                       _HDCloudSyncDASCheckpointSubmissionState, _HDCloudSyncDataUploadRequestRecordName, 
                       _HDCloudSyncDataUploadRequestRecordType, _HDCloudSyncDeviceContextRecordReferenceKey, 
                       _HDCloudSyncDidPullUpdateWithDate, _HDCloudSyncDownloadDirectoryAssertionIdentifier, 
                       _HDCloudSyncFullSyncAnchorMapLimitKey, _HDCloudSyncInitialRestoreFeatureCode, 
                       _HDCloudSyncKeyErrorRequiringUserAction, _HDCloudSyncKeyRestoreCompletionDate, 
                       _HDCloudSyncKeyValueDomainWithProfile, _HDCloudSyncLastPulledUpdateDate, 
                       _HDCloudSyncLastRebaseStartDefaultsKey, _HDCloudSyncLastSuccessfulLitePushKeyForContainerIdentifier, 
                       _HDCloudSyncLastSuccessfulPullKeyForContainerIdentifier, _HDCloudSyncLastSuccessfulPushDateForCoordinatedSync, 
                       _HDCloudSyncLastSuccessfulPushKeyForContainerIdentifier, _HDCloudSyncMedicalIDRecordName, 
                       _HDCloudSyncMedicalIDRecordType, _HDCloudSyncMedicationsStateChangedSubscriptionIdentifier, 
                       _HDCloudSyncOperationResultToString, _HDCloudSyncOperationStatusToString, 
                       _HDCloudSyncOperationTagComputePullTargets, _HDCloudSyncOperationTagComputePushTargets, 
                       _HDCloudSyncOperationTagUpdateAnchors, _HDCloudSyncPeriodicSyncTypeToString, 
                       _HDCloudSyncPrimaryMedicalIDDataAvailableForDownloadSubscriptionIdentifier, 
                       _HDCloudSyncPrimaryProfileDataAvailableForDownloadSubscriptionIdentifier, 
                       _HDCloudSyncPrimaryProfileDataRequestedSubscriptionIdentifier, 
                       _HDCloudSyncPrimarySyncContainerPrefix, _HDCloudSyncRebaseReasonToString, 
                       _HDCloudSyncRebaseTriggerToString, _HDCloudSyncRecordClassForRecord, 
                       _HDCloudSyncRegistryRecordType, _HDCloudSyncRestorePhaseMergeCompleteEndDate, 
                       _HDCloudSyncRestorePhaseSyncCompleteEndDate, _HDCloudSyncRestorePhaseSyncCompleteStartDate, 
                       _HDCloudSyncRestorePhaseToString, _HDCloudSyncRestoreSessionID, 
                       _HDCloudSyncSchemaVersionKey, _HDCloudSyncSequenceRecordStoreRecordReferenceKey, 
                       _HDCloudSyncSequenceType, _HDCloudSyncSessionTimeoutInterval, 
                       _HDCloudSyncSharedSummaryDataAvailableForDownloadSubscriptionIdentifier, 
                       _HDCloudSyncSharedSummaryTransactionRecordType, _HDCloudSyncSharingStatusKey, 
                       _HDCloudSyncStateRecordName, _HDCloudSyncStateRecordType, 
                       _HDCloudSyncStateStoreAggregateMergedDataLimit, _HDCloudSyncStateStoreMergedDataHardLimit, 
                       _HDCloudSyncStateStoreMergedDataSoftLimit, _HDCloudSyncStoreRecordType, 
                       _HDCloudSyncSubscriptionRecordStoreRecordReferenceKey, _HDCloudSyncTinkerMedicalIDDataAvailableForDownloadSubscriptionIdentifier, 
                       _HDCloudSyncTinkerProfileDataAvailableForDownloadSubscriptionIdentifier, 
                       _HDCloudSyncUnderlyingMessageKey, _HDCloudSyncUnprotectedAndSyncedKeyValueDomainWithProfile, 
                       _HDCloudSyncUpdateProgressAssertQueueForObjectAndLog, _HDCloudSyncUpdateProgressOnQueueByAmountForObjectAndLog, 
                       _HDCloudSyncUpdateProgressOnQueueForObjectAndLog, _HDCloudSyncUserInitiatedQOSThreshold, 
                       _HDCloudSyncZonePurposeToString, _HDCloudSyncZoneTypeToString, 
                       _HDCodableActivityCacheReadFrom, _HDCodableActivityGoalScheduleReadFrom, 
                       _HDCodableActivityStatisticsQuantityInfoReadFrom, _HDCodableAuthorizationCompleteMessageReadFrom, 
                       _HDCodableAuthorizationReadFrom, _HDCodableAuthorizationRequestMessageReadFrom, 
                       _HDCodableAuthorizationResponseMessageReadFrom, _HDCodableBinarySampleReadFrom, 
                       _HDCodableBloodPressureJournalReadFrom, _HDCodableBloodPressureJournalScheduleTimeIntervalReadFrom, 
                       _HDCodableBloodPressureJournalStateReadFrom, _HDCodableCDADocumentSampleReadFrom, 
                       _HDCodableCategoryDomainDictionaryReadFrom, _HDCodableCategorySampleReadFrom, 
                       _HDCodableClinicalAccountReadFrom, _HDCodableClinicalContactReadFrom, 
                       _HDCodableClinicalDeletedAccountReadFrom, _HDCodableClinicalGatewayReadFrom, 
                       _HDCodableCodedQuantityReadFrom, _HDCodableCodedValueCollectionReadFrom, 
                       _HDCodableCodedValueReadFrom, _HDCodableCompanionUserNotificationConfigurationReadFrom, 
                       _HDCodableCompanionUserNotificationRequestReadFrom, _HDCodableCompanionUserNotificationResponseReadFrom, 
                       _HDCodableCompanionWorkoutStateRequestReadFrom, _HDCodableCompanionWorkoutStateResponseReadFrom, 
                       _HDCodableContributorReadFrom, _HDCodableCorrelationReadFrom, 
                       _HDCodableDateComponentsReadFrom, _HDCodableDateIntervalReadFrom, 
                       _HDCodableDeletedSampleReadFrom, _HDCodableDeviceReadFrom, 
                       _HDCodableECGSampleReadFrom, _HDCodableEmergencyContactReadFrom, 
                       _HDCodableEntityIdentifierReadFrom, _HDCodableErrorReadFrom, 
                       _HDCodableFHIRCredentialReadFrom, _HDCodableFHIRResourceReadFrom, 
                       _HDCodableFitnessFriendAchievementReadFrom, _HDCodableFitnessFriendActivitySnapshotReadFrom, 
                       _HDCodableFitnessFriendWorkoutReadFrom, _HDCodableGeneratedObjectCollectionReadFrom, 
                       _HDCodableHKBirthDateReadFrom, _HDCodableHealthObjectReadFrom, 
                       _HDCodableInspectableValueCollectionReadFrom, _HDCodableInspectableValueReadFrom, 
                       _HDCodableListUserDomainConceptReadFrom, _HDCodableLocationDatumReadFrom, 
                       _HDCodableLocationSeriesReadFrom, _HDCodableMedicalCodingListReadFrom, 
                       _HDCodableMedicalCodingReadFrom, _HDCodableMedicalDateIntervalReadFrom, 
                       _HDCodableMedicalDateReadFrom, _HDCodableMedicalIDAllergyReadFrom, 
                       _HDCodableMedicalIDConditionReadFrom, _HDCodableMedicalIDDataReadFrom, 
                       _HDCodableMedicalIDMedicationReadFrom, _HDCodableMedicalUserDomainConceptReadFrom, 
                       _HDCodableMedicationDoseEventReadFrom, _HDCodableMenstrualCyclesExperienceModelReadFrom, 
                       _HDCodableMessageVersionReadFrom, _HDCodableMetadataDictionaryReadFrom, 
                       _HDCodableMetadataKeyValuePairReadFrom, _HDCodableNanoSyncActivationRestoreReadFrom, 
                       _HDCodableNanoSyncAnchorReadFrom, _HDCodableNanoSyncChangeReadFrom, 
                       _HDCodableNanoSyncChangeSetReadFrom, _HDCodableNanoSyncMessageReadFrom, 
                       _HDCodableNanoSyncStatusReadFrom, _HDCodableNotificationInstructionCriteriaReadFrom, 
                       _HDCodableNotificationInstructionMessageReadFrom, _HDCodableNotificationInstructionRequestReadFrom, 
                       _HDCodableObjectAssociationReadFrom, _HDCodableObjectAuthorizationReadFrom, 
                       _HDCodableObjectCollectionReadFrom, _HDCodableObjectSourceAuthorizationReadFrom, 
                       _HDCodableObjectTypeSourceOrderReadFrom, _HDCodableOnboardingCompletionReadFrom, 
                       _HDCodableOntologyConceptIdentifierReadFrom, _HDCodableOntologyLocalizedEducationContentReadFrom, 
                       _HDCodableOntologyLocalizedEducationContentSectionReadFrom, 
                       _HDCodableOriginalSignedClinicalDataRecordReadFrom, _HDCodablePauseRingsScheduleReadFrom, 
                       _HDCodablePinnedContentStateReadFrom, _HDCodableProvenanceReadFrom, 
                       _HDCodableQuantityReadFrom, _HDCodableQuantitySampleReadFrom, 
                       _HDCodableQuantitySeriesDatumReadFrom, _HDCodableRacingClusterReadFrom, 
                       _HDCodableRacingMetricsReadFrom, _HDCodableRatioValueReadFrom, 
                       _HDCodableReferenceRangeReadFrom, _HDCodableRoutePointDatumReadFrom, 
                       _HDCodableRoutineLocationReadFrom, _HDCodableRoutineLocationRequestReadFrom, 
                       _HDCodableRoutineLocationResponseReadFrom, _HDCodableRoutineLocationVisitReadFrom, 
                       _HDCodableRoutinePredictedLocationReadFrom, _HDCodableRoutinePredictedLocationsResponseReadFrom, 
                       _HDCodableRoutineRequestMessageReadFrom, _HDCodableRoutineResponseMessageReadFrom, 
                       _HDCodableRoutineScenarioTriggeredRequestReadFrom, _HDCodableSampleOriginCollectionReadFrom, 
                       _HDCodableSampleReadFrom, _HDCodableScoredAssessmentReadFrom, 
                       _HDCodableSectionDataReadFrom, _HDCodableSemanticDateReadFrom, 
                       _HDCodableSerializedCoherenceModelReadFrom, _HDCodableSharingAuthorizationReadFrom, 
                       _HDCodableSharingAuthorizationsFromAuthorizationIdentifiers, 
                       _HDCodableSharingAuthorizationsFromSharingAuthorizations, 
                       _HDCodableSharingRelationshipReadFrom, _HDCodableSharingSetupInvitationTokenReadFrom, 
                       _HDCodableSharingSetupMetadataReadFrom, _HDCodableSignedClinicalDataIssuerReadFrom, 
                       _HDCodableSleepScheduleReadFrom, _HDCodableSourceAuthorizationReadFrom, 
                       _HDCodableSourceReadFrom, _HDCodableStartWorkoutAppRequestReadFrom, 
                       _HDCodableStartWorkoutAppResponseReadFrom, _HDCodableStateOfMindReadFrom, 
                       _HDCodableStateSyncCollectionReadFrom, _HDCodableStaticSyncChangeSetReadFrom, 
                       _HDCodableSummarySharingEntryReadFrom, _HDCodableSyncAnchorRangeMapReadFrom, 
                       _HDCodableSyncAnchorRangeReadFrom, _HDCodableSyncEntityVersionMapReadFrom, 
                       _HDCodableSyncEntityVersionRangeReadFrom, _HDCodableSyncIdentityReadFrom, 
                       _HDCodableSyncStateOriginReadFrom, _HDCodableSyncStateReadFrom, 
                       _HDCodableSyncStateVersionedDataReadFrom, _HDCodableSyncVersionRangeReadFrom, 
                       _HDCodableTimestampedKeyValuePairReadFrom, _HDCodableTinkerEndToEndCloudSyncRequestReadFrom, 
                       _HDCodableTinkerEndToEndCloudSyncResponseReadFrom, _HDCodableTinkerOptInRequestReadFrom, 
                       _HDCodableTinkerOptInResponseReadFrom, _HDCodableTinkerPairingRequestReadFrom, 
                       _HDCodableTinkerPairingResponseReadFrom, _HDCodableTypedObjectAssociationReadFrom, 
                       _HDCodableUserDomainConceptCollectionReadFrom, _HDCodableUserDomainConceptLinkReadFrom, 
                       _HDCodableUserDomainConceptLocalizedStringPropertyReadFrom, 
                       _HDCodableUserDomainConceptNamedQuantityReadFrom, _HDCodableUserDomainConceptPropertyReadFrom, 
                       _HDCodableUserDomainConceptReadFrom, _HDCodableUserDomainConceptTypeIdentifierReadFrom, 
                       _HDCodableVerifiableDataReadFrom, _HDCodableVisionSampleReadFrom, 
                       _HDCodableWorkoutActivityReadFrom, _HDCodableWorkoutConfigurationReadFrom, 
                       _HDCodableWorkoutEventReadFrom, _HDCodableWorkoutReadFrom, 
                       _HDCodableWorkoutSessionConfigurationReadFrom, _HDCodableWorkoutSessionGlobalStateReadFrom, 
                       _HDCodableWorkoutSessionSyncTransactionReadFrom, _HDCodableWorkoutSetMetricReadFrom, 
                       _HDCodableWorkoutSetReadFrom, _HDCodableWorkoutStatisticsReadFrom, 
                       _HDCodableWorkoutZoneGroupReadFrom, _HDCodableWorkoutZoneReadFrom, 
                       _HDCodableWorkoutZonesReadFrom, _HDCompletedTransitionToSyncIdentity, 
                       _HDConceptAuthorizationEntityPredicateForHealthConceptDomain, 
                       _HDConceptAuthorizationEntityPredicateForHealthConceptIdentifier, 
                       _HDConceptAuthorizationEntityPredicateForHealthConceptIdentifiers, 
                       _HDConceptAuthorizationEntityPredicateForSemanticIdentifierString, 
                       _HDConceptAuthorizationEntityPredicateForSourceUUID, _HDConceptAuthorizationEntityPredicateForStatus, 
                       _HDConceptIndexEntityPredicateForConceptIdentifier, _HDConceptIndexEntityPredicateForConceptIdentifiers, 
                       _HDConceptIndexEntityPropertyCompoundIndex, _HDConceptIndexEntityPropertyConceptIdentifier, 
                       _HDConceptIndexEntityPropertyConceptVersion, _HDConceptIndexEntityPropertyKeyPath, 
                       _HDConceptIndexEntityPropertyObjectID, _HDConceptIndexEntityPropertyType, 
                       _HDConditionRecordEntityPropertyAbatement, _HDConditionRecordEntityPropertyAsserter, 
                       _HDConditionRecordEntityPropertyBodySitesCodingCollections, 
                       _HDConditionRecordEntityPropertyCategoriesCodingCollections, 
                       _HDConditionRecordEntityPropertyClinicalStatusCoding, _HDConditionRecordEntityPropertyConditionCodingCollection, 
                       _HDConditionRecordEntityPropertyOnset, _HDConditionRecordEntityPropertyRecordedDate, 
                       _HDConditionRecordEntityPropertySeverityCodingCollection, 
                       _HDConditionRecordEntityPropertyVerificationStatusCoding, 
                       _HDContributorEntityPropertyAppleID, _HDContributorEntityPropertyCallerID, 
                       _HDContributorEntityPropertyDeleted, _HDContributorEntityPropertyModificationDate, 
                       _HDContributorEntityPropertyPrimaryUser, _HDContributorEntityPropertySyncAnchor, 
                       _HDContributorEntityPropertySyncIdentity, _HDContributorEntityPropertySyncProvenance, 
                       _HDContributorEntityPropertyUUID, _HDCoreAnalyticsLastMonthDatabaseSizeKey, 
                       _HDCoreAnalyticsLastWeekDatabaseSizeKey, _HDCoverageRecordEntityPropertyBeneficiary, 
                       _HDCoverageRecordEntityPropertyBeneficiaryIdentifier, _HDCoverageRecordEntityPropertyClassification, 
                       _HDCoverageRecordEntityPropertyCoverageTypeCodingCollection, 
                       _HDCoverageRecordEntityPropertyNetwork, _HDCoverageRecordEntityPropertyPayor, 
                       _HDCoverageRecordEntityPropertyPeriodEndDate, _HDCoverageRecordEntityPropertyPeriodStartDate, 
                       _HDCoverageRecordEntityPropertyPolicyHolder, _HDCoverageRecordEntityPropertyRelationshipCodingCollection, 
                       _HDCoverageRecordEntityPropertyStatusCoding, _HDCoverageRecordEntityPropertySubscriber, 
                       _HDCoverageRecordEntityPropertySubscriberId, _HDCoverageRecordEntityPropertySubscriberIdentifier, 
                       _HDCreateDataAggregatorForType, _HDCreateMigrationStep, _HDCreateSerialUtilityDispatchQueue, 
                       _HDCurrentWorkoutSessionAssertion, _HDDaemonHomescreenUnlockedAtHomescreenKey, 
                       _HDDaemonHomescreenUnlockedNotification, _HDDataAggregationRequestModeToString, 
                       _HDDataAggregatorSensorDatumKey, _HDDataCollectionAccessToFitnessDataDidChangeNotification, 
                       _HDDataCollectionAssertionIdentifier, _HDDataCollectorEnumerateBatches, 
                       _HDDataEntityEncodingOptionExcludePrivateMetadata, _HDDataEntityEncodingOptionIncludeAutomaticTimeZone, 
                       _HDDataEntityEncodingOptionIncludeContributorInformation, 
                       _HDDataEntityEncodingOptionOverrideMCCategorySampleValue, 
                       _HDDataEntityPredicateForContributorIdentifier, _HDDataEntityPredicateForCreationDate, 
                       _HDDataEntityPredicateForDataUUID, _HDDataEntityPredicateForDataUUIDs, 
                       _HDDataEntityPredicateForDeviceIdentifierSet, _HDDataEntityPredicateForObjectsAfterAnchor, 
                       _HDDataEntityPredicateForObjectsFromAppleWatchSources, _HDDataEntityPredicateForOriginBuild, 
                       _HDDataEntityPredicateForOriginBuildInRange, _HDDataEntityPredicateForOriginProductType, 
                       _HDDataEntityPredicateForRowID, _HDDataEntityPredicateForRowIDs, 
                       _HDDataEntityPredicateForSourceEntity, _HDDataEntityPredicateForSourceEntitySet, 
                       _HDDataEntityPredicateForSourceIdentifier, _HDDataEntityPredicateForSourceIdentifierSet, 
                       _HDDataEntityPredicateForSourceRevisionsSet, _HDDataEntityPredicateForSyncIdentity, 
                       _HDDataEntityPredicateForSyncProvenance, _HDDataEntityPredicateForType, 
                       _HDDataEntityPropertyCreationDate, _HDDataEntityPropertyDataID, 
                       _HDDataEntityPropertyDeviceID, _HDDataEntityPropertyLocalBuild, 
                       _HDDataEntityPropertyLocalProductType, _HDDataEntityPropertyOriginBuild, 
                       _HDDataEntityPropertyOriginMajorVersion, _HDDataEntityPropertyOriginMinorVersion, 
                       _HDDataEntityPropertyOriginPatchVersion, _HDDataEntityPropertyOriginProductType, 
                       _HDDataEntityPropertyProvenance, _HDDataEntityPropertyProvenanceDerivedFlags, 
                       _HDDataEntityPropertySourceID, _HDDataEntityPropertySourceVersion, 
                       _HDDataEntityPropertySyncIdentifier, _HDDataEntityPropertySyncIdentity, 
                       _HDDataEntityPropertySyncObjectCode, _HDDataEntityPropertySyncProvenance, 
                       _HDDataEntityPropertySyncVersion, _HDDataEntityPropertyTimeZoneName, 
                       _HDDataEntityPropertyType, _HDDataEntityPropertyUUID, _HDDataExternalSyncIdentifierEntityPropertyDeleted, 
                       _HDDataExternalSyncIdentifierEntityPropertyIdentifier, _HDDataExternalSyncIdentifierEntityPropertyObjectCode, 
                       _HDDataExternalSyncIdentifierEntityPropertyObjectID, _HDDataExternalSyncIdentifierEntityPropertySourceID, 
                       _HDDataExternalSyncIdentifierEntityPropertyVersion, _HDDataProvenanceEntityPropertyContributorID, 
                       _HDDataProvenanceEntityPropertyDerivedFlags, _HDDataProvenanceEntityPropertyDeviceID, 
                       _HDDataProvenanceEntityPropertyLocalBuild, _HDDataProvenanceEntityPropertyLocalProductType, 
                       _HDDataProvenanceEntityPropertyOriginBuild, _HDDataProvenanceEntityPropertyOriginMajorVersion, 
                       _HDDataProvenanceEntityPropertyOriginMinorVersion, _HDDataProvenanceEntityPropertyOriginPatchVersion, 
                       _HDDataProvenanceEntityPropertyOriginProductType, _HDDataProvenanceEntityPropertySourceID, 
                       _HDDataProvenanceEntityPropertySourceVersion, _HDDataProvenanceEntityPropertySyncIdentity, 
                       _HDDataProvenanceEntityPropertySyncProvenance, _HDDataProvenanceOperatingSystemVersion8_0_0, 
                       _HDDataProvenanceOperatingSystemVersion8_2_0, _HDDataProvenanceOperatingSystemVersionUnknown, 
                       _HDDataProvenanceProductTypeUnknown, _HDDataProvenanceSourceVersionUnknown, 
                       _HDDataProvenanceSystemBuildPost8_2, _HDDataProvenanceSystemBuildPre8_2, 
                       _HDDataProvenanceSystemBuildUnknown, _HDDataProvenanceTimeZoneNameUnknown, 
                       _HDDataTypeSourceOrderPropertyDataType, _HDDataTypeSourceOrderPropertySource, 
                       _HDDatabaseBucketedSizeInMBForDatabase, _HDDatabaseBucketedSizeInMBForDatabaseType, 
                       _HDDatabaseCurrentSchemaVersion, _HDDatabaseErrorKeyErrorIndicatesCorruption, 
                       _HDDatabaseErrorKeyFailureType, _HDDatabaseErrorKeyRecommendsPromptingUser, 
                       _HDDatabaseErrorKeySuberror, _HDDatabaseForContainer, _HDDatabaseIdentifierDefaultKeyForProfileIdentifier, 
                       _HDDatabaseJournalMaxMergeAttemptCount, _HDDatabaseMigrationForeignKeyStatusToString, 
                       _HDDatabaseMigrationStatusToString, _HDDatabaseNewStoreAnchorRelevanceInterval, 
                       _HDDatabasePruningAccessibilityAssertionTimeout, _HDDatabasePruningFrozenAnchorRelevanceInterval, 
                       _HDDatabasePruningOperationObjectLimit, _HDDatabasePruningTransactionObjectLimit, 
                       _HDDatabaseSizeInMB, _HDDatabaseUserDefaultsKeyForProfileIdentifier, 
                       _HDDecodeDateForValue, _HDDeletedObjectPredicateForDeletionDate, 
                       _HDDemoDataBloodPressureMake, _HDDemoDataECGFileNameAFib, 
                       _HDDemoDataECGFileNameNSR, _HDDemoDataEnableCloudSyncForDemoDataKey, 
                       _HDDemoDataEnableNotificationsKey, _HDDemoDataEnsureRecentWorkoutHasRouteKey, 
                       _HDDemoDataFirstRunDateKey, _HDDemoDataFirstSampleDateKey, 
                       _HDDemoDataGenderKey, _HDDemoDataGenerateHealthDocumentsKey, 
                       _HDDemoDataGenerateMedicalIDKey, _HDDemoDataGenerateRecentLiquidsIntakeKey, 
                       _HDDemoDataHighFidelityDataKey, _HDDemoDataInitialGenerationPeriodKey, 
                       _HDDemoDataIsValidGenerationPeriod, _HDDemoDataLastRunDateKey, 
                       _HDDemoDataLastSampleDateKey, _HDDemoDataLoudHeadphoneListeningKey, 
                       _HDDemoDataMenstrualFlowMake, _HDDemoDataNutritionTrackingTypeKey, 
                       _HDDemoDataProfileTypeKey, _HDDemoDataProgressKey, _HDDemoDataReproductiveHealthAgeOfFirstPeriod, 
                       _HDDemoDataResetDatabaseKey, _HDDemoDataResultsTrackingTypeKey, 
                       _HDDemoDataSampleTrackingTypeKey, _HDDemoDataSettingsDidChangeNotification, 
                       _HDDemoDataSleepSampleGeneratorIncrementInterval, _HDDemoData_ageBetweenNSDateComponentsAndDate, 
                       _HDDemoData_currentDayFromCurrentTime, _HDDemoData_currentDayOfWeekFromCurrentTime, 
                       _HDDemoData_currentDayOfYearFromNSDateComponents, _HDDemoData_currentHourFromCurrentTime, 
                       _HDDemoData_localTimeFromCurrentTime, _HDDemoData_randomBiologicalSex, 
                       _HDDemoData_randomBloodType, _HDDemoData_randomFitzpatrickSkinType, 
                       _HDDemoData_roundDoubleWithDecimalPositions, _HDDemoData_timeFromDateComponents, 
                       _HDDemoData_timeFromNSDateComponents, _HDDemoData_timeFromTimeInterval, 
                       _HDDemoData_timeIntervalFromTime, _HDDeviceEntityPropertyBluetoothIdentifier, 
                       _HDDeviceEntityPropertyCreationDate, _HDDeviceEntityPropertyFDAUDI, 
                       _HDDeviceEntityPropertyFirmware, _HDDeviceEntityPropertyHardware, 
                       _HDDeviceEntityPropertyLocalIdentifier, _HDDeviceEntityPropertyManufacturer, 
                       _HDDeviceEntityPropertyModel, _HDDeviceEntityPropertyName, 
                       _HDDeviceEntityPropertySoftware, _HDDeviceEntityPropertySyncIdentity, 
                       _HDDeviceEntityPropertySyncProvenance, _HDDeviceEntityPropertyUUID, 
                       _HDDiagnosticTestReportEntityPropertyDiagnosticTestCodingCollection, 
                       _HDDiagnosticTestReportEntityPropertyEffectiveEndDate, _HDDiagnosticTestReportEntityPropertyEffectiveStartDate, 
                       _HDDiagnosticTestReportEntityPropertyIssueDate, _HDDiagnosticTestReportEntityPropertyResults, 
                       _HDDiagnosticTestReportEntityPropertyStatusCoding, _HDDiagnosticTestResultEntityPropertyBodySiteCodingCollection, 
                       _HDDiagnosticTestResultEntityPropertyCategoriesCodingCollections, 
                       _HDDiagnosticTestResultEntityPropertyCategory, _HDDiagnosticTestResultEntityPropertyComments, 
                       _HDDiagnosticTestResultEntityPropertyDiagnosticTestCodingCollection, 
                       _HDDiagnosticTestResultEntityPropertyEffectiveEndDate, _HDDiagnosticTestResultEntityPropertyEffectiveStartDate, 
                       _HDDiagnosticTestResultEntityPropertyInterpretationCodingCollections, 
                       _HDDiagnosticTestResultEntityPropertyIssueDate, _HDDiagnosticTestResultEntityPropertyMethodCodingCollection, 
                       _HDDiagnosticTestResultEntityPropertyPerformers, _HDDiagnosticTestResultEntityPropertyReferenceRangeStatus, 
                       _HDDiagnosticTestResultEntityPropertyReferenceRanges, _HDDiagnosticTestResultEntityPropertyStatusCoding, 
                       _HDDiagnosticTestResultEntityPropertyValue, _HDDispatchQueueName, 
                       _HDDoseEventUUIDsFromCodableObjectCollection, _HDECGEntityAssociatedSymptomsPredicateForIdentifier, 
                       _HDECGEntityPredicateForAverageHeartRate, _HDECGEntityPredicateForPrivateClassification, 
                       _HDECGEntityPredicateForPublicClassification, _HDECGEntityPredicateForSymptomsStatus, 
                       _HDEncodeValueForDate, _HDEnforceFutureMigrationCarryDevicePolicy, 
                       _HDEntityActivityModeModeForRowAndColumnName, _HDEntityCategoryForKeyValueCategory, 
                       _HDFHIRCredentialEntityPropertyCreationDate, _HDFHIRCredentialEntityPropertyDeleted, 
                       _HDFHIRCredentialEntityPropertyExpirationDate, _HDFHIRCredentialEntityPropertyIdentifier, 
                       _HDFHIRCredentialEntityPropertyPatientID, _HDFHIRCredentialEntityPropertyRequestedScope, 
                       _HDFHIRCredentialEntityPropertyScope, _HDFHIRCredentialEntityPropertySyncIdentity, 
                       _HDFHIRCredentialEntityPropertySyncProvenance, _HDFakeDataIndicator, 
                       _HDFitnessFriendAchievementEntityPredicateForFriendUUID, _HDFitnessFriendActivitySnapshotEntityPredicateForFriendUUID, 
                       _HDFitnessFriendActivitySnapshotEntityPredicateForSnapshotIndex, 
                       _HDFitnessFriendActivitySnapshotEntityPredicateThroughAnchor, 
                       _HDFitnessFriendWorkoutEntityEntityPredicateForFriendUUID, 
                       _HDFutureMigrationCarryDeviceGuardShouldFireTapToRadar, _HDHFBooleanSampleEntityPropertyValue, 
                       _HDHFConceptSampleEntityPropertyValue, _HDHFConceptSampleEntityPropertyValueLabel, 
                       _HDHFDataStoreUserDefaultAzulHFDRebuildStage, _HDHFQuantitySampleEntityPropertyValue, 
                       _HDHFSampleEntityPropertyIdentifier, _HDHealthAppNotificationSyncServiceIdentifier, 
                       _HDHealthDaemonApplicationsInstalledBundleIdentifiersKey, 
                       _HDHealthDaemonApplicationsInstalledNotification, _HDHealthDaemonApplicationsUninstalledBundleIdentifiersKey, 
                       _HDHealthDaemonApplicationsUninstalledNotification, _HDHealthDaemonConcurrentDatabaseReadersKey, 
                       _HDHealthDaemonFitnessAppsAllowedNotification, _HDHealthDaemonFitnessAppsRestrictedNotification, 
                       _HDHealthDaemonFrameworkBundle, _HDHealthDaemonWorkoutSpringboardLockedOutNotification, 
                       _HDHealthFactBooleanSyncVersionRange, _HDHealthFactConceptSyncVersionRange, 
                       _HDHealthFactQuantitySyncVersionRange, _HDHealthInUseDefaultsKey, 
                       _HDHealthRecordsGatewayListURL, _HDHealthStoreServerDidAssociateWorkoutSamples, 
                       _HDHealthStoreServerUserPreferencesDidChangeNotification, 
                       _HDHeartDailyAnalyticsProcessingIntervalForCurrentDateAndCalendar, 
                       _HDIDSErrorDomain, _HDIngestionDomainActiveEnergy, _HDIngestionDomainAppleExerciseTime, 
                       _HDIngestionDomainBasalEnergy, _HDIngestionDomainBriskMinutes, 
                       _HDIngestionDomainDistanceCycling, _HDIngestionDomainDistanceDownhillSnowSports, 
                       _HDIngestionDomainDistanceSwimming, _HDIngestionDomainDistanceWheelchair, 
                       _HDIngestionDomainHeartRate, _HDIngestionDomainSwimmingStrokes, 
                       _HDInitialCacheEpoch, _HDInstantiateSyncStore, _HDKeyValueEntityDefaultDomain, 
                       _HDKeyValuePropertySyncIdentity, _HDLastLongTimeWithoutSuccessfulCloudSyncReportDateDefaultPrefix, 
                       _HDListUserDomainConceptEntityPredicateForListType, _HDListUserDomainConceptEntityPredicateForListTypes, 
                       _HDListUserDomainConceptEntityPropertyListName, _HDListUserDomainConceptEntityPropertyListType, 
                       _HDLogicalOrderSourceEntityPredicateWithDataType, _HDLogicalOrderSourceEntityPredicateWithSourceIDs, 
                       _HDLogicalSourceEntityPropertyBundleIdentifier, _HDLogicalSourceEntityPropertyOwnerBundleIdentifier, 
                       _HDLogicalSourceOrderPropertyDataType, _HDLogicalSourceOrderPropertyLogicalSource, 
                       _HDLogicalSourceOrderPropertyModificationDate, _HDLogicalSourceOrderPropertySyncIdentity, 
                       _HDLogicalSourceOrderPropertySyncProvenance, _HDLogicalSourceOrderPropertyUserPreferredOrder, 
                       _HDLogicalSourceTombstoneBundleIdentifier, _HDLongTimeWithoutSuccessfulCloudSyncDefaultPeriodicSyncErrorStrings, 
                       _HDMHAllergyRecordEntityPropertyAllergyType, _HDMHAllergyRecordEntityPropertyAsserter, 
                       _HDMHAllergyRecordEntityPropertyClinicalStatus, _HDMHAllergyRecordEntityPropertyCriticalityConceptIdentifier, 
                       _HDMHAllergyRecordEntityPropertyLastOccurrenceDate, _HDMHAllergyRecordEntityPropertyOnsetDate, 
                       _HDMHAllergyRecordEntityPropertyVerificationStatus, _HDMHHealthConcernRecordEntityPropertyAbatementDate, 
                       _HDMHHealthConcernRecordEntityPropertyAsserter, _HDMHHealthConcernRecordEntityPropertyBodySiteConceptIdentifiers, 
                       _HDMHHealthConcernRecordEntityPropertyClinicalStatus, _HDMHHealthConcernRecordEntityPropertyOnsetDate, 
                       _HDMHHealthConcernRecordEntityPropertySeverity, _HDMHHealthConcernRecordEntityPropertyVerificationStatus, 
                       _HDMHImmunizationRecordEntityPropertyAdministrationDate, _HDMHImmunizationRecordEntityPropertyBodySiteConceptIdentifier, 
                       _HDMHImmunizationRecordEntityPropertyPerformedAtLocation, 
                       _HDMHImmunizationRecordEntityPropertyPerformer, _HDMHLabResultRecordEntityPropertyIssueDate, 
                       _HDMHLabResultRecordEntityPropertyMethodConceptIdentifiers, 
                       _HDMHLabResultRecordEntityPropertyPerformers, _HDMHLabResultRecordEntityPropertyTestDate, 
                       _HDMHProcedureRecordEntityPropertyBodySiteConceptIdentifiers, 
                       _HDMHProcedureRecordEntityPropertyPerformedAtLocation, _HDMHProcedureRecordEntityPropertyPerformedDate, 
                       _HDMHProcedureRecordEntityPropertyPerformers, _HDMHProcedureRecordEntityPropertyReasonConceptIdentifiers, 
                       _HDMHQuantitativeLabResultRecordEntityPropertyReferenceRanges, 
                       _HDMHQuantitativeLabResultRecordEntityPropertyValue, _HDMHRecordEntityPropertyEnteredDate, 
                       _HDMHRecordEntityPropertyNotes, _HDMHRecordEntityPropertyPrimaryConceptIdentifier, 
                       _HDMHRecordEntityPropertySortDate, _HDMHRecordEntityPropertySortDateKeyPath, 
                       _HDMaxObjectPersistentIDKey, _HDMedicalDownloadableAttachmentEntityPropertyAccountIdentifier, 
                       _HDMedicalDownloadableAttachmentEntityPropertyAttachmentUUID, 
                       _HDMedicalDownloadableAttachmentEntityPropertyClinicalRecordUUID, 
                       _HDMedicalDownloadableAttachmentEntityPropertyContentType, 
                       _HDMedicalDownloadableAttachmentEntityPropertyCreationDate, 
                       _HDMedicalDownloadableAttachmentEntityPropertyErrorStatus, 
                       _HDMedicalDownloadableAttachmentEntityPropertyExpectedHash, 
                       _HDMedicalDownloadableAttachmentEntityPropertyFHIRVersion, 
                       _HDMedicalDownloadableAttachmentEntityPropertyFileURL, _HDMedicalDownloadableAttachmentEntityPropertyIdentifier, 
                       _HDMedicalDownloadableAttachmentEntityPropertyInlineData, 
                       _HDMedicalDownloadableAttachmentEntityPropertyInlineDataChecksum, 
                       _HDMedicalDownloadableAttachmentEntityPropertyLastError, _HDMedicalDownloadableAttachmentEntityPropertyLastUpdatedDate, 
                       _HDMedicalDownloadableAttachmentEntityPropertyLocale, _HDMedicalDownloadableAttachmentEntityPropertyMedicalRecordUUID, 
                       _HDMedicalDownloadableAttachmentEntityPropertyMetadata, _HDMedicalDownloadableAttachmentEntityPropertyNextRetryDate, 
                       _HDMedicalDownloadableAttachmentEntityPropertyRetryCount, 
                       _HDMedicalDownloadableAttachmentEntityPropertySizeInBytes, 
                       _HDMedicalDownloadableAttachmentEntityPropertyStatus, _HDMedicalDownloadableAttachmentEntityPropertyTitle, 
                       _HDMedicalDownloadableAttachmentEntityPropertyType, _HDMedicalDownloadableAttachmentEntityPropertyWebURL, 
                       _HDMedicalRecordEntityEncodingOptionSkipApplyingConceptIndex, 
                       _HDMedicalRecordEntityPredicateForFHIRIdentifier, _HDMedicalRecordEntityPredicateForMedicalUserDomainConcept, 
                       _HDMedicalRecordEntityPredicateForModifiedDate, _HDMedicalRecordEntityPredicateForOriginType, 
                       _HDMedicalRecordEntityPredicateForSignedClinicalDataOriginIdentifier, 
                       _HDMedicalRecordEntityPredicateForSortDate, _HDMedicalRecordEntityPredicateForState, 
                       _HDMedicalRecordEntityPropertyCountry, _HDMedicalRecordEntityPropertyEnteredInError, 
                       _HDMedicalRecordEntityPropertyExtractionVersion, _HDMedicalRecordEntityPropertyFHIRIdentifier, 
                       _HDMedicalRecordEntityPropertyLocale, _HDMedicalRecordEntityPropertyModifiedDate, 
                       _HDMedicalRecordEntityPropertyNote, _HDMedicalRecordEntityPropertyOriginalFHIRResourceROWID, 
                       _HDMedicalRecordEntityPropertyOriginalSignedClinicalDataRecordROWID, 
                       _HDMedicalRecordEntityPropertySortDate, _HDMedicalRecordEntityPropertySortDateKeyPath, 
                       _HDMedicalRecordEntityPropertyState, _HDMedicalUserDomainConceptEntityPredicateForCategoryType, 
                       _HDMedicalUserDomainConceptEntityPredicateForCategoryTypes, 
                       _HDMedicalUserDomainConceptEntityPredicateForCountryCode, 
                       _HDMedicalUserDomainConceptEntityPredicateForMedicalRecordWithUUID, 
                       _HDMedicalUserDomainConceptEntityPredicateForMedicalRecordWithUUIDs, 
                       _HDMedicalUserDomainConceptEntityPropertyCategoryType, _HDMedicalUserDomainConceptEntityPropertyCountryCode, 
                       _HDMedicalUserDomainConceptEntityUnmappedTimeToLive, _HDMedicalUserDomainConceptMappingEntityRecordUUID, 
                       _HDMedicalUserDomainConceptMappingEntityUDCUUID, _HDMedicationDispenseRecordEntityPropertyDaysSupplyQuantity, 
                       _HDMedicationDispenseRecordEntityPropertyDosages, _HDMedicationDispenseRecordEntityPropertyEarliestDosageDate, 
                       _HDMedicationDispenseRecordEntityPropertyHandOverDate, _HDMedicationDispenseRecordEntityPropertyMedicationCodings, 
                       _HDMedicationDispenseRecordEntityPropertyPreparationDate, 
                       _HDMedicationDispenseRecordEntityPropertyQuantityDispensed, 
                       _HDMedicationDispenseRecordEntityPropertyStatusCoding, _HDMedicationDoseEventEntityEncodingOptionExcludePrivateMedicationInfo, 
                       _HDMedicationDoseEventEntityPredicateForLogOrigin, _HDMedicationDoseEventEntityPredicateForLogOrigins, 
                       _HDMedicationDoseEventEntityPredicateForMedicationConceptIdentifier, 
                       _HDMedicationDoseEventEntityPredicateForMedicationConceptIdentifiers, 
                       _HDMedicationDoseEventEntityPredicateForMedicationIdentifier, 
                       _HDMedicationDoseEventEntityPredicateForMedicationIdentifiers, 
                       _HDMedicationDoseEventEntityPredicateForMedicationUUID, _HDMedicationDoseEventEntityPredicateForMedicationUUIDs, 
                       _HDMedicationDoseEventEntityPredicateForScheduleItemIdentifier, 
                       _HDMedicationDoseEventEntityPredicateForScheduleItemIdentifiers, 
                       _HDMedicationDoseEventEntityPredicateForScheduledDate, _HDMedicationDoseEventEntityPredicateForScheduledDates, 
                       _HDMedicationDoseEventEntityPredicateForStatus, _HDMedicationDoseEventEntityPredicateForStatuses, 
                       _HDMedicationDoseEventEntityPropertyDoseQuantity, _HDMedicationDoseEventEntityPropertyHashedMedicationIdentifier, 
                       _HDMedicationDoseEventEntityPropertyLogOrigin, _HDMedicationDoseEventEntityPropertyMedicationIdentifier, 
                       _HDMedicationDoseEventEntityPropertyMedicationUUID, _HDMedicationDoseEventEntityPropertyScheduleItemIdentifier, 
                       _HDMedicationDoseEventEntityPropertyScheduledDate, _HDMedicationDoseEventEntityPropertyScheduledDoseQuantity, 
                       _HDMedicationDoseEventEntityPropertyStatus, _HDMedicationDoseEventEntityPropertyUnitString, 
                       _HDMedicationDoseEventSyncVersionRange, _HDMedicationOrderEntityPropertyDosages, 
                       _HDMedicationOrderEntityPropertyEarliestDosageDate, _HDMedicationOrderEntityPropertyEndedDate, 
                       _HDMedicationOrderEntityPropertyMedicationCodingCollection, 
                       _HDMedicationOrderEntityPropertyNumberOfFills, _HDMedicationOrderEntityPropertyPrescriber, 
                       _HDMedicationOrderEntityPropertyReasonCodingCollections, _HDMedicationOrderEntityPropertyReasonEndedCodingCollection, 
                       _HDMedicationOrderEntityPropertyStatusCoding, _HDMedicationOrderEntityPropertyStatusReasonCodingCollection, 
                       _HDMedicationOrderEntityPropertyWrittenDate, _HDMedicationRecordEntityPropertyAsserter, 
                       _HDMedicationRecordEntityPropertyAssertionDate, _HDMedicationRecordEntityPropertyAssertionType, 
                       _HDMedicationRecordEntityPropertyDosages, _HDMedicationRecordEntityPropertyEarliestDosageDate, 
                       _HDMedicationRecordEntityPropertyEffectiveEndDate, _HDMedicationRecordEntityPropertyEffectiveStartDate, 
                       _HDMedicationRecordEntityPropertyMedicationCodingCollection, 
                       _HDMedicationRecordEntityPropertyNotTaken, _HDMedicationRecordEntityPropertyReasonForUseCodingCollections, 
                       _HDMedicationRecordEntityPropertyReasonsNotTakenCodingCollections, 
                       _HDMedicationRecordEntityPropertyStatusCoding, _HDMergedQuantitySensorData, 
                       _HDMetadataKeyEntityPropertyKey, _HDMetadataKeyPredicateForKey, 
                       _HDMetadataValueEntityPropertyDataValue, _HDMetadataValueEntityPropertyDateValue, 
                       _HDMetadataValueEntityPropertyKeyID, _HDMetadataValueEntityPropertyNumericValue, 
                       _HDMetadataValueEntityPropertyObjectID, _HDMetadataValueEntityPropertyStringValue, 
                       _HDMetadataValueEntityPropertyValueType, _HDMostRecentSuccessfulPullDateForProfile, 
                       _HDNanoSyncEntityClassForObjectType, _HDNanoSyncMessageIDString, 
                       _HDNanoUserDefaultsDidSyncNotificationKeysKey, _HDNotificationCategorySampleSyncVersionRange, 
                       _HDNotificationInstructionPredicateForIsValid, _HDOldestSampleStartDate, 
                       _HDOnboardingCompletionEntityPropertyCompletionDate, _HDOnboardingCompletionEntityPropertyCountryCode, 
                       _HDOnboardingCompletionEntityPropertyCountryCodeProvenance, 
                       _HDOnboardingCompletionEntityPropertyDeleted, _HDOnboardingCompletionEntityPropertyFeatureIdentifier, 
                       _HDOnboardingCompletionEntityPropertyModificationDate, _HDOnboardingCompletionEntityPropertySyncIdentity, 
                       _HDOnboardingCompletionEntityPropertySyncProvenance, _HDOnboardingCompletionEntityPropertyUUID, 
                       _HDOnboardingCompletionEntityPropertyVersion, _HDOptionsForRequest, 
                       _HDOriginalFHIRResourceEntityPropertyAccountID, _HDOriginalFHIRResourceEntityPropertyClinicalLinkROWID, 
                       _HDOriginalFHIRResourceEntityPropertyExtractionHints, _HDOriginalFHIRResourceEntityPropertyFHIRVersion, 
                       _HDOriginalFHIRResourceEntityPropertyFirstSeenDate, _HDOriginalFHIRResourceEntityPropertyFirstSeenDateTimeZone, 
                       _HDOriginalFHIRResourceEntityPropertyOriginBuild, _HDOriginalFHIRResourceEntityPropertyOriginMajorVersion, 
                       _HDOriginalFHIRResourceEntityPropertyOriginMinorVersion, _HDOriginalFHIRResourceEntityPropertyOriginPatchVersion, 
                       _HDOriginalFHIRResourceEntityPropertyRawContent, _HDOriginalFHIRResourceEntityPropertyReceivedDate, 
                       _HDOriginalFHIRResourceEntityPropertyReceivedDateTimeZone, 
                       _HDOriginalFHIRResourceEntityPropertyResourceID, _HDOriginalFHIRResourceEntityPropertySourceURL, 
                       _HDOriginalFHIRResourceEntityPropertySyncIdentity, _HDOriginalFHIRResourceEntityPropertySyncProvenance, 
                       _HDOriginalFHIRResourceEntityPropertyType, _HDOriginalFHIRResourceEntityPropertyUniquenessChecksum, 
                       _HDOriginalFHIRResourceLastSeenEntityLastSeenDate, _HDOriginalFHIRResourceLastSeenEntityResourceID, 
                       _HDOriginalSignedClinicalDataRecordEntityPropertyAccountROWID, 
                       _HDOriginalSignedClinicalDataRecordEntityPropertyDeleted, 
                       _HDOriginalSignedClinicalDataRecordEntityPropertyFirstSeenDate, 
                       _HDOriginalSignedClinicalDataRecordEntityPropertyFirstSeenDateTimeZone, 
                       _HDOriginalSignedClinicalDataRecordEntityPropertyGatewayExternalID, 
                       _HDOriginalSignedClinicalDataRecordEntityPropertyIssuerIdentifier, 
                       _HDOriginalSignedClinicalDataRecordEntityPropertyLastModifiedDate, 
                       _HDOriginalSignedClinicalDataRecordEntityPropertyMetadata, 
                       _HDOriginalSignedClinicalDataRecordEntityPropertyRawContent, 
                       _HDOriginalSignedClinicalDataRecordEntityPropertyReceivedDate, 
                       _HDOriginalSignedClinicalDataRecordEntityPropertyReceivedDateTimeZone, 
                       _HDOriginalSignedClinicalDataRecordEntityPropertySignatureStatus, 
                       _HDOriginalSignedClinicalDataRecordEntityPropertySourceType, 
                       _HDOriginalSignedClinicalDataRecordEntityPropertySourceURL, 
                       _HDOriginalSignedClinicalDataRecordEntityPropertySyncIdentifier, 
                       _HDOriginalSignedClinicalDataRecordEntityPropertySyncIdentity, 
                       _HDOriginalSignedClinicalDataRecordEntityPropertySyncProvenance, 
                       _HDOriginalSignedClinicalDataRecordEntityPropertyType, _HDOriginalSignedClinicalDataRecordEntityPropertyUniquenessChecksum, 
                       _HDPPTTestDataUpdateAppliedDefaultsKey, _HDPPTTestRunningDefaultsKey, 
                       _HDPauseRingsScheduleEntityPredicateForCacheIndexRange, _HDPauseRingsScheduleEntityPropertyEndDateIndex, 
                       _HDPauseRingsScheduleEntityPropertyStartDateIndex, _HDPendingAssociationEntityPropertyBehavior, 
                       _HDPendingAssociationEntityPropertyChildUUID, _HDPendingAssociationEntityPropertyCreationDate, 
                       _HDPendingAssociationEntityPropertyDeleted, _HDPendingAssociationEntityPropertyDestinationSubUUID, 
                       _HDPendingAssociationEntityPropertyParentUUID, _HDPendingAssociationEntityPropertyProvenance, 
                       _HDPendingAssociationEntityPropertySyncIdentity, _HDPendingAssociationEntityPropertyType, 
                       _HDPowerLog, _HDPowerLogForClient, _HDPredicateForContainerIdentifierAndDatabaseScope, 
                       _HDPredicateForDatabaseID, _HDPredicateForDatabaseIDAndRecordZone, 
                       _HDPredicateForMetadataValue, _HDPredicateForMetadataValues, 
                       _HDPredicateForRecordID, _HDPredicateForRecordsSinceEpoch, 
                       _HDPredicateForWorkoutBuilderWithIdentifier, _HDPredicateForZoneID, 
                       _HDPredicateForZoneIDAndRecordName, _HDPredicateForZoneIDAndRecordType, 
                       _HDProcedureRecordEntityPropertyBodySitesCodingCollections, 
                       _HDProcedureRecordEntityPropertyCategoryCodingCollection, 
                       _HDProcedureRecordEntityPropertyComplicationsCodingCollections, 
                       _HDProcedureRecordEntityPropertyExecutionEndDate, _HDProcedureRecordEntityPropertyExecutionStartDate, 
                       _HDProcedureRecordEntityPropertyFollowUpsCodingCollections, 
                       _HDProcedureRecordEntityPropertyNotPerformed, _HDProcedureRecordEntityPropertyOutcomeCodingCollection, 
                       _HDProcedureRecordEntityPropertyPerformers, _HDProcedureRecordEntityPropertyProcedureCodingCollection, 
                       _HDProcedureRecordEntityPropertyReasonCodingCollections, _HDProcedureRecordEntityPropertyReasonsNotPerformedCodingCollections, 
                       _HDProcedureRecordEntityPropertyStatusCoding, _HDProtectedNanoUserDefaultsDidSync, 
                       _HDQuantitySampleAttenuationEngineHasNonZeroDuration, _HDQuantitySampleAttenuationEngineSplit, 
                       _HDQuantitySampleEntityPredicateForCount, _HDQuantitySampleEntityPredicateForQuantity, 
                       _HDQuantitySampleEntityPropertyOriginalQuantity, _HDQuantitySampleEntityPropertyOriginalUnit, 
                       _HDQuantitySampleEntityPropertyOriginalUnitString, _HDQuantitySampleEntityPropertyQuantity, 
                       _HDQuantitySampleSeriesDataEnumeratorDefaultBufferSize, _HDQuantitySampleSeriesEntityPropertyCount, 
                       _HDQuantitySampleSeriesEntityPropertyHFDKey, _HDQuantitySampleSeriesEntityPropertyInsertionEra, 
                       _HDQuantitySampleStatisticsEntityPredicateForMaxValue, _HDQuantitySampleStatisticsEntityPredicateForMinValue, 
                       _HDQuantitySampleStatisticsEntityPredicateForMostRecentDuration, 
                       _HDQuantitySampleStatisticsEntityPredicateForMostRecentEndDate, 
                       _HDQuantitySampleStatisticsEntityPredicateForMostRecentStartDate, 
                       _HDQuantitySampleStatisticsEntityPredicateForMostRecentValue, 
                       _HDQuantitySampleStatisticsEntityPropertyMax, _HDQuantitySampleStatisticsEntityPropertyMin, 
                       _HDQuantitySampleStatisticsEntityPropertyMostRecentDate, _HDQuantitySampleStatisticsEntityPropertyMostRecentDuration, 
                       _HDQuantitySampleStatisticsEntityPropertyMostRecentValue, 
                       _HDQuantitySampleStatisticsEntityPropertyOwnerID, _HDQueryServerDidReceiveQueryForHealthRecordsNotification, 
                       _HDQueryServerSampleTypeObservationAssertionName, _HDQueryUsageBucketedBoundaryCount, 
                       _HDQueryUsageBucketedCacheCount, _HDQueryUsageBucketedCacheSizeMB, 
                       _HDQueryUsageBucketedDatabaseSizeMB, _HDQueryUsageBucketedPowerOf2, 
                       _HDQueryUsageBucketedQueryCount, _HDQueryUsageBucketedTimeInSeconds, 
                       _HDQueryUsagePublicQueryTypeName, _HDRacePreviousRoutePluginIdentifier, 
                       _HDRaceRouteClusterEntityPropertySyncIdentity, _HDRaceRouteClusterEntityPropertyWorkoutRouteSnapshotID, 
                       _HDRaceRouteSnapshotEntityPropertyPersistentID, _HDRecordClassesForDecoding, 
                       _HDReferenceForAssociatableObject, _HDReferenceForUnknownAssociatableObjectWithPersistentID, 
                       _HDReferenceForUnknownAssociatableObjectWithUUID, _HDSQLitePredicateForUnfrozenQuantitySeriesSamples, 
                       _HDSREntityPropertyData, _HDSREntityPropertyId, _HDSREntityPropertyVersion, 
                       _HDSampleEntityClassForDataType, _HDSampleEntityOrderingTermsForOldness, 
                       _HDSampleEntityOrderingTermsForRecentness, _HDSampleEntityPredicateForDataType, 
                       _HDSampleEntityPredicateForDataTypes, _HDSampleEntityPredicateForDateInterval, 
                       _HDSampleEntityPredicateForEndDate, _HDSampleEntityPredicateForStartDate, 
                       _HDSampleEntityPropertyDataType, _HDSampleEntityPropertyEndDate, 
                       _HDSampleEntityPropertyStartDate, _HDSeriesSampleEntityPropertyCount, 
                       _HDSeriesSampleEntityPropertyFrozen, _HDSeriesSampleEntityPropertyHFDKey, 
                       _HDSeriesSamplePredicateForSamplesToAutoFreezeExcludingSamples, 
                       _HDSeriesSamplePredicateForSeriesIdentifier, _HDSetCloudSyncAttachmentManagementUUID, 
                       _HDSetCloudSyncAttachmentReferenceEpoch, _HDSetCloudSyncAttachmentReferenceTombstoneEpoch, 
                       _HDSetCloudSyncDASCheckpointSubmissionState, _HDSetCloudSyncLastSuccessfulPushDateForCoordinatedSync, 
                       _HDSetCloudSyncRestorPhaseMergeCompleteEndDate, _HDSetCloudSyncRestorPhaseSyncCompleteEndDate, 
                       _HDSetCloudSyncRestorePhaseSyncCompleteStartDate, _HDSetCloudSyncRestoreSessionID, 
                       _HDSetCompletedTransitionToSyncIdentity, _HDSetHealthInUseDefaultWithReason, 
                       _HDSetOldestSampleStartDate, _HDSetRecordClassesForDecoding, 
                       _HDSetUpgradedToSyncIdentity, _HDSharedSummaryObjectTypeEntityPropertyObjectType, 
                       _HDSharedSummaryObjectTypeEntityPropertySummaryID, _HDSharingAuthorizationsFromCodableSharingAuthorizations, 
                       _HDSharingRelationshipEntityPropertyDateModified, _HDSharingRelationshipEntityPropertyRecipient, 
                       _HDSharingRelationshipEntityPropertySyncIdentity, _HDSharingRelationshipEntityPropertySyncProvenance, 
                       _HDShouldEnableCloudSyncDefault, _HDShouldRejectFutureMigrationsOnCarryDevice, 
                       _HDSignedClinicalDataIssuerEntityPropertyIdentifier, _HDSignedClinicalDataIssuerEntityPropertySubtitle, 
                       _HDSignedClinicalDataIssuerEntityPropertySyncIdentity, _HDSignedClinicalDataIssuerEntityPropertySyncProvenance, 
                       _HDSignedClinicalDataIssuerEntityPropertyTitle, _HDSignedClinicalDataIssuerEntityPropertyWellKnownURL, 
                       _HDSignedClinicalDataRecordEntityPropertyCredentialTypes, 
                       _HDSignedClinicalDataRecordEntityPropertyDataValue, _HDSignedClinicalDataRecordEntityPropertyExpirationDate, 
                       _HDSignedClinicalDataRecordEntityPropertyIssuedDate, _HDSignedClinicalDataRecordEntityPropertyIssuerIdentifier, 
                       _HDSignedClinicalDataRecordEntityPropertyItems, _HDSignedClinicalDataRecordEntityPropertyRelevantDate, 
                       _HDSignedClinicalDataRecordEntityPropertySignatureStatus, 
                       _HDSignedClinicalDataRecordEntityPropertySourceType, _HDSignedClinicalDataRecordEntityPropertySubject, 
                       _HDSleepDaySummaryCacheEntityPropertyCreationDate, _HDSleepDaySummaryCacheEntityPropertyDayIndexLower, 
                       _HDSleepDaySummaryCacheEntityPropertyDayIndexUpper, _HDSleepDaySummaryCacheEntityPropertyMaximumAnchor, 
                       _HDSleepDaySummaryCacheEntityPropertyQueryConfiguration, _HDSleepDaySummaryCacheEntityPropertyRowID, 
                       _HDSleepDaySummaryCacheEntityPropertySourceOrderAnchor, _HDSleepDaySummaryCacheEntityPropertySummariesData, 
                       _HDSleepDaySummaryCacheEntityPropertyUpdatedDate, _HDSleepScheduleEntityPredicateForWeekday, 
                       _HDSleepScheduleEntityPredicateForWeekdayBeforeDate, _HDSleepScheduleEntityPropertyBedHour, 
                       _HDSleepScheduleEntityPropertyBedMinute, _HDSleepScheduleEntityPropertyFriday, 
                       _HDSleepScheduleEntityPropertyMonday, _HDSleepScheduleEntityPropertyOverrideDayIndex, 
                       _HDSleepScheduleEntityPropertySaturday, _HDSleepScheduleEntityPropertySunday, 
                       _HDSleepScheduleEntityPropertyThursday, _HDSleepScheduleEntityPropertyTuesday, 
                       _HDSleepScheduleEntityPropertyWakeHour, _HDSleepScheduleEntityPropertyWakeMinute, 
                       _HDSleepScheduleEntityPropertyWednesday, _HDSourceEntityPredicateForAppleWatchSources, 
                       _HDSourceEntityPredicateForLocalDeviceSource, _HDSourceEntityPredicateForLocalSourcesWithBundleIdentifier, 
                       _HDSourceEntityPredicateForLocalSourcesWithLogicalSourceIDs, 
                       _HDSourceEntityPredicateForSourceWithBundleIdentifier, _HDSourceEntityPredicateForSourceWithUUID, 
                       _HDSourceEntityPredicateForSourcesWithBundleIdentifiers, _HDSourceEntityPredicateForSourcesWithLogicalSourceIDs, 
                       _HDSourceEntityPredicateForSourcesWithOwnerBundleIdentifiers, 
                       _HDSourceEntityPredicateForSourcesWithUUIDs, _HDSourceEntityPropertyDeleted, 
                       _HDSourceEntityPropertyLocalDevice, _HDSourceEntityPropertyLogicalSourceID, 
                       _HDSourceEntityPropertyModificationDate, _HDSourceEntityPropertyName, 
                       _HDSourceEntityPropertyProductType, _HDSourceEntityPropertyProvenance, 
                       _HDSourceEntityPropertySourceOptions, _HDSourceEntityPropertySyncAnchor, 
                       _HDSourceEntityPropertySyncIdentity, _HDSourceEntityPropertyUUID, 
                       _HDStateOfMindDomainEntityPropertyDomain, _HDStateOfMindEntityPropertyContext, 
                       _HDStateOfMindEntityPropertyReflectiveInterval, _HDStateOfMindEntityPropertyValence, 
                       _HDStateOfMindLabelEntityPropertyLabel, _HDStringFromDatabaseComponentIdentifier, 
                       _HDStringFromDatabaseJournalType, _HDStringFromHDDatabaseType, 
                       _HDStringFromHDHFDDatabaseFailureType, _HDStringFromHDIDSPriority, 
                       _HDStringFromPeriodicActivityResult, _HDStringFromQueryServerState, 
                       _HDStringFromUserDomainConceptEntityInsertMethod, _HDStringFromUserDomainConceptEntityInsertResult, 
                       _HDSummarySharingEntryPredicateForCloudKitIdentifierTypeStatusAndDirection, 
                       _HDSummarySharingEntryPredicateForIdentifierTypeAndDirection, 
                       _HDSummarySharingEntryPredicateForInvitationUUID, _HDSummarySharingEntryPredicateForTypeAndStatus, 
                       _HDSummarySharingEntryPredicateForTypeStatusAndDirection, 
                       _HDSummarySharingEntryPredicateForUUID, _HDSyncAnchorFromNumber, 
                       _HDSyncAnchorMapIsEquivalent, _HDSyncAnchorMapIsSuperset, 
                       _HDSyncAnchorPropertyFrozenUpdateDate, _HDSyncAnchorPropertyStore, 
                       _HDSyncAnchorRangeDescription, _HDSyncAnchorRangeMake, _HDSyncIdentityDatabaseIdentifierKey, 
                       _HDSyncIdentityInstanceDiscriminatorKey, _HDSyncIdentityKeyValueDomain, 
                       _HDSyncIdentityPropertyDatabaseIdentifier, _HDSyncIdentityPropertyHardwareIdentifier, 
                       _HDSyncIdentityPropertyInstanceDiscriminator, _HDSyncIdentityPropertyIsChild, 
                       _HDSyncStoreClassForSyncStoreType, _HDSyncStorePropertyCreationDate, 
                       _HDSyncStorePropertyType, _HDSyncStorePropertyUUID, _HDSyncVersionRangeToString, 
                       _HDTaskServerDidInvalidateNotification, _HDTaskServerUUIDKey, 
                       _HDTinkerKeyValueDomainWithProfile, _HDTinkerProtectedKeyValueDomainWithProfile, 
                       _HDTinkerSyncedProtectedKeyValueDomainWithProfile, _HDTrainingLoadStatisticsCacheEntityPropertyActivityType, 
                       _HDTrainingLoadStatisticsCacheEntityPropertyCount, _HDTrainingLoadStatisticsCacheEntityPropertyCreationDate, 
                       _HDTrainingLoadStatisticsCacheEntityPropertyEndDate, _HDTrainingLoadStatisticsCacheEntityPropertyQuantity, 
                       _HDTrainingLoadStatisticsCacheEntityPropertyRowID, _HDTrainingLoadStatisticsCacheEntityPropertyStartDate, 
                       _HDTrainingLoadStatisticsCacheEntityPropertyUpdatedDate, _HDUSR2SignalNotification, 
                       _HDUnitStringEntityPropertyUnitString, _HDUnknownRecordEntityPropertyDisplayName, 
                       _HDUnprotectedFeatureSettingsSyncEntityDidSync, _HDUnprotectedFeatureSettingsSyncEntityDidSyncNotificationDomainNamesKey, 
                       _HDUnprotectedNanoUserDefaultsDidSync, _HDUpdateOldestSampleStartDateForProfile, 
                       _HDUpgradedToSyncIdentity, _HDUserCharacteristicsDidChangeNotification, 
                       _HDUserCharacteristicsShouldSyncNotification, _HDUserDomainConceptCurrentSyncVersionRange, 
                       _HDUserDomainConceptEducationContentEntityPredicateForEducationContent, 
                       _HDUserDomainConceptEntityPredicateForConceptUUID, _HDUserDomainConceptEntityPredicateForConceptUUIDs, 
                       _HDUserDomainConceptEntityPredicateForConceptsWithAnchorAfter, 
                       _HDUserDomainConceptEntityPredicateForConceptsWithCreationDateBefore, 
                       _HDUserDomainConceptEntityPredicateForConceptsWithTypeIdentifier, 
                       _HDUserDomainConceptEntityPredicateForConceptsWithTypeIdentifiers, 
                       _HDUserDomainConceptEntityPredicateForMedicalCoding, _HDUserDomainConceptEntityPredicateForMedicalCodingSystem, 
                       _HDUserDomainConceptEntityPredicateForPropertyType, _HDUserDomainConceptEntityPredicateWithCodingCollection, 
                       _HDUserDomainConceptEntityPropertyBuild, _HDUserDomainConceptEntityPropertyConceptLinkType, 
                       _HDUserDomainConceptEntityPropertyConceptLinkUUID, _HDUserDomainConceptEntityPropertyCreationDate, 
                       _HDUserDomainConceptEntityPropertyDeleted, _HDUserDomainConceptEntityPropertyLinkCollectionData, 
                       _HDUserDomainConceptEntityPropertyMajorVersion, _HDUserDomainConceptEntityPropertyMedicalCodingCode, 
                       _HDUserDomainConceptEntityPropertyMedicalCodingDisplayString, 
                       _HDUserDomainConceptEntityPropertyMedicalCodingSystem, _HDUserDomainConceptEntityPropertyMedicalCodingVersion, 
                       _HDUserDomainConceptEntityPropertyMinorVersion, _HDUserDomainConceptEntityPropertyModificationDate, 
                       _HDUserDomainConceptEntityPropertyPatchVersion, _HDUserDomainConceptEntityPropertyPropertyType, 
                       _HDUserDomainConceptEntityPropertySyncAnchor, _HDUserDomainConceptEntityPropertySyncIdentity, 
                       _HDUserDomainConceptEntityPropertySyncProvenance, _HDUserDomainConceptEntityPropertyTypeIdentifier, 
                       _HDUserDomainConceptEntityPropertyTypeSchema, _HDUserDomainConceptEntityPropertyUUID, 
                       _HDUserDomainConceptEntityPropertyUserDomainConceptID, _HDUserDomainConceptMaximumTombstoneAge, 
                       _HDUserDomainConceptPropertyEntityPredicateForPropertiesWithType, 
                       _HDUserDomainConceptPropertyEntityPropertyCategory, _HDUserDomainConceptPropertyEntityPropertyDataValue, 
                       _HDUserDomainConceptPropertyEntityPropertyDateValue, _HDUserDomainConceptPropertyEntityPropertyNumberValue, 
                       _HDUserDomainConceptPropertyEntityPropertyStringValue, _HDUserDomainConceptPropertyEntityPropertyTimestamp, 
                       _HDUserDomainConceptPropertyEntityPropertyType, _HDUserDomainConceptPropertyEntityPropertyUUIDValue, 
                       _HDUserDomainConceptPropertyEntityPropertyValueType, _HDUserDomainConceptPropertyEntityPropertyVersion, 
                       _HDUserDomainMedicalCodingEntityPredicateForCoding, _HDVaccinationRecordEntityPropertyAdministrationDate, 
                       _HDVaccinationRecordEntityPropertyBodySiteCodings, _HDVaccinationRecordEntityPropertyDoseNumber, 
                       _HDVaccinationRecordEntityPropertyDoseQuantity, _HDVaccinationRecordEntityPropertyExpirationDate, 
                       _HDVaccinationRecordEntityPropertyLotNumber, _HDVaccinationRecordEntityPropertyNotGiven, 
                       _HDVaccinationRecordEntityPropertyPatientReported, _HDVaccinationRecordEntityPropertyPerformer, 
                       _HDVaccinationRecordEntityPropertyReaction, _HDVaccinationRecordEntityPropertyReasonsCodings, 
                       _HDVaccinationRecordEntityPropertyReasonsNotGivenCodings, 
                       _HDVaccinationRecordEntityPropertyRouteCodings, _HDVaccinationRecordEntityPropertyStatusCoding, 
                       _HDVaccinationRecordEntityPropertyVaccinationCodings, _HDVerifiableClinicalRecordEntityPropertyExpirationDate, 
                       _HDVerifiableClinicalRecordEntityPropertyIssuedDate, _HDVerifiableClinicalRecordEntityPropertyIssuerIdentifier, 
                       _HDVerifiableClinicalRecordEntityPropertyItemNames, _HDVerifiableClinicalRecordEntityPropertyJWSRepresentation, 
                       _HDVerifiableClinicalRecordEntityPropertyOriginIdentifier, 
                       _HDVerifiableClinicalRecordEntityPropertyRecordTypes, _HDVerifiableClinicalRecordEntityPropertyRelevantDate, 
                       _HDVerifiableClinicalRecordEntityPropertySourceType, _HDVerifiableClinicalRecordEntityPropertySubject, 
                       _HDVersionFromBuildStringForProductType, _HDVisionPrescriptionEntityPropertyVerifiableData, 
                       _HDWatchActivityCacheAvailabilityDays, _HDWatchDefaultAvailabilityDays, 
                       _HDWatchElectrocardiogramAvailabilityDays, _HDWatchKitExtension, 
                       _HDWatchStateofMindAvailabilityDays, _HDWatchVitalsAvailabilityDays, 
                       _HDWatchWorkoutAvailabilityDays, _HDWatchWorkoutEffortScoreAvailabilityDays, 
                       _HDWorkoutActivityEntityPredicateForActivityType, _HDWorkoutActivityEntityPredicateForDuration, 
                       _HDWorkoutActivityEntityPredicateForEndDate, _HDWorkoutActivityEntityPredicateForStartDate, 
                       _HDWorkoutActivityEntityPropertyIsPrimaryActivity, _HDWorkoutActivityEntityPropertyMuscleGroups, 
                       _HDWorkoutActivityEntityPropertyOwnerID, _HDWorkoutActivityEntityPropertyParentActivityID, 
                       _HDWorkoutActivityEntityPropertyStrengthExerciseType, _HDWorkoutActivityEntityPropertyUUID, 
                       _HDWorkoutAnalyticsPerformanceEventNameAwaitingFinalDataBegin, 
                       _HDWorkoutAnalyticsPerformanceEventNameAwaitingFinalDataEnd, 
                       _HDWorkoutAnalyticsPerformanceEventNameEnded, _HDWorkoutAnalyticsPerformanceEventNameFinalized, 
                       _HDWorkoutAnalyticsPerformanceEventNameRouteSmoothingTaskBegin, 
                       _HDWorkoutAnalyticsPerformanceEventNameRouteSmoothingTaskCreated, 
                       _HDWorkoutAnalyticsPerformanceEventNameRouteSmoothingTaskEnd, 
                       _HDWorkoutAnalyticsPerformanceEventNameRouteSmoothingTaskSaveBegin, 
                       _HDWorkoutAnalyticsPerformanceEventNameRouteSmoothingTaskSaveEnd, 
                       _HDWorkoutAnalyticsPerformanceEventNameRouteSmoothingTaskSmoothBegin, 
                       _HDWorkoutAnalyticsPerformanceEventNameRouteSmoothingTaskSmoothEnd, 
                       _HDWorkoutAnalyticsPerformanceEventNameSavingBegin, _HDWorkoutAnalyticsPerformanceEventNameSavingEnd, 
                       _HDWorkoutClusterComponentEntityPropertyClusterID, _HDWorkoutClusterComponentEntityPropertyWorkoutID, 
                       _HDWorkoutClusterEntityPropertyWorkoutRouteSnapshotID, _HDWorkoutCondenserDefaultWorkoutBatchLimit, 
                       _HDWorkoutCondenserDomain, _HDWorkoutCondenserMaximumSeriesSize, 
                       _HDWorkoutCondenserMinimumSeriesSize, _HDWorkoutCondenserMinimumWorkoutDuration, 
                       _HDWorkoutCondenserOldWorkoutTimeInterval, _HDWorkoutDataDestinationStateToString, 
                       _HDWorkoutDefaultCollectionInterval, _HDWorkoutEntityEncodingOptionIncludeCondenserInfo, 
                       _HDWorkoutEntityJoinedActivityEntityPropertyActivityType, 
                       _HDWorkoutEntityJoinedActivityEntityPropertyDuration, _HDWorkoutEntityOrderingTermsForCondenserDate, 
                       _HDWorkoutEntityPredicateForDuration, _HDWorkoutEntityPredicateForTotalDistance, 
                       _HDWorkoutEntityPredicateForTotalEnergyBurned, _HDWorkoutEntityPredicateForTotalFlightsClimbed, 
                       _HDWorkoutEntityPredicateForTotalSwimmingStrokeCount, _HDWorkoutEntityPredicateForWorkoutActivityType, 
                       _HDWorkoutEntityPredicateForWorkoutCondenserVersionEqualTo, 
                       _HDWorkoutEntityPredicateForWorkoutCondenserVersionLessThan, 
                       _HDWorkoutEntityPredicateForWorkoutGoal, _HDWorkoutEntityPredicateForWorkoutGoalType, 
                       _HDWorkoutEventPropertyDate, _HDWorkoutEventPropertyType, 
                       _HDWorkoutManagerStateDidChange, _HDWorkoutMinuteCollectionInterval, 
                       _HDWorkoutSessionAssertionIdentifierAlertSuppression, _HDWorkoutSessionAssertionIdentifierBackgroundRunning, 
                       _HDWorkoutSessionAssertionIdentifierCarousel, _HDWorkoutSessionAssertionIdentifierCoreMotion, 
                       _HDWorkoutSessionAssertionIdentifierEventCollection, _HDWorkoutSessionAssertionIdentifierHeartRateRecovery, 
                       _HDWorkoutSessionAssertionIdentifierLocationUpdating, _HDWorkoutSessionAssertionIdentifierPlatinum, 
                       _HDWorkoutSessionEntityPropertyCurrentActivityNodeWrapper, 
                       _HDWorkoutSessionRecoverMirroredSessionRequestName, _HDWorkoutSessionStartMirroringRequestName, 
                       _HDWorkoutSyncVersionRange, _HDWorkoutTransparencyAlertCountKey, 
                       _HDWorkoutTransparencyAlertMaxCount, _HKLocalFeaturePropertiesDefaultsDomainForFeatureIdentifier, 
                       _HKStringFromStateSyncMergeResult, _HKWorkoutLocationBundle, 
                       _HKWorkoutLocationBundlePath, _HardwareIdentifierDefaultsKey, 
                       _IDSPriorityFromHDIDSPriority, _NSDictionaryPreferencesSyncRepresentationForHKCountrySet, 
                       _NSDictionaryPreferencesSyncRepresentationForHKFeatureAttributes, 
                       _NSStringForRapportSchemaIdentifier, _NSStringFromHDDemoDataFoodType, 
                       _NSStringFromHDDemoDataGenerationPeriod, _NSStringFromHDDemoDataSampleTrackingType, 
                       _NSStringFromHDQuantitySampleValueEnumeratorOptions, _NSStringFromHDQuantitySeriesBuilderTaskServerState, 
                       _NSStringFromHKBiologicalSex, _RecordIDComponentsSeparator, 
                       __HDCDASamplePropertyAuthorName, __HDCDASamplePropertyCustodianName, 
                       __HDCDASamplePropertyDocumentData, __HDCDASamplePropertyPatientName, 
                       __HDCDASamplePropertyTitle, __HDChildRecordCountMaximum, __HDClinicalCredentialManagerErrorDomain, 
                       __HDCloudSyncChangesetKey, __HDCloudSyncKeyHasPullAppliedChange, 
                       __HDCloudSyncKeyPrimaryLastPushForwardProgressDate, __HDCloudSyncMaximumInMemoryAssetSize, 
                       __HDCloudSyncMaximumTimeIntervalSincePrimaryPushSuccess, __HDCloudSyncProgressComponentCoordinatorDisableProfile, 
                       __HDCloudSyncProgressComponentManagerSyncReSyncPending, __HDCloudSyncProgressComponentManagerSyncRepositories, 
                       __HDCloudSyncProgressMilestoneCoordinatorDisableProgressTotalUnitCount, 
                       __HDCloudSyncProgressMilestoneManagerProgressTotalUnitCount, 
                       __HDIsUnitTesting, __HDObjectAuthorizationPropertyModificationDate, 
                       __HDObjectAuthorizationPropertyObject, __HDObjectAuthorizationPropertySession, 
                       __HDObjectAuthorizationPropertySource, __HDObjectAuthorizationPropertyStatus, 
                       __HDObjectAuthorizationPropertySyncIdentity, __HDObjectAuthorizationPropertySyncProvenance, 
                       __HDQuantitySampleSeriesEntityAutoFreezeNotFinalSeriesInterval, 
                       __HDQuantitySampleSeriesEntityNilDuration, __HDRatingOfExertionSamplesForWorkoutPID, 
                       __HDRunCoreAnalyticsFitnessDailyTask, __HDWorkoutCollectionIntervalForType, 
                       __HDWorkoutSessionServerExpirationInterval, __HKStatisticsComputationMethodForQuantityType, 
                       __Z22_HDMakeSleepStagesInfo28HKCategoryValueSleepAnalysis, 
                       __Z38_HDLocationSeriesIdentifierForHFDKeyV1x, __Z38_HDLocationSeriesIdentifierForHFDKeyV2x, 
                       __Z40_HDSampleHistoryDescriptionForObjectTypex, __Z44_HDQuantitySampleSeriesIdentifierForHFDKeyV0x, 
                       __Z44_HDQuantitySampleSeriesIdentifierForHFDKeyV1x, __Z50_HDTemporarySampleHistoryIdentifierForPersistentIDx, 
                       __Z65HDMakeStatisticsCollectionImplementationForTemporallyWeightedTypeP14HKQuantityTypem26_HKStatisticsMergeStrategyP25_HKDateIntervalCollectionPU42objcproto31HDStatisticsSourceOrderProvider11objc_object, 
                       __ZN10statistics10Statistics17makeEarliestDatumEv, __ZN10statistics10Statistics19makeMostRecentDatumEv, 
                       __ZN10statistics10Statistics19makeUnfinishedDatumEv, __ZN10statistics10Statistics21makePrimaryStatisticsEv, 
                       __ZN10statistics10Statistics23makeAuxiliaryStatisticsEv, __ZN10statistics10Statistics25makeOverlapProcessorStateEv, 
                       __ZN10statistics10Statistics8readFromERN2PB6ReaderE, __ZN10statistics10StatisticsC1EOS0_, 
                       __ZN10statistics10StatisticsC1ERKS0_, __ZN10statistics10StatisticsC1Ev, 
                       __ZN10statistics10StatisticsC2EOS0_, __ZN10statistics10StatisticsC2ERKS0_, 
                       __ZN10statistics10StatisticsC2Ev, __ZN10statistics10StatisticsD0Ev, 
                       __ZN10statistics10StatisticsD1Ev, __ZN10statistics10StatisticsD2Ev, 
                       __ZN10statistics10StatisticsaSEOS0_, __ZN10statistics10StatisticsaSERKS0_, 
                       __ZN10statistics16StatisticsBucket14makeStatisticsEv, __ZN10statistics16StatisticsBucket8readFromERN2PB6ReaderE, 
                       __ZN10statistics16StatisticsBucketC1EOS0_, __ZN10statistics16StatisticsBucketC1ERKS0_, 
                       __ZN10statistics16StatisticsBucketC1Ev, __ZN10statistics16StatisticsBucketC2EOS0_, 
                       __ZN10statistics16StatisticsBucketC2ERKS0_, __ZN10statistics16StatisticsBucketC2Ev, 
                       __ZN10statistics16StatisticsBucketD0Ev, __ZN10statistics16StatisticsBucketD1Ev, 
                       __ZN10statistics16StatisticsBucketD2Ev, __ZN10statistics16StatisticsBucketaSEOS0_, 
                       __ZN10statistics16StatisticsBucketaSERKS0_, __ZN10statistics16StatisticsEngine17makeCurrentBucketEv, 
                       __ZN10statistics16StatisticsEngine8readFromERN2PB6ReaderE, 
                       __ZN10statistics16StatisticsEngineC1EOS0_, __ZN10statistics16StatisticsEngineC1ERKS0_, 
                       __ZN10statistics16StatisticsEngineC1Ev, __ZN10statistics16StatisticsEngineC2EOS0_, 
                       __ZN10statistics16StatisticsEngineC2ERKS0_, __ZN10statistics16StatisticsEngineC2Ev, 
                       __ZN10statistics16StatisticsEngineD0Ev, __ZN10statistics16StatisticsEngineD1Ev, 
                       __ZN10statistics16StatisticsEngineD2Ev, __ZN10statistics16StatisticsEngineaSEOS0_, 
                       __ZN10statistics16StatisticsEngineaSERKS0_, __ZN10statistics17RawQuantitySample8readFromERN2PB6ReaderE, 
                       __ZN10statistics17RawQuantitySampleC1EOS0_, __ZN10statistics17RawQuantitySampleC1ERKS0_, 
                       __ZN10statistics17RawQuantitySampleC1Ev, __ZN10statistics17RawQuantitySampleC2EOS0_, 
                       __ZN10statistics17RawQuantitySampleC2ERKS0_, __ZN10statistics17RawQuantitySampleC2Ev, 
                       __ZN10statistics17RawQuantitySampleD0Ev, __ZN10statistics17RawQuantitySampleD1Ev, 
                       __ZN10statistics17RawQuantitySampleD2Ev, __ZN10statistics17RawQuantitySampleaSEOS0_, 
                       __ZN10statistics17RawQuantitySampleaSERKS0_, __ZN10statistics29QuantityOverlapProcessorState8readFromERN2PB6ReaderE, 
                       __ZN10statistics29QuantityOverlapProcessorStateC1EOS0_, __ZN10statistics29QuantityOverlapProcessorStateC1ERKS0_, 
                       __ZN10statistics29QuantityOverlapProcessorStateC1Ev, __ZN10statistics29QuantityOverlapProcessorStateC2EOS0_, 
                       __ZN10statistics29QuantityOverlapProcessorStateC2ERKS0_, __ZN10statistics29QuantityOverlapProcessorStateC2Ev, 
                       __ZN10statistics29QuantityOverlapProcessorStateD0Ev, __ZN10statistics29QuantityOverlapProcessorStateD1Ev, 
                       __ZN10statistics29QuantityOverlapProcessorStateD2Ev, __ZN10statistics29QuantityOverlapProcessorStateaSEOS0_, 
                       __ZN10statistics29QuantityOverlapProcessorStateaSERKS0_, __ZN10statistics37QuantitySampleAttenuationEngineSample8readFromERN2PB6ReaderE, 
                       __ZN10statistics37QuantitySampleAttenuationEngineSampleC1EOS0_, 
                       __ZN10statistics37QuantitySampleAttenuationEngineSampleC1ERKS0_, 
                       __ZN10statistics37QuantitySampleAttenuationEngineSampleC1Ev, 
                       __ZN10statistics37QuantitySampleAttenuationEngineSampleC2EOS0_, 
                       __ZN10statistics37QuantitySampleAttenuationEngineSampleC2ERKS0_, 
                       __ZN10statistics37QuantitySampleAttenuationEngineSampleC2Ev, 
                       __ZN10statistics37QuantitySampleAttenuationEngineSampleD0Ev, 
                       __ZN10statistics37QuantitySampleAttenuationEngineSampleD1Ev, 
                       __ZN10statistics37QuantitySampleAttenuationEngineSampleD2Ev, 
                       __ZN10statistics37QuantitySampleAttenuationEngineSampleaSEOS0_, 
                       __ZN10statistics37QuantitySampleAttenuationEngineSampleaSERKS0_, 
                       __ZN10statistics4swapERNS_10StatisticsES1_, __ZN10statistics4swapERNS_16StatisticsBucketES1_, 
                       __ZN10statistics4swapERNS_16StatisticsEngineES1_, __ZN10statistics4swapERNS_17RawQuantitySampleES1_, 
                       __ZN10statistics4swapERNS_29QuantityOverlapProcessorStateES1_, 
                       __ZN10statistics4swapERNS_37QuantitySampleAttenuationEngineSampleES1_, 
                       __ZN10statistics4swapERNS_8IntervalES1_, __ZN10statistics8Interval8readFromERN2PB6ReaderE, 
                       __ZN10statistics8IntervalC1EOS0_, __ZN10statistics8IntervalC1ERKS0_, 
                       __ZN10statistics8IntervalC1Ev, __ZN10statistics8IntervalC2EOS0_, 
                       __ZN10statistics8IntervalC2ERKS0_, __ZN10statistics8IntervalC2Ev, 
                       __ZN10statistics8IntervalD0Ev, __ZN10statistics8IntervalD1Ev, 
                       __ZN10statistics8IntervalD2Ev, __ZN10statistics8IntervalaSEOS0_, 
                       __ZN10statistics8IntervalaSERKS0_, __ZN19HDRawQuantitySample11splitAtTimeEdRS_NS_5SplitE, 
                       __ZN19HDRawQuantitySample9applyMaskERK14HKIntervalMaskIdE, 
                       __ZN20HDStatisticsDiscrete17applyMaskToSampleER19HDRawQuantitySampleRK14HKIntervalMaskIdE, 
                       __ZN20HDStatisticsDiscrete17splitSampleAtTimeER19HDRawQuantitySampleS1_dNS0_5SplitE, 
                       __ZN20HDStatisticsDiscrete17splitSampleAtTimeERK19HDRawQuantitySampledNS0_5SplitE, 
                       __ZN20HDStatisticsDiscrete20updateEarliestSampleERK19HDRawQuantitySample, 
                       __ZN20HDStatisticsDiscrete22updateMostRecentSampleERK19HDRawQuantitySample, 
                       __ZN20HDStatisticsDiscrete9addSampleERK19HDRawQuantitySampleb, 
                       __ZN20HDStatisticsDiscrete9unarchiveERKN10statistics10StatisticsE, 
                       __ZN20HDStatisticsPresence17applyMaskToSampleER19HDRawQuantitySampleRK14HKIntervalMaskIdE, 
                       __ZN20HDStatisticsPresence17splitSampleAtTimeER19HDRawQuantitySampleS1_dNS0_5SplitE, 
                       __ZN20HDStatisticsPresence17splitSampleAtTimeERK19HDRawQuantitySampledNS0_5SplitE, 
                       __ZN20HDStatisticsPresence20updateEarliestSampleERK19HDRawQuantitySample, 
                       __ZN20HDStatisticsPresence22updateMostRecentSampleERK19HDRawQuantitySample, 
                       __ZN20HDStatisticsPresence9addSampleERK19HDRawQuantitySampleb, 
                       __ZN20HDStatisticsPresence9unarchiveERKN10statistics10StatisticsE, 
                       __ZN22HDStatisticsCumulative17applyMaskToSampleER19HDRawQuantitySampleRK14HKIntervalMaskIdE, 
                       __ZN22HDStatisticsCumulative17splitSampleAtTimeER19HDRawQuantitySampleS1_dNS0_5SplitE, 
                       __ZN22HDStatisticsCumulative17splitSampleAtTimeERK19HDRawQuantitySampledNS0_5SplitE, 
                       __ZN22HDStatisticsCumulative20updateEarliestSampleERK19HDRawQuantitySample, 
                       __ZN22HDStatisticsCumulative22updateMostRecentSampleERK19HDRawQuantitySample, 
                       __ZN22HDStatisticsCumulative9addSampleERK19HDRawQuantitySampleb, 
                       __ZN22HDStatisticsCumulative9unarchiveERKN10statistics10StatisticsE, 
                       __ZN22HDStatisticsNoiseLevel14addSampleValueEddb, __ZN22HDStatisticsNoiseLevel15finalizeSamplesEv, 
                       __ZN22HDStatisticsNoiseLevel17applyMaskToSampleER19HDRawQuantitySampleRK14HKIntervalMaskIdE, 
                       __ZN22HDStatisticsNoiseLevel17splitSampleAtTimeER19HDRawQuantitySampleS1_dNS0_5SplitE, 
                       __ZN22HDStatisticsNoiseLevel17splitSampleAtTimeERK19HDRawQuantitySampledNS0_5SplitE, 
                       __ZN22HDStatisticsNoiseLevel20updateEarliestSampleERK19HDRawQuantitySample, 
                       __ZN22HDStatisticsNoiseLevel22updateMostRecentSampleERK19HDRawQuantitySample, 
                       __ZN22HDStatisticsNoiseLevel25unarchiveOverlapProcessorERKN10statistics29QuantityOverlapProcessorStateE, 
                       __ZN22HDStatisticsNoiseLevel31addProcessedOverlapSampleValuesElP39HDQuantitySampleAttenuationEngineSample, 
                       __ZN22HDStatisticsNoiseLevel9addSampleERK19HDRawQuantitySampleb, 
                       __ZN22HDStatisticsNoiseLevel9configureEP35HDStatisticsNoiseLevelConfiguration, 
                       __ZN22HDStatisticsNoiseLevel9unarchiveERKN10statistics10StatisticsE, 
                       __ZN23HDStatisticsPercentiles17applyMaskToSampleER19HDRawQuantitySampleRK14HKIntervalMaskIdE, 
                       __ZN23HDStatisticsPercentiles17splitSampleAtTimeER19HDRawQuantitySampleS1_dNS0_5SplitE, 
                       __ZN23HDStatisticsPercentiles17splitSampleAtTimeERK19HDRawQuantitySampledNS0_5SplitE, 
                       __ZN23HDStatisticsPercentiles20updateEarliestSampleERK19HDRawQuantitySample, 
                       __ZN23HDStatisticsPercentiles22updateMostRecentSampleERK19HDRawQuantitySample, 
                       __ZN23HDStatisticsPercentiles9addSampleERK19HDRawQuantitySampleb, 
                       __ZN23HDStatisticsPercentiles9configureEP35HDStatisticsPercentileConfiguration, 
                       __ZN23HDStatisticsPercentiles9unarchiveERKN10statistics10StatisticsE, 
                       __ZN23HDStatisticsSleepStages17applyMaskToSampleER19HDRawQuantitySampleRK14HKIntervalMaskIdE, 
                       __ZN23HDStatisticsSleepStages17splitSampleAtTimeER19HDRawQuantitySampleS1_dNS0_5SplitE, 
                       __ZN23HDStatisticsSleepStages17splitSampleAtTimeERK19HDRawQuantitySampledNS0_5SplitE, 
                       __ZN23HDStatisticsSleepStages9addSampleERK19HDRawQuantitySampleb, 
                       __ZN23HDStatisticsSleepStages9unarchiveERKN10statistics10StatisticsE, 
                       __ZN24HDStatisticsTimeInterval10didMergeToEd, __ZN24HDStatisticsTimeInterval17applyMaskToSampleER19HDRawQuantitySampleRK14HKIntervalMaskIdE, 
                       __ZN24HDStatisticsTimeInterval17splitSampleAtTimeER19HDRawQuantitySampleS1_dNS0_5SplitE, 
                       __ZN24HDStatisticsTimeInterval17splitSampleAtTimeERK19HDRawQuantitySampledNS0_5SplitE, 
                       __ZN24HDStatisticsTimeInterval9addSampleERK19HDRawQuantitySampleb, 
                       __ZN24HDStatisticsTimeInterval9unarchiveERKN10statistics10StatisticsE, 
                       __ZN33HDStatisticsAverageSampleDuration17applyMaskToSampleER19HDRawQuantitySampleRK14HKIntervalMaskIdE, 
                       __ZN33HDStatisticsAverageSampleDuration17splitSampleAtTimeER19HDRawQuantitySampleS1_dNS0_5SplitE, 
                       __ZN33HDStatisticsAverageSampleDuration17splitSampleAtTimeERK19HDRawQuantitySampledNS0_5SplitE, 
                       __ZN33HDStatisticsAverageSampleDuration20updateEarliestSampleERK19HDRawQuantitySample, 
                       __ZN33HDStatisticsAverageSampleDuration22updateMostRecentSampleERK19HDRawQuantitySample, 
                       __ZN33HDStatisticsAverageSampleDuration9addSampleERK19HDRawQuantitySampleb, 
                       __ZN33HDStatisticsAverageSampleDuration9unarchiveERKN10statistics10StatisticsE, 
                       __ZN6health12InMemoryFile4mmapExm, __ZN6health12InMemoryFile4readExPhm, 
                       __ZN6health12InMemoryFile4sizeEv, __ZN6health12InMemoryFile4syncEv, 
                       __ZN6health12InMemoryFile5closeEv, __ZN6health12InMemoryFile5writeExPKhm, 
                       __ZN6health12InMemoryFile8truncateEx, __ZN6health12InMemoryFileC1ENSt3__110shared_ptrINS1_6vectorIhNS1_9allocatorIhEEEEEE, 
                       __ZN6health12InMemoryFileC2ENSt3__110shared_ptrINS1_6vectorIhNS1_9allocatorIhEEEEEE, 
                       __ZN6health13FormatOptionsC1EPPKc, __ZN6health13FormatOptionsC1Ev, 
                       __ZN6health13FormatOptionsC2EPPKc, __ZN6health13FormatOptionsC2Ev, 
                       __ZN6health13WriteAheadLog10checkpointEyNSt3__18functionIFvyEEENS2_IFvyRKNS_8FilePageEEEES4_, 
                       __ZN6health13WriteAheadLog10discardLogEv, __ZN6health13WriteAheadLog11Transaction11updatedPageERKNS_8FilePageE, 
                       __ZN6health13WriteAheadLog11Transaction12pageAtOffsetEx, __ZN6health13WriteAheadLog11Transaction14commitAndMergeERS1_, 
                       __ZN6health13WriteAheadLog11Transaction14storePageEntryExxy, 
                       __ZN6health13WriteAheadLog11Transaction27_writeCompletionEntryOfTypeENS0_9EntryTypeE, 
                       __ZN6health13WriteAheadLog11Transaction6commitENSt3__18functionIFvxNS0_9PageEntryEEEE, 
                       __ZN6health13WriteAheadLog11Transaction8rollbackEv, __ZN6health13WriteAheadLog11TransactionC1EyNSt3__110shared_ptrINS_11VirtualFileEEExNS1_4TypeE, 
                       __ZN6health13WriteAheadLog11TransactionC2EyNSt3__110shared_ptrINS_11VirtualFileEEExNS1_4TypeE, 
                       __ZN6health13WriteAheadLog11updatedPageEyRKNS_8FilePageE, 
                       __ZN6health13WriteAheadLog19_walLock_checkpointENSt3__18functionIFvyEEENS2_IFvyRKNS_8FilePageEEEES4_, 
                       __ZN6health13WriteAheadLog19runWriteTransactionEyNS0_10CommitModeENSt3__18functionIFbyEEENS3_IFvyEEENS3_IFvyRKNS_8FilePageEEEES7_, 
                       __ZN6health13WriteAheadLog24_prepareWriteTransactionEy, __ZN6health13WriteAheadLog25_walLock_shouldCheckpointEv, 
                       __ZN6health13WriteAheadLog25_walLock_startTransactionEyxNS0_11Transaction4TypeE, 
                       __ZN6health13WriteAheadLog26_walLock_commitTransactionEy, 
                       __ZN6health13WriteAheadLog27_walLock_checkpointWhenIdleERNSt3__111unique_lockINS1_5mutexEEENS1_8functionIFvyEEENS6_IFvyRKNS_8FilePageEEEES8_, 
                       __ZN6health13WriteAheadLog28_walLock_pruneCommittedPagesEv, 
                       __ZN6health13WriteAheadLog28_walLock_rollbackTransactionEy, 
                       __ZN6health13WriteAheadLog32_walLock_shouldCheckpointForModeENS0_10CommitModeE, 
                       __ZN6health13WriteAheadLog33_walLock_openLogForFileIdentifierEy, 
                       __ZN6health13WriteAheadLog33_walLock_transactionForIdentifierEy, 
                       __ZN6health13WriteAheadLog33_walLock_writeHeaderForIdentifierEy, 
                       __ZN6health13WriteAheadLog44_walLock_loadExistingEntriesStartingAtOffsetExb, 
                       __ZN6health13WriteAheadLog4openEy, __ZN6health13WriteAheadLog5resetEv, 
                       __ZN6health13WriteAheadLogC1ERKNSt3__112basic_stringIcNS1_11char_traitsIcEENS1_9allocatorIcEEEE, 
                       __ZN6health13WriteAheadLogC1ERKNSt3__112basic_stringIcNS1_11char_traitsIcEENS1_9allocatorIcEEEENS1_10shared_ptrINS_17VirtualFilesystemEEE, 
                       __ZN6health13WriteAheadLogC2ERKNSt3__112basic_stringIcNS1_11char_traitsIcEENS1_9allocatorIcEEEE, 
                       __ZN6health13WriteAheadLogC2ERKNSt3__112basic_stringIcNS1_11char_traitsIcEENS1_9allocatorIcEEEENS1_10shared_ptrINS_17VirtualFilesystemEEE, 
                       __ZN6health13WriteAheadLogD1Ev, __ZN6health13WriteAheadLogD2Ev, 
                       __ZN6health13_PageForEntryERKNSt3__110shared_ptrINS_11VirtualFileEEExRKNS_13WriteAheadLog9PageEntryE, 
                       __ZN6health14HDRegexReplaceENSt3__112basic_stringIcNS0_11char_traitsIcEENS0_9allocatorIcEEEENS0_11basic_regexIcNS0_12regex_traitsIcEEEENS0_8functionIFS6_NS0_13match_resultsINS0_11__wrap_iterIPKcEENS4_INS0_9sub_matchISG_EEEEEEEEE, 
                       __ZN6health14doubleToStringEdi, __ZN6health15BlockAccessFile10invalidateEv, 
                       __ZN6health15BlockAccessFile15ReadTransactionC1ERKNS_17TransactionalFile15ReadTransactionERKNS0_21BlockAccessFileHeaderE, 
                       __ZN6health15BlockAccessFile15ReadTransactionC2ERKNS_17TransactionalFile15ReadTransactionERKNS0_21BlockAccessFileHeaderE, 
                       __ZN6health15BlockAccessFile16WriteTransaction10_freeBlockENS_12BlockPointerE, 
                       __ZN6health15BlockAccessFile16WriteTransaction10storeBlockEyPKv, 
                       __ZN6health15BlockAccessFile16WriteTransaction11updateBlockENS_12BlockPointerERKNS_9RawBufferE, 
                       __ZN6health15BlockAccessFile16WriteTransaction18setRootUserPointerERKNS_12BlockPointerE, 
                       __ZN6health15BlockAccessFile16WriteTransaction21_flushFreedBlockQueueEv, 
                       __ZN6health15BlockAccessFile16WriteTransaction21_requestBlockOfLengthEy, 
                       __ZN6health15BlockAccessFile16WriteTransaction22_allocateBlockOfLengthEy, 
                       __ZN6health15BlockAccessFile16WriteTransaction22_findFreeBlockOfLengthEy, 
                       __ZN6health15BlockAccessFile16WriteTransaction9freeBlockENS_12BlockPointerE, 
                       __ZN6health15BlockAccessFile16WriteTransactionC1ERNS_17TransactionalFile16WriteTransactionERNS0_21BlockAccessFileHeaderE, 
                       __ZN6health15BlockAccessFile16WriteTransactionC2ERNS_17TransactionalFile16WriteTransactionERNS0_21BlockAccessFileHeaderE, 
                       __ZN6health15BlockAccessFile21isBlockUsingFreeSpaceERKNS_12BlockPointerERNS0_16WriteTransactionE, 
                       __ZN6health15BlockAccessFile33performWriteTransactionWithLambdaENSt3__18functionIFbRNS0_16WriteTransactionEEEE, 
                       __ZN6health15BlockAccessFileC1ERKNSt3__112basic_stringIcNS1_11char_traitsIcEENS1_9allocatorIcEEEE, 
                       __ZN6health15BlockAccessFileC1ERKNSt3__112basic_stringIcNS1_11char_traitsIcEENS1_9allocatorIcEEEENS1_10shared_ptrINS_17VirtualFilesystemEEENS_17TransactionalFile10OpenMethodE, 
                       __ZN6health15BlockAccessFileC2ERKNSt3__112basic_stringIcNS1_11char_traitsIcEENS1_9allocatorIcEEEE, 
                       __ZN6health15BlockAccessFileC2ERKNSt3__112basic_stringIcNS1_11char_traitsIcEENS1_9allocatorIcEEEENS1_10shared_ptrINS_17VirtualFilesystemEEENS_17TransactionalFile10OpenMethodE, 
                       __ZN6health15BlockAccessFileD1Ev, __ZN6health15BlockAccessFileD2Ev, 
                       __ZN6health15POSIXFilesystem18fileWithDescriptorEi, __ZN6health15POSIXFilesystem4openERKNSt3__112basic_stringIcNS1_11char_traitsIcEENS1_9allocatorIcEEEENS_9OptionSetINS_17VirtualFilesystem17FileAccessOptionsEEENSB_16FileAccessIntentE, 
                       __ZN6health15POSIXFilesystem6unlinkERKNSt3__112basic_stringIcNS1_11char_traitsIcEENS1_9allocatorIcEEEE, 
                       __ZN6health15timestampToDateEd, __ZN6health16FletcherChecksumEPKvm, 
                       __ZN6health16HDDemangleSymbolERKNSt3__112basic_stringIcNS0_11char_traitsIcEENS0_9allocatorIcEEEE, 
                       __ZN6health17TransactionalFile10invalidateEv, __ZN6health17TransactionalFile12setCacheSizeEm, 
                       __ZN6health17TransactionalFile15ReadTransactionC1ERKS0_yx, 
                       __ZN6health17TransactionalFile15ReadTransactionC2ERKS0_yx, 
                       __ZN6health17TransactionalFile16WriteTransaction19writeBufferAtOffsetERKNS_9RawBufferEx, 
                       __ZN6health17TransactionalFile16WriteTransactionC1ERS0_yx, 
                       __ZN6health17TransactionalFile16WriteTransactionC2ERS0_yx, 
                       __ZN6health17TransactionalFile17_finishCheckpointEy, __ZN6health17TransactionalFile17configurePageSizeEy, 
                       __ZN6health17TransactionalFile18_configurePageSizeEy, __ZN6health17TransactionalFile20_writeBufferAtOffsetEyRKNS_9RawBufferEx, 
                       __ZN6health17TransactionalFile21_cacheMutex_writePageEyRNS_8FilePageE, 
                       __ZN6health17TransactionalFile26writeTransactionWithLambdaENSt3__18functionIFbRNS0_16WriteTransactionEEEE, 
                       __ZN6health17TransactionalFile4openENS0_10OpenMethodE, __ZN6health17TransactionalFile50_transactionMutex_waitForAvailableWriteTransactionERNSt3__111unique_lockINS1_5mutexEEE, 
                       __ZN6health17TransactionalFile7_resizeEx, __ZN6health17TransactionalFileC1ERKNSt3__112basic_stringIcNS1_11char_traitsIcEENS1_9allocatorIcEEEE, 
                       __ZN6health17TransactionalFileC1ERKNSt3__112basic_stringIcNS1_11char_traitsIcEENS1_9allocatorIcEEEENS1_10shared_ptrINS_17VirtualFilesystemEEE, 
                       __ZN6health17TransactionalFileC2ERKNSt3__112basic_stringIcNS1_11char_traitsIcEENS1_9allocatorIcEEEE, 
                       __ZN6health17TransactionalFileC2ERKNSt3__112basic_stringIcNS1_11char_traitsIcEENS1_9allocatorIcEEEENS1_10shared_ptrINS_17VirtualFilesystemEEE, 
                       __ZN6health17VirtualFilesystem24defaultVirtualFilesystemEv, 
                       __ZN6health18DataStoreInspector13_errorHandlerENS0_14IntegrityErrorENS_12BlockPointerERKNSt3__112basic_stringIcNS3_11char_traitsIcEENS3_9allocatorIcEEEENS3_8functionIFvSB_EEE, 
                       __ZN6health18DataStoreInspector20_isLocationSeriesKeyENS_9DataStore16ObjectIdentifierE, 
                       __ZN6health18DataStoreInspector23_unknownBehaviorHandlerENS_9DataStore16ObjectIdentifierEPSt9exceptionNSt3__18functionIFvRKNS5_12basic_stringIcNS5_11char_traitsIcEENS5_9allocatorIcEEEEEEE, 
                       __ZN6health18DataStoreInspector25enumerateStoreForPrintingENSt3__18functionIFvRKNS1_12basic_stringIcNS1_11char_traitsIcEENS1_9allocatorIcEEEEEEENS0_12OutputFormatEPNS1_6vectorINS0_15DataSeriesEntryENS6_ISF_EEEE, 
                       __ZN6health18DataStoreInspector29_crossReferenceWithSQLiteKeysENSt3__13mapIyNS0_15DataSeriesEntryENS1_4lessIyEENS1_9allocatorINS1_4pairIKyS3_EEEEEENS1_3setIyS5_NS6_IyEEEESB_SE_NS1_8functionIFvRKNS1_12basic_stringIcNS1_11char_traitsIcEENS6_IcEEEEEEE, 
                       __ZN6health18DataStoreInspector32_crossReferenceWithSQLiteEntriesEPNSt3__16vectorINS0_15DataSeriesEntryENS1_9allocatorIS3_EEEES7_NS1_8functionIFvRKNS1_12basic_stringIcNS1_11char_traitsIcEENS4_IcEEEEEEE, 
                       __ZN6health18DataStoreInspector33enumerateSampleHistoryForPrintingENS_9DataStore16ObjectIdentifierENSt3__18functionIFvRKNS3_12basic_stringIcNS3_11char_traitsIcEENS3_9allocatorIcEEEEEEENS0_12OutputFormatEb, 
                       __ZN6health18DataStoreInspectorC1ERNS_9DataStoreE, __ZN6health18DataStoreInspectorC2ERNS_9DataStoreE, 
                       __ZN6health18DataStoreInspectorD1Ev, __ZN6health18DataStoreInspectorD2Ev, 
                       __ZN6health18InMemoryFilesystem17createFileForPathERKNSt3__112basic_stringIcNS1_11char_traitsIcEENS1_9allocatorIcEEEENS_9OptionSetINS_17VirtualFilesystem17FileAccessOptionsEEENSB_16FileAccessIntentENS1_10shared_ptrINS1_6vectorIhNS5_IhEEEEEE, 
                       __ZN6health18InMemoryFilesystem4openERKNSt3__112basic_stringIcNS1_11char_traitsIcEENS1_9allocatorIcEEEENS_9OptionSetINS_17VirtualFilesystem17FileAccessOptionsEEENSB_16FileAccessIntentE, 
                       __ZN6health18InMemoryFilesystem6unlinkERKNSt3__112basic_stringIcNS1_11char_traitsIcEENS1_9allocatorIcEEEE, 
                       __ZN6health21POSIXMappedFileExtentC1ExmPv, __ZN6health21POSIXMappedFileExtentC2ExmPv, 
                       __ZN6health21POSIXMappedFileExtentD0Ev, __ZN6health21POSIXMappedFileExtentD1Ev, 
                       __ZN6health21POSIXMappedFileExtentD2Ev, __ZN6health23HDDemangleBacktraceLineENSt3__112basic_stringIcNS0_11char_traitsIcEENS0_9allocatorIcEEEE, 
                       __ZN6health24InMemoryMappedFileExtentC1ExmNSt3__110shared_ptrINS1_6vectorIhNS1_9allocatorIhEEEEEE, 
                       __ZN6health24InMemoryMappedFileExtentC2ExmNSt3__110shared_ptrINS1_6vectorIhNS1_9allocatorIhEEEEEE, 
                       __ZN6health24InMemoryMappedFileExtentD0Ev, __ZN6health24InMemoryMappedFileExtentD1Ev, 
                       __ZN6health24InMemoryMappedFileExtentD2Ev, __ZN6health25CopyFormatSectionToResultEPKcRNSt3__112basic_stringIcNS2_11char_traitsIcEENS2_9allocatorIcEEEEmmb, 
                       __ZN6health27FormatPointerImplementationENSt3__112basic_stringIcNS0_11char_traitsIcEENS0_9allocatorIcEEEEPv, 
                       __ZN6health9DataStore10invalidateEv, __ZN6health9DataStore12rebuildIndexEv, 
                       __ZN6health9DataStore15ReadTransactionC1ENS_12BlockPointerERKNS_15BlockAccessFile15ReadTransactionE, 
                       __ZN6health9DataStore15ReadTransactionC2ENS_12BlockPointerERKNS_15BlockAccessFile15ReadTransactionE, 
                       __ZN6health9DataStore16WriteTransaction24storeBytesWithIdentifierEPKvyRKNS0_16ObjectIdentifierE, 
                       __ZN6health9DataStore16WriteTransaction26removeObjectWithIdentifierERKNS0_16ObjectIdentifierE, 
                       __ZN6health9DataStore16WriteTransaction26renameObjectWithIdentifierERKNS0_16ObjectIdentifierES4_, 
                       __ZN6health9DataStore16WriteTransactionC1ENS_12BlockPointerERNS_15BlockAccessFile16WriteTransactionE, 
                       __ZN6health9DataStore16WriteTransactionC2ENS_12BlockPointerERNS_15BlockAccessFile16WriteTransactionE, 
                       __ZN6health9DataStore20_checkBlockIntegrityENS_15BlockAccessFile16WriteTransactionENS_12BlockPointerENSt3__112basic_stringIcNS4_11char_traitsIcEENS4_9allocatorIcEEEExNS4_8functionIFbNS0_14IntegrityErrorES3_RKSA_EEE, 
                       __ZN6health9DataStore27checkIntegrityForInspectingENSt3__18functionIFbNS0_14IntegrityErrorENS_12BlockPointerERKNS1_12basic_stringIcNS1_11char_traitsIcEENS1_9allocatorIcEEEEEEE, 
                       __ZN6health9DataStore32enumerateObjectTreeForInspectingENSt3__18functionIFvRKNS0_16ObjectIdentifierENS_12BlockPointerEEEE, 
                       __ZN6health9DataStore33performWriteTransactionWithLambdaENSt3__18functionIFbRNS0_16WriteTransactionEEEE, 
                       __ZN6health9DataStoreC1ERKNSt3__112basic_stringIcNS1_11char_traitsIcEENS1_9allocatorIcEEEE, 
                       __ZN6health9DataStoreC1ERKNSt3__112basic_stringIcNS1_11char_traitsIcEENS1_9allocatorIcEEEENS1_10shared_ptrINS_17VirtualFilesystemEEENS_17TransactionalFile10OpenMethodE, 
                       __ZN6health9DataStoreC2ERKNSt3__112basic_stringIcNS1_11char_traitsIcEENS1_9allocatorIcEEEE, 
                       __ZN6health9DataStoreC2ERKNSt3__112basic_stringIcNS1_11char_traitsIcEENS1_9allocatorIcEEEENS1_10shared_ptrINS_17VirtualFilesystemEEENS_17TransactionalFile10OpenMethodE, 
                       __ZN6health9DataStoreD1Ev, __ZN6health9DataStoreD2Ev, __ZN6health9POSIXFile4mmapExm, 
                       __ZN6health9POSIXFile4readExPhm, __ZN6health9POSIXFile4sizeEv, 
                       __ZN6health9POSIXFile4syncEv, __ZN6health9POSIXFile5closeEv, 
                       __ZN6health9POSIXFile5writeExPKhm, __ZN6health9POSIXFile8truncateEx, 
                       __ZN6health9POSIXFileC1Ei, __ZN6health9POSIXFileC2Ei, __ZN6health9POSIXFileD0Ev, 
                       __ZN6health9POSIXFileD1Ev, __ZN6health9POSIXFileD2Ev, __ZN6healthlsERNSt3__113basic_ostreamIcNS0_11char_traitsIcEEEERKNS_9DataStore16ObjectIdentifierE, 
                       __ZNK10statistics10Statistics10formatTextERN2PB13TextFormatterEPKc, 
                       __ZNK10statistics10Statistics10hash_valueEv, __ZNK10statistics10Statistics7writeToERN2PB6WriterE, 
                       __ZNK10statistics10StatisticseqERKS0_, __ZNK10statistics16StatisticsBucket10formatTextERN2PB13TextFormatterEPKc, 
                       __ZNK10statistics16StatisticsBucket10hash_valueEv, __ZNK10statistics16StatisticsBucket7writeToERN2PB6WriterE, 
                       __ZNK10statistics16StatisticsBucketeqERKS0_, __ZNK10statistics16StatisticsEngine10formatTextERN2PB13TextFormatterEPKc, 
                       __ZNK10statistics16StatisticsEngine10hash_valueEv, __ZNK10statistics16StatisticsEngine7writeToERN2PB6WriterE, 
                       __ZNK10statistics16StatisticsEngineeqERKS0_, __ZNK10statistics17RawQuantitySample10formatTextERN2PB13TextFormatterEPKc, 
                       __ZNK10statistics17RawQuantitySample10hash_valueEv, __ZNK10statistics17RawQuantitySample7writeToERN2PB6WriterE, 
                       __ZNK10statistics17RawQuantitySampleeqERKS0_, __ZNK10statistics29QuantityOverlapProcessorState10formatTextERN2PB13TextFormatterEPKc, 
                       __ZNK10statistics29QuantityOverlapProcessorState10hash_valueEv, 
                       __ZNK10statistics29QuantityOverlapProcessorState7writeToERN2PB6WriterE, 
                       __ZNK10statistics29QuantityOverlapProcessorStateeqERKS0_, 
                       __ZNK10statistics37QuantitySampleAttenuationEngineSample10formatTextERN2PB13TextFormatterEPKc, 
                       __ZNK10statistics37QuantitySampleAttenuationEngineSample10hash_valueEv, 
                       __ZNK10statistics37QuantitySampleAttenuationEngineSample7writeToERN2PB6WriterE, 
                       __ZNK10statistics37QuantitySampleAttenuationEngineSampleeqERKS0_, 
                       __ZNK10statistics8Interval10formatTextERN2PB13TextFormatterEPKc, 
                       __ZNK10statistics8Interval10hash_valueEv, __ZNK10statistics8Interval7writeToERN2PB6WriterE, 
                       __ZNK10statistics8IntervaleqERKS0_, __ZNK19HDRawQuantitySample11splitAtTimeEdNS_5SplitE, 
                       __ZNK19HDRawQuantitySampleeqERKS_, __ZNK20HDStatisticsDiscrete7archiveEv, 
                       __ZNK20HDStatisticsPresence7archiveEv, __ZNK22HDStatisticsCumulative7archiveEv, 
                       __ZNK22HDStatisticsNoiseLevel23archiveOverlapProcessorEv, 
                       __ZNK22HDStatisticsNoiseLevel4meanEv, __ZNK22HDStatisticsNoiseLevel7archiveEv, 
                       __ZNK23HDStatisticsPercentiles24calculatePercentileValueEv, 
                       __ZNK23HDStatisticsPercentiles7archiveEv, __ZNK23HDStatisticsSleepStages20prevailingSleepStageEv, 
                       __ZNK23HDStatisticsSleepStages7archiveEv, __ZNK24HDStatisticsTimeInterval13totalDurationEv, 
                       __ZNK24HDStatisticsTimeInterval7archiveEv, __ZNK33HDStatisticsAverageSampleDuration7archiveEv, 
                       __ZNK6health13WriteAheadLog12pageAtOffsetEyx, __ZNK6health13WriteAheadLog18runReadTransactionENSt3__18functionIFvyEEE, 
                       __ZNK6health13WriteAheadLog23_prepareReadTransactionEv, __ZNK6health13WriteAheadLog30_walLock_waitOnTransactionIdleERNSt3__111unique_lockINS1_5mutexEEE, 
                       __ZNK6health13WriteAheadLog33_walLock_transactionForIdentifierEy, 
                       __ZNK6health13WriteAheadLog34maximumCommittedSizeForTransactionEy, 
                       __ZNK6health13WriteAheadLog35_walLock_waitOnCheckpointCompletionERNSt3__111unique_lockINS1_5mutexEEE, 
                       __ZNK6health13WriteAheadLog44_walLock_committedPageAtOffsetForTransactionEyx, 
                       __ZNK6health15BlockAccessFile14checkIntegrityENSt3__18functionIFbNS0_14IntegrityErrorExxRKNS1_12basic_stringIcNS1_11char_traitsIcEENS1_9allocatorIcEEEEEEE, 
                       __ZNK6health15BlockAccessFile15ReadTransaction13retrieveBlockENS_12BlockPointerENS_9RawBufferE, 
                       __ZNK6health15BlockAccessFile15ReadTransaction15_checkIntegrityENSt3__18functionIFbNS0_14IntegrityErrorExxRKNS2_12basic_stringIcNS2_11char_traitsIcEENS2_9allocatorIcEEEEEEE, 
                       __ZNK6health15BlockAccessFile15ReadTransaction15rootUserPointerEv, 
                       __ZNK6health15BlockAccessFile15ReadTransaction24_computeFreeSpaceExtentsEv, 
                       __ZNK6health15BlockAccessFile15ReadTransaction25_enumerateFreeSpaceBlocksENSt3__18functionIFvRKNS_10FileExtentEEEE, 
                       __ZNK6health15BlockAccessFile32performReadTransactionWithLambdaENSt3__18functionIFvRKNS0_15ReadTransactionEEEE, 
                       __ZNK6health17TransactionalFile15ReadTransaction18readBufferAtOffsetENS_9RawBufferEx, 
                       __ZNK6health17TransactionalFile15ReadTransaction4sizeEv, __ZNK6health17TransactionalFile16WriteTransaction4sizeEv, 
                       __ZNK6health17TransactionalFile19_readBufferAtOffsetEyNS_9RawBufferEx, 
                       __ZNK6health17TransactionalFile25_cacheMutex_pageForOffsetEyyNS0_11PagePurposeE, 
                       __ZNK6health17TransactionalFile25readTransactionWithLambdaENSt3__18functionIFvRKNS0_15ReadTransactionEEEE, 
                       __ZNK6health17TransactionalFile28_sanitizedPageForTransactionERKNS_8FilePageENS0_11PagePurposeE, 
                       __ZNK6health17TransactionalFile42_transactionMutex_canStartWriteTransactionENSt3__111__thread_idE, 
                       __ZNK6health21POSIXMappedFileExtent5bytesEv, __ZNK6health24InMemoryMappedFileExtent5bytesEv, 
                       __ZNK6health9DataStore14checkIntegrityENSt3__18functionIFvRKNS1_12basic_stringIcNS1_11char_traitsIcEENS1_9allocatorIcEEEEEEE, 
                       __ZNK6health9DataStore15ReadTransaction17_pointerForObjectERKNS0_16ObjectIdentifierE, 
                       __ZNK6health9DataStore15ReadTransaction25objectExistsForIdentifierERKNS0_16ObjectIdentifierE, 
                       __ZNK6health9DataStore15ReadTransaction27retrieveBytesWithIdentifierERNS_9RawBufferERKNS0_16ObjectIdentifierE, 
                       __ZNK6health9DataStore15ReadTransaction33enumerateIdentifiersForObjectTypeExNSt3__18functionIFvNS0_16ObjectIdentifierEEEE, 
                       __ZNK6health9DataStore32performReadTransactionWithLambdaENSt3__18functionIFvRKNS0_15ReadTransactionEEEE, 
                       __ZTIN10statistics10StatisticsE, __ZTIN10statistics16StatisticsBucketE, 
                       __ZTIN10statistics16StatisticsEngineE, __ZTIN10statistics17RawQuantitySampleE, 
                       __ZTIN10statistics29QuantityOverlapProcessorStateE, __ZTIN10statistics37QuantitySampleAttenuationEngineSampleE, 
                       __ZTIN10statistics8IntervalE, __ZTIN6health12InMemoryFileE, 
                       __ZTIN6health15POSIXFilesystemE, __ZTIN6health17TransactionalFile15ReadTransactionE, 
                       __ZTIN6health17TransactionalFile16WriteTransactionE, __ZTIN6health18InMemoryFilesystemE, 
                       __ZTIN6health21POSIXMappedFileExtentE, __ZTIN6health24InMemoryMappedFileExtentE, 
                       __ZTIN6health9POSIXFileE, __ZTSN10statistics10StatisticsE, 
                       __ZTSN10statistics16StatisticsBucketE, __ZTSN10statistics16StatisticsEngineE, 
                       __ZTSN10statistics17RawQuantitySampleE, __ZTSN10statistics29QuantityOverlapProcessorStateE, 
                       __ZTSN10statistics37QuantitySampleAttenuationEngineSampleE, 
                       __ZTSN10statistics8IntervalE, __ZTSN6health12InMemoryFileE, 
                       __ZTSN6health15POSIXFilesystemE, __ZTSN6health17TransactionalFile15ReadTransactionE, 
                       __ZTSN6health17TransactionalFile16WriteTransactionE, __ZTSN6health18InMemoryFilesystemE, 
                       __ZTSN6health21POSIXMappedFileExtentE, __ZTSN6health24InMemoryMappedFileExtentE, 
                       __ZTSN6health9POSIXFileE, __ZTVN10statistics10StatisticsE, 
                       __ZTVN10statistics16StatisticsBucketE, __ZTVN10statistics16StatisticsEngineE, 
                       __ZTVN10statistics17RawQuantitySampleE, __ZTVN10statistics29QuantityOverlapProcessorStateE, 
                       __ZTVN10statistics37QuantitySampleAttenuationEngineSampleE, 
                       __ZTVN10statistics8IntervalE, __ZTVN6health12InMemoryFileE, 
                       __ZTVN6health15POSIXFilesystemE, __ZTVN6health17TransactionalFile15ReadTransactionE, 
                       __ZTVN6health17TransactionalFile16WriteTransactionE, __ZTVN6health18InMemoryFilesystemE, 
                       __ZTVN6health21POSIXMappedFileExtentE, __ZTVN6health24InMemoryMappedFileExtentE, 
                       __ZTVN6health9POSIXFileE, _combineNoiseLevelDatums, _hfd_catchExceptionsAsErrors, 
                       _isCloudKitManateeEnabled, _kHDCloudSyncKeyValueDomain, _kHDEventNameBGDelivery, 
                       _kHDEventNameCloudSync, _kHDEventNameDiscovery, _kHDEventNameQuery, 
                       _kHDEventNameSession, _kHDEventNameWorkoutSession, _kHDMaxQueryBatchSize, 
                       _kHDMaxQueryStatisticsBatchSize, _kHDRaceRouteLocationSeriesBatchCount, 
                       _kHDTinkerPrivacyAlertEventBirthday, _kHDTinkerPrivacyAlertEventSharingSetUp, 
                       _kHDTinkerPrivacyAlertEventTesting ]
    objc-classes:    [ HDAccountOwnerEntity, HDActiveDataAggregator, HDActiveDataCollectionObserverServer, 
                       HDActiveQuantityDataAggregator, HDActivityCacheEntity, HDActivityCachePruningPredicateProvider, 
                       HDActivityCacheSyncEntity, HDActivityGoalScheduleEntity, HDActivityGoalScheduleSyncEntity, 
                       HDActivitySummaryBuilder, HDActivitySummaryQueryHelper, HDActivitySummaryQueryServer, 
                       HDAdHocConceptEntity, HDAgeGatingManager, HDAggregateDataCollector, 
                       HDAlarmEvent, HDAlarmEventChanges, HDAlarmEventEntity, HDAllergyRecordEntity, 
                       HDAllowedCountriesDataSourceWithLocalCountrySetFallback, HDAllowedCountriesDataSourceWithNanoRegistryFallback, 
                       HDAnalyticsDailyEventManager, HDAnalyticsSubmissionCoordinator, 
                       HDAnchoredObjectQueryServer, HDAppSubscription, HDAppSubscriptionAppLaunchEntity, 
                       HDAppSubscriptionEntity, HDAppSubscriptionManager, HDAppleExerciseTimeDataAggregator, 
                       HDAssociatableObjectReference, HDAssociationEntity, HDAssociationManager, 
                       HDAssociationSyncEntity, HDAttachment, HDAttachmentAnalytics, 
                       HDAttachmentCloudAnalytics, HDAttachmentEntity, HDAttachmentManager, 
                       HDAttachmentReference, HDAttachmentReferenceEntity, HDAttachmentReferenceSchemaIdentifier, 
                       HDAttachmentStoreServer, HDAudioExposureAggregator, HDAuthorizationBackupSyncEntity, 
                       HDAuthorizationDailyAnalytics, HDAuthorizationEntity, HDAuthorizationManager, 
                       HDAuthorizationStatus, HDAuthorizationStatusRecord, HDAuthorizationStoreReadServer, 
                       HDAuthorizationStoreResetServer, HDAuthorizationStoreWriteServer, 
                       HDAuthorizationSyncEntity, HDAutoBugCaptureReporter, HDAutoPauseWorkoutEventCollector, 
                       HDBQuantitySampleEntityBase, HDBackgroundActivityScheduler, 
                       HDBackgroundAppLauncher, HDBackgroundFeatureDeliveryAnalyticsEvent, 
                       HDBackgroundFeatureDeliveryManager, HDBasicDatabaseJournal, 
                       HDBatchedQueryServer, HDBinarySampleEntity, HDBinarySampleSyncEntity, 
                       HDBiomeInterface, HDBirthDateEntity, HDBirthDateSyncEntity, 
                       HDBitmaskStoreUtilities, HDBradycardiaDataAggregator, HDCDASampleEntity, 
                       HDCDASampleSyncEntity, HDCacheDeleteCoordinator, HDCacheEvictionHelper, 
                       HDCachedCKDatabaseEntity, HDCachedCKRecordEntity, HDCachedCKRecordZoneEntity, 
                       HDCachedQueryMetadata, HDCachedQueryMetadataEntity, HDCachedSecureCKRecordEntity, 
                       HDCachedSyncRequestEntity, HDCategorySampleEntity, HDCategorySampleSyncEntity, 
                       HDClientAuthorizationOracle, HDClientDataCollectionObservationStateMonitor, 
                       HDClientDataCollectionTaskServer, HDClinicalAccountEntity, 
                       HDClinicalAccountEventEntity, HDClinicalAttachmentSchemaProvider, 
                       HDClinicalAuthorizationSessionEntity, HDClinicalDeletedAccountEntity, 
                       HDClinicalGatewayEntity, HDClinicalNoteRecordEntity, HDClinicalRecordEntity, 
                       HDCloudSyncAcceptSharesOperation, HDCloudSyncAccountProvider, 
                       HDCloudSyncAccountStatus, HDCloudSyncAddSharingParticipantOperation, 
                       HDCloudSyncAttachmentManagementRecord, HDCloudSyncAttachmentRecord, 
                       HDCloudSyncAttachmentReferenceRecord, HDCloudSyncAttachmentReferenceTombstoneRecord, 
                       HDCloudSyncAvailability, HDCloudSyncBlockOperation, HDCloudSyncCacheValidation, 
                       HDCloudSyncCachedCloudState, HDCloudSyncCachedStoreEpochs, 
                       HDCloudSyncCachedZone, HDCloudSyncChangeRecord, HDCloudSyncCloudState, 
                       HDCloudSyncCodableAttachment, HDCloudSyncCodableAttachmentManagementRecord, 
                       HDCloudSyncCodableAttachmentReference, HDCloudSyncCodableAttachmentReferenceTombstone, 
                       HDCloudSyncCodableAttachmentReferenceTombstones, HDCloudSyncCodableChange, 
                       HDCloudSyncCodableDeviceContext, HDCloudSyncCodableDeviceContextDatabaseDetail, 
                       HDCloudSyncCodableDeviceContextDatabaseDetailRow, HDCloudSyncCodableDeviceKeyValue, 
                       HDCloudSyncCodableLog, HDCloudSyncCodableMedicalID, HDCloudSyncCodableProfileIdentifier, 
                       HDCloudSyncCodableRegisteredStore, HDCloudSyncCodableRegistry, 
                       HDCloudSyncCodableSequence, HDCloudSyncCodableShardPredicate, 
                       HDCloudSyncCodableSharedSummaryAuthorizationRecord, HDCloudSyncCodableSharedSummaryParticipantRecord, 
                       HDCloudSyncCodableSharedSummaryRecord, HDCloudSyncCodableSharedSummaryTransactionRecord, 
                       HDCloudSyncCodableState, HDCloudSyncCodableStore, HDCloudSyncCompoundOperation, 
                       HDCloudSyncComputePullTargetsOperation, HDCloudSyncComputePushTargetsOperation, 
                       HDCloudSyncComputedState, HDCloudSyncConditionalOperation, 
                       HDCloudSyncContext, HDCloudSyncContextSyncManager, HDCloudSyncContextSyncPullTask, 
                       HDCloudSyncContextSyncPushTask, HDCloudSyncContextSyncShim, 
                       HDCloudSyncControlTaskServer, HDCloudSyncCoordinator, HDCloudSyncCreateZonesOperation, 
                       HDCloudSyncDataUploadRequestRecord, HDCloudSyncDeleteEmptyZonesOperation, 
                       HDCloudSyncDeleteOrphanedRecordsOperation, HDCloudSyncDeleteRecordsOperation, 
                       HDCloudSyncDeleteSequenceOperation, HDCloudSyncDeleteStoreOnChildOperation, 
                       HDCloudSyncDeleteStoresOperation, HDCloudSyncDeleteZonesOperation, 
                       HDCloudSyncDetectSyncDisabledOperation, HDCloudSyncDeviceContextRecord, 
                       HDCloudSyncDeviceKeyValueRecord, HDCloudSyncDisableAndDeleteOperation, 
                       HDCloudSyncDisableSyncLocallyOperation, HDCloudSyncFetchRecordsOperation, 
                       HDCloudSyncFetchSharesOperation, HDCloudSyncFinishOwnerTakeoverOperation, 
                       HDCloudSyncHandleMissingManateeIdentityOperation, HDCloudSyncIgnoredErrorsOperation, 
                       HDCloudSyncIgnoredErrorsPipelineStage, HDCloudSyncLeaveAllSharesOperation, 
                       HDCloudSyncLocalStorageDictionary, HDCloudSyncLocalStorageUserDefaults, 
                       HDCloudSyncLookupParticipantOperation, HDCloudSyncManager, 
                       HDCloudSyncManagerAcceptSharesTask, HDCloudSyncManagerAnalyticsTask, 
                       HDCloudSyncManagerDisableAndDeleteTask, HDCloudSyncManagerDiscardCachedOwnerIdentifiersTask, 
                       HDCloudSyncManagerFetchShareParticipantsTask, HDCloudSyncManagerLeaveSharesTask, 
                       HDCloudSyncManagerLookupTask, HDCloudSyncManagerMedicalIDSyncTask, 
                       HDCloudSyncManagerPipelineTask, HDCloudSyncManagerPrepareForSharingTask, 
                       HDCloudSyncManagerRecordTask, HDCloudSyncManagerRemoveParticipantsTask, 
                       HDCloudSyncManagerRepositoryTask, HDCloudSyncManagerResetTask, 
                       HDCloudSyncManagerShowTask, HDCloudSyncManagerStatusTask, 
                       HDCloudSyncManagerSubscriptionTask, HDCloudSyncManagerSyncTask, 
                       HDCloudSyncManagerTask, HDCloudSyncManagerTaskQueue, HDCloudSyncMarkAllOwnersDisabledOperation, 
                       HDCloudSyncMasterRecord, HDCloudSyncMedicalIDFetchOperation, 
                       HDCloudSyncMedicalIDMergeOperation, HDCloudSyncMedicalIDPersistOperation, 
                       HDCloudSyncMedicalIDPushOperation, HDCloudSyncMedicalIDRecord, 
                       HDCloudSyncModifyRecordZonesOperation, HDCloudSyncModifyRecordsOperation, 
                       HDCloudSyncObserverTaskServer, HDCloudSyncOperation, HDCloudSyncOperationConfiguration, 
                       HDCloudSyncOperationPipelineStage, HDCloudSyncOwnerIdentifier, 
                       HDCloudSyncOwnerIdentifierManager, HDCloudSyncParallelOperation, 
                       HDCloudSyncPeriodicActivityScheduler, HDCloudSyncPipeline, 
                       HDCloudSyncPipelineStage, HDCloudSyncPipelineStageAttachments, 
                       HDCloudSyncPipelineStageCheckForRequiredProfileDeletion, HDCloudSyncPipelineStageComputeTargets, 
                       HDCloudSyncPipelineStageContextSyncPull, HDCloudSyncPipelineStageContextSyncPush, 
                       HDCloudSyncPipelineStageDescribe, HDCloudSyncPipelineStageDescription, 
                       HDCloudSyncPipelineStageDisableSyncLocally, HDCloudSyncPipelineStageFetchAndUpdateCache, 
                       HDCloudSyncPipelineStageFetchShares, HDCloudSyncPipelineStageLookupParticipant, 
                       HDCloudSyncPipelineStageMedicalID, HDCloudSyncPipelineStagePrepareForSync, 
                       HDCloudSyncPipelineStagePull, HDCloudSyncPipelineStagePush, 
                       HDCloudSyncPipelineStageRegisterSubscriptions, HDCloudSyncPipelineStageRemoveSharingParticipants, 
                       HDCloudSyncPipelineStageReset, HDCloudSyncPipelineStageSharedSummaryAddParticipant, 
                       HDCloudSyncPipelineStageSharedSummaryPull, HDCloudSyncPipelineStageSharedSummaryPush, 
                       HDCloudSyncPipelineStageSharedSummaryRevokeParticipant, HDCloudSyncPipelineStageSharedSummarySynchronizeSharingEntryState, 
                       HDCloudSyncPipelineStageSharedSummaryUpdateParticipant, HDCloudSyncPipelineStageStateSync, 
                       HDCloudSyncPipelineStageSynchronize, HDCloudSyncPipelineStageWaitForDeviceToDeviceEncryptionAvailability, 
                       HDCloudSyncPlatformConfiguration, HDCloudSyncPrepareForSharingOperation, 
                       HDCloudSyncPreparePushZoneForStoreOperation, HDCloudSyncProfileManagementShim, 
                       HDCloudSyncPullChangeRecordOperation, HDCloudSyncPullDeviceContextOperation, 
                       HDCloudSyncPullDeviceKeyValueOperation, HDCloudSyncPullReferenceTombstonesOperation, 
                       HDCloudSyncPullReferencesOperation, HDCloudSyncPullSequenceOperation, 
                       HDCloudSyncPullStoreOperation, HDCloudSyncPushDeviceContextOperation, 
                       HDCloudSyncPushDeviceKeyValueOperation, HDCloudSyncPushReferenceTombstonesOperation, 
                       HDCloudSyncPushReferencesOperation, HDCloudSyncPushSequenceOperation, 
                       HDCloudSyncPushStoreOperation, HDCloudSyncRecord, HDCloudSyncRecordPrintDescription, 
                       HDCloudSyncRecoveryModeProvider, HDCloudSyncRegisterSubscriptionsOperation, 
                       HDCloudSyncRegistryRecord, HDCloudSyncRemoveInvalidShareParticipantsOperation, 
                       HDCloudSyncRemoveSharingParticipantsOperation, HDCloudSyncRepairRegistryRecordsOperation, 
                       HDCloudSyncRepairStoreRecordsOperation, HDCloudSyncRepository, 
                       HDCloudSyncRequestDataUploadOperation, HDCloudSyncResetOperation, 
                       HDCloudSyncSeizeAbandonedStoresOperation, HDCloudSyncSequenceRecord, 
                       HDCloudSyncSequenceState, HDCloudSyncSerializedField, HDCloudSyncSerializedRecord, 
                       HDCloudSyncSession, HDCloudSyncSessionContext, HDCloudSyncSetupSharingForUnifiedZoneTask, 
                       HDCloudSyncShardPredicate, HDCloudSyncShareParticipantManagerTaskServer, 
                       HDCloudSyncShareSetupMetadata, HDCloudSyncShareToParticipantOperation, 
                       HDCloudSyncSharedSummariesShim, HDCloudSyncSharedSummaryAuthorizationRecord, 
                       HDCloudSyncSharedSummaryDisableAndDeleteOperation, HDCloudSyncSharedSummaryInactiveParticipantProfileDeletionOperation, 
                       HDCloudSyncSharedSummaryManager, HDCloudSyncSharedSummaryMergeLocalAndCloudParticipantsOperation, 
                       HDCloudSyncSharedSummaryParticipantProfileCreationOperation, 
                       HDCloudSyncSharedSummaryParticipantRecord, HDCloudSyncSharedSummaryPullOperation, 
                       HDCloudSyncSharedSummaryPullTask, HDCloudSyncSharedSummaryPushMissingEntriesOperation, 
                       HDCloudSyncSharedSummaryPushOperation, HDCloudSyncSharedSummaryPushPrepareOperation, 
                       HDCloudSyncSharedSummaryPushPruningOperation, HDCloudSyncSharedSummaryPushTask, 
                       HDCloudSyncSharedSummaryRecord, HDCloudSyncSharedSummaryRevokeParticipantOperation, 
                       HDCloudSyncSharedSummaryRevokeParticipantTask, HDCloudSyncSharedSummarySetupTask, 
                       HDCloudSyncSharedSummarySynchronizeCloudStateOperation, HDCloudSyncSharedSummarySynchronizeParticipantsOperation, 
                       HDCloudSyncSharedSummarySynchronizeTask, HDCloudSyncSharedSummaryTransactionRecord, 
                       HDCloudSyncSharedSummaryUpdateCodableEntryOperation, HDCloudSyncSharedSummaryUpdateParticipantOperation, 
                       HDCloudSyncSharedSummaryUpdateParticipantTask, HDCloudSyncSharedSummaryValidateOutgoingInvitationOperation, 
                       HDCloudSyncShimProvider, HDCloudSyncStartSequenceOperation, 
                       HDCloudSyncStateRecord, HDCloudSyncStateSampleWindowUpdater, 
                       HDCloudSyncStateSampleWindowUpdaterConfiguration, HDCloudSyncStateStore, 
                       HDCloudSyncStateSyncOperation, HDCloudSyncStateSyncShim, HDCloudSyncStateUpdater, 
                       HDCloudSyncStatus, HDCloudSyncStatusProvider, HDCloudSyncStore, 
                       HDCloudSyncStoreEntity, HDCloudSyncStoreRecord, HDCloudSyncSubscriptionNotificationHandler, 
                       HDCloudSyncSubscriptionRecord, HDCloudSyncSummarySharingEntryShim, 
                       HDCloudSyncSynchronizeProfilesOperation, HDCloudSyncSynchronousOperation, 
                       HDCloudSyncTapToRadar, HDCloudSyncTarget, HDCloudSyncUpdateCachedDatabasesOperation, 
                       HDCloudSyncUpdateCachedRecordsInSharedDatabaseOperation, HDCloudSyncUpdateCachedRecordsOperation, 
                       HDCloudSyncUpdateCachedSharedDatabaseOperation, HDCloudSyncUpdateCachedZonesInSharedDatabaseOperation, 
                       HDCloudSyncUpdateCachedZonesOperation, HDCloudSyncUpdateLastPullDateOperation, 
                       HDCloudSyncUpdateLocalAnchorsOperation, HDCloudSyncUpdateSharingStatusOperation, 
                       HDCloudSyncValidatePushTargetOperation, HDCloudSyncValidateSubscriptionsOperation, 
                       HDCloudSyncValidateZonesOperation, HDCloudSyncVerifyAttachmentManagementRecordOperation, 
                       HDCloudSyncZone, HDCloudSyncZoneIdentifier, HDCodableActivityCache, 
                       HDCodableActivityGoalSchedule, HDCodableActivityStatisticsQuantityInfo, 
                       HDCodableAuthorization, HDCodableAuthorizationCompleteMessage, 
                       HDCodableAuthorizationRequestMessage, HDCodableAuthorizationResponseMessage, 
                       HDCodableBinarySample, HDCodableBloodPressureJournal, HDCodableBloodPressureJournalScheduleTimeInterval, 
                       HDCodableBloodPressureJournalState, HDCodableCDADocumentSample, 
                       HDCodableCategoryDomainDictionary, HDCodableCategorySample, 
                       HDCodableClinicalAccount, HDCodableClinicalContact, HDCodableClinicalDeletedAccount, 
                       HDCodableClinicalGateway, HDCodableCodedQuantity, HDCodableCodedValue, 
                       HDCodableCodedValueCollection, HDCodableCompanionUserNotificationConfiguration, 
                       HDCodableCompanionUserNotificationRequest, HDCodableCompanionUserNotificationResponse, 
                       HDCodableCompanionWorkoutStateRequest, HDCodableCompanionWorkoutStateResponse, 
                       HDCodableContributor, HDCodableCorrelation, HDCodableDateComponents, 
                       HDCodableDateInterval, HDCodableDeletedSample, HDCodableDevice, 
                       HDCodableECGSample, HDCodableEmergencyContact, HDCodableEntityIdentifier, 
                       HDCodableError, HDCodableFHIRCredential, HDCodableFHIRResource, 
                       HDCodableFitnessFriendAchievement, HDCodableFitnessFriendActivitySnapshot, 
                       HDCodableFitnessFriendWorkout, HDCodableGeneratedObjectCollection, 
                       HDCodableHKBirthDate, HDCodableHealthObject, HDCodableInspectableValue, 
                       HDCodableInspectableValueCollection, HDCodableListUserDomainConcept, 
                       HDCodableLocationDatum, HDCodableLocationSeries, HDCodableMedicalCoding, 
                       HDCodableMedicalCodingList, HDCodableMedicalDate, HDCodableMedicalDateInterval, 
                       HDCodableMedicalIDAllergy, HDCodableMedicalIDCondition, HDCodableMedicalIDData, 
                       HDCodableMedicalIDMedication, HDCodableMedicalUserDomainConcept, 
                       HDCodableMedicationDoseEvent, HDCodableMenstrualCyclesExperienceModel, 
                       HDCodableMessageVersion, HDCodableMetadataDictionary, HDCodableMetadataKeyValuePair, 
                       HDCodableNanoSyncActivationRestore, HDCodableNanoSyncAnchor, 
                       HDCodableNanoSyncChange, HDCodableNanoSyncChangeSet, HDCodableNanoSyncMessage, 
                       HDCodableNanoSyncStatus, HDCodableNotificationInstructionCriteria, 
                       HDCodableNotificationInstructionMessage, HDCodableNotificationInstructionRequest, 
                       HDCodableObjectAssociation, HDCodableObjectAuthorization, 
                       HDCodableObjectCollection, HDCodableObjectSourceAuthorization, 
                       HDCodableObjectTypeSourceOrder, HDCodableOnboardingCompletion, 
                       HDCodableOntologyConceptIdentifier, HDCodableOntologyLocalizedEducationContent, 
                       HDCodableOntologyLocalizedEducationContentSection, HDCodableOriginalSignedClinicalDataRecord, 
                       HDCodablePauseRingsSchedule, HDCodablePinnedContentState, 
                       HDCodableProvenance, HDCodableQuantity, HDCodableQuantitySample, 
                       HDCodableQuantitySeriesDatum, HDCodableRacingCluster, HDCodableRacingMetrics, 
                       HDCodableRatioValue, HDCodableReferenceRange, HDCodableRoutePointDatum, 
                       HDCodableRoutineLocation, HDCodableRoutineLocationRequest, 
                       HDCodableRoutineLocationResponse, HDCodableRoutineLocationVisit, 
                       HDCodableRoutinePredictedLocation, HDCodableRoutinePredictedLocationsResponse, 
                       HDCodableRoutineRequestMessage, HDCodableRoutineResponseMessage, 
                       HDCodableRoutineScenarioTriggeredRequest, HDCodableSample, 
                       HDCodableSampleOriginCollection, HDCodableScoredAssessment, 
                       HDCodableSectionData, HDCodableSemanticDate, HDCodableSerializedCoherenceModel, 
                       HDCodableSharingAuthorization, HDCodableSharingRelationship, 
                       HDCodableSharingSetupInvitationToken, HDCodableSharingSetupMetadata, 
                       HDCodableSignedClinicalDataIssuer, HDCodableSleepSchedule, 
                       HDCodableSource, HDCodableSourceAuthorization, HDCodableStartWorkoutAppRequest, 
                       HDCodableStartWorkoutAppResponse, HDCodableStateOfMind, HDCodableStateSyncCollection, 
                       HDCodableStaticSyncChangeSet, HDCodableSummarySharingEntry, 
                       HDCodableSyncAnchorRange, HDCodableSyncAnchorRangeMap, HDCodableSyncEntityVersionMap, 
                       HDCodableSyncEntityVersionRange, HDCodableSyncIdentity, HDCodableSyncState, 
                       HDCodableSyncStateOrigin, HDCodableSyncStateVersionedData, 
                       HDCodableSyncVersionRange, HDCodableTimestampedKeyValuePair, 
                       HDCodableTinkerEndToEndCloudSyncRequest, HDCodableTinkerEndToEndCloudSyncResponse, 
                       HDCodableTinkerOptInRequest, HDCodableTinkerOptInResponse, 
                       HDCodableTinkerPairingRequest, HDCodableTinkerPairingResponse, 
                       HDCodableTypedObjectAssociation, HDCodableUserDomainConcept, 
                       HDCodableUserDomainConceptCollection, HDCodableUserDomainConceptLink, 
                       HDCodableUserDomainConceptLocalizedStringProperty, HDCodableUserDomainConceptNamedQuantity, 
                       HDCodableUserDomainConceptProperty, HDCodableUserDomainConceptTypeIdentifier, 
                       HDCodableVerifiableData, HDCodableVisionSample, HDCodableWorkout, 
                       HDCodableWorkoutActivity, HDCodableWorkoutConfiguration, HDCodableWorkoutEvent, 
                       HDCodableWorkoutSessionConfiguration, HDCodableWorkoutSessionGlobalState, 
                       HDCodableWorkoutSessionSyncTransaction, HDCodableWorkoutSet, 
                       HDCodableWorkoutSetMetric, HDCodableWorkoutStatistics, HDCodableWorkoutZone, 
                       HDCodableWorkoutZoneGroup, HDCodableWorkoutZones, HDConceptAuthorizationEntity, 
                       HDConceptAuthorizationSchemaProvider, HDConceptIndexEntity, 
                       HDConceptIndexEntry, HDConceptIndexManager, HDConceptIndexState, 
                       HDConceptIndexer, HDConceptResolutionConfiguration, HDConcreteSyncIdentity, 
                       HDConditionRecordEntity, HDContributorEntity, HDContributorManager, 
                       HDContributorReference, HDContributorSyncEntity, HDCoreAnalyticsSubmissionManager, 
                       HDCoreMotionDataCollector, HDCorrelationSampleEntity, HDCorrelationSampleSyncEntity, 
                       HDCoverageRecordEntity, HDCurrentActivitySummaryHelper, HDCyclingDataCollectionForwarder, 
                       HDDaemon, HDDaemonConnectionManager, HDDaemonSyncMessageHandler, 
                       HDDaemonTransaction, HDDataAggregationResult, HDDataAggregationState, 
                       HDDataAggregator, HDDataAggregatorConfiguration, HDDataCollectionAssertion, 
                       HDDataCollectionManager, HDDataCollectionObserverState, HDDataCollector, 
                       HDDataCollectorConfiguration, HDDataCollectorRecord, HDDataCollectorSensorDatum, 
                       HDDataDeletionConfiguration, HDDataEntity, HDDataEntityEnumerator, 
                       HDDataEntityInsertionContext, HDDataExternalSyncIdentifierEntity, 
                       HDDataExternalSyncIdentifierEntityPredicate, HDDataManager, 
                       HDDataOriginProvenance, HDDataProvenanceEntity, HDDataProvenanceManager, 
                       HDDataSyncEntity, HDDataSyncUtilities, HDDatabase, HDDatabaseAccessibilityAssertionStoreServer, 
                       HDDatabaseAvailabilityCondition, HDDatabaseCoalescedWritePool, 
                       HDDatabaseCorruptionEvent, HDDatabaseCorruptionEventStore, 
                       HDDatabaseCorruptionTTRPrompter, HDDatabaseDetailAnalyticsManager, 
                       HDDatabaseJournal, HDDatabaseJournalMetrics, HDDatabaseLegacyJournalFile, 
                       HDDatabaseMigrationStep, HDDatabaseMigrationTransaction, HDDatabaseMigrator, 
                       HDDatabasePruningCoordinator, HDDatabasePruningShow, HDDatabasePruningShowDeletedSample, 
                       HDDatabasePruningShowEntity, HDDatabasePruningShowShim, HDDatabasePruningShowSyncIdentity, 
                       HDDatabasePruningShowSyncStore, HDDatabasePruningTask, HDDatabaseSchemaManager, 
                       HDDatabaseTransaction, HDDatabaseTransactionContext, HDDatabaseTransactionContextStatistics, 
                       HDDatabaseTransactionStatistics, HDDatabaseValueCache, HDDebugStoreServer, 
                       HDDefaultAuthorizationSchemaProvider, HDDefaultWorkoutSessionController, 
                       HDDeleteAttachmentReferenceOperation, HDDeletedObjectEntity, 
                       HDDeletedSampleEntity, HDDeletedSampleSyncEntity, HDDemoData, 
                       HDDemoDataAlcoholSampleGenerator, HDDemoDataBaseSampleGeneratorObjectCollection, 
                       HDDemoDataBodySampleGenerator, HDDemoDataFoodSampleGenerator, 
                       HDDemoDataGenerator, HDDemoDataGeneratorConfiguration, HDDemoDataGeneratorState, 
                       HDDemoDataGeneratorWorkoutConfiguration, HDDemoDataPerson, 
                       HDDemoDataSleepParameters, HDDemoDataSleepSampleGenerator, 
                       HDDemoDataStatisticsSampleGenerator, HDDemoDataWorkoutPrototype, 
                       HDDeviceContext, HDDeviceContextEntity, HDDeviceContextStoreManager, 
                       HDDeviceEntity, HDDeviceKeyValueStorageEntry, HDDeviceKeyValueStorageEntryEntity, 
                       HDDeviceKeyValueStorageGroup, HDDeviceKeyValueStoreManager, 
                       HDDeviceManager, HDDevicePowerMonitor, HDDeviceProtectedKeyValueStorageEntryEntity, 
                       HDDeviceSyncEntity, HDDeviceUnprotectedKeyValueStorageEntryEntity, 
                       HDDiagnosticTestReportEntity, HDDiagnosticTestResultEntity, 
                       HDDistinctByKeyPathsIterator, HDECGSampleEntity, HDECGSampleSyncEntity, 
                       HDElectrocardiogramPruningPredicateProvider, HDEncryptedArchive, 
                       HDEncryptedArchiveKeyPair, HDEncryptedArchiveSymmetricKey, 
                       HDEntityEncoder, HDFHIRCredentialEntity, HDFakeDataCollectorConfiguration, 
                       HDFeatureAvailabilityHealthDataRequirementEvaluationManager, 
                       HDFeatureAvailabilityManager, HDFeatureAvailabilityOnboardingEligibilityDeterminer, 
                       HDFeatureAvailabilityOnboardingRecordConfiguration, HDFeatureNeverDisabledOrExpiredProvider, 
                       HDFeatureSettingsManager, HDFileArchiver, HDFirstPartyWorkoutSessionController, 
                       HDFitnessFriendAchievementEntity, HDFitnessFriendAchievementSyncEntity, 
                       HDFitnessFriendActivitySnapshotEntity, HDFitnessFriendActivitySnapshotSyncEntity, 
                       HDFitnessFriendWorkoutEntity, HDFitnessFriendWorkoutSyncEntity, 
                       HDHDCloudSyncPipelineStagePushFullSyncMetricMemoryStorage, 
                       HDHDCloudSyncPipelineStagePushFullSyncMetricUserDefaultsStorage, 
                       HDHFBooleanSampleEntity, HDHFConceptSampleEntity, HDHFDataStore, 
                       HDHFQuantitySampleEntity, HDHFSampleEntity, HDHealthEntity, 
                       HDHealthOntologyConfiguration, HDHealthOntologyCountryConfiguration, 
                       HDHealthRecordsAccountExistenceNotifier, HDHealthStoreClient, 
                       HDHealthStoreEndpoint, HDHealthTypesDaemonPlugin, HDHeartDailyAnalyticsBuilder, 
                       HDHeartEventDataAggregator, HDHeartEventSensorDatum, HDHeartRateSeriesDataAggregator, 
                       HDIDSDestination, HDIDSDevice, HDIDSIncomingRequest, HDIDSIncomingResponse, 
                       HDIDSInvitationManager, HDIDSMessageCenter, HDIDSMessageContext, 
                       HDIDSMessageOptions, HDIDSOutgoingRequest, HDIDSOutgoingResponse, 
                       HDIDSPersistentDictionary, HDIDSReachabilityOperation, HDIDSService, 
                       HDIntermediateSyncAssociation, HDJournalEntry, HDJournalableOperation, 
                       HDKeyValueDomain, HDKeyValueDomainTaskServer, HDKeyValueEntity, 
                       HDKeyValueSyncEntity, HDLegacyClinicalCredentialManager, HDListUserDomainConceptCollapser, 
                       HDListUserDomainConceptEntity, HDLiveWorkoutDataSource, HDLocalCountrySetAvailabilityProvider, 
                       HDLocalFeatureAttributesProvider, HDLocationDataCollector, 
                       HDLocationManager, HDLocationSeriesDataEntity, HDLocationSeriesHFDMigrationEntity, 
                       HDLocationSeriesSampleEntity, HDLocationSeriesSyncEntity, 
                       HDLogicalSourceEntity, HDLogicalSourceOrderEntity, HDLogicalSourceOrderSyncEntity, 
                       HDMHAllergyRecordEntity, HDMHHealthConcernRecordEntity, HDMHImmunizationRecordEntity, 
                       HDMHLabResultRecordEntity, HDMHProcedureRecordEntity, HDMHQuantitativeLabResultRecordEntity, 
                       HDMHRecordEntity, HDMaintenanceOperation, HDMaintenanceWorkCoordinator, 
                       HDMaximumObjectAgeMapping, HDMedicalDownloadableAttachmentEntity, 
                       HDMedicalIDDataManager, HDMedicalIDDataMigrator, HDMedicalIDSyncEntity, 
                       HDMedicalRecordEntity, HDMedicalUserDomainConceptCollapser, 
                       HDMedicalUserDomainConceptEntity, HDMedicalUserDomainConceptGenerator, 
                       HDMedicalUserDomainConceptMappingEntity, HDMedicationDispenseRecordEntity, 
                       HDMedicationDoseEventEntity, HDMedicationDoseEventSyncEntity, 
                       HDMedicationOrderEntity, HDMedicationRecordEntity, HDMetadataKeyEntity, 
                       HDMetadataManager, HDMetadataValueEntity, HDMetadataValueEntityPredicate, 
                       HDMetadataValueStatement, HDMirroredWorkoutAnalyticEvent, 
                       HDMirroredWorkoutSessionServer, HDMockIDSDevice, HDMultiTypeSortedSampleIterator, 
                       HDMutableDatabaseTransactionContext, HDNanoPairingEntity, 
                       HDNanoRegistryDeviceCapabilityProvider, HDNanoSyncManager, 
                       HDNanoSyncSession, HDNanoSyncStore, HDNanoUserDefaultsSyncEntity, 
                       HDNetworkPathMonitor, HDNotificationCategorySampleSyncEntity, 
                       HDNotificationInstruction, HDNotificationInstructionCriteria, 
                       HDNotificationInstructionDeletedObjectNotInDatabaseCriteria, 
                       HDNotificationInstructionDiagnostics, HDNotificationInstructionEntity, 
                       HDNotificationInstructionManager, HDNotificationInstructionMessage, 
                       HDNotificationInstructionObjectNotInDatabaseCriteria, HDNotificationInstructionSyncSendEvent, 
                       HDNotificationInstructionSyncService, HDNotificationInstructionUUIDCriteria, 
                       HDNotificationManager, HDNotificationSyncClient, HDNotificationSyncStoreServer, 
                       HDOHSEntityBase, HDOTAFeatureAvailabilityInfo, HDOTAFeatureAvailabilityManager, 
                       HDOTAFeatureDisableAndExpiryProvider, HDObjectAnchorChangeManager, 
                       HDObjectAttachmentSchemaProvider, HDObjectAuthorizationEntity, 
                       HDObjectAuthorizationJournalEntry, HDObjectAuthorizationRecord, 
                       HDObjectAuthorizationRequestContext, HDObjectAuthorizationSyncEntity, 
                       HDOdometerDataCollector, HDOnboardingCompletionEntity, HDOnboardingCompletionEntityEncoder, 
                       HDOnboardingCompletionJournalOperation, HDOnboardingCompletionManager, 
                       HDOnboardingCompletionSyncEntity, HDOntologyBasicPropertyProvider, 
                       HDOntologyConfigurationProvider, HDOntologyLocalizedStringProvider, 
                       HDOriginalFHIRResourceEntity, HDOriginalFHIRResourceLastSeenEntity, 
                       HDOriginalSignedClinicalDataRecordEntity, HDPairedFeaturePropertiesSyncManager, 
                       HDPairedSyncManager, HDPassiveDataAggregator, HDPassiveQuantityDataAggregator, 
                       HDPauseRingsScheduleEntity, HDPauseRingsScheduleSyncEntity, 
                       HDPendingAssociationEntity, HDPendingNotificationInstruction, 
                       HDPendingNotificationInstructions, HDPeriodicActivity, HDPeriodicCountryMonitor, 
                       HDPluginManager, HDPostInstallUpdateManager, HDPowerAssertion, 
                       HDPrimaryProfile, HDProcedureRecordEntity, HDProfile, HDProfileAuthorizationEntity, 
                       HDProfileManager, HDProtectedDataOperation, HDProtectedDataOperationScheduler, 
                       HDProtectedKeyValueEntity, HDProtectedNanoUserDefaultsSyncEntity, 
                       HDQuantityAggregationResult, HDQuantityDateIntervals, HDQuantityDatum, 
                       HDQuantityDistributionCalculator, HDQuantitySampleAttenuationEngine, 
                       HDQuantitySampleEntity, HDQuantitySampleOverlapProcessor, 
                       HDQuantitySampleSeriesDataEnumerator, HDQuantitySampleSeriesEntity, 
                       HDQuantitySampleStatisticsEntity, HDQuantitySampleSyncEntity, 
                       HDQuantitySampleValueEnumerator, HDQuantitySeriesBuilderTaskServer, 
                       HDQuantitySeriesDataEntity, HDQuantitySeriesHFDMigrationEntity, 
                       HDQuantitySeriesManager, HDQuantitySeriesSampleQueryServer, 
                       HDQueryControlServer, HDQueryDescriptor, HDQueryServer, HDQueryUsageStatistics, 
                       HDQueryUsageTracker, HDRCacheManagementEntity, HDRacePreviousRoutePlugin, 
                       HDRaceRouteClusterEntity, HDRaceRouteClusterWorkout, HDRaceRouteGenerationQueueEntity, 
                       HDRaceRouteSnapshotEntity, HDRaceRouteWorkoutEntity, HDRapportMessenger, 
                       HDRapportRequestIdentifier, HDRegionAvailabilityProvider, 
                       HDRequiredFeatureSettingsValidator, HDRestorableAlarm, HDRestorableAlarmScheduler, 
                       HDRollingBaselineRelativeQuantityCalculator, HDSREntity, HDSafeCMSwimData, 
                       HDSampleAggregateCacheEntity, HDSampleAggregateCacheStore, 
                       HDSampleAggregateCachingSession, HDSampleEntity, HDSamplePruningRestrictionPredicate, 
                       HDSampleSyncEntity, HDSampleTypeChangeEvaluator, HDScoredAssessmentEntity, 
                       HDScoredAssessmentSyncEntity, HDSeriesBuilderEntity, HDSeriesFreezeResult, 
                       HDSeriesSampleEntity, HDServiceEntity, HDSessionAssertionGroup, 
                       HDSessionAssertionWrapper, HDSettingsMigrationManager, HDSettingsMigrationStep, 
                       HDSharedSummaryAuthorizationIdentifierEntity, HDSharedSummaryEntity, 
                       HDSharedSummaryManager, HDSharedSummaryObjectTypeEntity, HDSharedSummaryTransactionEntity, 
                       HDSharedSummaryTransactionMetadataEntity, HDSharingAuthorizationManager, 
                       HDSharingAuthorizationsEntity, HDSharingRelationshipEntity, 
                       HDSharingRelationshipSyncEntity, HDSignedClinicalDataIssuerEntity, 
                       HDSignedClinicalDataRecordEntity, HDSkiingWorkoutDistanceCollector, 
                       HDSleepDaySummaryBuilder, HDSleepDaySummaryCacheEntity, HDSleepDaySummaryEnumerator, 
                       HDSleepDaySummaryEnumeratorShim, HDSleepDaySummaryQueryServer, 
                       HDSleepScheduleEntity, HDSleepScheduleSyncEntity, HDSleepSessionQueryServerFactory, 
                       HDSmoothingTask, HDSortedSampleIterator, HDSourceEntity, HDSourceManager, 
                       HDSourceOrderManager, HDSourceSyncEntity, HDStandardTaskServer, 
                       HDStateOfMindEntity, HDStateOfMindSyncEntity, HDStateSyncEntitySchema, 
                       HDStateofMindPruningPredicateProvider, HDStaticSyncExportTask, 
                       HDStaticSyncImportTask, HDStatisticsCollectionCalculator, 
                       HDStatisticsCollectionCalculatorAttenuatedDataSource, HDStatisticsCollectionCalculatorCachingSourceOrderProvider, 
                       HDStatisticsCollectionCalculatorDefaultDataSource, HDStatisticsCollectionCalculatorDefaultSourceOrderProvider, 
                       HDStatisticsCollectionCalculatorRelativeDataSource, HDStatisticsCollectionDataSourceFactory, 
                       HDStatisticsCollectionQueryServer, HDStatisticsNoiseLevelConfiguration, 
                       HDStatisticsPercentileConfiguration, HDSummarySharingAnalytics, 
                       HDSummarySharingEntry, HDSummarySharingEntryEntity, HDSummarySharingEntryIDSManager, 
                       HDSummarySharingEntryManager, HDSydneyHFDMigrator, HDSyncAnchorEntity, 
                       HDSyncAnchorMap, HDSyncAnchorRangeMap, HDSyncEntityIdentifier, 
                       HDSyncIdentity, HDSyncIdentityEntity, HDSyncIdentityManager, 
                       HDSyncPredicate, HDSyncRequester, HDSyncSampleOriginUtilities, 
                       HDSyncSession, HDSyncStoreEntity, HDTTRPromptController, HDTachycardiaDataAggregator, 
                       HDTaskServerRegistry, HDTinkerPairedUserInfo, HDTinkerPrivacyAlertCoordinator, 
                       HDTinkerProfile, HDTrailingDailyAverageWindowCalculator, HDTrailingDailyAverageWindowResult, 
                       HDTrainingLoadChangeManager, HDTrainingLoadStatisticsCacheEntity, 
                       HDTypedAssociationSyncEntity, HDTypedSyncStoreIdentifier, 
                       HDUnitPreferencesManager, HDUnitPreferencesSyncEntity, HDUnitStringEntity, 
                       HDUnknownRecordEntity, HDUnprotectedFeatureSettingsSyncEntity, 
                       HDUnprotectedKeyValueEntity, HDUnprotectedKeyValueNanoSyncEntity, 
                       HDUnprotectedNanoUserDefaultsSyncEntity, HDUserCharacteristicSyncEntity, 
                       HDUserCharacteristicsManager, HDUserDefaultsSyncEntity, HDUserDomainConceptAPIObjectManager, 
                       HDUserDomainConceptCollapser, HDUserDomainConceptEducationContentEntity, 
                       HDUserDomainConceptEducationContentSectionDataEntity, HDUserDomainConceptEducationContentSectionDataStringsEntity, 
                       HDUserDomainConceptEducationContentSectionEntity, HDUserDomainConceptEntity, 
                       HDUserDomainConceptEntityRegistry, HDUserDomainConceptLinkEntity, 
                       HDUserDomainConceptLocalizedStringEntity, HDUserDomainConceptManager, 
                       HDUserDomainConceptNamedQuantityEntity, HDUserDomainConceptOntologyContentRefresher, 
                       HDUserDomainConceptPersistableProcessingState, HDUserDomainConceptProcessingManager, 
                       HDUserDomainConceptProcessingState, HDUserDomainConceptProcessor, 
                       HDUserDomainConceptPropertyEntity, HDUserDomainConceptSyncEntity, 
                       HDUserDomainConceptSyncRequester, HDUserDomainMedicalCodingEntity, 
                       HDUserDomainMedicalCodingStringEntity, HDVaccinationRecordEntity, 
                       HDValueHistogramCollectionCalculator, HDVerifiableClinicalRecordEntity, 
                       HDVisionPrescriptionAuthorizationSchemaProvider, HDVisionPrescriptionEntity, 
                       HDVisionPrescriptionSyncEntity, HDVitalsPruningPredicateProvider, 
                       HDWatchAndCompanionCountrySetIntersectionAvailabilityProvider, 
                       HDWatchRemoteFeatureAvailabilityDataSource, HDWatchSettingKeys, 
                       HDWatchSettingValues, HDWatchSettingsReconciliationManager, 
                       HDWorkoutActivityEntity, HDWorkoutAppStateMonitor, HDWorkoutAssertionManager, 
                       HDWorkoutBasicDataSource, HDWorkoutBuilderAssociatedObjectEntity, 
                       HDWorkoutBuilderEntity, HDWorkoutBuilderPersistedConfiguration, 
                       HDWorkoutBuilderServer, HDWorkoutBuilderStatisticsCalculators, 
                       HDWorkoutClusterEntity, HDWorkoutClusterServer, HDWorkoutCondenser, 
                       HDWorkoutEffortScorePruningPredicateProvider, HDWorkoutEntity, 
                       HDWorkoutEventCollector, HDWorkoutLocationSmoother, HDWorkoutManager, 
                       HDWorkoutPruningPredicateProvider, HDWorkoutRouteDataSource, 
                       HDWorkoutRouteQueryServer, HDWorkoutSeriesDataAggregator, 
                       HDWorkoutSeriesQuantity, HDWorkoutSessionConfiguration, HDWorkoutSessionEntity, 
                       HDWorkoutSessionServer, HDWorkoutSessionSnapshot, HDWorkoutSessionTaskServer, 
                       HDWorkoutSyncEntity, HDWorkoutTrainingLoadQueryHelper, HDWorkoutUtilities, 
                       HDXPCEventManager, _HDAccountOwnerEntityEncoder, _HDActivityGoalScheduleEntityEncoder, 
                       _HDAllergyRecordEntityEncoder, _HDClinicalNoteRecordEntityEncoder, 
                       _HDClinicalRecordEntityEncoder, _HDCloudSyncStorePersistableState, 
                       _HDConditionRecordEntityEncoder, _HDCoverageRecordEntityEncoder, 
                       _HDDiagnosticTestReportEntityEncoder, _HDDiagnosticTestResultEntityEncoder, 
                       _HDMedicalRecordEntityEncoder, _HDMedicationDispenseRecordEntityEncoder, 
                       _HDMedicationOrderEntityEncoder, _HDMedicationRecordEntityEncoder, 
                       _HDPauseRingsScheduleEntityEncoder, _HDProcedureRecordEntityEncoder, 
                       _HDSignedClinicalDataRecordEntityEncoder, _HDSleepScheduleEntityEncoder, 
                       _HDUnknownRecordEntityEncoder, _HDVaccinationRecordEntityEncoder, 
                       _HDVerifiableClinicalRecordEntityEncoder, _TtC12HealthDaemon11HDOHSEntity, 
                       _TtC12HealthDaemon12HDCMSwimData, _TtC12HealthDaemon13HDSwimTracker, 
                       _TtC12HealthDaemon15HDCMSwimTracker, _TtC12HealthDaemon15HDWorkoutHelper, 
                       _TtC12HealthDaemon18HDDataCacheManager, _TtC12HealthDaemon18HDDataCacheSession, 
                       _TtC12HealthDaemon18HDWorkoutSetEntity, _TtC12HealthDaemon19HDWorkoutZoneHelper, 
                       _TtC12HealthDaemon19JournalEntryWrapper, _TtC12HealthDaemon20HDWorkoutSetMeEntity, 
                       _TtC12HealthDaemon20HDWorkoutZonesEntity, _TtC12HealthDaemon21HDWorkoutZonesBuilder, 
                       _TtC12HealthDaemon22HDWorkoutSetMeEqEntity, _TtC12HealthDaemon23HDBQuantitySampleEntity, 
                       _TtC12HealthDaemon23HDCommandLineDispatcher, _TtC12HealthDaemon23HDSwimmingDataCollector, 
                       _TtC12HealthDaemon23HDWorkoutStrengthHelper, _TtC12HealthDaemon24HDSwimmingEventCollector, 
                       _TtC12HealthDaemon24HDWorkoutZoneAccumulator, _TtC12HealthDaemon25HDWorkoutBuilderSetEntity, 
                       _TtC12HealthDaemon26HDClinicalHealthLinkEntity, _TtC12HealthDaemon26HDUnsmoothedLocationEntity, 
                       _TtC12HealthDaemon27HDPreferredWorkoutZoneStore, _TtC12HealthDaemon27HDWorkoutBuilderSetMeEntity, 
                       _TtC12HealthDaemon27HDWorkoutBuilderZonesEntity, _TtC12HealthDaemon29HDHealthStoreClientAssertions, 
                       _TtC12HealthDaemon29HDWorkoutBuilderSetMeEqEntity, _TtC12HealthDaemon34HKStatisticsCollectionCacheContext, 
                       _TtC12HealthDaemon40HDStatisticsCollectionQueryCacheProvider, 
                       _TtC12HealthDaemon56HDUserNotificationSystemApertureContentDefinitionWrapper ]
    objc-ivars:      [ HDCloudSyncCodableAttachment._assetData, HDCloudSyncCodableAttachment._creationDate, 
                       HDCloudSyncCodableAttachment._deviceName, HDCloudSyncCodableAttachment._encryptionKey, 
                       HDCloudSyncCodableAttachment._fileHash, HDCloudSyncCodableAttachment._fileName, 
                       HDCloudSyncCodableAttachment._fileSize, HDCloudSyncCodableAttachment._has, 
                       HDCloudSyncCodableAttachment._metadata, HDCloudSyncCodableAttachment._mimeType, 
                       HDCloudSyncCodableAttachment._productType, HDCloudSyncCodableAttachment._systemBuildVersion, 
                       HDCloudSyncCodableAttachmentManagementRecord._uuid, HDCloudSyncCodableAttachmentReference._attachmentIdentifier, 
                       HDCloudSyncCodableAttachmentReference._creationDate, HDCloudSyncCodableAttachmentReference._deviceName, 
                       HDCloudSyncCodableAttachmentReference._has, HDCloudSyncCodableAttachmentReference._metadata, 
                       HDCloudSyncCodableAttachmentReference._objectIdentifier, HDCloudSyncCodableAttachmentReference._options, 
                       HDCloudSyncCodableAttachmentReference._productType, HDCloudSyncCodableAttachmentReference._schemaIdentifier, 
                       HDCloudSyncCodableAttachmentReference._schemaVersion, HDCloudSyncCodableAttachmentReference._systemBuildVersion, 
                       HDCloudSyncCodableAttachmentReference._type, HDCloudSyncCodableAttachmentReferenceTombstone._creationDate, 
                       HDCloudSyncCodableAttachmentReferenceTombstone._has, HDCloudSyncCodableAttachmentReferenceTombstone._referenceIdentifier, 
                       HDCloudSyncCodableAttachmentReferenceTombstone._schemaIdentifier, 
                       HDCloudSyncCodableAttachmentReferenceTombstones._attachmentReferenceTombstones, 
                       HDCloudSyncCodableChange._anchorRangeMap, HDCloudSyncCodableChange._changeIndex, 
                       HDCloudSyncCodableChange._changeSize, HDCloudSyncCodableChange._finalForSequence, 
                       HDCloudSyncCodableChange._has, HDCloudSyncCodableChange._protocolVersion, 
                       HDCloudSyncCodableDeviceContext._currentOSName, HDCloudSyncCodableDeviceContext._currentOSVersion, 
                       HDCloudSyncCodableDeviceContext._databaseDetail, HDCloudSyncCodableDeviceContext._databaseSize, 
                       HDCloudSyncCodableDeviceContext._has, HDCloudSyncCodableDeviceContext._lastLitePushDate, 
                       HDCloudSyncCodableDeviceContext._lastPullDate, HDCloudSyncCodableDeviceContext._lastPushDate, 
                       HDCloudSyncCodableDeviceContext._modificationDate, HDCloudSyncCodableDeviceContext._productTypeName, 
                       HDCloudSyncCodableDeviceContext._restoreCompletionDate, HDCloudSyncCodableDeviceContext._supportsSampleExpiration, 
                       HDCloudSyncCodableDeviceContext._syncIdentity, HDCloudSyncCodableDeviceContext._type, 
                       HDCloudSyncCodableDeviceContextDatabaseDetail._currentDetailUpdateDate, 
                       HDCloudSyncCodableDeviceContextDatabaseDetail._currentDetails, 
                       HDCloudSyncCodableDeviceContextDatabaseDetail._has, HDCloudSyncCodableDeviceContextDatabaseDetail._preferredDetailComputationMethod, 
                       HDCloudSyncCodableDeviceContextDatabaseDetail._previousDetailUpdateDate, 
                       HDCloudSyncCodableDeviceContextDatabaseDetail._previousDetails, 
                       HDCloudSyncCodableDeviceContextDatabaseDetail._usedCurrentShardIndex, 
                       HDCloudSyncCodableDeviceContextDatabaseDetail._usedDetailComputationMethod, 
                       HDCloudSyncCodableDeviceContextDatabaseDetail._version, HDCloudSyncCodableDeviceContextDatabaseDetailRow._count, 
                       HDCloudSyncCodableDeviceContextDatabaseDetailRow._has, HDCloudSyncCodableDeviceContextDatabaseDetailRow._isPushing, 
                       HDCloudSyncCodableDeviceContextDatabaseDetailRow._shard, HDCloudSyncCodableDeviceContextDatabaseDetailRow._syncIdentity, 
                       HDCloudSyncCodableDeviceKeyValue._domain, HDCloudSyncCodableDeviceKeyValue._has, 
                       HDCloudSyncCodableDeviceKeyValue._key, HDCloudSyncCodableDeviceKeyValue._modificationDate, 
                       HDCloudSyncCodableDeviceKeyValue._protectionCategory, HDCloudSyncCodableDeviceKeyValue._syncIdentity, 
                       HDCloudSyncCodableDeviceKeyValue._value, HDCloudSyncCodableLog._event, 
                       HDCloudSyncCodableLog._has, HDCloudSyncCodableLog._timeStamp, 
                       HDCloudSyncCodableMedicalID._medicalIDData, HDCloudSyncCodableMedicalID._medicalIDLogs, 
                       HDCloudSyncCodableProfileIdentifier._has, HDCloudSyncCodableProfileIdentifier._identifier, 
                       HDCloudSyncCodableProfileIdentifier._type, HDCloudSyncCodableRegisteredStore._ownerIdentifier, 
                       HDCloudSyncCodableRegisteredStore._storeIdentifier, HDCloudSyncCodableRegisteredStore._syncIdentity, 
                       HDCloudSyncCodableRegistry._deleted, HDCloudSyncCodableRegistry._disabledOwnerIdentifiers, 
                       HDCloudSyncCodableRegistry._disabledSyncIdentities, HDCloudSyncCodableRegistry._displayFirstName, 
                       HDCloudSyncCodableRegistry._displayLastName, HDCloudSyncCodableRegistry._displayNameModificationDate, 
                       HDCloudSyncCodableRegistry._has, HDCloudSyncCodableRegistry._ownerProfileIdentifier, 
                       HDCloudSyncCodableRegistry._sharedProfileIdentifier, HDCloudSyncCodableRegistry._stores, 
                       HDCloudSyncCodableSequence._active, HDCloudSyncCodableSequence._anchorMap, 
                       HDCloudSyncCodableSequence._changeIndex, HDCloudSyncCodableSequence._childRecordCount, 
                       HDCloudSyncCodableSequence._epoch, HDCloudSyncCodableSequence._frozenAnchorMap, 
                       HDCloudSyncCodableSequence._has, HDCloudSyncCodableSequence._includedChildSyncIdentities, 
                       HDCloudSyncCodableSequence._includedStoreIdentifiers, HDCloudSyncCodableSequence._includedSyncIdentities, 
                       HDCloudSyncCodableSequence._protocolVersion, HDCloudSyncCodableSequence._slot, 
                       HDCloudSyncCodableSequence._syncEntityVersionMap, HDCloudSyncCodableSequence._unfrozenChangeRecordNames, 
                       HDCloudSyncCodableShardPredicate._endDate, HDCloudSyncCodableShardPredicate._has, 
                       HDCloudSyncCodableShardPredicate._startDate, HDCloudSyncCodableShardPredicate._type, 
                       HDCloudSyncCodableSharedSummaryAuthorizationRecord._authorizationCategories, 
                       HDCloudSyncCodableSharedSummaryAuthorizationRecord._uuid, 
                       HDCloudSyncCodableSharedSummaryParticipantRecord._allContactIdentifiers, 
                       HDCloudSyncCodableSharedSummaryParticipantRecord._authorizationRecordIdentifier, 
                       HDCloudSyncCodableSharedSummaryParticipantRecord._cloudKitIdentifier, 
                       HDCloudSyncCodableSharedSummaryParticipantRecord._contactIdentifier, 
                       HDCloudSyncCodableSharedSummaryParticipantRecord._direction, 
                       HDCloudSyncCodableSharedSummaryParticipantRecord._entryAcceptanceDate, 
                       HDCloudSyncCodableSharedSummaryParticipantRecord._entryInvitationDate, 
                       HDCloudSyncCodableSharedSummaryParticipantRecord._entryModificationDate, 
                       HDCloudSyncCodableSharedSummaryParticipantRecord._firstName, 
                       HDCloudSyncCodableSharedSummaryParticipantRecord._has, HDCloudSyncCodableSharedSummaryParticipantRecord._invitationUUID, 
                       HDCloudSyncCodableSharedSummaryParticipantRecord._lastName, 
                       HDCloudSyncCodableSharedSummaryParticipantRecord._notificationStatus, 
                       HDCloudSyncCodableSharedSummaryParticipantRecord._ownerParticipant, 
                       HDCloudSyncCodableSharedSummaryParticipantRecord._setupMetadata, 
                       HDCloudSyncCodableSharedSummaryParticipantRecord._status, 
                       HDCloudSyncCodableSharedSummaryParticipantRecord._type, HDCloudSyncCodableSharedSummaryParticipantRecord._userWheelchairMode, 
                       HDCloudSyncCodableSharedSummaryParticipantRecord._uuid, HDCloudSyncCodableSharedSummaryRecord._authorizationCategories, 
                       HDCloudSyncCodableSharedSummaryRecord._compatibilityVersion, 
                       HDCloudSyncCodableSharedSummaryRecord._name, HDCloudSyncCodableSharedSummaryRecord._objectTypeIdentifiers, 
                       HDCloudSyncCodableSharedSummaryRecord._package, HDCloudSyncCodableSharedSummaryRecord._summaryData, 
                       HDCloudSyncCodableSharedSummaryRecord._uuid, HDCloudSyncCodableSharedSummaryRecord._version, 
                       HDCloudSyncCodableSharedSummaryTransactionRecord._metadata, 
                       HDCloudSyncCodableSharedSummaryTransactionRecord._sourceDeviceIdentifier, 
                       HDCloudSyncCodableSharedSummaryTransactionRecord._summaryIdentifiers, 
                       HDCloudSyncCodableSharedSummaryTransactionRecord._uuid, HDCloudSyncCodableState._key, 
                       HDCloudSyncCodableState._stateData, HDCloudSyncCodableState._subDomain, 
                       HDCloudSyncCodableStore._active, HDCloudSyncCodableStore._deviceMode, 
                       HDCloudSyncCodableStore._deviceName, HDCloudSyncCodableStore._has, 
                       HDCloudSyncCodableStore._isChild, HDCloudSyncCodableStore._order, 
                       HDCloudSyncCodableStore._ownerIdentifier, HDCloudSyncCodableStore._pendingOwnerIdentifier, 
                       HDCloudSyncCodableStore._pendingSyncIdentity, HDCloudSyncCodableStore._productType, 
                       HDCloudSyncCodableStore._requiredProtocolVersion, HDCloudSyncCodableStore._shardPredicate, 
                       HDCloudSyncCodableStore._storeIdentifier, HDCloudSyncCodableStore._supportedProtocolVersion, 
                       HDCloudSyncCodableStore._syncIdentity, HDCloudSyncCodableStore._systemBuildVersion, 
                       HDCodableActivityCache._activeHours, HDCodableActivityCache._activeHoursGoal, 
                       HDCodableActivityCache._activeHoursGoalDate, HDCodableActivityCache._activityMoveMode, 
                       HDCodableActivityCache._briskMinutes, HDCodableActivityCache._briskMinutesGoal, 
                       HDCodableActivityCache._briskMinutesGoalDate, HDCodableActivityCache._cacheIndex, 
                       HDCodableActivityCache._dailyBriskMinutesStatistics, HDCodableActivityCache._dailyEnergyBurnedStatistics, 
                       HDCodableActivityCache._dailyMoveMinutesStatistics, HDCodableActivityCache._deepBreathingDuration, 
                       HDCodableActivityCache._energyBurned, HDCodableActivityCache._energyBurnedGoal, 
                       HDCodableActivityCache._energyBurnedGoalDate, HDCodableActivityCache._flightsClimbed, 
                       HDCodableActivityCache._has, HDCodableActivityCache._moveMinutes, 
                       HDCodableActivityCache._moveMinutesGoal, HDCodableActivityCache._moveMinutesGoalDate, 
                       HDCodableActivityCache._paused, HDCodableActivityCache._pushCount, 
                       HDCodableActivityCache._sample, HDCodableActivityCache._sequence, 
                       HDCodableActivityCache._stepCount, HDCodableActivityCache._version, 
                       HDCodableActivityCache._walkingAndRunningDistance, HDCodableActivityCache._wheelchairUse, 
                       HDCodableActivityGoalSchedule._fridayGoal, HDCodableActivityGoalSchedule._goalType, 
                       HDCodableActivityGoalSchedule._has, HDCodableActivityGoalSchedule._mondayGoal, 
                       HDCodableActivityGoalSchedule._sample, HDCodableActivityGoalSchedule._saturdayGoal, 
                       HDCodableActivityGoalSchedule._sundayGoal, HDCodableActivityGoalSchedule._thursdayGoal, 
                       HDCodableActivityGoalSchedule._tuesdayGoal, HDCodableActivityGoalSchedule._unitString, 
                       HDCodableActivityGoalSchedule._wednesdayGoal, HDCodableActivityStatisticsQuantityInfo._endDate, 
                       HDCodableActivityStatisticsQuantityInfo._has, HDCodableActivityStatisticsQuantityInfo._startDate, 
                       HDCodableActivityStatisticsQuantityInfo._unit, HDCodableActivityStatisticsQuantityInfo._value, 
                       HDCodableAuthorization._authorizationMode, HDCodableAuthorization._authorizationRequest, 
                       HDCodableAuthorization._authorizationStatus, HDCodableAuthorization._availabilityEndDate, 
                       HDCodableAuthorization._availabilityStartDate, HDCodableAuthorization._expiryDate, 
                       HDCodableAuthorization._has, HDCodableAuthorization._legacyAuthorizationMode, 
                       HDCodableAuthorization._modificationDate, HDCodableAuthorization._modificationEpoch, 
                       HDCodableAuthorization._objectType, HDCodableAuthorization._reminderDate, 
                       HDCodableAuthorization._syncIdentity, HDCodableAuthorizationCompleteMessage._appBundleIdentifier, 
                       HDCodableAuthorizationCompleteMessage._errorDescription, HDCodableAuthorizationCompleteMessage._requestIdentifier, 
                       HDCodableAuthorizationRequestMessage._appBundleIdentifier, 
                       HDCodableAuthorizationRequestMessage._requestIdentifier, HDCodableAuthorizationRequestMessage._typesToReads, 
                       HDCodableAuthorizationRequestMessage._typesToWrites, HDCodableAuthorizationResponseMessage._appBundleIdentifier, 
                       HDCodableAuthorizationResponseMessage._errorDescription, HDCodableAuthorizationResponseMessage._has, 
                       HDCodableAuthorizationResponseMessage._hostAppName, HDCodableAuthorizationResponseMessage._requestIdentifier, 
                       HDCodableAuthorizationResponseMessage._shouldPrompt, HDCodableBinarySample._payload, 
                       HDCodableBinarySample._sample, HDCodableBloodPressureJournal._endDate, 
                       HDCodableBloodPressureJournal._has, HDCodableBloodPressureJournal._journalState, 
                       HDCodableBloodPressureJournal._journalType, HDCodableBloodPressureJournal._scheduleType, 
                       HDCodableBloodPressureJournal._startDate, HDCodableBloodPressureJournal._timeIntervals, 
                       HDCodableBloodPressureJournal._timestamp, HDCodableBloodPressureJournal._uuid, 
                       HDCodableBloodPressureJournalScheduleTimeInterval._dayWindowType, 
                       HDCodableBloodPressureJournalScheduleTimeInterval._has, HDCodableBloodPressureJournalScheduleTimeInterval._scheduledTime, 
                       HDCodableBloodPressureJournalState._bloodPressureJournals, 
                       HDCodableCDADocumentSample._authorName, HDCodableCDADocumentSample._custodianName, 
                       HDCodableCDADocumentSample._documentData, HDCodableCDADocumentSample._has, 
                       HDCodableCDADocumentSample._omittedContent, HDCodableCDADocumentSample._patientName, 
                       HDCodableCDADocumentSample._sample, HDCodableCDADocumentSample._title, 
                       HDCodableCategoryDomainDictionary._category, HDCodableCategoryDomainDictionary._domain, 
                       HDCodableCategoryDomainDictionary._has, HDCodableCategoryDomainDictionary._keyValuePairs, 
                       HDCodableCategoryDomainDictionary._syncIdentity, HDCodableCategorySample._has, 
                       HDCodableCategorySample._sample, HDCodableCategorySample._value, 
                       HDCodableClinicalAccount._accountIdentifier, HDCodableClinicalAccount._clinicalSharingFirstSharedDate, 
                       HDCodableClinicalAccount._clinicalSharingLastSharedDate, HDCodableClinicalAccount._clinicalSharingMultiDeviceStatus, 
                       HDCodableClinicalAccount._clinicalSharingPrimaryDeviceName, 
                       HDCodableClinicalAccount._clinicalSharingUserStatus, HDCodableClinicalAccount._creationDate, 
                       HDCodableClinicalAccount._credentialSyncIdentifier, HDCodableClinicalAccount._failedFetchAttemptsCount, 
                       HDCodableClinicalAccount._gatewayExternalID, HDCodableClinicalAccount._has, 
                       HDCodableClinicalAccount._lastFailedFetchDate, HDCodableClinicalAccount._lastFetchDate, 
                       HDCodableClinicalAccount._lastFullFetchDate, HDCodableClinicalAccount._messageVersion, 
                       HDCodableClinicalAccount._modificationDate, HDCodableClinicalAccount._patientHash, 
                       HDCodableClinicalAccount._signedClinicalDataIssuerIdentifier, 
                       HDCodableClinicalAccount._syncIdentifier, HDCodableClinicalAccount._syncIdentity, 
                       HDCodableClinicalAccount._userEnabled, HDCodableClinicalContact._name, 
                       HDCodableClinicalContact._nameContactIdentifier, HDCodableClinicalContact._phoneNumber, 
                       HDCodableClinicalContact._phoneNumberContactIdentifier, HDCodableClinicalContact._phoneNumberLabel, 
                       HDCodableClinicalContact._relationship, HDCodableClinicalDeletedAccount._deletionDate, 
                       HDCodableClinicalDeletedAccount._deletionReason, HDCodableClinicalDeletedAccount._has, 
                       HDCodableClinicalDeletedAccount._messageVersion, HDCodableClinicalDeletedAccount._syncIdentifier, 
                       HDCodableClinicalDeletedAccount._syncIdentity, HDCodableClinicalGateway._messageVersion, 
                       HDCodableClinicalGateway._rawContent, HDCodableClinicalGateway._syncIdentity, 
                       HDCodableCodedQuantity._comparatorCoding, HDCodableCodedQuantity._rawValue, 
                       HDCodableCodedQuantity._unitCoding, HDCodableCodedValue._codings, 
                       HDCodableCodedValue._referenceRanges, HDCodableCodedValue._value, 
                       HDCodableCodedValueCollection._codedValues, HDCodableCompanionUserNotificationConfiguration._has, 
                       HDCodableCompanionUserNotificationConfiguration._notificationType, 
                       HDCodableCompanionUserNotificationRequest._notificationConfiguration, 
                       HDCodableCompanionUserNotificationRequest._requestIdentifier, 
                       HDCodableCompanionUserNotificationResponse._error, HDCodableCompanionUserNotificationResponse._has, 
                       HDCodableCompanionUserNotificationResponse._requestIdentifier, 
                       HDCodableCompanionUserNotificationResponse._success, HDCodableCompanionWorkoutStateRequest._requestIdentifier, 
                       HDCodableCompanionWorkoutStateResponse._error, HDCodableCompanionWorkoutStateResponse._has, 
                       HDCodableCompanionWorkoutStateResponse._requestIdentifier, 
                       HDCodableCompanionWorkoutStateResponse._state, HDCodableContributor._appleID, 
                       HDCodableContributor._callerID, HDCodableContributor._deleted, 
                       HDCodableContributor._has, HDCodableContributor._modificationDate, 
                       HDCodableContributor._syncIdentity, HDCodableContributor._uuid, 
                       HDCodableCorrelation._sample, HDCodableDateComponents._calendar, 
                       HDCodableDateComponents._day, HDCodableDateComponents._era, 
                       HDCodableDateComponents._has, HDCodableDateComponents._hour, 
                       HDCodableDateComponents._minute, HDCodableDateComponents._month, 
                       HDCodableDateComponents._nanosecond, HDCodableDateComponents._quarter, 
                       HDCodableDateComponents._second, HDCodableDateComponents._timeZone, 
                       HDCodableDateComponents._weekOfMonth, HDCodableDateComponents._weekOfYear, 
                       HDCodableDateComponents._weekday, HDCodableDateComponents._weekdayOrdinal, 
                       HDCodableDateComponents._year, HDCodableDateComponents._yearForWeekOfYear, 
                       HDCodableDateInterval._endDate, HDCodableDateInterval._has, 
                       HDCodableDateInterval._startDate, HDCodableDeletedSample._sample, 
                       HDCodableDevice._bluetoothIdentifier, HDCodableDevice._creationDate, 
                       HDCodableDevice._fDAUDI, HDCodableDevice._firmwareVersion, 
                       HDCodableDevice._hardwareVersion, HDCodableDevice._has, HDCodableDevice._localIdentifier, 
                       HDCodableDevice._manufacturer, HDCodableDevice._model, HDCodableDevice._name, 
                       HDCodableDevice._softwareVersion, HDCodableDevice._syncIdentity, 
                       HDCodableDevice._uuid, HDCodableECGSample._averageHeartRateInBPM, 
                       HDCodableECGSample._has, HDCodableECGSample._privateClassification, 
                       HDCodableECGSample._sample, HDCodableECGSample._symptomsStatus, 
                       HDCodableECGSample._voltagePayload, HDCodableEmergencyContact._name, 
                       HDCodableEmergencyContact._nameContactIdentifier, HDCodableEmergencyContact._phoneNumber, 
                       HDCodableEmergencyContact._phoneNumberContactIdentifier, HDCodableEmergencyContact._phoneNumberLabel, 
                       HDCodableEmergencyContact._relationship, HDCodableEntityIdentifier._has, 
                       HDCodableEntityIdentifier._identifier, HDCodableEntityIdentifier._schema, 
                       HDCodableError._code, HDCodableError._domain, HDCodableError._has, 
                       HDCodableError._localizedDescription, HDCodableFHIRCredential._accountSyncIdentifier, 
                       HDCodableFHIRCredential._deleted, HDCodableFHIRCredential._expirationDate, 
                       HDCodableFHIRCredential._has, HDCodableFHIRCredential._identifier, 
                       HDCodableFHIRCredential._messageVersion, HDCodableFHIRCredential._patientID, 
                       HDCodableFHIRCredential._receivedDate, HDCodableFHIRCredential._requestedScopeString, 
                       HDCodableFHIRCredential._scopeString, HDCodableFHIRCredential._syncIdentity, 
                       HDCodableFHIRResource._accountIdentifier, HDCodableFHIRResource._accountSyncID, 
                       HDCodableFHIRResource._extractionHints, HDCodableFHIRResource._fhirVersion, 
                       HDCodableFHIRResource._firstSeenDate, HDCodableFHIRResource._firstSeenDateTimeZoneName, 
                       HDCodableFHIRResource._gatewayExternalID, HDCodableFHIRResource._has, 
                       HDCodableFHIRResource._healthLinkSyncID, HDCodableFHIRResource._messageVersion, 
                       HDCodableFHIRResource._originVersionBuild, HDCodableFHIRResource._originVersionMajor, 
                       HDCodableFHIRResource._originVersionMinor, HDCodableFHIRResource._originVersionPatch, 
                       HDCodableFHIRResource._rawContent, HDCodableFHIRResource._receivedDate, 
                       HDCodableFHIRResource._receivedDateTimeZoneName, HDCodableFHIRResource._resourceID, 
                       HDCodableFHIRResource._resourceType, HDCodableFHIRResource._sourceURL, 
                       HDCodableFHIRResource._syncIdentity, HDCodableFHIRResource._uniquenessChecksum, 
                       HDCodableFitnessFriendAchievement._completedDate, HDCodableFitnessFriendAchievement._doubleValue, 
                       HDCodableFitnessFriendAchievement._friendUUID, HDCodableFitnessFriendAchievement._has, 
                       HDCodableFitnessFriendAchievement._intValue, HDCodableFitnessFriendAchievement._sample, 
                       HDCodableFitnessFriendAchievement._templateUniqueName, HDCodableFitnessFriendActivitySnapshot._activeHours, 
                       HDCodableFitnessFriendActivitySnapshot._activeHoursGoal, HDCodableFitnessFriendActivitySnapshot._amm, 
                       HDCodableFitnessFriendActivitySnapshot._briskMinutes, HDCodableFitnessFriendActivitySnapshot._briskMinutesGoal, 
                       HDCodableFitnessFriendActivitySnapshot._date, HDCodableFitnessFriendActivitySnapshot._energyBurned, 
                       HDCodableFitnessFriendActivitySnapshot._energyBurnedGoal, 
                       HDCodableFitnessFriendActivitySnapshot._friendUUID, HDCodableFitnessFriendActivitySnapshot._has, 
                       HDCodableFitnessFriendActivitySnapshot._mmg, HDCodableFitnessFriendActivitySnapshot._mmv, 
                       HDCodableFitnessFriendActivitySnapshot._pushCount, HDCodableFitnessFriendActivitySnapshot._sample, 
                       HDCodableFitnessFriendActivitySnapshot._snapshotIndex, HDCodableFitnessFriendActivitySnapshot._sourceUUID, 
                       HDCodableFitnessFriendActivitySnapshot._stepCount, HDCodableFitnessFriendActivitySnapshot._timeZoneOffsetFromUTCForNoon, 
                       HDCodableFitnessFriendActivitySnapshot._uploadedDate, HDCodableFitnessFriendActivitySnapshot._walkingAndRunningDistance, 
                       HDCodableFitnessFriendActivitySnapshot._wheelchairUse, HDCodableFitnessFriendWorkout._amm, 
                       HDCodableFitnessFriendWorkout._bundleID, HDCodableFitnessFriendWorkout._deviceManufacturer, 
                       HDCodableFitnessFriendWorkout._deviceModel, HDCodableFitnessFriendWorkout._duration, 
                       HDCodableFitnessFriendWorkout._friendUUID, HDCodableFitnessFriendWorkout._goal, 
                       HDCodableFitnessFriendWorkout._goalType, HDCodableFitnessFriendWorkout._has, 
                       HDCodableFitnessFriendWorkout._isIndoorWorkout, HDCodableFitnessFriendWorkout._isWatchWorkout, 
                       HDCodableFitnessFriendWorkout._sample, HDCodableFitnessFriendWorkout._seymourCatalogWorkoutIdentifier, 
                       HDCodableFitnessFriendWorkout._seymourMediaType, HDCodableFitnessFriendWorkout._totalBasalEnergyBurnedInCanonicalUnit, 
                       HDCodableFitnessFriendWorkout._totalDistanceInCanonicalUnit, 
                       HDCodableFitnessFriendWorkout._totalEnergyBurnedInCanonicalUnit, 
                       HDCodableFitnessFriendWorkout._type, HDCodableGeneratedObjectCollection._medicationDoseEvents, 
                       HDCodableHKBirthDate._dateOfBirth, HDCodableHKBirthDate._sample, 
                       HDCodableHealthObject._creationDate, HDCodableHealthObject._externalSyncObjectCode, 
                       HDCodableHealthObject._has, HDCodableHealthObject._metadataDictionary, 
                       HDCodableHealthObject._sourceBundleIdentifier, HDCodableHealthObject._uuid, 
                       HDCodableInspectableValue._booleanValue, HDCodableInspectableValue._codedQuantityValue, 
                       HDCodableInspectableValue._codedValueCollection, HDCodableInspectableValue._dataAbsentReasonCodingsValue, 
                       HDCodableInspectableValue._dateComponentsValue, HDCodableInspectableValue._has, 
                       HDCodableInspectableValue._inspectableIntegerValue, HDCodableInspectableValue._medicalCodingValue, 
                       HDCodableInspectableValue._medicalDateIntervalValue, HDCodableInspectableValue._medicalDateValue, 
                       HDCodableInspectableValue._ratioValue, HDCodableInspectableValue._stringValue, 
                       HDCodableInspectableValueCollection._collectionType, HDCodableInspectableValueCollection._collections, 
                       HDCodableInspectableValueCollection._elementTags, HDCodableInspectableValueCollection._has, 
                       HDCodableListUserDomainConcept._has, HDCodableListUserDomainConcept._name, 
                       HDCodableListUserDomainConcept._type, HDCodableLocationDatum._altitude, 
                       HDCodableLocationDatum._course, HDCodableLocationDatum._courseAccuracy, 
                       HDCodableLocationDatum._has, HDCodableLocationDatum._horizontalAccuracy, 
                       HDCodableLocationDatum._latitude, HDCodableLocationDatum._longitude, 
                       HDCodableLocationDatum._signalEnvironmentType, HDCodableLocationDatum._speed, 
                       HDCodableLocationDatum._speedAccuracy, HDCodableLocationDatum._timestamp, 
                       HDCodableLocationDatum._verticalAccuracy, HDCodableLocationSeries._continuationUUID, 
                       HDCodableLocationSeries._final, HDCodableLocationSeries._frozen, 
                       HDCodableLocationSeries._has, HDCodableLocationSeries._locationDatas, 
                       HDCodableLocationSeries._sample, HDCodableMedicalCoding._code, 
                       HDCodableMedicalCoding._codingSystem, HDCodableMedicalCoding._codingVersion, 
                       HDCodableMedicalCoding._displayString, HDCodableMedicalCodingList._items, 
                       HDCodableMedicalDate._form, HDCodableMedicalDate._has, HDCodableMedicalDate._originalTimeZoneString, 
                       HDCodableMedicalDate._underlyingDate, HDCodableMedicalDateInterval._endDate, 
                       HDCodableMedicalDateInterval._startDate, HDCodableMedicalIDAllergy._textDescription, 
                       HDCodableMedicalIDCondition._textDescription, HDCodableMedicalIDData._allergiesListModifiedDate, 
                       HDCodableMedicalIDData._allergiesListVersion, HDCodableMedicalIDData._allergiesListVersionModifiedDate, 
                       HDCodableMedicalIDData._allergiesLists, HDCodableMedicalIDData._allergyInfo, 
                       HDCodableMedicalIDData._allergyInfoModifiedDate, HDCodableMedicalIDData._bloodType, 
                       HDCodableMedicalIDData._bloodTypeModifiedDate, HDCodableMedicalIDData._clinicalContacts, 
                       HDCodableMedicalIDData._clinicalContactsModifiedDate, HDCodableMedicalIDData._conditionsListModifiedDate, 
                       HDCodableMedicalIDData._conditionsListVersion, HDCodableMedicalIDData._conditionsListVersionModifiedDate, 
                       HDCodableMedicalIDData._conditionsLists, HDCodableMedicalIDData._dateSaved, 
                       HDCodableMedicalIDData._emergencyContacts, HDCodableMedicalIDData._emergencyContactsModifiedDate, 
                       HDCodableMedicalIDData._gregorianBirthday, HDCodableMedicalIDData._gregorianBirthdayModifiedDate, 
                       HDCodableMedicalIDData._has, HDCodableMedicalIDData._height, 
                       HDCodableMedicalIDData._heightModifiedDate, HDCodableMedicalIDData._isDisabled, 
                       HDCodableMedicalIDData._isDisabledModifiedDate, HDCodableMedicalIDData._isOrganDonor, 
                       HDCodableMedicalIDData._isOrganDonorModifiedDate, HDCodableMedicalIDData._medicalConditions, 
                       HDCodableMedicalIDData._medicalConditionsModifiedDate, HDCodableMedicalIDData._medicalIDBytes, 
                       HDCodableMedicalIDData._medicalNotes, HDCodableMedicalIDData._medicalNotesModifiedDate, 
                       HDCodableMedicalIDData._medicationInfo, HDCodableMedicalIDData._medicationInfoModifiedDate, 
                       HDCodableMedicalIDData._medicationsListModifiedDate, HDCodableMedicalIDData._medicationsListVersion, 
                       HDCodableMedicalIDData._medicationsListVersionModifiedDate, 
                       HDCodableMedicalIDData._medicationsLists, HDCodableMedicalIDData._name, 
                       HDCodableMedicalIDData._nameModifiedDate, HDCodableMedicalIDData._pictureData, 
                       HDCodableMedicalIDData._pictureDataModifiedDate, HDCodableMedicalIDData._pregnancyEstimatedDueDate, 
                       HDCodableMedicalIDData._pregnancyEstimatedDueDateModifiedDate, 
                       HDCodableMedicalIDData._pregnancyStartDate, HDCodableMedicalIDData._pregnancyStartDateModifiedDate, 
                       HDCodableMedicalIDData._primaryLanguageCode, HDCodableMedicalIDData._primaryLanguageCodeModifiedDate, 
                       HDCodableMedicalIDData._schemaVersion, HDCodableMedicalIDData._shareDuringEmergency, 
                       HDCodableMedicalIDData._shareDuringEmergencyModifiedDate, 
                       HDCodableMedicalIDData._weight, HDCodableMedicalIDData._weightModifiedDate, 
                       HDCodableMedicalIDMedication._textDescription, HDCodableMedicalUserDomainConcept._categoryTypes, 
                       HDCodableMedicalUserDomainConcept._countryCode, HDCodableMedicationDoseEvent._doseQuantity, 
                       HDCodableMedicationDoseEvent._doseUnitString, HDCodableMedicationDoseEvent._has, 
                       HDCodableMedicationDoseEvent._logOrigin, HDCodableMedicationDoseEvent._medicationIdentifier, 
                       HDCodableMedicationDoseEvent._medicationUuid, HDCodableMedicationDoseEvent._sample, 
                       HDCodableMedicationDoseEvent._scheduleItemIdentifier, HDCodableMedicationDoseEvent._scheduledDate, 
                       HDCodableMedicationDoseEvent._scheduledDoseQuantity, HDCodableMedicationDoseEvent._status, 
                       HDCodableMenstrualCyclesExperienceModel._epoch, HDCodableMenstrualCyclesExperienceModel._has, 
                       HDCodableMenstrualCyclesExperienceModel._menstrualCyclesExperienceModelData, 
                       HDCodableMessageVersion._compatibilityVersion, HDCodableMessageVersion._entityVersion, 
                       HDCodableMessageVersion._has, HDCodableMetadataDictionary._keyValuePairs, 
                       HDCodableMetadataKeyValuePair._dataValue, HDCodableMetadataKeyValuePair._dateValue, 
                       HDCodableMetadataKeyValuePair._has, HDCodableMetadataKeyValuePair._key, 
                       HDCodableMetadataKeyValuePair._numberBooleanValue, HDCodableMetadataKeyValuePair._numberDoubleValue, 
                       HDCodableMetadataKeyValuePair._numberIntValue, HDCodableMetadataKeyValuePair._quantityValue, 
                       HDCodableMetadataKeyValuePair._stringValue, HDCodableNanoSyncActivationRestore._defaultSourceBundleIdentifier, 
                       HDCodableNanoSyncActivationRestore._has, HDCodableNanoSyncActivationRestore._obliteratedHealthPairingUUIDs, 
                       HDCodableNanoSyncActivationRestore._restoreIdentifier, HDCodableNanoSyncActivationRestore._sequenceNumber, 
                       HDCodableNanoSyncActivationRestore._statusCode, HDCodableNanoSyncAnchor._anchor, 
                       HDCodableNanoSyncAnchor._entityIdentifier, HDCodableNanoSyncAnchor._has, 
                       HDCodableNanoSyncAnchor._objectType, HDCodableNanoSyncChange._complete, 
                       HDCodableNanoSyncChange._endAnchor, HDCodableNanoSyncChange._entityIdentifier, 
                       HDCodableNanoSyncChange._has, HDCodableNanoSyncChange._objectDatas, 
                       HDCodableNanoSyncChange._objectType, HDCodableNanoSyncChange._requiredAnchors, 
                       HDCodableNanoSyncChange._sequence, HDCodableNanoSyncChange._speculative, 
                       HDCodableNanoSyncChange._startAnchor, HDCodableNanoSyncChange._version, 
                       HDCodableNanoSyncChangeSet._changes, HDCodableNanoSyncChangeSet._has, 
                       HDCodableNanoSyncChangeSet._sessionError, HDCodableNanoSyncChangeSet._sessionStartDate, 
                       HDCodableNanoSyncChangeSet._sessionUUID, HDCodableNanoSyncChangeSet._statusCode, 
                       HDCodableNanoSyncMessage._activationRestore, HDCodableNanoSyncMessage._changeSet, 
                       HDCodableNanoSyncMessage._currentSyncIdentity, HDCodableNanoSyncMessage._entityVersionMap, 
                       HDCodableNanoSyncMessage._has, HDCodableNanoSyncMessage._healthPairingUUID, 
                       HDCodableNanoSyncMessage._persistentPairingUUID, HDCodableNanoSyncMessage._status, 
                       HDCodableNanoSyncMessage._version, HDCodableNanoSyncStatus._anchors, 
                       HDCodableNanoSyncStatus._has, HDCodableNanoSyncStatus._statusCode, 
                       HDCodableNotificationInstructionCriteria._has, HDCodableNotificationInstructionCriteria._identifier, 
                       HDCodableNotificationInstructionCriteria._modificationTimeInterval, 
                       HDCodableNotificationInstructionCriteria._uUIDString, HDCodableNotificationInstructionMessage._action, 
                       HDCodableNotificationInstructionMessage._categoryIdentifier, 
                       HDCodableNotificationInstructionMessage._clientIdentifier, 
                       HDCodableNotificationInstructionMessage._creationDateTimeInterval, 
                       HDCodableNotificationInstructionMessage._criteria, HDCodableNotificationInstructionMessage._currentCompatibilityVersion, 
                       HDCodableNotificationInstructionMessage._expirationDateTimeInterval, 
                       HDCodableNotificationInstructionMessage._has, HDCodableNotificationInstructionMessage._minimumCompatibleVersion, 
                       HDCodableNotificationInstructionMessage._sendingDeviceInfo, 
                       HDCodableNotificationInstructionRequest._notificationInstruction, 
                       HDCodableNotificationInstructionRequest._requestIdentifier, 
                       HDCodableObjectAssociation._associationUuid, HDCodableObjectAssociation._objectUuids, 
                       HDCodableObjectAssociation._syncIdentity, HDCodableObjectAuthorization._authorizations, 
                       HDCodableObjectAuthorization._objectUUID, HDCodableObjectCollection._activityCaches, 
                       HDCodableObjectCollection._activityGoalSchedules, HDCodableObjectCollection._binarySamples, 
                       HDCodableObjectCollection._birthDates, HDCodableObjectCollection._categorySamples, 
                       HDCodableObjectCollection._cdaDocumentSamples, HDCodableObjectCollection._correlations, 
                       HDCodableObjectCollection._deletedSamples, HDCodableObjectCollection._ecgSamples, 
                       HDCodableObjectCollection._fitnessFriendAchievements, HDCodableObjectCollection._fitnessFriendActivitySnapshots, 
                       HDCodableObjectCollection._fitnessFriendWorkouts, HDCodableObjectCollection._generatedObjectCollection, 
                       HDCodableObjectCollection._locationSeries, HDCodableObjectCollection._pauseRingsSchedules, 
                       HDCodableObjectCollection._provenance, HDCodableObjectCollection._quantitySamples, 
                       HDCodableObjectCollection._scoredAssessmentSamples, HDCodableObjectCollection._sleepSchedules, 
                       HDCodableObjectCollection._source, HDCodableObjectCollection._sourceBundleIdentifier, 
                       HDCodableObjectCollection._stateOfMindLogs, HDCodableObjectCollection._syncIdentity, 
                       HDCodableObjectCollection._visionSamples, HDCodableObjectCollection._workoutZones, 
                       HDCodableObjectCollection._workouts, HDCodableObjectSourceAuthorization._authorizationStatus, 
                       HDCodableObjectSourceAuthorization._has, HDCodableObjectSourceAuthorization._modificationDate, 
                       HDCodableObjectSourceAuthorization._sessionUUID, HDCodableObjectSourceAuthorization._sourceUUID, 
                       HDCodableObjectSourceAuthorization._syncIdentity, HDCodableObjectTypeSourceOrder._has, 
                       HDCodableObjectTypeSourceOrder._modificationDates, HDCodableObjectTypeSourceOrder._objectType, 
                       HDCodableObjectTypeSourceOrder._sourceUUIDs, HDCodableObjectTypeSourceOrder._syncIdentity, 
                       HDCodableObjectTypeSourceOrder._userOrdered, HDCodableOnboardingCompletion._completionDate, 
                       HDCodableOnboardingCompletion._countryCode, HDCodableOnboardingCompletion._countryCodeProvenance, 
                       HDCodableOnboardingCompletion._deleted, HDCodableOnboardingCompletion._featureIdentifier, 
                       HDCodableOnboardingCompletion._has, HDCodableOnboardingCompletion._modificationDate, 
                       HDCodableOnboardingCompletion._syncIdentity, HDCodableOnboardingCompletion._uuid, 
                       HDCodableOnboardingCompletion._version, HDCodableOntologyConceptIdentifier._has, 
                       HDCodableOntologyConceptIdentifier._identifier, HDCodableOntologyConceptIdentifier._label, 
                       HDCodableOntologyLocalizedEducationContent._deleted, HDCodableOntologyLocalizedEducationContent._has, 
                       HDCodableOntologyLocalizedEducationContent._sections, HDCodableOntologyLocalizedEducationContent._timestamp, 
                       HDCodableOntologyLocalizedEducationContent._version, HDCodableOntologyLocalizedEducationContentSection._has, 
                       HDCodableOntologyLocalizedEducationContentSection._sectionDatas, 
                       HDCodableOntologyLocalizedEducationContentSection._sectionType, 
                       HDCodableOriginalSignedClinicalDataRecord._deleted, HDCodableOriginalSignedClinicalDataRecord._firstSeenDate, 
                       HDCodableOriginalSignedClinicalDataRecord._firstSeenDateTimeZoneName, 
                       HDCodableOriginalSignedClinicalDataRecord._gatewayExternalID, 
                       HDCodableOriginalSignedClinicalDataRecord._has, HDCodableOriginalSignedClinicalDataRecord._issuerIdentifier, 
                       HDCodableOriginalSignedClinicalDataRecord._lastModifiedDate, 
                       HDCodableOriginalSignedClinicalDataRecord._messageVersion, 
                       HDCodableOriginalSignedClinicalDataRecord._metadata, HDCodableOriginalSignedClinicalDataRecord._rawContent, 
                       HDCodableOriginalSignedClinicalDataRecord._receivedDate, HDCodableOriginalSignedClinicalDataRecord._receivedDateTimeZoneName, 
                       HDCodableOriginalSignedClinicalDataRecord._signatureStatus, 
                       HDCodableOriginalSignedClinicalDataRecord._sourceType, HDCodableOriginalSignedClinicalDataRecord._sourceURL, 
                       HDCodableOriginalSignedClinicalDataRecord._syncIdentifier, 
                       HDCodableOriginalSignedClinicalDataRecord._syncIdentity, HDCodableOriginalSignedClinicalDataRecord._types, 
                       HDCodableOriginalSignedClinicalDataRecord._uniquenessChecksum, 
                       HDCodablePauseRingsSchedule._endDateIndex, HDCodablePauseRingsSchedule._has, 
                       HDCodablePauseRingsSchedule._sample, HDCodablePauseRingsSchedule._startDateIndex, 
                       HDCodablePinnedContentState._epoch, HDCodablePinnedContentState._has, 
                       HDCodablePinnedContentState._pinnedContentStateData, HDCodableProvenance._contributorUUID, 
                       HDCodableProvenance._deviceUUID, HDCodableProvenance._has, 
                       HDCodableProvenance._originBuild, HDCodableProvenance._originMajorVersion, 
                       HDCodableProvenance._originMinorVersion, HDCodableProvenance._originPatchVersion, 
                       HDCodableProvenance._originProductType, HDCodableProvenance._sourceUUID, 
                       HDCodableProvenance._sourceVersion, HDCodableProvenance._timeZoneName, 
                       HDCodableQuantity._has, HDCodableQuantity._unitString, HDCodableQuantity._value, 
                       HDCodableQuantitySample._count, HDCodableQuantitySample._final, 
                       HDCodableQuantitySample._frozen, HDCodableQuantitySample._has, 
                       HDCodableQuantitySample._max, HDCodableQuantitySample._min, 
                       HDCodableQuantitySample._mostRecent, HDCodableQuantitySample._mostRecentDate, 
                       HDCodableQuantitySample._mostRecentDuration, HDCodableQuantitySample._originalUnitString, 
                       HDCodableQuantitySample._quantitySeriesDatas, HDCodableQuantitySample._sample, 
                       HDCodableQuantitySample._valueInCanonicalUnit, HDCodableQuantitySample._valueInOriginalUnit, 
                       HDCodableQuantitySeriesDatum._endDate, HDCodableQuantitySeriesDatum._has, 
                       HDCodableQuantitySeriesDatum._startDate, HDCodableQuantitySeriesDatum._value, 
                       HDCodableRacingCluster._activityType, HDCodableRacingCluster._bestWorkoutMetrics, 
                       HDCodableRacingCluster._clusterSize, HDCodableRacingCluster._eligibleClusterUUIDs, 
                       HDCodableRacingCluster._final, HDCodableRacingCluster._has, 
                       HDCodableRacingCluster._lastWorkoutMetrics, HDCodableRacingCluster._relevance, 
                       HDCodableRacingCluster._routeLabel, HDCodableRacingCluster._routeSnapshot, 
                       HDCodableRacingCluster._syncIdentity, HDCodableRacingCluster._uuid, 
                       HDCodableRacingCluster._workoutClusterUUID, HDCodableRacingMetrics._distance, 
                       HDCodableRacingMetrics._duration, HDCodableRacingMetrics._has, 
                       HDCodableRacingMetrics._routePoints, HDCodableRacingMetrics._startDate, 
                       HDCodableRacingMetrics._workoutUUID, HDCodableRatioValue._denominator, 
                       HDCodableRatioValue._numerator, HDCodableReferenceRange._identifier, 
                       HDCodableReferenceRange._valueRange, HDCodableRoutePointDatum._altitude, 
                       HDCodableRoutePointDatum._has, HDCodableRoutePointDatum._latitude, 
                       HDCodableRoutePointDatum._longitude, HDCodableRoutePointDatum._odometer, 
                       HDCodableRoutePointDatum._signalEnvironmentType, HDCodableRoutePointDatum._timestamp, 
                       HDCodableRoutineLocation._confidence, HDCodableRoutineLocation._geoData, 
                       HDCodableRoutineLocation._has, HDCodableRoutineLocation._latitude, 
                       HDCodableRoutineLocation._locationOfInterestType, HDCodableRoutineLocation._longitude, 
                       HDCodableRoutineLocation._uncertainty, HDCodableRoutineLocation._uuid, 
                       HDCodableRoutineLocation._visits, HDCodableRoutineLocationRequest._has, 
                       HDCodableRoutineLocationRequest._locationType, HDCodableRoutineLocationResponse._locationOfInterest, 
                       HDCodableRoutineLocationVisit._entryTime, HDCodableRoutineLocationVisit._exitTime, 
                       HDCodableRoutineLocationVisit._has, HDCodableRoutinePredictedLocation._confidence, 
                       HDCodableRoutinePredictedLocation._geoData, HDCodableRoutinePredictedLocation._has, 
                       HDCodableRoutinePredictedLocation._locationOfInterest, HDCodableRoutinePredictedLocation._modeOfTransportation, 
                       HDCodableRoutinePredictedLocation._nextEntryTime, HDCodableRoutinePredictedLocation._sourceType, 
                       HDCodableRoutinePredictedLocationsResponse._predictedLocationsOfInterests, 
                       HDCodableRoutineRequestMessage._fetchLocationRequest, HDCodableRoutineRequestMessage._has, 
                       HDCodableRoutineRequestMessage._requestIdentifier, HDCodableRoutineRequestMessage._requestType, 
                       HDCodableRoutineRequestMessage._scenarioTriggeredRequest, 
                       HDCodableRoutineResponseMessage._errorDescription, HDCodableRoutineResponseMessage._fetchLocationResponse, 
                       HDCodableRoutineResponseMessage._fetchNextLocationResponse, 
                       HDCodableRoutineResponseMessage._has, HDCodableRoutineResponseMessage._requestIdentifier, 
                       HDCodableRoutineResponseMessage._requestType, HDCodableRoutineScenarioTriggeredRequest._currentLocation, 
                       HDCodableRoutineScenarioTriggeredRequest._has, HDCodableRoutineScenarioTriggeredRequest._triggerTypes, 
                       HDCodableSample._dataType, HDCodableSample._endDate, HDCodableSample._has, 
                       HDCodableSample._object, HDCodableSample._startDate, HDCodableSampleOriginCollection._contributors, 
                       HDCodableSampleOriginCollection._devices, HDCodableScoredAssessment._answers, 
                       HDCodableScoredAssessment._has, HDCodableScoredAssessment._risk, 
                       HDCodableScoredAssessment._sample, HDCodableScoredAssessment._score, 
                       HDCodableSectionData._deleted, HDCodableSectionData._has, 
                       HDCodableSectionData._sectionDataType, HDCodableSectionData._stringValues, 
                       HDCodableSectionData._timestamp, HDCodableSectionData._version, 
                       HDCodableSemanticDate._date, HDCodableSemanticDate._has, HDCodableSemanticDate._keyPath, 
                       HDCodableSerializedCoherenceModel._epoch, HDCodableSerializedCoherenceModel._has, 
                       HDCodableSerializedCoherenceModel._serializedModel, HDCodableSharingAuthorization._authorizationIdentifier, 
                       HDCodableSharingAuthorization._displayName, HDCodableSharingAuthorization._displaySubtitle, 
                       HDCodableSharingRelationship._authorizationIdentifiers, HDCodableSharingRelationship._dateModified, 
                       HDCodableSharingRelationship._has, HDCodableSharingRelationship._recipientIdentifier, 
                       HDCodableSharingRelationship._recipientType, HDCodableSharingRelationship._sharingAuthorizations, 
                       HDCodableSharingRelationship._syncIdentity, HDCodableSharingSetupInvitationToken._shareURL, 
                       HDCodableSharingSetupInvitationToken._token, HDCodableSharingSetupMetadata._invitationTokens, 
                       HDCodableSharingSetupMetadata._ownerCloudKitEmailAddress, 
                       HDCodableSharingSetupMetadata._ownerParticipant, HDCodableSharingSetupMetadata._shareParticipant, 
                       HDCodableSharingSetupMetadata._sourceProfileIdentifier, HDCodableSharingSetupMetadata._syncCircleIdentifier, 
                       HDCodableSignedClinicalDataIssuer._identifier, HDCodableSignedClinicalDataIssuer._messageVersion, 
                       HDCodableSignedClinicalDataIssuer._subtitle, HDCodableSignedClinicalDataIssuer._syncIdentity, 
                       HDCodableSignedClinicalDataIssuer._title, HDCodableSignedClinicalDataIssuer._wellKnownURL, 
                       HDCodableSleepSchedule._bedHour, HDCodableSleepSchedule._bedMinute, 
                       HDCodableSleepSchedule._friday, HDCodableSleepSchedule._has, 
                       HDCodableSleepSchedule._monday, HDCodableSleepSchedule._overrideDayIndex, 
                       HDCodableSleepSchedule._sample, HDCodableSleepSchedule._saturday, 
                       HDCodableSleepSchedule._sunday, HDCodableSleepSchedule._thursday, 
                       HDCodableSleepSchedule._tuesday, HDCodableSleepSchedule._wakeHour, 
                       HDCodableSleepSchedule._wakeMinute, HDCodableSleepSchedule._wednesday, 
                       HDCodableSource._bundleIdentifier, HDCodableSource._deleted, 
                       HDCodableSource._has, HDCodableSource._modificationDate, HDCodableSource._name, 
                       HDCodableSource._options, HDCodableSource._owningAppBundleIdentifier, 
                       HDCodableSource._productType, HDCodableSource._syncIdentity, 
                       HDCodableSource._uuid, HDCodableSourceAuthorization._authorizations, 
                       HDCodableSourceAuthorization._backupUUID, HDCodableSourceAuthorization._source, 
                       HDCodableSourceAuthorization._sourceUUID, HDCodableStartWorkoutAppRequest._applicationIdentifier, 
                       HDCodableStartWorkoutAppRequest._mirroredStartData, HDCodableStartWorkoutAppRequest._requestIdentifier, 
                       HDCodableStartWorkoutAppRequest._workoutConfiguration, HDCodableStartWorkoutAppRequest._workoutPlanData, 
                       HDCodableStartWorkoutAppResponse._has, HDCodableStartWorkoutAppResponse._launchError, 
                       HDCodableStartWorkoutAppResponse._requestIdentifier, HDCodableStartWorkoutAppResponse._success, 
                       HDCodableStateOfMind._context, HDCodableStateOfMind._domains, 
                       HDCodableStateOfMind._has, HDCodableStateOfMind._labels, HDCodableStateOfMind._reflectiveInterval, 
                       HDCodableStateOfMind._sample, HDCodableStateOfMind._valence, 
                       HDCodableStateSyncCollection._deletedSampleCollections, HDCodableStateSyncCollection._sampleCollections, 
                       HDCodableStaticSyncChangeSet._changes, HDCodableSummarySharingEntry._allContactIdentifiers, 
                       HDCodableSummarySharingEntry._authorizationCategories, HDCodableSummarySharingEntry._cloudKitIdentifier, 
                       HDCodableSummarySharingEntry._dateAccepted, HDCodableSummarySharingEntry._dateInvited, 
                       HDCodableSummarySharingEntry._dateModified, HDCodableSummarySharingEntry._direction, 
                       HDCodableSummarySharingEntry._firstName, HDCodableSummarySharingEntry._has, 
                       HDCodableSummarySharingEntry._invitationUUID, HDCodableSummarySharingEntry._lastName, 
                       HDCodableSummarySharingEntry._notificationStatus, HDCodableSummarySharingEntry._ownerParticipant, 
                       HDCodableSummarySharingEntry._primaryContactIdentifier, HDCodableSummarySharingEntry._sharingAuthorizations, 
                       HDCodableSummarySharingEntry._sharingSetupMetadata, HDCodableSummarySharingEntry._status, 
                       HDCodableSummarySharingEntry._type, HDCodableSummarySharingEntry._userWheelchairMode, 
                       HDCodableSummarySharingEntry._uuid, HDCodableSyncAnchorRange._endAnchor, 
                       HDCodableSyncAnchorRange._entityIdentifier, HDCodableSyncAnchorRange._entityType, 
                       HDCodableSyncAnchorRange._has, HDCodableSyncAnchorRange._startAnchor, 
                       HDCodableSyncAnchorRangeMap._anchorRanges, HDCodableSyncEntityVersionMap._entityVersionRanges, 
                       HDCodableSyncEntityVersionRange._entityIdentifier, HDCodableSyncEntityVersionRange._versionRange, 
                       HDCodableSyncIdentity._databaseIdentifier, HDCodableSyncIdentity._hardwareIdentifier, 
                       HDCodableSyncIdentity._instanceDiscriminator, HDCodableSyncState._domain, 
                       HDCodableSyncState._key, HDCodableSyncState._origin, HDCodableSyncState._version, 
                       HDCodableSyncState._versionedDatas, HDCodableSyncStateOrigin._build, 
                       HDCodableSyncStateOrigin._has, HDCodableSyncStateOrigin._majorVersion, 
                       HDCodableSyncStateOrigin._minorVersion, HDCodableSyncStateOrigin._patchVersion, 
                       HDCodableSyncStateOrigin._productType, HDCodableSyncStateOrigin._syncIdentity, 
                       HDCodableSyncStateOrigin._timestamp, HDCodableSyncStateVersionedData._has, 
                       HDCodableSyncStateVersionedData._objectData, HDCodableSyncStateVersionedData._origin, 
                       HDCodableSyncStateVersionedData._version, HDCodableSyncVersionRange._current, 
                       HDCodableSyncVersionRange._has, HDCodableSyncVersionRange._minimum, 
                       HDCodableTimestampedKeyValuePair._bytesValue, HDCodableTimestampedKeyValuePair._has, 
                       HDCodableTimestampedKeyValuePair._key, HDCodableTimestampedKeyValuePair._numberDoubleValue, 
                       HDCodableTimestampedKeyValuePair._numberIntValue, HDCodableTimestampedKeyValuePair._stringValue, 
                       HDCodableTimestampedKeyValuePair._timestamp, HDCodableTinkerEndToEndCloudSyncRequest._requestIdentifier, 
                       HDCodableTinkerEndToEndCloudSyncResponse._error, HDCodableTinkerEndToEndCloudSyncResponse._has, 
                       HDCodableTinkerEndToEndCloudSyncResponse._requestIdentifier, 
                       HDCodableTinkerEndToEndCloudSyncResponse._success, HDCodableTinkerOptInRequest._guardianDisplayName, 
                       HDCodableTinkerOptInRequest._requestIdentifier, HDCodableTinkerOptInResponse._accepted, 
                       HDCodableTinkerOptInResponse._error, HDCodableTinkerOptInResponse._has, 
                       HDCodableTinkerOptInResponse._requestIdentifier, HDCodableTinkerPairingRequest._guardianDSID, 
                       HDCodableTinkerPairingRequest._guardianFirstName, HDCodableTinkerPairingRequest._guardianIcloudIdentifier, 
                       HDCodableTinkerPairingRequest._guardianLastName, HDCodableTinkerPairingRequest._has, 
                       HDCodableTinkerPairingRequest._profileIdentifier, HDCodableTinkerPairingRequest._requestIdentifier, 
                       HDCodableTinkerPairingRequest._setupType, HDCodableTinkerPairingRequest._tinkerFirstName, 
                       HDCodableTinkerPairingRequest._tinkerLastName, HDCodableTinkerPairingResponse._error, 
                       HDCodableTinkerPairingResponse._requestIdentifier, HDCodableTinkerPairingResponse._setupMetadata, 
                       HDCodableTypedObjectAssociation._associationUUID, HDCodableTypedObjectAssociation._behavior, 
                       HDCodableTypedObjectAssociation._creationDate, HDCodableTypedObjectAssociation._deleted, 
                       HDCodableTypedObjectAssociation._has, HDCodableTypedObjectAssociation._objectUUIDs, 
                       HDCodableTypedObjectAssociation._subObjectUUID, HDCodableTypedObjectAssociation._syncIdentity, 
                       HDCodableTypedObjectAssociation._type, HDCodableUserDomainConcept._build, 
                       HDCodableUserDomainConcept._codings, HDCodableUserDomainConcept._creationDate, 
                       HDCodableUserDomainConcept._deleted, HDCodableUserDomainConcept._has, 
                       HDCodableUserDomainConcept._identifier, HDCodableUserDomainConcept._links, 
                       HDCodableUserDomainConcept._linksData, HDCodableUserDomainConcept._localizedStringProperties, 
                       HDCodableUserDomainConcept._majorVersion, HDCodableUserDomainConcept._minorVersion, 
                       HDCodableUserDomainConcept._modificationDate, HDCodableUserDomainConcept._namedQuantities, 
                       HDCodableUserDomainConcept._ontologyLocalizedEducationContent, 
                       HDCodableUserDomainConcept._patchVersion, HDCodableUserDomainConcept._properties, 
                       HDCodableUserDomainConcept._syncIdentity, HDCodableUserDomainConcept._typeData, 
                       HDCodableUserDomainConcept._uuid, HDCodableUserDomainConceptCollection._concepts, 
                       HDCodableUserDomainConceptLink._has, HDCodableUserDomainConceptLink._targetUUID, 
                       HDCodableUserDomainConceptLink._type, HDCodableUserDomainConceptLocalizedStringProperty._deleted, 
                       HDCodableUserDomainConceptLocalizedStringProperty._has, HDCodableUserDomainConceptLocalizedStringProperty._locale, 
                       HDCodableUserDomainConceptLocalizedStringProperty._stringValue, 
                       HDCodableUserDomainConceptLocalizedStringProperty._timestamp, 
                       HDCodableUserDomainConceptLocalizedStringProperty._type, HDCodableUserDomainConceptLocalizedStringProperty._version, 
                       HDCodableUserDomainConceptNamedQuantity._deleted, HDCodableUserDomainConceptNamedQuantity._has, 
                       HDCodableUserDomainConceptNamedQuantity._name, HDCodableUserDomainConceptNamedQuantity._timestamp, 
                       HDCodableUserDomainConceptNamedQuantity._type, HDCodableUserDomainConceptNamedQuantity._unit, 
                       HDCodableUserDomainConceptNamedQuantity._value, HDCodableUserDomainConceptNamedQuantity._version, 
                       HDCodableUserDomainConceptProperty._boolValue, HDCodableUserDomainConceptProperty._dataValue, 
                       HDCodableUserDomainConceptProperty._doubleValue, HDCodableUserDomainConceptProperty._has, 
                       HDCodableUserDomainConceptProperty._integerValue, HDCodableUserDomainConceptProperty._stringValue, 
                       HDCodableUserDomainConceptProperty._timestamp, HDCodableUserDomainConceptProperty._type, 
                       HDCodableUserDomainConceptProperty._valueType, HDCodableUserDomainConceptProperty._version, 
                       HDCodableUserDomainConceptTypeIdentifier._code, HDCodableUserDomainConceptTypeIdentifier._has, 
                       HDCodableUserDomainConceptTypeIdentifier._schema, HDCodableVerifiableData._dataValue, 
                       HDCodableVerifiableData._has, HDCodableVerifiableData._issuerIdentifier, 
                       HDCodableVerifiableData._type, HDCodableVisionSample._brand, 
                       HDCodableVisionSample._glassesDescription, HDCodableVisionSample._has, 
                       HDCodableVisionSample._leftAddPower, HDCodableVisionSample._leftAxis, 
                       HDCodableVisionSample._leftBaseCurve, HDCodableVisionSample._leftContactDiameter, 
                       HDCodableVisionSample._leftCylinder, HDCodableVisionSample._leftFarPupillaryDistance, 
                       HDCodableVisionSample._leftNearPupillaryDistance, HDCodableVisionSample._leftPrismAmount, 
                       HDCodableVisionSample._leftPrismAngle, HDCodableVisionSample._leftSphere, 
                       HDCodableVisionSample._leftVertexDistance, HDCodableVisionSample._prescriptionType, 
                       HDCodableVisionSample._rightAddPower, HDCodableVisionSample._rightAxis, 
                       HDCodableVisionSample._rightBaseCurve, HDCodableVisionSample._rightContactDiameter, 
                       HDCodableVisionSample._rightCylinder, HDCodableVisionSample._rightFarPupillaryDistance, 
                       HDCodableVisionSample._rightNearPupillaryDistance, HDCodableVisionSample._rightPrismAmount, 
                       HDCodableVisionSample._rightPrismAngle, HDCodableVisionSample._rightSphere, 
                       HDCodableVisionSample._rightVertexDistance, HDCodableVisionSample._sample, 
                       HDCodableVisionSample._verifiableData, HDCodableWorkout._duration, 
                       HDCodableWorkout._events, HDCodableWorkout._goal, HDCodableWorkout._goalType, 
                       HDCodableWorkout._has, HDCodableWorkout._primaryActivity, 
                       HDCodableWorkout._sample, HDCodableWorkout._subActivities, 
                       HDCodableWorkout._totalBasalEnergyBurnedInCanonicalUnit, HDCodableWorkout._totalDistanceInCanonicalUnit, 
                       HDCodableWorkout._totalEnergyBurnedInCanonicalUnit, HDCodableWorkout._totalFlightsClimbedInCanonicalUnit, 
                       HDCodableWorkout._totalSwimmingStrokeCountInCanonicalUnit, 
                       HDCodableWorkout._type, HDCodableWorkoutActivity._configuration, 
                       HDCodableWorkoutActivity._duration, HDCodableWorkoutActivity._endDate, 
                       HDCodableWorkoutActivity._has, HDCodableWorkoutActivity._metadata, 
                       HDCodableWorkoutActivity._parentActivityUUID, HDCodableWorkoutActivity._sets, 
                       HDCodableWorkoutActivity._startDate, HDCodableWorkoutActivity._statistics, 
                       HDCodableWorkoutActivity._uuid, HDCodableWorkoutActivity._zoneGroups, 
                       HDCodableWorkoutConfiguration._activityType, HDCodableWorkoutConfiguration._has, 
                       HDCodableWorkoutConfiguration._locationType, HDCodableWorkoutConfiguration._muscleGroups, 
                       HDCodableWorkoutConfiguration._strengthExerciseType, HDCodableWorkoutConfiguration._wLengthUnitString, 
                       HDCodableWorkoutConfiguration._wLengthValue, HDCodableWorkoutConfiguration._wLocationType, 
                       HDCodableWorkoutEvent._date, HDCodableWorkoutEvent._duration, 
                       HDCodableWorkoutEvent._has, HDCodableWorkoutEvent._metadataDictionary, 
                       HDCodableWorkoutEvent._swimmingStrokeStyle, HDCodableWorkoutEvent._type, 
                       HDCodableWorkoutSessionConfiguration._sourceBundleIdentifier, 
                       HDCodableWorkoutSessionConfiguration._workoutConfiguration, 
                       HDCodableWorkoutSessionGlobalState._currentActivity, HDCodableWorkoutSessionGlobalState._endDate, 
                       HDCodableWorkoutSessionGlobalState._events, HDCodableWorkoutSessionGlobalState._has, 
                       HDCodableWorkoutSessionGlobalState._sessionState, HDCodableWorkoutSessionGlobalState._sessionStateChangeDate, 
                       HDCodableWorkoutSessionGlobalState._sessionStateEvent, HDCodableWorkoutSessionGlobalState._sessionStateEventDate, 
                       HDCodableWorkoutSessionGlobalState._startDate, HDCodableWorkoutSessionSyncTransaction._arbitraryData, 
                       HDCodableWorkoutSessionSyncTransaction._configuration, HDCodableWorkoutSessionSyncTransaction._globalState, 
                       HDCodableWorkoutSessionSyncTransaction._sessionUUID, HDCodableWorkoutSet._duration, 
                       HDCodableWorkoutSet._has, HDCodableWorkoutSet._metadata, HDCodableWorkoutSet._metrics, 
                       HDCodableWorkoutSetMetric._duration, HDCodableWorkoutSetMetric._equipment, 
                       HDCodableWorkoutSetMetric._has, HDCodableWorkoutSetMetric._repCount, 
                       HDCodableWorkoutSetMetric._repetitionType, HDCodableWorkoutSetMetric._side, 
                       HDCodableWorkoutSetMetric._weightQuantity, HDCodableWorkoutStatistics._avgQuantity, 
                       HDCodableWorkoutStatistics._has, HDCodableWorkoutStatistics._maxQuantity, 
                       HDCodableWorkoutStatistics._minQuantity, HDCodableWorkoutStatistics._quantityType, 
                       HDCodableWorkoutStatistics._sumQuantity, HDCodableWorkoutZone._endQuantity, 
                       HDCodableWorkoutZone._has, HDCodableWorkoutZone._index, HDCodableWorkoutZone._startQuantity, 
                       HDCodableWorkoutZone._timeInZone, HDCodableWorkoutZoneGroup._configurationType, 
                       HDCodableWorkoutZoneGroup._has, HDCodableWorkoutZoneGroup._quantityType, 
                       HDCodableWorkoutZoneGroup._zones, HDCodableWorkoutZones._sample, 
                       HDCodableWorkoutZones._zones, HDDataCollector._primaryProfile, 
                       HDDataCollector._profile, HDWorkoutSessionServer._clientProcessBundleIdentifier, 
                       HDWorkoutSessionServer._currentActivity, HDWorkoutSessionServer._isMirroring, 
                       HDWorkoutSessionServer._profile, HDWorkoutSessionServer._queue, 
                       HDWorkoutSessionServer._startDate, HDWorkoutSessionServer._stopDate, 
                       HDWorkoutSessionServer._syncController, HDWorkoutSessionServer._workoutDataFlowLink ]
...
