--- !tapi-tbd
tbd-version:     4
targets:         [ arm64-ios, arm64e-ios ]
install-name:    '/usr/lib/libATCommandStudioDynamic.dylib'
exports:
  - targets:         [ arm64-ios, arm64e-ios ]
    symbols:         [ _ATCSThreadJoin, _ATCSThreadKill, _ATCSThreadSpawn, _DEFAULT_XPC_CLIENT_SERVICE, 
                       __Z8asStringN4QMux4NameE, __ZN11ATCSCounted6decRefEv, __ZN11ATCSCounted6incRefEv, 
                       __ZN11ATCSCountedC1Ev, __ZN11ATCSCountedC2Ev, __ZN11ATCSCountedD0Ev, 
                       __ZN11ATCSCountedD1Ev, __ZN11ATCSCountedD2Ev, __ZN12ATCSDPCQueue10startTimerEj, 
                       __ZN12ATCSDPCQueue11handleTimerEv, __ZN12ATCSDPCQueue6cancelEv, 
                       __ZN12ATCSDPCQueue7enqueueEPNS_8CallbackE, __ZN12ATCSDPCQueue8CallbackC2Ev, 
                       __ZN12ATCSDPCQueue8CallbackD0Ev, __ZN12ATCSDPCQueue8CallbackD1Ev, 
                       __ZN12ATCSDPCQueue8CallbackD2Ev, __ZN12ATCSDPCQueueC1Ev, __ZN12ATCSDPCQueueC2Ev, 
                       __ZN12ATCSDPCQueueD1Ev, __ZN12ATCSDPCQueueD2Ev, __ZN13ATCSCondition4waitEP9ATCSMutexi, 
                       __ZN13ATCSCondition6signalEv, __ZN13ATCSCondition9broadcastEv, 
                       __ZN13ATCSConditionC1EPKc, __ZN13ATCSConditionC2EPKc, __ZN13ATCSConditionD1Ev, 
                       __ZN13ATCSConditionD2Ev, __ZN13ATCSIPCDriver12exitLowPowerEv, 
                       __ZN13ATCSIPCDriver13enterLowPowerEv, __ZN13ATCSIPCDriver17bootstrapInternalEv, 
                       __ZN13ATCSIPCDriver9bootstrapEv, __ZN13ATCSIPCDriverC2Ev, 
                       __ZN13ATCSIPCDriverD0Ev, __ZN13ATCSIPCDriverD1Ev, __ZN13ATCSIPCDriverD2Ev, 
                       __ZN13QMIServiceMsg10decodeByteEPKv, __ZN13QMIServiceMsg10decodeWordEPKv, 
                       __ZN13QMIServiceMsg10encodeByteEPPhh, __ZN13QMIServiceMsg10encodeWordEPPht, 
                       __ZN13QMIServiceMsg13createRequestEPKvt, __ZN13QMIServiceMsg14setErrorValuesEv, 
                       __ZN13QMIServiceMsg16createIndicationEPKvt, __ZN13QMIServiceMsg17createFromRawDataEPKhth, 
                       __ZN13QMIServiceMsg17createFromRawDataERKNSt3__16vectorIhNS0_9allocatorIhEEEEh, 
                       __ZN13QMIServiceMsg6addTlvEP3Tlv, __ZN13QMIServiceMsg6createEPKvt, 
                       __ZN13QMIServiceMsg6createERKN3qmi11MessageBaseE, __ZN13QMIServiceMsg6createERKN3qmi18MutableMessageBaseE, 
                       __ZN13QMIServiceMsg6createEt, __ZN13QMIServiceMsg6createEtNS_10ResultTypeENS_17InternalErrorTypeE, 
                       __ZN13QMIServiceMsg6getTlvEh, __ZN13QMIServiceMsg6getTlvEv, 
                       __ZN13QMIServiceMsg9createTlvEht, __ZN13QMIServiceMsgC1EPKvtb, 
                       __ZN13QMIServiceMsgC1ERKNSt3__16vectorIhNS0_9allocatorIhEEEEh, 
                       __ZN13QMIServiceMsgC1Et, __ZN13QMIServiceMsgC1EtNS_10ResultTypeENS_17InternalErrorTypeE, 
                       __ZN13QMIServiceMsgC2EPKvtb, __ZN13QMIServiceMsgC2ERKNSt3__16vectorIhNS0_9allocatorIhEEEEh, 
                       __ZN13QMIServiceMsgC2Et, __ZN13QMIServiceMsgC2EtNS_10ResultTypeENS_17InternalErrorTypeE, 
                       __ZN13QMIServiceMsgD0Ev, __ZN13QMIServiceMsgD1Ev, __ZN13QMIServiceMsgD2Ev, 
                       __ZN13QMIWakeReason3setEN3qmi11buffer_viewEy, __ZN13QMIWakeReason5resetEv, 
                       __ZN13QMIWakeReasonC1Ev, __ZN13QMIWakeReasonC2Ev, __ZN13QMuxQueueItemC1EN3qmi11ServiceTypeEhRKNSt3__110shared_ptrINS0_17SerializedMessageEEE, 
                       __ZN13QMuxQueueItemC2EN3qmi11ServiceTypeEhRKNSt3__110shared_ptrINS0_17SerializedMessageEEE, 
                       __ZN13QMuxQueueItemD1Ev, __ZN13QMuxQueueItemD2Ev, __ZN14_ATCSException15constructCommonEPKcjS1_Pc, 
                       __ZN14_ATCSException16triggerAssertionEPKcjS1_S1_S1_, __ZN14_ATCSException16triggerAssertionEPKcjS1_S1_S1_S1_z, 
                       __ZN14_ATCSException16triggerAssertionEPKcjS1_S1_S1_mm, __ZN14_ATCSException16triggerAssertionEPKcjS1_S1_S1_mmS1_z, 
                       __ZN14_ATCSException19setExceptionHandlerEPFvRS_E, __ZN14_ATCSException6appendEPKcPc, 
                       __ZN14_ATCSExceptionC1EPKcjS1_z, __ZN14_ATCSExceptionC1ERKS_, 
                       __ZN14_ATCSExceptionC2EPKcjS1_z, __ZN14_ATCSExceptionC2ERKS_, 
                       __ZN15ATCSTimerDriver14setNextTimeoutEi, __ZN15ATCSTimerDriver15timerDispatcherEv, 
                       __ZN15ATCSTimerDriver24startATCSTimerDispatcherEPv, __ZN15ATCSTimerDriver6createEv, 
                       __ZN15ATCSTimerDriverC1Ev, __ZN15ATCSTimerDriverC2Ev, __ZN15ATCSTimerDriverD0Ev, 
                       __ZN15ATCSTimerDriverD1Ev, __ZN15ATCSTimerDriverD2Ev, __ZN16CallbacksHandler15getSendCallbackEt, 
                       __ZN16CallbacksHandler20registerSendCallbackEtU13block_pointerFvtE, 
                       __ZN16CallbacksHandler22deRegisterSendCallbackEt, __ZN18BBServerConnectionC2ERKNSt3__112basic_stringIcNS0_11char_traitsIcEENS0_9allocatorIcEEEE, 
                       __ZN18BBServerConnectionD0Ev, __ZN18BBServerConnectionD1Ev, 
                       __ZN18BBServerConnectionD2Ev, __ZN19ATCSRouterIPCDriver11handleErrorEP24mav_router_context_tag_t20mav_router_channel_tPKcPv, 
                       __ZN19ATCSRouterIPCDriver13handleReceiveEP24mav_router_context_tag_t20mav_router_channel_tPvS3_, 
                       __ZN19ATCSRouterIPCDriver15clearWriteReadyEP22ATCSDispatcherCallbackPv, 
                       __ZN19ATCSRouterIPCDriver15resetErrorStateEv, __ZN19ATCSRouterIPCDriver15setErrorHandlerENSt3__18functionIFvNS0_12basic_stringIcNS0_11char_traitsIcEENS0_9allocatorIcEEEEEEE, 
                       __ZN19ATCSRouterIPCDriver16handleWriteReadyEP22ATCSDispatcherCallbackPv, 
                       __ZN19ATCSRouterIPCDriver16setCallback_syncEP22ATCSDispatcherCallback20mav_router_channel_t, 
                       __ZN19ATCSRouterIPCDriver18registerDispatcherEP22ATCSDispatcherCallbackPvRS2_, 
                       __ZN19ATCSRouterIPCDriver20unregisterDispatcherEP22ATCSDispatcherCallbackRPv, 
                       __ZN19ATCSRouterIPCDriver4initEv, __ZN19ATCSRouterIPCDriver6createERKNS_10ParametersE, 
                       __ZN19ATCSRouterIPCDriverC1ERKNS_10ParametersE, __ZN19ATCSRouterIPCDriverC2ERKNS_10ParametersE, 
                       __ZN19ATCSRouterIPCDriverD0Ev, __ZN19ATCSRouterIPCDriverD1Ev, 
                       __ZN19ATCSRouterIPCDriverD2Ev, __ZN19QMIServerConnection17loadMappings_syncERNSt3__13setI4QMuxNS0_4lessIS2_EENS0_9allocatorIS2_EEEE, 
                       __ZN19QMIServerConnection4initERKNSt3__16vectorINS0_10shared_ptrIN3qmi14ServerAccepterEEENS0_9allocatorIS5_EEEERKN3xpc10connectionE, 
                       __ZN19QMIServerConnection8shutdownEv, __ZN19QMIServerConnectionC1Ev, 
                       __ZN19QMIServerConnectionC2Ev, __ZN19QMIServerConnectionD0Ev, 
                       __ZN19QMIServerConnectionD1Ev, __ZN19QMIServerConnectionD2Ev, 
                       __ZN21ATCSThreadedIPCDriver10readWorkerEv, __ZN21ATCSThreadedIPCDriver11writeWorkerEv, 
                       __ZN21ATCSThreadedIPCDriver16readWorkerStaticEPv, __ZN21ATCSThreadedIPCDriver16tearDownInternalEv, 
                       __ZN21ATCSThreadedIPCDriver17bootstrapInternalEb, __ZN21ATCSThreadedIPCDriver17writeWorkerStaticEPv, 
                       __ZN21ATCSThreadedIPCDriver19stopWorkersInternalEv, __ZN21ATCSThreadedIPCDriver20startWorkersInternalEv, 
                       __ZN21ATCSThreadedIPCDriver21startRemainingWorkersEv, __ZN21ATCSThreadedIPCDriver24startRemainingWorkers_nlEv, 
                       __ZN21ATCSThreadedIPCDriverC2Ev, __ZN22ATCSCommPortConfigurer9configureEv, 
                       __ZN22ATCSCommPortConfigurerC1Eijhhb, __ZN22ATCSCommPortConfigurerC2Eijhhb, 
                       __ZN27ATCSFileDescriptorIPCDriver6createEbjj, __ZN27ATCSFileDescriptorIPCDriverC2Ev, 
                       __ZN27ATCSFileDescriptorIPCDriverD0Ev, __ZN27ATCSFileDescriptorIPCDriverD1Ev, 
                       __ZN27ATCSFileDescriptorIPCDriverD2Ev, __ZN3Tlv10getDWordAtEt, 
                       __ZN3Tlv10getQWordAtEt, __ZN3Tlv10putDWordAtEjt, __ZN3Tlv10putQWordAtERKyt, 
                       __ZN3Tlv14getStringFieldEv, __ZN3Tlv14putStringFieldERKNSt3__112basic_stringIcNS0_11char_traitsIcEENS0_9allocatorIcEEEE, 
                       __ZN3Tlv16getStringFieldAtEt, __ZN3Tlv6Reader14getStringFieldEv, 
                       __ZN3Tlv6Reader7getByteEv, __ZN3Tlv6Reader7getDataEt, __ZN3Tlv6Reader7getWordEv, 
                       __ZN3Tlv6Reader8getDWordEv, __ZN3Tlv6Reader8getFloatEv, __ZN3Tlv6Reader8getQWordEv, 
                       __ZN3Tlv6Reader9getDoubleEv, __ZN3Tlv6Writer10putDWordAtEjt, 
                       __ZN3Tlv6Writer10putFloatAtEft, __ZN3Tlv6Writer10putQWordAtEyt, 
                       __ZN3Tlv6Writer11putDoubleAtEdt, __ZN3Tlv6Writer14putStringFieldERKNSt3__112basic_stringIcNS1_11char_traitsIcEENS1_9allocatorIcEEEE, 
                       __ZN3Tlv6Writer7putByteEh, __ZN3Tlv6Writer7putDataEPKvt, __ZN3Tlv6Writer7putWordEt, 
                       __ZN3Tlv6Writer8putDWordEj, __ZN3Tlv6Writer8putFloatEf, __ZN3Tlv6Writer8putQWordEy, 
                       __ZN3Tlv6Writer9putByteAtEht, __ZN3Tlv6Writer9putDoubleEd, 
                       __ZN3Tlv6Writer9putWordAtEtt, __ZN3Tlv6createERKS_, __ZN3Tlv6createEht, 
                       __ZN3Tlv6createEhtPKv, __ZN3Tlv7getByteEv, __ZN3Tlv7getDataEt, 
                       __ZN3Tlv7getWordEv, __ZN3Tlv7putByteEh, __ZN3Tlv7putDataEPKvt, 
                       __ZN3Tlv7putWordEt, __ZN3Tlv8getDWordEv, __ZN3Tlv8getQWordEv, 
                       __ZN3Tlv8putDWordEj, __ZN3Tlv8putQWordERKy, __ZN3Tlv9getByteAtEt, 
                       __ZN3Tlv9getDataAtEtt, __ZN3Tlv9getWordAtEt, __ZN3Tlv9putByteAtEht, 
                       __ZN3Tlv9putWordAtEtt, __ZN3TlvC1ERKS_, __ZN3TlvC1Eht, __ZN3TlvC1EhtPKv, 
                       __ZN3TlvC2ERKS_, __ZN3TlvC2Eht, __ZN3TlvC2EhtPKv, __ZN3TlvD1Ev, 
                       __ZN3TlvD2Ev, __ZN3qmi10kClientSimE, __ZN3qmi11ClientProxy14sendIndicationENSt3__16vectorIhNS1_9allocatorIhEEEE, 
                       __ZN3qmi11ClientProxy16registerResponseEtNSt3__16vectorIhNS1_9allocatorIhEEEE, 
                       __ZN3qmi11ClientProxy18deregisterResponseEt, __ZN3qmi11ClientProxy5State11Transaction10startTimerEP16dispatch_queue_sU13block_pointerFvvE, 
                       __ZN3qmi11ClientProxy5State11TransactionC1EOS2_, __ZN3qmi11ClientProxy5State11TransactionC1ERKNSt3__110shared_ptrINS_17SerializedMessageEEEj, 
                       __ZN3qmi11ClientProxy5State11TransactionC2EOS2_, __ZN3qmi11ClientProxy5State11TransactionC2ERKNSt3__110shared_ptrINS_17SerializedMessageEEEj, 
                       __ZN3qmi11ClientProxy5State11TransactionD1Ev, __ZN3qmi11ClientProxy5State11TransactionD2Ev, 
                       __ZN3qmi11ClientProxy5State11TransactionaSEOS2_, __ZN3qmi11ClientProxy5State13handleMessageERKN3xpc4dictE, 
                       __ZN3qmi11ClientProxy5State14sendIndicationENSt3__16vectorIhNS2_9allocatorIhEEEE, 
                       __ZN3qmi11ClientProxy5State15handleSend_syncERKN3xpc4dictERKNS2_6objectE, 
                       __ZN3qmi11ClientProxy5State16registerResponseEtNSt3__16vectorIhNS2_9allocatorIhEEEE, 
                       __ZN3qmi11ClientProxy5State17handleServerErrorERKN3xpc6objectE, 
                       __ZN3qmi11ClientProxy5State17handleStatus_syncENS_12ClientStatusE, 
                       __ZN3qmi11ClientProxy5State17setConnected_syncEv, __ZN3qmi11ClientProxy5State18deregisterResponseEt, 
                       __ZN3qmi11ClientProxy5State18handleMessage_syncERKN3xpc4dictE, 
                       __ZN3qmi11ClientProxy5State19handleResponse_syncENS_11buffer_viewEt, 
                       __ZN3qmi11ClientProxy5State19sendIfPossible_syncEv, __ZN3qmi11ClientProxy5State20checkIfLowPower_syncEv, 
                       __ZN3qmi11ClientProxy5State20setDisconnected_syncEb, __ZN3qmi11ClientProxy5State20triggerLowPower_syncERKN8dispatch5groupE, 
                       __ZN3qmi11ClientProxy5State21handleIndication_syncENS_11buffer_viewE, 
                       __ZN3qmi11ClientProxy5State22cancelAllMessages_syncEv, __ZN3qmi11ClientProxy5State22cleanUpDisconnect_syncEv, 
                       __ZN3qmi11ClientProxy5State22handleSentMessage_syncEt, __ZN3qmi11ClientProxy5State22handleServerError_syncERKN3xpc6objectE, 
                       __ZN3qmi11ClientProxy5State23handleSendNotReady_syncERKN3xpc4dictE, 
                       __ZN3qmi11ClientProxy5State24handleIndWakeChange_syncERKN3xpc4dictE, 
                       __ZN3qmi11ClientProxy5State24triggerExitLowPower_syncEv, __ZN3qmi11ClientProxy5State26sendDisconnectMessage_syncEb, 
                       __ZN3qmi11ClientProxy5State27createCallBacksHandler_syncEv, 
                       __ZN3qmi11ClientProxy5State37sendInternalErrorResponseForTxId_syncEti, 
                       __ZN3qmi11ClientProxy5State41sendInternalErrorResponseForRemoteId_syncERKN3xpc6objectEi, 
                       __ZN3qmi11ClientProxy5State4initERKN3xpc10connectionE, __ZN3qmi11ClientProxy5State9init_syncERKN3xpc10connectionE, 
                       __ZN3qmi11ClientProxy5StateC2ERKNSt3__112basic_stringIcNS2_11char_traitsIcEENS2_9allocatorIcEEEERKN8dispatch5queueENS_11ServiceTypeENS2_10shared_ptrINS_12EurTransportEEE, 
                       __ZN3qmi11ClientProxy5StateD0Ev, __ZN3qmi11ClientProxy5StateD1Ev, 
                       __ZN3qmi11ClientProxy5StateD2Ev, __ZN3qmi11ClientProxy8shutdownEv, 
                       __ZN3qmi11ClientProxyC1ERKNSt3__110shared_ptrINS0_5StateEEE, 
                       __ZN3qmi11ClientProxyC1ERKNSt3__110shared_ptrINS0_5StateEEERKN3xpc10connectionE, 
                       __ZN3qmi11ClientProxyC2ERKNSt3__110shared_ptrINS0_5StateEEE, 
                       __ZN3qmi11ClientProxyC2ERKNSt3__110shared_ptrINS0_5StateEEERKN3xpc10connectionE, 
                       __ZN3qmi11ClientProxyD1Ev, __ZN3qmi11ClientProxyD2Ev, __ZN3qmi11kClientNameE, 
                       __ZN3qmi11kClientTxIdE, __ZN3qmi12ClientRouter5resetEv, __ZN3qmi12ClientRouter6removeENS_16SubscriptionTypeE, 
                       __ZN3qmi12ClientRouter9addClientENS_16SubscriptionTypeENS_6ClientE, 
                       __ZN3qmi12ClientRouterC1EP8os_log_s, __ZN3qmi12ClientRouterC2EP8os_log_s, 
                       __ZN3qmi12EurTransport13handleMessageERKN3xpc4dictE, __ZN3qmi12EurTransport17handleServerErrorERKN3xpc6objectE, 
                       __ZN3qmi12EurTransport17setMessageHandlerENSt3__18functionIFvN3xpc4dictEEEE, 
                       __ZN3qmi12EurTransport21setServerErrorHandlerENSt3__18functionIFvRKN3xpc6objectEEEE, 
                       __ZN3qmi12EurTransport8setQueueEN8dispatch5queueE, __ZN3qmi12EurTransportC2Ev, 
                       __ZN3qmi13kClientStatusE, __ZN3qmi14kClientConnectE, __ZN3qmi14kClientSendQmiE, 
                       __ZN3qmi14kClientSvcTypeE, __ZN3qmi15EurTransportXPC11clearServerEv, 
                       __ZN3qmi15EurTransportXPC11sendMessageEN3xpc4dictE, __ZN3qmi15EurTransportXPC20sendMessageWithReplyEN3xpc4dictEU13block_pointerFvPvE, 
                       __ZN3qmi15EurTransportXPC7isValidEv, __ZN3qmi15EurTransportXPC8shutdownEv, 
                       __ZN3qmi15EurTransportXPC9init_syncERKN3xpc10connectionEN8dispatch5queueE, 
                       __ZN3qmi15EurTransportXPCC1Ev, __ZN3qmi15EurTransportXPCC2Ev, 
                       __ZN3qmi15QMuxClientIface11setLogLevelENS_8LogLevelE, __ZN3qmi15QMuxClientIface14setMaxLogBytesEj, 
                       __ZN3qmi15QMuxClientIface23setShouldResetOnTimeoutEb, __ZN3qmi15QMuxClientIface24MAX_CLIENT_MESSAGES_SENTE, 
                       __ZN3qmi15QMuxClientIfaceC2ERKNSt3__112basic_stringIcNS1_11char_traitsIcEENS1_9allocatorIcEEEENS_11ServiceTypeE, 
                       __ZN3qmi15kClientEndpointE, __ZN3qmi16kClientTempErrorE, __ZN3qmi17EurTransportLocal11clearServerEv, 
                       __ZN3qmi17EurTransportLocal11sendMessageEN3xpc4dictE, __ZN3qmi17EurTransportLocal15setSendToClientENSt3__18weak_ptrINS1_8functionIFvN3xpc4dictEEEEEE, 
                       __ZN3qmi17EurTransportLocal17setProxyMessengerENSt3__18weak_ptrINS1_8functionIFvNS2_INS3_IFvN3xpc4dictEEEEEEEEEEE, 
                       __ZN3qmi17EurTransportLocal20sendMessageWithReplyEN3xpc4dictEU13block_pointerFvPvE, 
                       __ZN3qmi17EurTransportLocal7isValidEv, __ZN3qmi17EurTransportLocal8shutdownEv, 
                       __ZN3qmi17EurTransportLocal9init_syncERKN3xpc10connectionEN8dispatch5queueE, 
                       __ZN3qmi17EurTransportLocalC1Ev, __ZN3qmi17EurTransportLocalC2Ev, 
                       __ZN3qmi17kClientRawRequestE, __ZN3qmi17kClientSendWindowE, 
                       __ZN3qmi18QMuxServerAccepter19acceptWithClientRefERKN3xpc4dictENSt3__18weak_ptrINS5_8functionIFvS2_EEEEENS6_INS7_IFvSA_EEEEE, 
                       __ZN3qmi18QMuxServerAccepter21setValidationStrategyENSt3__18functionIFbPvEEE, 
                       __ZN3qmi18QMuxServerAccepter6listenERNS_6ServerE, __ZN3qmi18QMuxServerAccepter8shutdownEv, 
                       __ZN3qmi18QMuxServerAccepterC1ERK4QMuxRKP16dispatch_queue_s, 
                       __ZN3qmi18QMuxServerAccepterC1ERK4QMuxRKP16dispatch_queue_sRKNSt3__112basic_stringIcNS8_11char_traitsIcEENS8_9allocatorIcEEEE, 
                       __ZN3qmi18QMuxServerAccepterC1Ev, __ZN3qmi18QMuxServerAccepterC2ERK4QMuxRKP16dispatch_queue_s, 
                       __ZN3qmi18QMuxServerAccepterC2ERK4QMuxRKP16dispatch_queue_sRKNSt3__112basic_stringIcNS8_11char_traitsIcEENS8_9allocatorIcEEEE, 
                       __ZN3qmi18QMuxServerAccepterC2Ev, __ZN3qmi18QMuxServerAccepterD0Ev, 
                       __ZN3qmi18QMuxServerAccepterD1Ev, __ZN3qmi18QMuxServerAccepterD2Ev, 
                       __ZN3qmi18kClientResponseQmiE, __ZN3qmi20kClientIndicationQmiE, 
                       __ZN3qmi20kClientRawHeaderSizeE, __ZN3qmi20kClientSendTimeoutMsE, 
                       __ZN3qmi20kClientSetIndWakeSetE, __ZN3qmi21QmiClientProxyAdapter12connect_syncEv, 
                       __ZN3qmi21QmiClientProxyAdapter13handleTimeoutEtt, __ZN3qmi21QmiClientProxyAdapter14enterPowerModeEP16dispatch_group_sNS_12PowerProfileE, 
                       __ZN3qmi21QmiClientProxyAdapter14handleSentDataEt, __ZN3qmi21QmiClientProxyAdapter15disconnect_syncEv, 
                       __ZN3qmi21QmiClientProxyAdapter16invokeReset_syncERKNSt3__112basic_stringIcNS1_11char_traitsIcEENS1_9allocatorIcEEEE, 
                       __ZN3qmi21QmiClientProxyAdapter16notifyRegisteredEv, __ZN3qmi21QmiClientProxyAdapter18handleReceivedDataEtNS_11buffer_viewE, 
                       __ZN3qmi21QmiClientProxyAdapter18revokeRegistrationEv, __ZN3qmi21QmiClientProxyAdapter19setMaxLogBytes_syncEj, 
                       __ZN3qmi21QmiClientProxyAdapter19updateLogLevel_syncEN3ctu8LogLevelE, 
                       __ZN3qmi21QmiClientProxyAdapter21notifyRegisterFailureENS_5ErrorE, 
                       __ZN3qmi21QmiClientProxyAdapter24handleReceivedIndicationENS_11buffer_viewE, 
                       __ZN3qmi21QmiClientProxyAdapter4joinEP16dispatch_group_s, 
                       __ZN3qmi21QmiClientProxyAdapter5flushEP16dispatch_group_s, 
                       __ZN3qmi21QmiClientProxyAdapter8shutdownEv, __ZN3qmi21QmiClientProxyAdapter9send_syncERKNSt3__110shared_ptrINS_17SerializedMessageEEE, 
                       __ZN3qmi21QmiClientProxyAdapterC1ERK4QMuxRKNSt3__112basic_stringIcNS4_11char_traitsIcEENS4_9allocatorIcEEEENS_11ServiceTypeENS4_10shared_ptrINS_12EurTransportEEE, 
                       __ZN3qmi21QmiClientProxyAdapterC1ERKNSt3__112basic_stringIcNS1_11char_traitsIcEENS1_9allocatorIcEEEERKN8dispatch5queueENS_11ServiceTypeENS1_10shared_ptrINS_12EurTransportEEE, 
                       __ZN3qmi21QmiClientProxyAdapterC2ERK4QMuxRKNSt3__112basic_stringIcNS4_11char_traitsIcEENS4_9allocatorIcEEEENS_11ServiceTypeENS4_10shared_ptrINS_12EurTransportEEE, 
                       __ZN3qmi21QmiClientProxyAdapterC2ERKNSt3__112basic_stringIcNS1_11char_traitsIcEENS1_9allocatorIcEEEERKN8dispatch5queueENS_11ServiceTypeENS1_10shared_ptrINS_12EurTransportEEE, 
                       __ZN3qmi21kClientRemoteLogBytesE, __ZN3qmi21kClientRemoteLogLevelE, 
                       __ZN3qmi23kClientOldInternalErrorE, __ZN3qmi25kClientLowPowerEnterReplyE, 
                       __ZN3qmi25kClientLowPowerExitNotifyE, __ZN3qmi26kClientLowPowerEnterNotifyE, 
                       __ZN3qmi6Client15createWithQueueERKNSt3__112basic_stringIcNS1_11char_traitsIcEENS1_9allocatorIcEEEENS_11ServiceTypeEN8dispatch5queueES9_NS1_8weak_ptrIvEE, 
                       __ZN3qmi6Client15createWithQueueERKNSt3__112basic_stringIcNS1_11char_traitsIcEENS1_9allocatorIcEEEENS_11ServiceTypeEN8dispatch5queueES9_NS1_8weak_ptrIvEEN3xpc10connectionE, 
                       __ZN3qmi6Client15setClientHandleERKNSt3__18weak_ptrIvEE, __ZN3qmi6Client20createWithQueueLocalERKNSt3__112basic_stringIcNS1_11char_traitsIcEENS1_9allocatorIcEEEENS_11ServiceTypeEN8dispatch5queueES9_NS1_8weak_ptrIvEENS1_10shared_ptrI18BBServerConnectionEE, 
                       __ZN3qmi6Client3setEPKci, __ZN3qmi6Client3setEPKcj, __ZN3qmi6Client6createERKNSt3__112basic_stringIcNS1_11char_traitsIcEENS1_9allocatorIcEEEENS_11ServiceTypeEN8dispatch5queueES9_N3xpc10connectionE, 
                       __ZN3qmi6Client6createERKNSt3__112basic_stringIcNS1_11char_traitsIcEENS1_9allocatorIcEEEENS_11ServiceTypeEP16dispatch_queue_sS9_P17_xpc_connection_s, 
                       __ZN3qmi6Client7releaseEv, __ZN3qmi6ClientC1ERKNSt3__112basic_stringIcNS1_11char_traitsIcEENS1_9allocatorIcEEEENS_11ServiceTypeEN8dispatch5queueES9_N3xpc10connectionE, 
                       __ZN3qmi6ClientC1ERKNSt3__112basic_stringIcNS1_11char_traitsIcEENS1_9allocatorIcEEEENS_11ServiceTypeEN8dispatch5queueES9_NS1_10shared_ptrI19QMIServerConnectionEE, 
                       __ZN3qmi6ClientC1ERKNSt3__112basic_stringIcNS1_11char_traitsIcEENS1_9allocatorIcEEEENS_11ServiceTypeEN8dispatch5queueES9_NS1_8weak_ptrIvEEN3xpc10connectionE, 
                       __ZN3qmi6ClientC1ERKNSt3__112basic_stringIcNS1_11char_traitsIcEENS1_9allocatorIcEEEENS_11ServiceTypeEN8dispatch5queueES9_NS1_8weak_ptrIvEENS1_10shared_ptrI19QMIServerConnectionEE, 
                       __ZN3qmi6ClientC1ERKNSt3__18weak_ptrINS0_5StateEEE, __ZN3qmi6ClientC2ERKNSt3__112basic_stringIcNS1_11char_traitsIcEENS1_9allocatorIcEEEENS_11ServiceTypeEN8dispatch5queueES9_N3xpc10connectionE, 
                       __ZN3qmi6ClientC2ERKNSt3__112basic_stringIcNS1_11char_traitsIcEENS1_9allocatorIcEEEENS_11ServiceTypeEN8dispatch5queueES9_NS1_10shared_ptrI19QMIServerConnectionEE, 
                       __ZN3qmi6ClientC2ERKNSt3__112basic_stringIcNS1_11char_traitsIcEENS1_9allocatorIcEEEENS_11ServiceTypeEN8dispatch5queueES9_NS1_8weak_ptrIvEEN3xpc10connectionE, 
                       __ZN3qmi6ClientC2ERKNSt3__112basic_stringIcNS1_11char_traitsIcEENS1_9allocatorIcEEEENS_11ServiceTypeEN8dispatch5queueES9_NS1_8weak_ptrIvEENS1_10shared_ptrI19QMIServerConnectionEE, 
                       __ZN3qmi6ClientC2ERKNSt3__18weak_ptrINS0_5StateEEE, __ZN3qmi6ClientD1Ev, 
                       __ZN3qmi6ClientD2Ev, __ZN3qmi6Server6createERKN3xpc10connectionE, 
                       __ZN3qmi6ServerC1ERKN3xpc10connectionE, __ZN3qmi6ServerC2ERKN3xpc10connectionE, 
                       __ZN3qmi6ServerD1Ev, __ZN3qmi6ServerD2Ev, __ZN3qmi8asStringENS_12ClientStatusE, 
                       __ZN3qmi8asStringENS_16SubscriptionTypeE, __ZN3qmi8asStringENS_6Client5EventE, 
                       __ZN4QMux11invokeResetERKNSt3__112basic_stringIcNS0_11char_traitsIcEENS0_9allocatorIcEEEEb, 
                       __ZN4QMux11joinControlEv, __ZN4QMux14enterPowerModeEP16dispatch_group_sN3qmi12PowerProfileE, 
                       __ZN4QMux18setDriverAndCookieEP13ATCSIPCDriverPv, __ZN4QMux23getQMIPowerDownMessagesEv, 
                       __ZN4QMux3addENSt3__110shared_ptrIN3qmi15QMuxClientIfaceEEE, 
                       __ZN4QMux4joinEv, __ZN4QMux4sendENSt3__110shared_ptrIN3qmi15QMuxClientIfaceEEENS1_INS2_17SerializedMessageEEE, 
                       __ZN4QMux4stopEv, __ZN4QMux5State10check_syncEv, __ZN4QMux5State10flush_syncERKN8dispatch5groupE, 
                       __ZN4QMux5State10start_syncEv, __ZN4QMux5State11invokeResetENSt3__112basic_stringIcNS1_11char_traitsIcEENS1_9allocatorIcEEEE, 
                       __ZN4QMux5State11joinControlEv, __ZN4QMux5State11remove_syncERKNSt3__110shared_ptrIN3qmi15QMuxClientIfaceEEE, 
                       __ZN4QMux5State12getWriteDataEPhj, __ZN4QMux5State12powerUp_syncEv, 
                       __ZN4QMux5State12restart_syncEv, __ZN4QMux5State12setMainStateENS0_9MainStateE, 
                       __ZN4QMux5State13dumpSystemLogENSt3__112basic_stringIcNS1_11char_traitsIcEENS1_9allocatorIcEEEE, 
                       __ZN4QMux5State13tearDown_syncEv, __ZN4QMux5State14handleReadDataEPKhj, 
                       __ZN4QMux5State14powerDown_syncEv, __ZN4QMux5State16clearQueues_syncEv, 
                       __ZN4QMux5State16invokeReset_syncERKNSt3__112basic_stringIcNS1_11char_traitsIcEENS1_9allocatorIcEEEE, 
                       __ZN4QMux5State17getWriteData_syncEPhj, __ZN4QMux5State17revokeClient_syncEN3qmi11ServiceTypeEh, 
                       __ZN4QMux5State18handleMessage_syncERKN3qmi10QMuxHeaderENS1_11buffer_viewES5_, 
                       __ZN4QMux5State18setDriverAndCookieEP13ATCSIPCDriverPv, __ZN4QMux5State19enterPowerMode_syncEP16dispatch_group_sN3qmi12PowerProfileE, 
                       __ZN4QMux5State19handleReadData_syncEPKhj, __ZN4QMux5State21powerDown_finish_syncEv, 
                       __ZN4QMux5State22notifyClientAdded_syncERKNSt3__110shared_ptrIN3qmi15QMuxClientIfaceEEEh, 
                       __ZN4QMux5State22notifySyncFailure_syncEv, __ZN4QMux5State22notifySyncSuccess_syncEv, 
                       __ZN4QMux5State23getQMIPowerDownMessagesEv, __ZN4QMux5State25getWriteDataInternal_syncEPhj, 
                       __ZN4QMux5State26powerUp_signalClients_syncEv, __ZN4QMux5State27clearPowerDownWatchdog_syncEv, 
                       __ZN4QMux5State27handleBroadcastMessage_syncERKN3qmi10QMuxHeaderENS1_11buffer_viewES5_, 
                       __ZN4QMux5State27notifyClientAddFailure_syncENSt3__110shared_ptrIN3qmi15QMuxClientIfaceEEENS3_5ErrorE, 
                       __ZN4QMux5State27powerDown_configIndSet_syncEv, __ZN4QMux5State27startPowerDownWatchdog_syncEv, 
                       __ZN4QMux5State30getClientPowerDownSession_syncERKN3qmi15QMuxClientIfaceE, 
                       __ZN4QMux5State30notifyControlMessageError_syncEN3qmi5ErrorE, 
                       __ZN4QMux5State6createERKNSt3__112basic_stringIcNS1_11char_traitsIcEENS1_9allocatorIcEEEENS_4NameENS1_8weak_ptrI16ATCSResetInvokerEEN3qmi8LogLevelEb, 
                       __ZN4QMux5State8add_syncERKNSt3__110shared_ptrIN3qmi15QMuxClientIfaceEEE, 
                       __ZN4QMux5State9init_syncEv, __ZN4QMux5State9send_syncERKNSt3__110shared_ptrIN3qmi15QMuxClientIfaceEEERKNS2_INS3_17SerializedMessageEEE, 
                       __ZN4QMux5State9stop_syncEv, __ZN4QMux5StateC1ERKNSt3__112basic_stringIcNS1_11char_traitsIcEENS1_9allocatorIcEEEENS_4NameENS1_8weak_ptrI16ATCSResetInvokerEEN3qmi8LogLevelEb, 
                       __ZN4QMux5StateC2ERKNSt3__112basic_stringIcNS1_11char_traitsIcEENS1_9allocatorIcEEEENS_4NameENS1_8weak_ptrI16ATCSResetInvokerEEN3qmi8LogLevelEb, 
                       __ZN4QMux5StateD0Ev, __ZN4QMux5StateD1Ev, __ZN4QMux5StateD2Ev, 
                       __ZN4QMux5flushEP16dispatch_group_s, __ZN4QMux5startEv, __ZN4QMux6removeENSt3__110shared_ptrIN3qmi15QMuxClientIfaceEEE, 
                       __ZN4QMux7restartEv, __ZN4QMux8shutdownEv, __ZN4QMux9resetQMuxEv, 
                       __ZN4QMuxC1EP13ATCSIPCDriverPvNS_4NameENSt3__18weak_ptrI16ATCSResetInvokerEEbb, 
                       __ZN4QMuxC1EP13ATCSIPCDriverPvRKNSt3__112basic_stringIcNS3_11char_traitsIcEENS3_9allocatorIcEEEENS3_8weak_ptrI16ATCSResetInvokerEEN3qmi8LogLevelEb, 
                       __ZN4QMuxC1EP13ATCSIPCDriverPvRKNSt3__112basic_stringIcNS3_11char_traitsIcEENS3_9allocatorIcEEEENS3_8weak_ptrI16ATCSResetInvokerEEbb, 
                       __ZN4QMuxC1EP13ATCSIPCDriverPvRKNSt3__112basic_stringIcNS3_11char_traitsIcEENS3_9allocatorIcEEEENS3_8weak_ptrI16ATCSResetInvokerEEbbb, 
                       __ZN4QMuxC1ERKNSt3__18weak_ptrINS_5StateEEE, __ZN4QMuxC1Ev, 
                       __ZN4QMuxC2EP13ATCSIPCDriverPvNS_4NameENSt3__18weak_ptrI16ATCSResetInvokerEEbb, 
                       __ZN4QMuxC2EP13ATCSIPCDriverPvRKNSt3__112basic_stringIcNS3_11char_traitsIcEENS3_9allocatorIcEEEENS3_8weak_ptrI16ATCSResetInvokerEEN3qmi8LogLevelEb, 
                       __ZN4QMuxC2EP13ATCSIPCDriverPvRKNSt3__112basic_stringIcNS3_11char_traitsIcEENS3_9allocatorIcEEEENS3_8weak_ptrI16ATCSResetInvokerEEbb, 
                       __ZN4QMuxC2EP13ATCSIPCDriverPvRKNSt3__112basic_stringIcNS3_11char_traitsIcEENS3_9allocatorIcEEEENS3_8weak_ptrI16ATCSResetInvokerEEbbb, 
                       __ZN4QMuxC2ERKNSt3__18weak_ptrINS_5StateEEE, __ZN4QMuxC2Ev, 
                       __ZN4QMuxD1Ev, __ZN4QMuxD2Ev, __ZN6config2hw10regionCodeEv, 
                       __ZN6config2hw10regionInfoEv, __ZN6config2hw11getBootArgsEv, 
                       __ZN6config2hw14deviceMaterialEv, __ZN6config2hw4iPadEv, __ZN6config2hw5watchEv, 
                       __ZN6config2hw6iPhoneEv, __ZN6config2hw7productEv, __ZN6config5build19internal_or_carrierEv, 
                       __ZN6config5build7carrierEv, __ZN6config5build7versionEv, 
                       __ZN6config5build8internalEv, __ZN9ATCSMutex10isUnlockedEv, 
                       __ZN9ATCSMutex4lockEv, __ZN9ATCSMutex6unlockEv, __ZN9ATCSMutex8isLockedEv, 
                       __ZN9ATCSMutexC1EPKc, __ZN9ATCSMutexC2EPKc, __ZN9ATCSMutexD1Ev, 
                       __ZN9ATCSMutexD2Ev, __ZN9ATCSTimer14fATCSTimerListE, __ZN9ATCSTimer14timerBootstrapEP15ATCSTimerDriver, 
                       __ZN9ATCSTimer15printTimerQueueEP8os_log_s, __ZN9ATCSTimer21dispatchExpiredTimersEv, 
                       __ZN9ATCSTimer3setEiPNS_8CallbackE, __ZN9ATCSTimer6cancelEv, 
                       __ZN9ATCSTimer8fsDriverE, __ZN9ATCSTimer9cancel_nlEv, __ZN9ATCSTimerC1Ev, 
                       __ZN9ATCSTimerC2Ev, __ZN9ATCSTimerD1Ev, __ZN9ATCSTimerD2Ev, 
                       __ZNK11ATCSCounted6decRefEv, __ZNK11ATCSCounted6incRefEv, 
                       __ZNK13QMIServiceMsg11getNewErrorEv, __ZNK13QMIServiceMsg14getErrorStringEv, 
                       __ZNK13QMIServiceMsg6getTlvEh, __ZNK13QMIServiceMsg7isErrorEv, 
                       __ZNK13QMIServiceMsg9serializeEPvm, __ZNK13QMIServiceMsg9serializeEv, 
                       __ZNK13QMIWakeReason12copyWakeDataEv, __ZNK13QMIWakeReason14getCaptureTimeEv, 
                       __ZNK13QMIWakeReason5isSetEv, __ZNK13QMuxQueueItem9getLengthEv, 
                       __ZNK13QMuxQueueItem9serializeEPvtt, __ZNK14_ATCSException4whatEv, 
                       __ZNK15ATCSTimerDriver14getCurrentTimeEv, __ZNK19QMIServerConnection10checkReadyEv, 
                       __ZNK3Tlv6Reader10getDWordAtEt, __ZNK3Tlv6Reader10getFloatAtEt, 
                       __ZNK3Tlv6Reader10getQWordAtEt, __ZNK3Tlv6Reader11getDoubleAtEt, 
                       __ZNK3Tlv6Reader16getStringFieldAtEt, __ZNK3Tlv6Reader9getByteAtEt, 
                       __ZNK3Tlv6Reader9getDataAtEtt, __ZNK3Tlv6Reader9getWordAtEt, 
                       __ZNK3qmi11ClientProxy10getSvcTypeEv, __ZNK3qmi11ClientProxy13handleMessageERKN3xpc4dictE, 
                       __ZNK3qmi11ClientProxy18handleMessage_syncERKN3xpc4dictE, 
                       __ZNK3qmi11ClientProxy5State14dumpState_syncEv, __ZNK3qmi11ClientProxy5State18getIndWakeSet_syncEv, 
                       __ZNK3qmi11ClientProxy5State19getStateString_syncEv, __ZNK3qmi11ClientProxy5State20getTxQueueState_syncEv, 
                       __ZNK3qmi11ClientProxy5State7isValidEv, __ZNK3qmi11ClientProxy5State9isStoppedEv, 
                       __ZNK3qmi11ClientProxy7getNameEv, __ZNK3qmi11ClientProxy7isValidEv, 
                       __ZNK3qmi11ClientProxy9isStoppedEv, __ZNK3qmi11ClientProxycvbEv, 
                       __ZNK3qmi12ClientRouter10setHandlerENS_6Client5EventEDn, __ZNK3qmi12ClientRouter10setHandlerENS_6Client5EventENSt3__18functionIFvNS_16SubscriptionTypeEEEE, 
                       __ZNK3qmi12ClientRouter10setHandlerENS_6Client5EventENSt3__18functionIFvNS_16SubscriptionTypeEN3xpc6objectEEEE, 
                       __ZNK3qmi12ClientRouter10setHandlerENS_6Client5EventENSt3__18functionIFvNS_16SubscriptionTypeEN8dispatch5groupEEEE, 
                       __ZNK3qmi12ClientRouter16setIndShouldWakeEtb, __ZNK3qmi12ClientRouter21setIndHandlerInternalEtNSt3__18functionIFvNS_16SubscriptionTypeERK13QMIServiceMsgEEE, 
                       __ZNK3qmi12ClientRouter3getENS_16SubscriptionTypeE, __ZNK3qmi12ClientRouter3hasENS_16SubscriptionTypeE, 
                       __ZNK3qmi12ClientRouter4stopENS_16SubscriptionTypeE, __ZNK3qmi12ClientRouter5startENS_16SubscriptionTypeE, 
                       __ZNK3qmi18QMuxServerAccepter13getAllClientsEv, __ZNK3qmi21QmiClientProxyAdapter16getClientId_syncEv, 
                       __ZNK3qmi21QmiClientProxyAdapter18appendPowerModeSetERNSt3__13setItNS1_4lessItEENS1_9allocatorItEEEENS_12PowerProfileE, 
                       __ZNK3qmi21QmiClientProxyAdapter7simSlotEv, __ZNK3qmi21QmiClientProxyAdapter9dumpStateEv, 
                       __ZNK3qmi6Client10getSvcTypeEv, __ZNK3qmi6Client10setHandlerENS0_5EventEU13block_pointerFvP16dispatch_group_sE, 
                       __ZNK3qmi6Client10setHandlerENS0_5EventEU13block_pointerFvPvE, 
                       __ZNK3qmi6Client10setHandlerENS0_5EventEU13block_pointerFvvE, 
                       __ZNK3qmi6Client13setIndHandlerEtU13block_pointerFvRK13QMIServiceMsgE, 
                       __ZNK3qmi6Client15pushSendBarrierEv, __ZNK3qmi6Client16setIndShouldWakeEtb, 
                       __ZNK3qmi6Client4sendERNS0_9SendProxyE, __ZNK3qmi6Client4stopEv, 
                       __ZNK3qmi6Client5startEv, __ZNK3qmi6Client7getNameEv, __ZNK3qmi6ClientcvNSt3__18weak_ptrINS0_5StateEEEEv, 
                       __ZNK3qmi6Server11getEndpointEv, __ZNK3qmi6Server16registerAccepterERKNSt3__110shared_ptrINS0_8AccepterEEE, 
                       __ZNK4QMux13isPoweredDownEv, __ZNK4QMux16getQMIWakeReasonEv, 
                       __ZNK4QMux5State12getDebugNameEv, __ZNK4QMux5State14dumpState_syncEv, 
                       __ZNK4QMux5State14getPrivateDataEv, __ZNK4QMux5State14isRunning_syncEv, 
                       __ZNK4QMux5State16getQMIWakeReasonEv, __ZNK4QMux5State16stateString_syncEv, 
                       __ZNK4QMux5State18isPoweredDown_syncEv, __ZNK4QMux5State20dumpClientState_syncEv, 
                       __ZNK4QMux5State21powerStateString_syncEv, __ZNK4QMux5State23dumpPowerDownState_syncEv, 
                       __ZNK4QMux5State27dumpClientSummaryState_syncEv, __ZNK4QMux5State4joinEv, 
                       __ZNK4QMux7getNameEv, __ZNK4QMux9dumpStateEv, __ZNK4QMux9isRunningEv, 
                       __ZTI11ATCSCounted, __ZTI13ATCSIPCDriver, __ZTI13QMIServiceMsg, 
                       __ZTI14_ATCSException, __ZTI15ATCSTimerDriver, __ZTI18BBServerConnection, 
                       __ZTI19ATCSRouterIPCDriver, __ZTI19QMIServerConnection, __ZTI21ATCSThreadedIPCDriver, 
                       __ZTI27ATCSFileDescriptorIPCDriver, __ZTIN12ATCSDPCQueue8CallbackE, 
                       __ZTIN3qmi11ClientProxy5StateE, __ZTIN3qmi15EurTransportXPCE, 
                       __ZTIN3qmi17EurTransportLocalE, __ZTIN3qmi18QMuxServerAccepterE, 
                       __ZTIN3qmi21QmiClientProxyAdapterE, __ZTIN4QMux5StateE, __ZTS11ATCSCounted, 
                       __ZTS13ATCSIPCDriver, __ZTS13QMIServiceMsg, __ZTS14_ATCSException, 
                       __ZTS15ATCSTimerDriver, __ZTS18BBServerConnection, __ZTS19ATCSRouterIPCDriver, 
                       __ZTS19QMIServerConnection, __ZTS21ATCSThreadedIPCDriver, 
                       __ZTS27ATCSFileDescriptorIPCDriver, __ZTSN12ATCSDPCQueue8CallbackE, 
                       __ZTSN3qmi11ClientProxy5StateE, __ZTSN3qmi15EurTransportXPCE, 
                       __ZTSN3qmi17EurTransportLocalE, __ZTSN3qmi18QMuxServerAccepterE, 
                       __ZTSN3qmi21QmiClientProxyAdapterE, __ZTSN4QMux5StateE, __ZTV11ATCSCounted, 
                       __ZTV13ATCSIPCDriver, __ZTV13QMIServiceMsg, __ZTV14_ATCSException, 
                       __ZTV15ATCSTimerDriver, __ZTV18BBServerConnection, __ZTV19ATCSRouterIPCDriver, 
                       __ZTV19QMIServerConnection, __ZTV21ATCSThreadedIPCDriver, 
                       __ZTV27ATCSFileDescriptorIPCDriver, __ZTVN12ATCSDPCQueue8CallbackE, 
                       __ZTVN3qmi11ClientProxy5StateE, __ZTVN3qmi15EurTransportXPCE, 
                       __ZTVN3qmi17EurTransportLocalE, __ZTVN3qmi18QMuxServerAccepterE, 
                       __ZTVN3qmi21QmiClientProxyAdapterE, __ZTVN4QMux5StateE, __ZThn48_N3qmi21QmiClientProxyAdapter12connect_syncEv, 
                       __ZThn48_N3qmi21QmiClientProxyAdapter15disconnect_syncEv, 
                       __ZThn48_N3qmi21QmiClientProxyAdapter16invokeReset_syncERKNSt3__112basic_stringIcNS1_11char_traitsIcEENS1_9allocatorIcEEEE, 
                       __ZThn48_N3qmi21QmiClientProxyAdapter19setMaxLogBytes_syncEj, 
                       __ZThn48_N3qmi21QmiClientProxyAdapter19updateLogLevel_syncEN3ctu8LogLevelE, 
                       __ZThn48_N3qmi21QmiClientProxyAdapter8shutdownEv, __ZThn48_N3qmi21QmiClientProxyAdapter9send_syncERKNSt3__110shared_ptrINS_17SerializedMessageEEE, 
                       __ZThn48_NK3qmi21QmiClientProxyAdapter16getClientId_syncEv, 
                       _getMessageIdFromBuffer ]
...
