--- !tapi-tbd
tbd-version:     4
targets:         [ x86_64-macos, arm64e-macos ]
install-name:    '/System/Library/PrivateFrameworks/ANEServices.framework/Versions/A/ANEServices'
exports:
  - targets:         [ x86_64-macos ]
    weak-symbols:    [ __ZTI11rt_i8_param, __ZTI12ZinException, __ZTI12rt_i16_param, 
                       __ZTI12rt_i32_param, __ZTI12rt_i64_param, __ZTI13rt_param_type, 
                       __ZTI15rt_scalar_param, __ZTI15rt_tensor_param, __ZTI18rt_subtensor_param, 
                       __ZTI22RtOperationDescription, __ZTI27RtOperationGraphNodePrivate, 
                       __ZTI29RtRuntimeOperationDescription, __ZTI32RtExpressionOperationDescription, 
                       __ZTINSt3__110__function6__baseIF23ZinComputeProgramStatusyRyEEE, 
                       __ZTINSt3__110__function6__baseIF23ZinComputeProgramStatusyyRyEEE, 
                       __ZTINSt3__110__function6__baseIFbP22RtOperationDescriptionEEE, 
                       __ZTINSt3__110__function6__baseIFbP25RtOperationGraphBlockNodeEEE, 
                       __ZTINSt3__110__function6__baseIFbP32RtOperationGraphOrderedBlockNodeEEE, 
                       __ZTS11rt_i8_param, __ZTS12ZinException, __ZTS12rt_i16_param, 
                       __ZTS12rt_i32_param, __ZTS12rt_i64_param, __ZTS13rt_param_type, 
                       __ZTS15rt_scalar_param, __ZTS15rt_tensor_param, __ZTS18rt_subtensor_param, 
                       __ZTS22RtOperationDescription, __ZTS27RtOperationGraphNodePrivate, 
                       __ZTS29RtRuntimeOperationDescription, __ZTS32RtExpressionOperationDescription, 
                       __ZTSNSt3__110__function6__baseIF23ZinComputeProgramStatusyRyEEE, 
                       __ZTSNSt3__110__function6__baseIF23ZinComputeProgramStatusyyRyEEE, 
                       __ZTSNSt3__110__function6__baseIFbP22RtOperationDescriptionEEE, 
                       __ZTSNSt3__110__function6__baseIFbP25RtOperationGraphBlockNodeEEE, 
                       __ZTSNSt3__110__function6__baseIFbP32RtOperationGraphOrderedBlockNodeEEE ]
  - targets:         [ x86_64-macos, arm64e-macos ]
    symbols:         [ _ANECGetBindingIOTypeFromIOType, _ANECGetIOTypeFromBinding, 
                       _ANEServicesCheckPrivilegedVMAccess, _ANEServicesDeviceClose, 
                       _ANEServicesDeviceOpen, _ANEServicesDeviceUpdateParameters, 
                       _ANEServicesInitializePlatformServices, _ANEServicesProgramCancelAllRequests, 
                       _ANEServicesProgramChainingPrepare, _ANEServicesProgramChainingSetActiveProcedure, 
                       _ANEServicesProgramCompleteAllRequests, _ANEServicesProgramCreate, 
                       _ANEServicesProgramCreateNewInstance, _ANEServicesProgramDestroy, 
                       _ANEServicesProgramInputsReady, _ANEServicesProgramMapMutableWeightsBuffer, 
                       _ANEServicesProgramMemoryMapRequest, _ANEServicesProgramMemoryUnmapRequest, 
                       _ANEServicesProgramOutputSetEnqueue, _ANEServicesProgramPrepare, 
                       _ANEServicesProgramProcessRequestDirect, _ANEServicesProgramStop, 
                       _ANEServicesProgramUnmapMutableWeightsBuffer, _ANEServicesSessionHintRequest, 
                       _ZinComputeProgramAlign, _ZinComputeProgramCollectOperationScheduleInfo, 
                       _ZinComputeProgramCompareCompilerVersion, _ZinComputeProgramCompareLinkerVersion, 
                       _ZinComputeProgramDestroyInitInfo, _ZinComputeProgramFindFvmlib, 
                       _ZinComputeProgramFindFvmlibSpan, _ZinComputeProgramFindSectionByIndex, 
                       _ZinComputeProgramFindSectionByIndexSpan, _ZinComputeProgramGetANEThreadFlavor, 
                       _ZinComputeProgramGetANEThreadFlavorCount, _ZinComputeProgramGetInitSection, 
                       _ZinComputeProgramGetMutableKernelSectionForProcedure, _ZinComputeProgramGetNamesFromMultiPlaneLinear, 
                       _ZinComputeProgramGetNamesFromMultiPlaneTiledCompressed, _ZinComputeProgramGetNamesFromSinglePlaneTiledCompressed, 
                       _ZinComputeProgramGetNamesFromSinglePlaneTiledCompressedMultislice, 
                       _ZinComputeProgramGetNamesFromSinglePlaneUncompressed, _ZinComputeProgramGetOperationByThreadID, 
                       _ZinComputeProgramGetParamNameFromBinding, _ZinComputeProgramGetProcedureANEThreadFlavorCount, 
                       _ZinComputeProgramGetProcedureNameFromGPUThread, _ZinComputeProgramGetProcedureNameFromLCThread, 
                       _ZinComputeProgramGetProcedureNameFromThread, _ZinComputeProgramGetProcedureTDCount, 
                       _ZinComputeProgramIsMutableKernelSection, _ZinComputeProgramMakeInitInfo, 
                       _ZinComputeProgramProcedureGetAneOperations, _ZinComputeProgramRTGetInitInfo, 
                       _ZinComputeProgramRTGetMutableKernelSectionForProcedure, _ZinComputeProgramRTMakeInitInfo, 
                       _ZinComputeProgramValidateLCThread, _ZinComputeProgramValidateNameFromParamBinding, 
                       _ZinComputeProgramValidateNamesFromMultiPlaneLinear, _ZinComputeProgramValidateNamesFromMultiPlaneTiledCompressed, 
                       _ZinComputeProgramValidateNamesFromSinglePlaneTiledCompressed, 
                       _ZinComputeProgramValidateNamesFromSinglePlaneTiledCompressedMultislice, 
                       _ZinComputeProgramValidateNamesFromSinglePlaneUncompressed, 
                       _ZinComputeProgramValidateProcedureNameFromLCThread, _ZinComputeProgramValidateSymbolVariableNamesFromSNEThread, 
                       _ZinIsOutsideBounds, _ZinIsStringOutsideBounds, __Z13RtDeserializePK19ZinComputeProgramRTPKvyPP16RtProcedureGraph, 
                       __Z13ZinAssertImplPKcz, __Z16ZinDumpAnalyticsPKvm, __Z18CreateAddOperationv, 
                       __Z18ZinCreateAnalyticsiPK21ANEStatsRawDataStructPK25ANEStatsPerfCounterStructPKhjPhm, 
                       __Z20CreateEqualOperationv, __Z20CreateRangeOperationyyy, 
                       __Z21CreateDivideOperationv, __Z21CreateModuloOperationv, 
                       __Z22ZinDumpAnalyticsInJSONPKvmPKc, __Z23CreateMultiplyOperationv, 
                       __Z23CreateNotEqualOperationv, __Z23CreateSubtractOperationv, 
                       __Z23ZinComputeProgramRTMakePKvmPP19ZinComputeProgramRT, __Z24CreateBitwiseOrOperationv, 
                       __Z24CreateLeftShiftOperationv, __Z24PerfTracerMetricToStringi, 
                       __Z25CreateBitwiseAndOperationv, __Z25CreateExpressionOperation16RtExpressionType, 
                       __Z25CreateRightShiftOperationv, __Z26CreateDereferenceOperationv, 
                       __Z26CreateGreaterThanOperationv, __Z26PerfTracerCategoryToStringi, 
                       __Z26ZinComputeProgramRTDestroyP19ZinComputeProgramRT, __Z27ANEServicesHandleDeviceOpenPN3ANE17ANEServicesDeviceEP13ANEDeviceInfoP25ANEDeviceParametersStructP13ANEDevicePrivPNS_18ANERequestReceiverE, 
                       __Z27CreateAddImmediateOperationx, __Z27ZinRtRegisterCommandGetTypej, 
                       __Z28ZinRegisterCommandGetAddress23rt_mask_command_word0_t, 
                       __Z28ZinRegisterCommandGetAddress29rt_sequential_command_word0_t, 
                       __Z29ZinComputeAnalyticsBufferSizeiPKhjmm, __Z29ZinRegisterCommandSizeInWords23rt_mask_command_word0_t, 
                       __Z29ZinRegisterCommandSizeInWords29rt_sequential_command_word0_t, 
                       __Z30ZinAnalyticsGetPerfCounterInfoPKhjPA128_c, __Z31CreateGreaterThanEqualOperationv, 
                       __Z31CreateParamOperationDescriptionRKNSt3__112basic_stringIcNS_11char_traitsIcEENS_9allocatorIcEEEE11RtParamType, 
                       __Z32ZinComputeProgramRTGetCpuSubtypePK19ZinComputeProgramRTPi, 
                       __Z32ZinComputeProgramRTGetModelIdentPK19ZinComputeProgramRTPKvS3_PPKc, 
                       __Z32ZinComputeProgramSupportsFeaturePK13ident_commandPKcPb, 
                       __Z32ZinComputeProgramSupportsFeaturePK13ident_commandPKcRb, 
                       __Z33ZinComputeProgramRTGetPlaneFormatRK38RtRuntimePlanarMapOperationDescriptionRj, 
                       __Z33ZinComputeProgramSharedValidAliasRKNSt3__14spanIK8nlist_64Lm18446744073709551615EEEj, 
                       __Z33ZinComputeProgramSupportsFvmlib64PK13ident_commandRb, 
                       __Z34ZinComputeProgramRTGetPlaneStridesRK38RtRuntimePlanarMapOperationDescriptionR18ane_tensor_strides, 
                       __Z35ZinComputeProgramEvalExpressionNodeP9RtContextPK25RtOperationGraphBlockNode, 
                       __Z35ZinComputeProgramRTGetOperationModePK29RtOperationGraphOperationNodeR15RtOperationMode, 
                       __Z36ANEServicesLocateAndOpenHintedDevicePPN3ANE17ANEServicesDeviceEP13ANEDeviceInfoP25ANEDeviceParametersStructP13ANEDevicePrivPNS_19ANEDeviceControllerEPNS_18ANERequestReceiverEiPj, 
                       __Z36ZinComputeProgramRTGetSymbolWithNamePK19ZinComputeProgramRTPKc, 
                       __Z36ZinComputeProgramSupportsProcStartHWPK13ident_commandPb, 
                       __Z37ZinComputeProgramRTGetPlaneDimensionsRK38RtRuntimePlanarMapOperationDescriptionR15ane_tensor_dims, 
                       __Z37ZinComputeProgramRTGetPlaneInterleaveRK38RtRuntimePlanarMapOperationDescriptionRj, 
                       __Z37ZinComputeProgramRTGetProcedureEventsPK20RtProcedureGraphNodeRNSt3__14spanIyLm18446744073709551615EEES5_S5_, 
                       __Z37ZinComputeProgramRTGetSectionWithNamePK19ZinComputeProgramRTPKcS3_, 
                       __Z37ZinComputeProgramRTMakeWithMappedSizePKvmmPP19ZinComputeProgramRT, 
                       __Z38ZinComputeProgramRTGetSymbolWithVmaddrPK19ZinComputeProgramRTy, 
                       __Z38ZinComputeProgramRTHasMutableOperationPK20RtProcedureGraphNodeRNSt3__14spanIbLm18446744073709551615EEE, 
                       __Z38ZinComputeProgramSharedGetIdentCommandPK22aligned_mach_header_64PKvS3_PPK13ident_command, 
                       __Z38ZinComputeProgramSharedMakeSymbolsInitPKvS0_RKNSt3__14spanI21ComputeProgramSegmentLm18446744073709551615EEEPK14symtab_commandRNS2_I20ComputeProgramSymbolLm18446744073709551615EEE, 
                       __Z39ZinComputeProgramRTGetKernelSectionInfoPK20RtProcedureGraphNodeRNSt3__14spanINS3_I27ZinComputeKernelSectionInfoLm18446744073709551615EEELm18446744073709551615EEE, 
                       __Z39ZinComputeProgramRTGetSectionWithVmaddrPK19ZinComputeProgramRTy, 
                       __Z39ZinComputeProgramRTGetSegmentWithVmaddrPK19ZinComputeProgramRTy, 
                       __Z39ZinComputeProgramSharedMakeSegmentsInitRNSt3__14spanI21ComputeProgramSegmentLm18446744073709551615EEEPKvS5_, 
                       __Z39ZinRegisterCommandGetNthRegisterAddress23rt_mask_command_word0_tj, 
                       __Z39ZinRegisterCommandGetNthRegisterAddress29rt_sequential_command_word0_tj, 
                       __Z40ZinComputeProgramGetANETDThreadStateSizePK13ident_commandbPK19ane_thread_state_64PKvS6_Rj, 
                       __Z40ZinComputeProgramRTFindProcedureWithNamePK16RtProcedureGraphRKNSt3__117basic_string_viewIcNS2_11char_traitsIcEEEERPK20RtProcedureGraphNode, 
                       __Z41ZinComputeProgramGetANESegThreadStateSizePK13ident_commandbPK23ane_seg_thread_state_64PKvS6_Rj, 
                       __Z42ZinComputeProgramRTGetJoinedOperationCountPK29RtOperationGraphOperationNodeRm, 
                       __Z42ZinComputeProgramRTGetMachoCompilationModePK19ZinComputeProgramRTR26RtProcedureCompilationMode, 
                       __Z42ZinComputeProgramRTGetMutableProcedureInfoPK19ZinComputeProgramRTPK20RtProcedureGraphNodeR37ZinComputeProgramMutableProcedureInfo, 
                       __Z42ZinComputeProgramSharedMakeRelocationsInitPKvS0_RNSt3__14spanI21ComputeProgramSegmentLm18446744073709551615EEERNS2_I20ComputeProgramSymbolLm18446744073709551615EEE, 
                       __Z42ZinComputeProgramSharedValidateMachOHeaderPKvm, __Z43ZinComputeProgramRTFindProcedureWithAddressPK16RtProcedureGraphyRPK20RtProcedureGraphNode, 
                       __Z43ZinComputeProgramRTGetMaxTDLatencyThresholdPK20RtProcedureGraphNodeRNSt3__14spanIfLm18446744073709551615EEE, 
                       __Z43ZinComputeProgramRTGetProcedureLatencyStatsPK20RtProcedureGraphNodeP24ZinProcedureLatencyStats, 
                       __Z43ZinComputeProgramRTGetProcedureTotalLatencyPK20RtProcedureGraphNodeRy, 
                       __Z43ZinComputeProgramRTHasCompressedIOProcedurePK20RtProcedureGraphNodeRNSt3__14spanIbLm18446744073709551615EEES5_, 
                       __Z43ZinComputeProgramRTHasMultiPlaneIOProcedurePK20RtProcedureGraphNodeRNSt3__14spanIbLm18446744073709551615EEE, 
                       __Z44ZinComputeProgramRTGetMCacheSizeForProcedurePK20RtProcedureGraphNodeRy, 
                       __Z44ZinComputeProgramRTGetNumberOfKernelSectionsPK20RtProcedureGraphNodeRNSt3__14spanImLm18446744073709551615EEE, 
                       __Z44ZinComputeProgramRTGetProcedureBatchSizeInfoPK20RtProcedureGraphNodeR15RtPropertyRange, 
                       __Z44ZinComputeProgramRTGetProcedureFamiliesCountPK19ZinComputeProgramRTRm, 
                       __Z44ZinComputeProgramRTGetProcedureFamiliesNamesPK19ZinComputeProgramRTRNSt3__14spanINS2_17basic_string_viewIcNS2_11char_traitsIcEEEELm18446744073709551615EEE, 
                       __Z44ZinComputeProgramRTGetRuntimeOperationOpcodePK29RtOperationGraphOperationNodeR17RtOperationOpcode, 
                       __Z44ZinComputeProgramRTGetRuntimeProceduresCountPK19ZinComputeProgramRTRKNSt3__117basic_string_viewIcNS2_11char_traitsIcEEEERm, 
                       __Z44ZinRegisterCommandNumberOfRegistersSpecified23rt_mask_command_word0_t, 
                       __Z44ZinRegisterCommandNumberOfRegistersSpecified29rt_sequential_command_word0_t, 
                       __Z46ZinComputeProgramGetAneTDPartitionScheduleInfoPK13ident_commandbPKvjPKcRiS6_RA2_i, 
                       __Z46ZinComputeProgramRTGetANEOperationsDescriptionPK20RtProcedureGraphNodeRNSt3__14spanIPK25RtANEOperationDescriptionLm18446744073709551615EEE, 
                       __Z46ZinComputeProgramRTGetANEOperationsDescriptionPK29RtOperationGraphOperationNodeRNSt3__14spanIPK25RtANEOperationDescriptionLm18446744073709551615EEE, 
                       __Z46ZinComputeProgramSupportsLiveinParamValidRangePK13ident_commandPb, 
                       __Z47ZinComputeProgramRTGetLoadOperationsDescriptionPK20RtProcedureGraphNodeRNSt3__14spanIPK33RtRuntimeLoadOperationDescriptionLm18446744073709551615EEE, 
                       __Z47ZinComputeProgramRTGetLoadOperationsDescriptionPK29RtOperationGraphOperationNodeRNSt3__14spanIPK33RtRuntimeLoadOperationDescriptionLm18446744073709551615EEE, 
                       __Z47ZinComputeProgramSupportsTDThreadStateArgumentsPK13ident_commandPb, 
                       __Z47ZinComputeProgramSupportsTDThreadStateArgumentsPK13ident_commandRb, 
                       __Z48ZinComputeProgramGetANETDThreadStateArgumentSizePK13ident_commandbPK19ane_thread_state_64PKvS6_Rj, 
                       __Z48ZinComputeProgramRTGetAllocOperationsDescriptionPK20RtProcedureGraphNodeRNSt3__14spanIPK34RtRuntimeAllocOperationDescriptionLm18446744073709551615EEE, 
                       __Z48ZinComputeProgramRTGetMaximumProgrammedTdLatencyPK20RtProcedureGraphNodeRNSt3__14spanIjLm18446744073709551615EEE, 
                       __Z48ZinComputeProgramRTGetParamOperationsDescriptionPK20RtProcedureGraphNodeRNSt3__14spanIPK34RtRuntimeParamOperationDescriptionLm18446744073709551615EEE, 
                       __Z48ZinComputeProgramRTGetStoreOperationsDescriptionPK20RtProcedureGraphNodeRNSt3__14spanIPK34RtRuntimeStoreOperationDescriptionLm18446744073709551615EEE, 
                       __Z48ZinComputeProgramRTGetStoreOperationsDescriptionPK29RtOperationGraphOperationNodeRNSt3__14spanIPK34RtRuntimeStoreOperationDescriptionLm18446744073709551615EEE, 
                       __Z48ZinComputeProgramSupportsSegThreadStateArgumentsPK13ident_commandPb, 
                       __Z48ZinComputeProgramSupportsSegThreadStateArgumentsPK13ident_commandRb, 
                       __Z48ZinComputeProgramSupportsSummaryPerformanceStatsPK13ident_commandPb, 
                       __Z48ZinComputeProgramSupportsSummaryPerformanceStatsPK13ident_commandRb, 
                       __Z49ZinComputeProgramGetANEAotMetadataThreadStateSizeRj, 
                       __Z49ZinComputeProgramGetANESegThreadStateArgumentSizePK13ident_commandbPK23ane_seg_thread_state_64PKvS6_Rj, 
                       __Z49ZinComputeProgramRTGetProcedureANEConcurrencyInfoPK20RtProcedureGraphNodeR15RtPropertyRange, 
                       __Z49ZinComputeProgramRTGetProceduresOfProcedureFamilyPK19ZinComputeProgramRTRKNSt3__117basic_string_viewIcNS2_11char_traitsIcEEEERNS2_4spanIPK20RtProcedureGraphNodeLm18446744073709551615EEERm, 
                       __Z49ZinComputeProgramRTGetProceduresOfProcedureFamilyPK20RtProcedureGraphNodeRNSt3__14spanIS1_Lm18446744073709551615EEERm, 
                       __Z49ZinComputeProgramRTProcedureIsMutableSectionOwnerPK20RtProcedureGraphNodeRb, 
                       __Z50ZinComputeProgramRTGetANEOperationDescriptionCountPK20RtProcedureGraphNodeRm, 
                       __Z50ZinComputeProgramSupportsSplitMutableKernelSectionPK13ident_commandPb, 
                       __Z50ZinComputeProgramSupportsSplitMutableKernelSectionPK13ident_commandRb, 
                       __Z52ZinComputeProgramRTGetBufferMapOperationsDescriptionPK20RtProcedureGraphNodeRNSt3__14spanIPK38RtRuntimeBufferMapOperationDescriptionLm18446744073709551615EEE, 
                       __Z52ZinComputeProgramRTGetBufferMapOperationsDescriptionPK29RtOperationGraphOperationNodeRNSt3__14spanIPK38RtRuntimeBufferMapOperationDescriptionLm18446744073709551615EEE, 
                       __Z52ZinComputeProgramRTGetPlanarMapOperationsDescriptionPK20RtProcedureGraphNodeRNSt3__14spanIPK38RtRuntimePlanarMapOperationDescriptionLm18446744073709551615EEE, 
                       __Z52ZinComputeProgramRTGetPlanarMapOperationsDescriptionPK29RtOperationGraphOperationNodeRNSt3__14spanIPK38RtRuntimePlanarMapOperationDescriptionLm18446744073709551615EEE, 
                       __Z53ZinComputeProgramRTGetProcedureRuntimeConcurrencyInfoPK20RtProcedureGraphNodeR15RtPropertyRange, 
                       __Z54ZinComputeProgramRTGetBufferAllocOperationsDescriptionPK20RtProcedureGraphNodeRNSt3__14spanIPK34RtRuntimeAllocOperationDescriptionLm18446744073709551615EEE, 
                       __Z54ZinComputeProgramRTGetBufferAllocOperationsDescriptionPK29RtOperationGraphOperationNodeRNSt3__14spanIPK34RtRuntimeAllocOperationDescriptionLm18446744073709551615EEE, 
                       __Z54ZinComputeProgramRTGetRuntimeOperationDescriptionCountPK20RtProcedureGraphNode17RtOperationOpcodeRm, 
                       __Z56ZinComputeProgramRTGetLoadImmediateOperationsDescriptionPK20RtProcedureGraphNodeRNSt3__14spanIPK42RtRuntimeLoadImmediateOperationDescriptionLm18446744073709551615EEE, 
                       __Z56ZinComputeProgramRTGetLoadImmediateOperationsDescriptionPK29RtOperationGraphOperationNodeRNSt3__14spanIPK42RtRuntimeLoadImmediateOperationDescriptionLm18446744073709551615EEE, 
                       __Z57ZinComputeProgramRTGetRuntimeMapOperationDescriptionCountPK20RtProcedureGraphNodeRmS2_, 
                       __Z57ZinComputeProgramRTGetStoreImmediateOperationsDescriptionPK20RtProcedureGraphNodeRNSt3__14spanIPK43RtRuntimeStoreImmediateOperationDescriptionLm18446744073709551615EEE, 
                       __Z57ZinComputeProgramRTGetStoreImmediateOperationsDescriptionPK29RtOperationGraphOperationNodeRNSt3__14spanIPK43RtRuntimeStoreImmediateOperationDescriptionLm18446744073709551615EEE, 
                       __Z61ZinComputeProgramRTGetModeledPerformanceScenariosForProcedurePK20RtProcedureGraphNodeRNSt3__14spanINS3_I24ThreadModeledPerformanceLm18446744073709551615EEELm18446744073709551615EEE, 
                       __Z61ZinComputeProgramRTGetPatchMutableKernelOperationsDescriptionPK20RtProcedureGraphNodeRNSt3__14spanIP47RtRuntimePatchMutableKernelOperationDescriptionLm18446744073709551615EEE, 
                       __Z66ZinComputeProgramRTGetModeledPerformanceScenariosCountForProcedurePK20RtProcedureGraphNodeRm, 
                       __Z72ZinComputeProgramRTGetRuntimePatchMutableKernelOperationDescriptionCountPK20RtProcedureGraphNodeRm, 
                       __ZN10ANEMetrics10StartTimerEv, __ZN10ANEMetrics12ClearSamplesEv, 
                       __ZN10ANEMetrics17GetMetricsSummaryEP18_ANEMetricsSummary, 
                       __ZN10ANEMetrics19PrintMetricsSummaryEv, __ZN10ANEMetrics9AddSampleEyy, 
                       __ZN10ANEMetrics9StopTimerEv, __ZN10ANEMetricsC1Ej, __ZN10ANEMetricsC2Ej, 
                       __ZN10ANEMetricsD1Ev, __ZN10ANEMetricsD2Ev, __ZN12ANEAnalytics22IsVariableLengthStringE17AnalyticsDataType, 
                       __ZN12ANEDebugInfo14DebugInfoInMem12EncodeStringERKNSt3__112basic_stringIcNS1_11char_traitsIcEENS1_9allocatorIcEEEE, 
                       __ZN12ANEDebugInfo14DebugInfoInMem9AddStringERKNSt3__112basic_stringIcNS1_11char_traitsIcEENS1_9allocatorIcEEEE, 
                       __ZN12ANEDebugInfo14DebugInfoInMemC1ERKNSt3__112basic_stringIcNS1_11char_traitsIcEENS1_9allocatorIcEEEES9_RKNS_22DebugInfoSerializeModeE, 
                       __ZN12ANEDebugInfo14DebugInfoInMemC1Ev, __ZN12ANEDebugInfo14DebugInfoInMemC2ERKNSt3__112basic_stringIcNS1_11char_traitsIcEENS1_9allocatorIcEEEES9_RKNS_22DebugInfoSerializeModeE, 
                       __ZN12ANEDebugInfo14DebugInfoInMemC2Ev, __ZN12ANEDebugInfo15DebugInfoParser10DebugPrintEv, 
                       __ZN12ANEDebugInfo15DebugInfoParser10ParseGroupEv, __ZN12ANEDebugInfo15DebugInfoParser10ParseLayerERNS_14DebugInfoInMem5GroupE, 
                       __ZN12ANEDebugInfo15DebugInfoParser11MatchRecordEv, __ZN12ANEDebugInfo15DebugInfoParser14ParseHwConfigsEv, 
                       __ZN12ANEDebugInfo15DebugInfoParser14ParseOperationERNS_14DebugInfoInMem5LayerE, 
                       __ZN12ANEDebugInfo15DebugInfoParser14ParsePerfStatsERNS_14DebugInfoInMem2TDE, 
                       __ZN12ANEDebugInfo15DebugInfoParser16ParseIdentStringEv, __ZN12ANEDebugInfo15DebugInfoParser16ParseStringTableEv, 
                       __ZN12ANEDebugInfo15DebugInfoParser18GetCompilationUnitERKNSt3__112basic_stringIcNS1_11char_traitsIcEENS1_9allocatorIcEEEES9_, 
                       __ZN12ANEDebugInfo15DebugInfoParser18GetCompilationUnitEm, 
                       __ZN12ANEDebugInfo15DebugInfoParser19ParsePerfTracerInfoERNS_14DebugInfoInMem2TDE, 
                       __ZN12ANEDebugInfo15DebugInfoParser31ParseMaxContextLatencyThresholdEv, 
                       __ZN12ANEDebugInfo15DebugInfoParser33ParseViolateMaxContextLatencyFlagERNS_14DebugInfoInMem2TDE, 
                       __ZN12ANEDebugInfo15DebugInfoParser5ParseEv, __ZN12ANEDebugInfo15DebugInfoParser7ParseCUEv, 
                       __ZN12ANEDebugInfo15DebugInfoParser7ParseTDERNS_14DebugInfoInMem5GroupE, 
                       __ZN12ANEDebugInfo15DebugInfoParser8MatchTagENS_3TAGE, __ZN12ANEDebugInfo15DebugInfoParser9ParseProcEv, 
                       __ZN12ANEDebugInfo15DebugInfoParserC1EPKhj, __ZN12ANEDebugInfo15DebugInfoParserC2EPKhj, 
                       __ZN12ANEDebugWork11FirmwareRPCEP29ANEDebugWorkProcessorItemArgs, 
                       __ZN12ANEDebugWork11RPCFileInfoEP37ANEDebugWorkProcessorItemBufferParamsj, 
                       __ZN12ANEDebugWork11RPCFileReadEP37ANEDebugWorkProcessorItemBufferParamsj, 
                       __ZN12ANEDebugWork12RPCFileWriteEP37ANEDebugWorkProcessorItemBufferParamsjb, 
                       __ZN12ANEDebugWorkC1Ev, __ZN12ANEDebugWorkC2Ev, __ZN12ANEDebugWorkD1Ev, 
                       __ZN12ANEDebugWorkD2Ev, __ZN12ZinException12SetLayerInfoERKNSt3__112basic_stringIcNS0_11char_traitsIcEENS0_9allocatorIcEEEES8_S8_S8_, 
                       __ZN12ZinException17SetBasicBlockInfoERKNSt3__112basic_stringIcNS0_11char_traitsIcEENS0_9allocatorIcEEEE, 
                       __ZN12ZinExceptionC1EPKc, __ZN12ZinExceptionC2EPKc, __ZN16RtOperationGraph11AddCondNodeEP29RtOperationGraphConditionNode, 
                       __ZN16RtOperationGraph11AddLoopNodeEP24RtOperationGraphLoopNode, 
                       __ZN16RtOperationGraph12AddBlockNodeEP25RtOperationGraphBlockNode, 
                       __ZN16RtOperationGraph16AddOperationNodeEP29RtOperationGraphOperationNode, 
                       __ZN16RtOperationGraph19AddOrderedBlockNodeEP32RtOperationGraphOrderedBlockNode, 
                       __ZN16RtOperationGraph19RemoveOperationNodeEP29RtOperationGraphOperationNode, 
                       __ZN16RtOperationGraphD1Ev, __ZN16RtOperationGraphD2Ev, __ZN16RtProcedureGraph7AddNodeEv, 
                       __ZN16RtProcedureGraphD1Ev, __ZN16RtProcedureGraphD2Ev, __ZN18RtOperationStorage10RemoveNodeERP20RtOperationGraphNode, 
                       __ZN18RtOperationStorage11AddCondNodeEv, __ZN18RtOperationStorage11AddLoopNodeEv, 
                       __ZN18RtOperationStorage12AddBlockNodeEv, __ZN18RtOperationStorage16AddOperationNodeEv, 
                       __ZN18RtOperationStorage19AddOrderedBlockNodeEv, __ZN20RtOperationGraphNode25GetMutableSyncAdjacenciesEv, 
                       __ZN20RtOperationGraphNode26GetMutableAsyncAdjacenciesEv, 
                       __ZN20RtOperationGraphNode4CopyEPKS_RKNSt3__112basic_stringIcNS2_11char_traitsIcEENS2_9allocatorIcEEEERNS2_3setIS8_NS2_4lessIS8_EENS6_IS8_EEEE, 
                       __ZN20RtOperationGraphNodeD0Ev, __ZN20RtOperationGraphNodeD1Ev, 
                       __ZN20RtOperationGraphNodeD2Ev, __ZN20RtProcedureGraphNode12AddSuccessorEv, 
                       __ZN20RtProcedureGraphNode14AddPredecessorEv, __ZN20RtProcedureGraphNodeD1Ev, 
                       __ZN20RtProcedureGraphNodeD2Ev, __ZN20ZinRtDeserializeUtil14SetLower32BitsERxj, 
                       __ZN20ZinRtDeserializeUtil14SetLower32BitsERyj, __ZN20ZinRtDeserializeUtil14SetUpper32BitsERxj, 
                       __ZN20ZinRtDeserializeUtil14SetUpper32BitsERyj, __ZN20ZinRtDeserializeUtil19ParseDataDependencyEP20RtProcedureGraphNodeP22RtOperationDescriptionRNS_20ZinRtCommandIteratorE, 
                       __ZN20ZinRtDeserializeUtil20ZinRtCommandIterator14IsValidCommandERKNSt3__14spanIKjLm18446744073709551615EEE, 
                       __ZN20ZinRtDeserializeUtil20ZinRtCommandIterator9NextValueEv, 
                       __ZN20ZinRtDeserializeUtil20ZinRtCommandIteratorC1ERKNSt3__14spanIKjLm18446744073709551615EEE, 
                       __ZN20ZinRtDeserializeUtil20ZinRtCommandIteratorC2ERKNSt3__14spanIKjLm18446744073709551615EEE, 
                       __ZN20ZinRtDeserializeUtil22CheckRuntimeDataAccessEPKvmRKNSt3__14spanIKjLm18446744073709551615EEE, 
                       __ZN20ZinRtDeserializeUtil22HandleOperationCommandEPK19ZinComputeProgramRTP20RtProcedureGraphNodeP22RtOperationDescriptionRNS_20ZinRtCommandIteratorE, 
                       __ZN20ZinRtDeserializeUtil23ParseProcedureAdjacencyEP16RtProcedureGraphP20RtProcedureGraphNodeRNS_20ZinRtCommandIteratorE, 
                       __ZN20ZinRtDeserializeUtil24FindBlockNodeAtVMAddressEPK20RtProcedureGraphNodey, 
                       __ZN20ZinRtDeserializeUtil27ParseNonJoinedNodeAdjacencyEPK20RtProcedureGraphNodeP20RtOperationGraphNodeRNS_20ZinRtCommandIteratorE, 
                       __ZN20ZinRtDeserializeUtil28AllocateOperationDescriptionE15RtOperationModeb17RtOperationOpcode18RtMapOperationType16RtExpressionType11RtParamType, 
                       __ZN20ZinRtDeserializeUtil29ParseJoinedOperationAdjacencyEPK20RtProcedureGraphNodeRNS_20ZinRtCommandIteratorERbRP29RtOperationGraphOperationNode, 
                       __ZN20ZinRtDeserializeUtil31FindDataDependentSourceByVmaddrEPK20RtProcedureGraphNodey, 
                       __ZN20ZinRtDeserializeUtil31FindOperationGraphNodeByAddressEPK20RtProcedureGraphNodey, 
                       __ZN20ZinRtDeserializeUtil31FindOrderedBlockNodeAtVMAddressEPK20RtProcedureGraphNodey, 
                       __ZN20ZinRtDeserializeUtil32ResolveDataDependencyByVMAddressEPK20RtProcedureGraphNodeyNSt3__18functionIFbP22RtOperationDescriptionEEENS4_IFbP32RtOperationGraphOrderedBlockNodeEEENS4_IFbP25RtOperationGraphBlockNodeEEE, 
                       __ZN20ZinRtDeserializeUtil35FindOperationDescriptionAtVMAddressEPK20RtProcedureGraphNodey, 
                       __ZN20ZinRtDeserializeUtil37ExtractSymbolNameFromSymbolTableIndexEPK19ZinComputeProgramRTjRNSt3__117basic_string_viewIcNS3_11char_traitsIcEEEE, 
                       __ZN20ZinRtDeserializeUtil47FindOperationGraphOperationDescriptionByAddressEPK20RtProcedureGraphNodey, 
                       __ZN22RtOperationAdjacencies12AddSuccessorEv, __ZN22RtOperationAdjacencies14AddPredecessorEv, 
                       __ZN22RtOperationAdjacencies15RemoveSuccessorEP20RtOperationGraphNode, 
                       __ZN22RtOperationAdjacencies17RemovePredecessorEP20RtOperationGraphNode, 
                       __ZN22RtOperationDescription4InitENSt3__117basic_string_viewIcNS0_11char_traitsIcEEEEj, 
                       __ZN22RtProcedureAdjacencies12AddSuccessorEv, __ZN22RtProcedureAdjacencies14AddPredecessorEv, 
                       __ZN23ZinRtProcedureGraphUtil14IsANEOperationEPK22RtOperationDescription, 
                       __ZN23ZinRtProcedureGraphUtil14IsMapOperationEPK22RtOperationDescription, 
                       __ZN23ZinRtProcedureGraphUtil15IsLoadOperationEPK22RtOperationDescription, 
                       __ZN23ZinRtProcedureGraphUtil16IsAllocOperationEPK22RtOperationDescription, 
                       __ZN23ZinRtProcedureGraphUtil16IsParamOperationEPK22RtOperationDescription, 
                       __ZN23ZinRtProcedureGraphUtil16IsRsyncOperationEPK22RtOperationDescription, 
                       __ZN23ZinRtProcedureGraphUtil16IsStoreOperationEPK22RtOperationDescription, 
                       __ZN23ZinRtProcedureGraphUtil16IsTableBlockNodeEPK20RtOperationGraphNode, 
                       __ZN23ZinRtProcedureGraphUtil17RtGraphParseTableEPK32RtOperationGraphOrderedBlockNodePK20RtProcedureGraphNodePK9RtContextRNSt3__113unordered_mapIyNS_20table_element_info_tENS9_4hashIyEENS9_8equal_toIyEENS9_9allocatorINS9_4pairIKySB_EEEEEERm, 
                       __ZN23ZinRtProcedureGraphUtil18CalculateDSIDValueEPK20RtProcedureGraphNodei11RtParamTypeRj, 
                       __ZN23ZinRtProcedureGraphUtil18IsBarrierOperationEPK22RtOperationDescription, 
                       __ZN23ZinRtProcedureGraphUtil18IsBaseMapOperationEPK22RtOperationDescription, 
                       __ZN23ZinRtProcedureGraphUtil18IsPaddingOperationEPK22RtOperationDescription, 
                       __ZN23ZinRtProcedureGraphUtil18IsRuntimeOperationEPK22RtOperationDescription, 
                       __ZN23ZinRtProcedureGraphUtil18IsTextMapOperationEPK22RtOperationDescription, 
                       __ZN23ZinRtProcedureGraphUtil19ValidateVmaddressesEPK20RtProcedureGraphNode, 
                       __ZN23ZinRtProcedureGraphUtil20IsBufferMapOperationEPK22RtOperationDescription, 
                       __ZN23ZinRtProcedureGraphUtil20IsPlanarMapOperationEPK22RtOperationDescription, 
                       __ZN23ZinRtProcedureGraphUtil21IsExpressionBlockNodeEPK20RtOperationGraphNode, 
                       __ZN23ZinRtProcedureGraphUtil21IsExpressionOperationEPK22RtOperationDescription, 
                       __ZN23ZinRtProcedureGraphUtil23MakeOperationGraphRootsEP16RtOperationGraph, 
                       __ZN23ZinRtProcedureGraphUtil23MakeProcedureGraphRootsEP16RtProcedureGraph, 
                       __ZN23ZinRtProcedureGraphUtil24IsLoadImmediateOperationEPK22RtOperationDescription, 
                       __ZN23ZinRtProcedureGraphUtil25GetGraphNodeForTableEntryEmRKNSt3__113unordered_mapIyNS_20table_element_info_tENS0_4hashIyEENS0_8equal_toIyEENS0_9allocatorINS0_4pairIKyS2_EEEEEEPK20RtProcedureGraphNode, 
                       __ZN23ZinRtProcedureGraphUtil25IsStoreImmediateOperationEPK22RtOperationDescription, 
                       __ZN23ZinRtProcedureGraphUtil26IsRangeExpressionOperationEPK22RtOperationDescription, 
                       __ZN23ZinRtProcedureGraphUtil26IsUnaryExpressionOperationEPK22RtOperationDescription, 
                       __ZN23ZinRtProcedureGraphUtil27IsBinaryExpressionOperationEPK22RtOperationDescription, 
                       __ZN23ZinRtProcedureGraphUtil29IsPatchMutableKernelOperationEPK22RtOperationDescription, 
                       __ZN23ZinRtProcedureGraphUtil30IsImmediateExpressionOperationEPK22RtOperationDescription, 
                       __ZN23ZinRtProcedureGraphUtil32RtGraphFindRootExprOpInExprBlockEPK25RtOperationGraphBlockNodeRP32RtExpressionOperationDescription, 
                       __ZN23ZinRtProcedureGraphUtil33IsAddImmediateExpressionOperationEPK22RtOperationDescription, 
                       __ZN23ZinRtProcedureGraphUtil36GetOperationDescriptionForTableEntryEmRKNSt3__113unordered_mapIyNS_20table_element_info_tENS0_4hashIyEENS0_8equal_toIyEENS0_9allocatorINS0_4pairIKyS2_EEEEEEPK20RtProcedureGraphNode, 
                       __ZN23ZinRtProcedureGraphUtil44RtGraphCreateVmAddrToOperationDescriptionMapEPK20RtProcedureGraphNodeRNSt3__113unordered_mapIyP29RtRuntimeOperationDescriptionNS3_4hashIyEENS3_8equal_toIyEENS3_9allocatorINS3_4pairIKyS6_EEEEEE, 
                       __ZN23ZinRtProcedureGraphUtil44RtGraphGetLeafProcedureFromRootProcedureNodeEPK20RtProcedureGraphNodeRNSt3__14spanIS2_Lm18446744073709551615EEERm, 
                       __ZN23ZinRtProcedureGraphUtil49RtGraphGetLeafProcedureCountFromRootProcedureNodeEPK20RtProcedureGraphNode, 
                       __ZN24RtOperationGraphLoopNode14GetLoopCounterEv, __ZN24RtOperationGraphLoopNode4CopyEPK20RtOperationGraphNodeRKNSt3__112basic_stringIcNS3_11char_traitsIcEENS3_9allocatorIcEEEERNS3_3setIS9_NS3_4lessIS9_EENS7_IS9_EEEE, 
                       __ZN24RtOperationGraphLoopNode7SetAddrEy, __ZN24ZinIrCompilerParamsUtils24ConvertCsvStringToVectorERKNSt3__112basic_stringIcNS0_11char_traitsIcEENS0_9allocatorIcEEEERNS0_6vectorIxNS4_IxEEEENS0_8optionalIxEE, 
                       __ZN24ZinIrCompilerParamsUtils24PerfTracerConfigToStringERK19ZinPerfTracerConfig, 
                       __ZN24ZinIrCompilerParamsUtils24PerfTracerMetricToStringE16PerfTracerMetric, 
                       __ZN24ZinIrCompilerParamsUtils24StringToPerfTracerConfigERKNSt3__112basic_stringIcNS0_11char_traitsIcEENS0_9allocatorIcEEEER19ZinPerfTracerConfig, 
                       __ZN24ZinIrCompilerParamsUtils25HasValidPerfTracerConfigsERK19ZinPerfTracerConfigS2_, 
                       __ZN24ZinIrCompilerParamsUtils26PerfTracerCategoryToStringE18PerfTracerCategory, 
                       __ZN25RtANEOperationDescription20UpdateDataDependencyEPK20RtProcedureGraphNode, 
                       __ZN25RtANEOperationDescriptionD0Ev, __ZN25RtANEOperationDescriptionD1Ev, 
                       __ZN25RtANEOperationDescriptionD2Ev, __ZN25RtOperationGraphBlockNode4CopyEPK20RtOperationGraphNodeRKNSt3__112basic_stringIcNS3_11char_traitsIcEENS3_9allocatorIcEEEERNS3_3setIS9_NS3_4lessIS9_EENS7_IS9_EEEE, 
                       __ZN25RtOperationGraphBlockNodeD0Ev, __ZN25RtOperationGraphBlockNodeD1Ev, 
                       __ZN25RtOperationGraphBlockNodeD2Ev, __ZN29RtOperationGraphBlockNodeBase18IsOrderedBlockTypeE15RtBlockNodeType, 
                       __ZN29RtOperationGraphBlockNodeBase7SetAddrEy, __ZN29RtOperationGraphBlockNodeBaseD0Ev, 
                       __ZN29RtOperationGraphBlockNodeBaseD1Ev, __ZN29RtOperationGraphBlockNodeBaseD2Ev, 
                       __ZN29RtOperationGraphConditionNode4CopyEPK20RtOperationGraphNodeRKNSt3__112basic_stringIcNS3_11char_traitsIcEENS3_9allocatorIcEEEERNS3_3setIS9_NS3_4lessIS9_EENS7_IS9_EEEE, 
                       __ZN29RtOperationGraphConditionNode7SetAddrEy, __ZN29RtOperationGraphOperationNode4CopyEPK20RtOperationGraphNodeRKNSt3__112basic_stringIcNS3_11char_traitsIcEENS3_9allocatorIcEEEERNS3_3setIS9_NS3_4lessIS9_EENS7_IS9_EEEE, 
                       __ZN29RtOperationGraphOperationNode7SetAddrEy, __ZN29RtOperationGraphOperationNodeD0Ev, 
                       __ZN29RtOperationGraphOperationNodeD1Ev, __ZN29RtOperationGraphOperationNodeD2Ev, 
                       __ZN32RtANEOperationDescriptionPrivateD1Ev, __ZN32RtANEOperationDescriptionPrivateD2Ev, 
                       __ZN32RtExpressionOperationDescription4CopyERKS_, __ZN32RtOperationGraphOrderedBlockNode10UpdateNextEPK20RtProcedureGraphNode, 
                       __ZN32RtOperationGraphOrderedBlockNode4CopyEPK20RtOperationGraphNodeRKNSt3__112basic_stringIcNS3_11char_traitsIcEENS3_9allocatorIcEEEERNS3_3setIS9_NS3_4lessIS9_EENS7_IS9_EEEE, 
                       __ZN32RtOperationGraphOrderedBlockNode7AddNodeEP20RtOperationGraphNode, 
                       __ZN32RtRuntimeMapOperationDescription20UpdateDataDependencyEPK20RtProcedureGraphNode, 
                       __ZN33RtRuntimeLoadOperationDescription20UpdateDataDependencyEPK20RtProcedureGraphNode, 
                       __ZN34RtRuntimeParamOperationDescriptionD0Ev, __ZN34RtRuntimeParamOperationDescriptionD1Ev, 
                       __ZN34RtRuntimeParamOperationDescriptionD2Ev, __ZN34RtRuntimeRsyncOperationDescription20UpdateDataDependencyEPK20RtProcedureGraphNode, 
                       __ZN34RtRuntimeStoreOperationDescription20UpdateDataDependencyEPK20RtProcedureGraphNode, 
                       __ZN36RtRuntimeBarrierOperationDescription20UpdateDataDependencyEPK20RtProcedureGraphNode, 
                       __ZN37RtUnaryExpressionOperationDescription20UpdateDataDependencyEPK20RtProcedureGraphNode, 
                       __ZN38RtBinaryExpressionOperationDescription20UpdateDataDependencyEPK20RtProcedureGraphNode, 
                       __ZN38RtRuntimePlanarMapOperationDescriptionD0Ev, __ZN38RtRuntimePlanarMapOperationDescriptionD1Ev, 
                       __ZN38RtRuntimePlanarMapOperationDescriptionD2Ev, __ZN3ANE14ANEDriverDebug14ANE_GetNumANEsEPh, 
                       __ZN3ANE14ANEDriverDebug18ANEDriverDebugOpenEv, __ZN3ANE14ANEDriverDebug19ANEDriverDebugCloseEv, 
                       __ZN3ANE14ANEDriverDebug19ANE_GetProcessCountEPj, __ZN3ANE14ANEDriverDebug20EnableDeviceMessagesEv, 
                       __ZN3ANE14ANEDriverDebug21ANE_GetDriverPropertyE17ANEDriverPropertyPj, 
                       __ZN3ANE14ANEDriverDebug21ANE_SetDriverPropertyE17ANEDriverPropertyjy, 
                       __ZN3ANE14ANEDriverDebug21DisableDeviceMessagesEv, __ZN3ANE14ANEDriverDebugC1EPNS_19ANEDeviceControllerEj, 
                       __ZN3ANE14ANEDriverDebugC2EPNS_19ANEDeviceControllerEj, __ZN3ANE14ANEDriverDebugD1Ev, 
                       __ZN3ANE14ANEDriverDebugD2Ev, __ZN3ANE14getFrameFormatEj, 
                       __ZN3ANE15ANEClientLogger31SetFirmwareLoggerThreadPriorityEj, 
                       __ZN3ANE15ANEClientLoggerC1EPNS_16ANEHWDeviceDebugEPFvPvPKcES3_16ANEClientLogTypejj, 
                       __ZN3ANE15ANEClientLoggerC2EPNS_16ANEHWDeviceDebugEPFvPvPKcES3_16ANEClientLogTypejj, 
                       __ZN3ANE15ANEClientLoggerD1Ev, __ZN3ANE15ANEClientLoggerD2Ev, 
                       __ZN3ANE16ANEHWDeviceDebug11ANE_GetTimeEP7ANETime, __ZN3ANE16ANEHWDeviceDebug11ANE_PowerOnEv, 
                       __ZN3ANE16ANEHWDeviceDebug12ANE_PowerOffEv, __ZN3ANE16ANEHWDeviceDebug13ANE_GetStatusEP9ANEStatus, 
                       __ZN3ANE16ANEHWDeviceDebug13ANE_IsPoweredEv, __ZN3ANE16ANEHWDeviceDebug15ANEHWDeviceOpenEPFiPNS_17ANEServicesDeviceEjPvS3_ES3_18ANEDeviceUsageTypeP13ANEDeviceInfo, 
                       __ZN3ANE16ANEHWDeviceDebug15ANE_ExclaveLoadEjPy, __ZN3ANE16ANEHWDeviceDebug15ANE_SendCommandEPhjjj, 
                       __ZN3ANE16ANEHWDeviceDebug16ANEHWDeviceCloseEv, __ZN3ANE16ANEHWDeviceDebug16ANE_ExclaveCycleEv, 
                       __ZN3ANE16ANEHWDeviceDebug16ANE_LoadFirmwareEv, __ZN3ANE16ANEHWDeviceDebug17ANE_ExclaveUnloadEy, 
                       __ZN3ANE16ANEHWDeviceDebug17ReadPropertyValueEjPjj, __ZN3ANE16ANEHWDeviceDebug18ANE_ForgetFirmwareEv, 
                       __ZN3ANE16ANEHWDeviceDebug18ANE_GetClientsInfoEP14ANEClientsInfo, 
                       __ZN3ANE16ANEHWDeviceDebug18WritePropertyValueEjjj, __ZN3ANE16ANEHWDeviceDebug19ANE_ExclaveEvaluateEy, 
                       __ZN3ANE16ANEHWDeviceDebug19ANE_ReadANERegisterEjPj, __ZN3ANE16ANEHWDeviceDebug19ANE_SetDARTCacheTTLEj, 
                       __ZN3ANE16ANEHWDeviceDebug20ANE_FlushTraceBufferEPKcj, __ZN3ANE16ANEHWDeviceDebug20ANE_UnmapDartBuffersEjj, 
                       __ZN3ANE16ANEHWDeviceDebug20ANE_WriteANERegisterEjj, __ZN3ANE16ANEHWDeviceDebug20EnableDeviceMessagesEv, 
                       __ZN3ANE16ANEHWDeviceDebug20GetClientPrivateDataEv, __ZN3ANE16ANEHWDeviceDebug20SetClientPrivateDataEPv, 
                       __ZN3ANE16ANEHWDeviceDebug21ANE_GetDevicePropertyE17ANEDriverPropertyPj, 
                       __ZN3ANE16ANEHWDeviceDebug21ANE_SetDevicePropertyE17ANEDriverPropertyj, 
                       __ZN3ANE16ANEHWDeviceDebug21ANE_SetDevicePropertyE17ANEDriverPropertyjy, 
                       __ZN3ANE16ANEHWDeviceDebug21DisableDeviceMessagesEv, __ZN3ANE16ANEHWDeviceDebug22ANE_SetFirmwareBootArgEjj, 
                       __ZN3ANE16ANEHWDeviceDebug22ANE_SetPowerManagementEj, __ZN3ANE16ANEHWDeviceDebug23ANE_AddPersistentClientEv, 
                       __ZN3ANE16ANEHWDeviceDebug23ANE_MPMMemoryMapRequestEyy, __ZN3ANE16ANEHWDeviceDebug25ANE_MPMMemoryUnmapRequestEy, 
                       __ZN3ANE16ANEHWDeviceDebug25ANE_SetDynamicPowerGatingEj, __ZN3ANE16ANEHWDeviceDebug25ANE_ShowModelMemoryStatusEv, 
                       __ZN3ANE16ANEHWDeviceDebug26ANE_RemovePersistentClientEv, 
                       __ZN3ANE16ANEHWDeviceDebug27ANE_GetThrottlingPercentageEPj, 
                       __ZN3ANE16ANEHWDeviceDebug27ANE_SetThrottlingPercentageEj, 
                       __ZN3ANE16ANEHWDeviceDebug28ANE_ExclaveReadPropertyValueEjPj, 
                       __ZN3ANE16ANEHWDeviceDebug29ANE_ExclaveWritePropertyValueEjj, 
                       __ZN3ANE16ANEHWDeviceDebug29ANE_FWSharedEventDoorbellRingEv, 
                       __ZN3ANE16ANEHWDeviceDebug29ANE_FlushInactiveDARTMappingsEv, 
                       __ZN3ANE16ANEHWDeviceDebug29ANE_GetDebugWorkProcessorItemEjP29ANEDebugWorkProcessorItemArgs, 
                       __ZN3ANE16ANEHWDeviceDebug30ANE_CreateClientLoggingSessionEj16ANEClientLogType, 
                       __ZN3ANE16ANEHWDeviceDebug30ANE_RegisterDebugWorkProcessorEP37ANEDebugWorkProcessorRegistrationArgs, 
                       __ZN3ANE16ANEHWDeviceDebug31ANE_ShowSharedMemoryAllocationsEv, 
                       __ZN3ANE16ANEHWDeviceDebug32ANE_SetPowerGatingHysteresisTimeEj, 
                       __ZN3ANE16ANEHWDeviceDebug32ANE_UnregisterDebugWorkProcessorEj, 
                       __ZN3ANE16ANEHWDeviceDebug33ANE_TerminateClientLoggingSessionEj, 
                       __ZN3ANE16ANEHWDeviceDebug34ANE_CompleteDebugWorkProcessorItemEjP29ANEDebugWorkProcessorItemArgs, 
                       __ZN3ANE16ANEHWDeviceDebug36ANE_ReleaseDebugWorkProcessorBuffersEj, 
                       __ZN3ANE16ANEHWDeviceDebug37RegisterDeviceMessageNotificationProcEPFiPNS_17ANEServicesDeviceEjPvS3_ES3_, 
                       __ZN3ANE16ANEHWDeviceDebugC1EPNS_19ANEDeviceControllerEj, 
                       __ZN3ANE16ANEHWDeviceDebugC2EPNS_19ANEDeviceControllerEj, 
                       __ZN3ANE16ANEHWDeviceDebugD1Ev, __ZN3ANE16ANEHWDeviceDebugD2Ev, 
                       __ZN3ANE17ANECreateCVBufferEjjjj14ANEFrameFormatbjjjbjb, __ZN3ANE17ANEServicesDevice13ANEDeviceOpenEPFiPS0_jPvS2_ES2_18ANEDeviceUsageTypeP13ANEDeviceInfo, 
                       __ZN3ANE17ANEServicesDevice13ANE_GetStatusEP9ANEStatus, __ZN3ANE17ANEServicesDevice14ANEDeviceCloseEv, 
                       __ZN3ANE17ANEServicesDevice17ANE_ProgramCreateEP20ANEProgramCreateArgsP26ANEProgramCreateArgsOutput, 
                       __ZN3ANE17ANEServicesDevice18ANE_ProgramDestroyEP21ANEProgramDestroyArgs, 
                       __ZN3ANE17ANEServicesDevice18ANE_ProgramPrepareEP21ANEProgramPrepareArgs, 
                       __ZN3ANE17ANEServicesDevice20ANE_ProgramUnprepareEP21ANEProgramPrepareArgs, 
                       __ZN3ANE17ANEServicesDevice20EnableDeviceMessagesEv, __ZN3ANE17ANEServicesDevice21ANE_CancelAllRequestsEv, 
                       __ZN3ANE17ANEServicesDevice21DisableDeviceMessagesEv, __ZN3ANE17ANEServicesDevice22ANE_ProgramInputsReadyEP24ANEInputBuffersReadyArgs, 
                       __ZN3ANE17ANEServicesDevice22ANE_ProgramSendRequestEP21ANEProgramRequestArgsjbP18ANEReqCallbackData, 
                       __ZN3ANE17ANEServicesDevice22ANE_SessionHintRequestEP18ANESessionHintArgsP20ANESessionHintOutput, 
                       __ZN3ANE17ANEServicesDevice25ANE_ProgramCreateInstanceEP30ANEClientProgramInstanceParamsP26ANEProgramCreateArgsOutput, 
                       __ZN3ANE17ANEServicesDevice26ANE_ProgramChainingPrepareEP29ANEProgramChainingPrepareArgsP31ANEProgramChainingPrepareOutput, 
                       __ZN3ANE17ANEServicesDevice27ANE_MapMutableWeightsBufferER20ANEProgramHandleArgsRyS3_, 
                       __ZN3ANE17ANEServicesDevice27ANE_ProgramMemoryMapRequestEP18ANEMemoryMapParamsb, 
                       __ZN3ANE17ANEServicesDevice27ANE_ProgramOutputSetEnqueueEP30ANEBufferSetEnqueueRequestArgs, 
                       __ZN3ANE17ANEServicesDevice29ANE_GetDebugWorkProcessorItemEjP29ANEDebugWorkProcessorItemArgs, 
                       __ZN3ANE17ANEServicesDevice29ANE_ProgramMemoryUnMapRequestEP18ANEMemoryMapParams, 
                       __ZN3ANE17ANEServicesDevice29ANE_UnmapMutableWeightsBufferEyPKc, 
                       __ZN3ANE17ANEServicesDevice30ANE_RegisterDebugWorkProcessorEP37ANEDebugWorkProcessorRegistrationArgs, 
                       __ZN3ANE17ANEServicesDevice32ANE_UnregisterDebugWorkProcessorEj, 
                       __ZN3ANE17ANEServicesDevice34ANE_CompleteDebugWorkProcessorItemEjP29ANEDebugWorkProcessorItemArgs, 
                       __ZN3ANE17ANEServicesDevice36ANE_ReleaseDebugWorkProcessorBuffersEj, 
                       __ZN3ANE17ANEServicesDevice37ANE_ProgramChainingSetActiveProcedureEP35ANEChainingSetActiveProcedureParams, 
                       __ZN3ANE17ANEServicesDevice37RegisterDeviceMessageNotificationProcEPFiPS0_jPvS2_ES2_, 
                       __ZN3ANE17ANEServicesDeviceC1EPNS_19ANEDeviceControllerEj, 
                       __ZN3ANE17ANEServicesDeviceC2EPNS_19ANEDeviceControllerEj, 
                       __ZN3ANE17ANEServicesDeviceD1Ev, __ZN3ANE17ANEServicesDeviceD2Ev, 
                       __ZN3ANE18ANEAckCloseRequestEv, __ZN3ANE18ANERequestReceiver11stopReceiveEv, 
                       __ZN3ANE18ANERequestReceiver12startReceiveEv, __ZN3ANE18ANERequestReceiver13NoDataTimeoutEP16__CFRunLoopTimerPv, 
                       __ZN3ANE18ANERequestReceiver13syncFrameDoneEPNS_25ANERequestReceiverRequestEP18ANEReqCallbackData, 
                       __ZN3ANE18ANERequestReceiver15stopNoDataTimerEv, __ZN3ANE18ANERequestReceiver16startNoDataTimerEv, 
                       __ZN3ANE18ANERequestReceiver17tickleNoDataTimerEv, __ZN3ANE18ANERequestReceiver19completeAllRequestsEv, 
                       __ZN3ANE18ANERequestReceiver20setupRequestReceiverEv, __ZN3ANE18ANERequestReceiver21ProgramProcessRequestERNS_25ANERequestReceiverRequestEP15ANESharedEventsb, 
                       __ZN3ANE18ANERequestReceiver21releaseRequestBuffersEPNS_25ANERequestReceiverRequestE, 
                       __ZN3ANE18ANERequestReceiver23registerMessageCallbackEPFvjjjPvS1_S1_ES1_, 
                       __ZN3ANE18ANERequestReceiver24addIODispatcherToRunLoopEv, 
                       __ZN3ANE18ANERequestReceiver25registerANEServicesDeviceEPNS_17ANEServicesDeviceE, 
                       __ZN3ANE18ANERequestReceiver29removeIODispatcherFromRunLoopEv, 
                       __ZN3ANE18ANERequestReceiver30registerRequestReceiveCallbackEPFvPvPNS_25ANERequestReceiverRequestEES1_, 
                       __ZN3ANE18ANERequestReceiver9FrameDoneEPviPyi, __ZN3ANE18ANERequestReceiverC1EPNS_17ANEServicesDeviceE, 
                       __ZN3ANE18ANERequestReceiverC2EPNS_17ANEServicesDeviceE, __ZN3ANE18ANERequestReceiverD1Ev, 
                       __ZN3ANE18ANERequestReceiverD2Ev, __ZN3ANE19ANEDeviceController21SetupDeviceControllerEv, 
                       __ZN3ANE19ANEDeviceControllerC1EPFiPS0_PvS2_ES2_, __ZN3ANE19ANEDeviceControllerC2EPFiPS0_PvS2_ES2_, 
                       __ZN3ANE19ANEDeviceControllerD1Ev, __ZN3ANE19ANEDeviceControllerD2Ev, 
                       __ZN3ANE20ANEThreadReadySyncer15signalAndUnlockEv, __ZN3ANE20ANEThreadReadySyncer4lockEv, 
                       __ZN3ANE20ANEThreadReadySyncer4waitEv, __ZN3ANE20ANEThreadReadySyncerC1Ev, 
                       __ZN3ANE20ANEThreadReadySyncerC2Ev, __ZN3ANE20ANEThreadReadySyncerD1Ev, 
                       __ZN3ANE20ANEThreadReadySyncerD2Ev, __ZN3ANE20createAttributerDictEjjjjjjijbj, 
                       __ZN3ANE21ANEBufferFormatConfigE14ANEFrameFormatjb, __ZN3ANE21ANECFLocalMessagePort16SetDispatchQueueEPU28objcproto17OS_dispatch_queue8NSObject, 
                       __ZN3ANE21ANECFLocalMessagePortC1EPK10__CFStringPFPK8__CFDataP15__CFMessagePortiS6_PvEPFvS8_S9_ES9_, 
                       __ZN3ANE21ANECFLocalMessagePortC2EPK10__CFStringPFPK8__CFDataP15__CFMessagePortiS6_PvEPFvS8_S9_ES9_, 
                       __ZN3ANE21ANECFLocalMessagePortD0Ev, __ZN3ANE21ANECFLocalMessagePortD1Ev, 
                       __ZN3ANE21ANECFLocalMessagePortD2Ev, __ZN3ANE21ANECreateCVBufferPoolEjjjj14ANEFrameFormatlbjjjbjb, 
                       __ZN3ANE21ANEDebugWorkProcessor11stopReceiveEv, __ZN3ANE21ANEDebugWorkProcessor12startReceiveEv, 
                       __ZN3ANE21ANEDebugWorkProcessor13NoDataTimeoutEP16__CFRunLoopTimerPv, 
                       __ZN3ANE21ANEDebugWorkProcessor15stopNoDataTimerEv, __ZN3ANE21ANEDebugWorkProcessor16startNoDataTimerEv, 
                       __ZN3ANE21ANEDebugWorkProcessor17FlushSurfaceCacheEv, __ZN3ANE21ANEDebugWorkProcessor17tickleNoDataTimerEv, 
                       __ZN3ANE21ANEDebugWorkProcessor23setupDebugWorkProcessorEv, 
                       __ZN3ANE21ANEDebugWorkProcessor24addIODispatcherToRunLoopEv, 
                       __ZN3ANE21ANEDebugWorkProcessor27SetFrameDoneTimeoutDurationEd, 
                       __ZN3ANE21ANEDebugWorkProcessor29removeIODispatcherFromRunLoopEv, 
                       __ZN3ANE21ANEDebugWorkProcessor9WorkReadyEPviPyi, __ZN3ANE21ANEDebugWorkProcessorC1EPNS_17ANEServicesDeviceEPNS_16ANEHWDeviceDebugE, 
                       __ZN3ANE21ANEDebugWorkProcessorC2EPNS_17ANEServicesDeviceEPNS_16ANEHWDeviceDebugE, 
                       __ZN3ANE21ANEDebugWorkProcessorD1Ev, __ZN3ANE21ANEDebugWorkProcessorD2Ev, 
                       __ZN3ANE22ANECFRemoteMessagePort16SetDispatchQueueEPU28objcproto17OS_dispatch_queue8NSObject, 
                       __ZN3ANE22ANECFRemoteMessagePortC1EPK10__CFStringPFvP15__CFMessagePortPvE, 
                       __ZN3ANE22ANECFRemoteMessagePortC2EPK10__CFStringPFvP15__CFMessagePortPvE, 
                       __ZN3ANE22ANECFRemoteMessagePortD0Ev, __ZN3ANE22ANECFRemoteMessagePortD1Ev, 
                       __ZN3ANE22ANECFRemoteMessagePortD2Ev, __ZN3ANE23ANECheckForPendingCloseEv, 
                       __ZN3ANE24ANEGetCFPreferenceNumberEPK10__CFStringS2_i, __ZN3ANE24ANEGetMachThreadPriorityEjPi, 
                       __ZN3ANE24ANEInflateFirmwareBufferEPhmPS0_Pm, __ZN3ANE24ANEIsDelayedCloseFlagSetEv, 
                       __ZN3ANE24ANESetMachThreadPriorityEji, __ZN3ANE24CreateANERequestReceiverEPNS_38ANERequestReceiverCreationParamsStructE, 
                       __ZN3ANE25CreateANEDeviceControllerEPPNS_19ANEDeviceControllerEPFiS1_PvS3_ES3_, 
                       __ZN3ANE25DestroyANERequestReceiverEPNS_18ANERequestReceiverE, 
                       __ZN3ANE26DestroyANEDeviceControllerEPNS_19ANEDeviceControllerE, 
                       __ZN3ANE27CreateANEDebugWorkProcessorEPNS_41ANEDebugWorkProcessorCreationParamsStructE, 
                       __ZN3ANE28ANEEnableSharedServiceThreadEv, __ZN3ANE28ANERequestReceiverBufferPool12activatePoolEv, 
                       __ZN3ANE28ANERequestReceiverBufferPool14allocateBufferEPP10__CVBuffer, 
                       __ZN3ANE28ANERequestReceiverBufferPool14deactivatePoolEv, 
                       __ZN3ANE28ANERequestReceiverBufferPool17ModifyBufferCountEi, 
                       __ZN3ANE28ANERequestReceiverBufferPoolC1ENS_32ANERequestReceiverBufferPoolTypeEjjjjj14ANEFrameFormatbjjjjjjb, 
                       __ZN3ANE28ANERequestReceiverBufferPoolC2ENS_32ANERequestReceiverBufferPoolTypeEjjjjj14ANEFrameFormatbjjjjjjb, 
                       __ZN3ANE28ANERequestReceiverBufferPoolD1Ev, __ZN3ANE28ANERequestReceiverBufferPoolD2Ev, 
                       __ZN3ANE28DestroyANEDebugWorkProcessorEPNS_21ANEDebugWorkProcessorE, 
                       __ZN3ANE32ANESetCurrentThreadAsTerminatingEP15ANEDeviceStruct, 
                       __ZN41RtImmediateExpressionOperationDescription20UpdateDataDependencyEPK20RtProcedureGraphNode, 
                       __ZN43RtRuntimeStoreImmediateOperationDescription20UpdateDataDependencyEPK20RtProcedureGraphNode, 
                       __ZNK12ANEDebugInfo14DebugInfoInMem14GetStringTableEv, __ZNK12ANEDebugInfo14DebugInfoInMem4DumpERNSt3__113basic_ostreamIcNS1_11char_traitsIcEEEE, 
                       __ZNK12ANEDebugInfo14DebugInfoInMem7GetModeEv, __ZNK12ANEDebugInfo14DebugInfoInMem9GetStringEj, 
                       __ZNK12ANEDebugInfo15DebugInfoParser10CheckTokenENS_4ATTRE, 
                       __ZNK12ANEDebugInfo15DebugInfoParser5PrintEv, __ZNK12ZinException12GetLayerInfoEv, 
                       __ZNK12ZinException17GetBasicBlockInfoEv, __ZNK16RtOperationGraph16GetLoopNodeCountEv, 
                       __ZNK16RtOperationGraph16LoopNodeListHeadEv, __ZNK16RtOperationGraph17BlockNodeListHeadEv, 
                       __ZNK16RtOperationGraph17GetBlockNodeCountEv, __ZNK16RtOperationGraph21ConditionNodeListHeadEv, 
                       __ZNK16RtOperationGraph21GetConditionNodeCountEv, __ZNK16RtOperationGraph21GetOperationNodeCountEv, 
                       __ZNK16RtOperationGraph21OperationNodeListHeadEv, __ZNK16RtOperationGraph24GetOrderedBlockNodeCountEv, 
                       __ZNK16RtOperationGraph24OrderedBlockNodeListHeadEv, __ZNK16RtProcedureGraph12GetNodeCountEv, 
                       __ZNK16RtProcedureGraph15GetNodeListHeadEv, __ZNK18RtOperationStorage16GetLoopNodeCountEv, 
                       __ZNK18RtOperationStorage16LoopNodeIteratorEv, __ZNK18RtOperationStorage17BlockNodeIteratorEv, 
                       __ZNK18RtOperationStorage17GetBlockNodeCountEv, __ZNK18RtOperationStorage21ConditionNodeIteratorEv, 
                       __ZNK18RtOperationStorage21GetConditionNodeCountEv, __ZNK18RtOperationStorage21GetOperationNodeCountEv, 
                       __ZNK18RtOperationStorage21OperationNodeIteratorEv, __ZNK18RtOperationStorage24GetOrderedBlockNodeCountEv, 
                       __ZNK18RtOperationStorage24OrderedBlockNodeIteratorEv, __ZNK20RtOperationGraphNode11GetNodeTypeEv, 
                       __ZNK20RtOperationGraphNode18GetSyncAdjacenciesEv, __ZNK20RtOperationGraphNode19GetAsyncAdjacenciesEv, 
                       __ZNK20RtProcedureGraphNode17GetSuccessorCountEv, __ZNK20RtProcedureGraphNode19GetPredecessorCountEv, 
                       __ZNK20RtProcedureGraphNode20GetSuccessorListHeadEv, __ZNK20RtProcedureGraphNode21SuccessorListContainsEPS_, 
                       __ZNK20RtProcedureGraphNode22GetPredecessorListHeadEv, __ZNK20RtProcedureGraphNode23PredecessorListContainsEPS_, 
                       __ZNK20ZinRtDeserializeUtil20ZinRtCommandIterator11FieldNumberEv, 
                       __ZNK20ZinRtDeserializeUtil20ZinRtCommandIterator11SizeInWordsEv, 
                       __ZNK20ZinRtDeserializeUtil20ZinRtCommandIterator26NumberOfRegistersSpecifiedEv, 
                       __ZNK22RtOperationAdjacencies17GetSuccessorCountEv, __ZNK22RtOperationAdjacencies19GetPredecessorCountEv, 
                       __ZNK22RtOperationAdjacencies20GetSuccessorListHeadEv, __ZNK22RtOperationAdjacencies21SuccessorListContainsEP20RtOperationGraphNode, 
                       __ZNK22RtOperationAdjacencies22GetPredecessorListHeadEv, __ZNK22RtOperationAdjacencies23PredecessorListContainsEP20RtOperationGraphNode, 
                       __ZNK22RtProcedureAdjacencies17GetSuccessorCountEv, __ZNK22RtProcedureAdjacencies19GetPredecessorCountEv, 
                       __ZNK22RtProcedureAdjacencies20GetSuccessorListHeadEv, __ZNK22RtProcedureAdjacencies21SuccessorListContainsEP20RtProcedureGraphNode, 
                       __ZNK22RtProcedureAdjacencies22GetPredecessorListHeadEv, __ZNK22RtProcedureAdjacencies23PredecessorListContainsEP20RtProcedureGraphNode, 
                       __ZNK24RtOperationGraphLoopNode7GetAddrEv, __ZNK25RtANEOperationDescription5CloneERKNSt3__112basic_stringIcNS0_11char_traitsIcEENS0_9allocatorIcEEEERNS0_3setIS6_NS0_4lessIS6_EENS4_IS6_EEEE, 
                       __ZNK29RtOperationGraphBlockNodeBase7GetAddrEv, __ZNK29RtOperationGraphBlockNodeBase9IsOrderedEv, 
                       __ZNK29RtOperationGraphConditionNode7GetAddrEv, __ZNK29RtOperationGraphOperationNode7GetAddrEv, 
                       __ZNK32RtOperationGraphOrderedBlockNode15GetNodeListHeadEv, 
                       __ZNK32RtOperationGraphOrderedBlockNode9NodeCountEv, __ZNK32RtRuntimeMapOperationDescription5CloneERKNSt3__112basic_stringIcNS0_11char_traitsIcEENS0_9allocatorIcEEEERNS0_3setIS6_NS0_4lessIS6_EENS4_IS6_EEEE, 
                       __ZNK33RtRuntimeLoadOperationDescription5CloneERKNSt3__112basic_stringIcNS0_11char_traitsIcEENS0_9allocatorIcEEEERNS0_3setIS6_NS0_4lessIS6_EENS4_IS6_EEEE, 
                       __ZNK34RtRuntimeAllocOperationDescription5CloneERKNSt3__112basic_stringIcNS0_11char_traitsIcEENS0_9allocatorIcEEEERNS0_3setIS6_NS0_4lessIS6_EENS4_IS6_EEEE, 
                       __ZNK34RtRuntimeParamOperationDescription12GetParamTypeEv, 
                       __ZNK34RtRuntimeParamOperationDescription5CloneERKNSt3__112basic_stringIcNS0_11char_traitsIcEENS0_9allocatorIcEEEERNS0_3setIS6_NS0_4lessIS6_EENS4_IS6_EEEE, 
                       __ZNK34RtRuntimeParamOperationDescription9GetFormatEv, __ZNK34RtRuntimeRsyncOperationDescription5CloneERKNSt3__112basic_stringIcNS0_11char_traitsIcEENS0_9allocatorIcEEEERNS0_3setIS6_NS0_4lessIS6_EENS4_IS6_EEEE, 
                       __ZNK34RtRuntimeStoreOperationDescription5CloneERKNSt3__112basic_stringIcNS0_11char_traitsIcEENS0_9allocatorIcEEEERNS0_3setIS6_NS0_4lessIS6_EENS4_IS6_EEEE, 
                       __ZNK36RtRuntimeBarrierOperationDescription5CloneERKNSt3__112basic_stringIcNS0_11char_traitsIcEENS0_9allocatorIcEEEERNS0_3setIS6_NS0_4lessIS6_EENS4_IS6_EEEE, 
                       __ZNK36RtRuntimePaddingOperationDescription5CloneERKNSt3__112basic_stringIcNS0_11char_traitsIcEENS0_9allocatorIcEEEERNS0_3setIS6_NS0_4lessIS6_EENS4_IS6_EEEE, 
                       __ZNK37RtRangeExpressionOperationDescription5CloneERKNSt3__112basic_stringIcNS0_11char_traitsIcEENS0_9allocatorIcEEEERNS0_3setIS6_NS0_4lessIS6_EENS4_IS6_EEEE, 
                       __ZNK37RtUnaryExpressionOperationDescription5CloneERKNSt3__112basic_stringIcNS0_11char_traitsIcEENS0_9allocatorIcEEEERNS0_3setIS6_NS0_4lessIS6_EENS4_IS6_EEEE, 
                       __ZNK38RtBinaryExpressionOperationDescription5CloneERKNSt3__112basic_stringIcNS0_11char_traitsIcEENS0_9allocatorIcEEEERNS0_3setIS6_NS0_4lessIS6_EENS4_IS6_EEEE, 
                       __ZNK38RtRuntimeBufferMapOperationDescription5CloneERKNSt3__112basic_stringIcNS0_11char_traitsIcEENS0_9allocatorIcEEEERNS0_3setIS6_NS0_4lessIS6_EENS4_IS6_EEEE, 
                       __ZNK38RtRuntimePlanarMapOperationDescription5CloneERKNSt3__112basic_stringIcNS0_11char_traitsIcEENS0_9allocatorIcEEEERNS0_3setIS6_NS0_4lessIS6_EENS4_IS6_EEEE, 
                       __ZNK3ANE21ANECFLocalMessagePort16GetRunLoopSourceEv, __ZNK3ANE22ANECFRemoteMessagePort16GetRunLoopSourceEv, 
                       __ZNK41RtImmediateExpressionOperationDescription5CloneERKNSt3__112basic_stringIcNS0_11char_traitsIcEENS0_9allocatorIcEEEERNS0_3setIS6_NS0_4lessIS6_EENS4_IS6_EEEE, 
                       __ZNK42RtRuntimeLoadImmediateOperationDescription5CloneERKNSt3__112basic_stringIcNS0_11char_traitsIcEENS0_9allocatorIcEEEERNS0_3setIS6_NS0_4lessIS6_EENS4_IS6_EEEE, 
                       __ZNK43RtRuntimeStoreImmediateOperationDescription5CloneERKNSt3__112basic_stringIcNS0_11char_traitsIcEENS0_9allocatorIcEEEERNS0_3setIS6_NS0_4lessIS6_EENS4_IS6_EEEE, 
                       __ZNK46RtUnaryImmediateExpressionOperationDescription5CloneERKNSt3__112basic_stringIcNS0_11char_traitsIcEENS0_9allocatorIcEEEERNS0_3setIS6_NS0_4lessIS6_EENS4_IS6_EEEE, 
                       __ZNK47RtRuntimePatchMutableKernelOperationDescription5CloneERKNSt3__112basic_stringIcNS0_11char_traitsIcEENS0_9allocatorIcEEEERNS0_3setIS6_NS0_4lessIS6_EENS4_IS6_EEEE, 
                       __ZTI20RtOperationGraphNode, __ZTI24RtOperationGraphLoopNode, 
                       __ZTI25RtANEOperationDescription, __ZTI25RtOperationGraphBlockNode, 
                       __ZTI29RtOperationGraphBlockNodeBase, __ZTI29RtOperationGraphConditionNode, 
                       __ZTI29RtOperationGraphOperationNode, __ZTI32RtOperationGraphOrderedBlockNode, 
                       __ZTI32RtRuntimeMapOperationDescription, __ZTI33RtRuntimeLoadOperationDescription, 
                       __ZTI34RtRuntimeAllocOperationDescription, __ZTI34RtRuntimeParamOperationDescription, 
                       __ZTI34RtRuntimeRsyncOperationDescription, __ZTI34RtRuntimeStoreOperationDescription, 
                       __ZTI36RtRuntimeBarrierOperationDescription, __ZTI36RtRuntimePaddingOperationDescription, 
                       __ZTI37RtRangeExpressionOperationDescription, __ZTI37RtUnaryExpressionOperationDescription, 
                       __ZTI38RtBinaryExpressionOperationDescription, __ZTI38RtRuntimeBufferMapOperationDescription, 
                       __ZTI38RtRuntimePlanarMapOperationDescription, __ZTI41RtImmediateExpressionOperationDescription, 
                       __ZTI42RtRuntimeLoadImmediateOperationDescription, __ZTI43RtRuntimeStoreImmediateOperationDescription, 
                       __ZTI46RtUnaryImmediateExpressionOperationDescription, __ZTI47RtRuntimePatchMutableKernelOperationDescription, 
                       __ZTIN3ANE21ANECFLocalMessagePortE, __ZTIN3ANE22ANECFRemoteMessagePortE, 
                       __ZTS20RtOperationGraphNode, __ZTS24RtOperationGraphLoopNode, 
                       __ZTS25RtANEOperationDescription, __ZTS25RtOperationGraphBlockNode, 
                       __ZTS29RtOperationGraphBlockNodeBase, __ZTS29RtOperationGraphConditionNode, 
                       __ZTS29RtOperationGraphOperationNode, __ZTS32RtOperationGraphOrderedBlockNode, 
                       __ZTS32RtRuntimeMapOperationDescription, __ZTS33RtRuntimeLoadOperationDescription, 
                       __ZTS34RtRuntimeAllocOperationDescription, __ZTS34RtRuntimeParamOperationDescription, 
                       __ZTS34RtRuntimeRsyncOperationDescription, __ZTS34RtRuntimeStoreOperationDescription, 
                       __ZTS36RtRuntimeBarrierOperationDescription, __ZTS36RtRuntimePaddingOperationDescription, 
                       __ZTS37RtRangeExpressionOperationDescription, __ZTS37RtUnaryExpressionOperationDescription, 
                       __ZTS38RtBinaryExpressionOperationDescription, __ZTS38RtRuntimeBufferMapOperationDescription, 
                       __ZTS38RtRuntimePlanarMapOperationDescription, __ZTS41RtImmediateExpressionOperationDescription, 
                       __ZTS42RtRuntimeLoadImmediateOperationDescription, __ZTS43RtRuntimeStoreImmediateOperationDescription, 
                       __ZTS46RtUnaryImmediateExpressionOperationDescription, __ZTS47RtRuntimePatchMutableKernelOperationDescription, 
                       __ZTSN3ANE21ANECFLocalMessagePortE, __ZTSN3ANE22ANECFRemoteMessagePortE, 
                       __ZTV20RtOperationGraphNode, __ZTV24RtOperationGraphLoopNode, 
                       __ZTV25RtANEOperationDescription, __ZTV25RtOperationGraphBlockNode, 
                       __ZTV29RtOperationGraphBlockNodeBase, __ZTV29RtOperationGraphConditionNode, 
                       __ZTV29RtOperationGraphOperationNode, __ZTV32RtOperationGraphOrderedBlockNode, 
                       __ZTV32RtRuntimeMapOperationDescription, __ZTV33RtRuntimeLoadOperationDescription, 
                       __ZTV34RtRuntimeAllocOperationDescription, __ZTV34RtRuntimeParamOperationDescription, 
                       __ZTV34RtRuntimeRsyncOperationDescription, __ZTV34RtRuntimeStoreOperationDescription, 
                       __ZTV36RtRuntimeBarrierOperationDescription, __ZTV36RtRuntimePaddingOperationDescription, 
                       __ZTV37RtRangeExpressionOperationDescription, __ZTV37RtUnaryExpressionOperationDescription, 
                       __ZTV38RtBinaryExpressionOperationDescription, __ZTV38RtRuntimeBufferMapOperationDescription, 
                       __ZTV38RtRuntimePlanarMapOperationDescription, __ZTV41RtImmediateExpressionOperationDescription, 
                       __ZTV42RtRuntimeLoadImmediateOperationDescription, __ZTV43RtRuntimeStoreImmediateOperationDescription, 
                       __ZTV46RtUnaryImmediateExpressionOperationDescription, __ZTV47RtRuntimePatchMutableKernelOperationDescription, 
                       __ZTVN3ANE21ANECFLocalMessagePortE, __ZTVN3ANE22ANECFRemoteMessagePortE, 
                       _debugFwStatsData, _fAneSubType, _fDriverLoggingFlags ]
    objc-classes:    [ ANEServicesLog ]
    weak-symbols:    [ __Z30ZinComputeProgramSharedDestroyI17ZinComputeProgramEvPT_, 
                       __Z30ZinComputeProgramSharedDestroyI19ZinComputeProgramRTEvPT_, 
                       __Z34ZinComputeProgramSharedMakeCleanupI17ZinComputeProgramEvPT_, 
                       __Z34ZinComputeProgramSharedMakeCleanupI19ZinComputeProgramRTEvPT_, 
                       __Z34ZinComputeProgramSharedMakeSymbolsI17ZinComputeProgramE23ZinComputeProgramStatusPT_, 
                       __Z34ZinComputeProgramSharedMakeSymbolsI19ZinComputeProgramRTE23ZinComputeProgramStatusPT_, 
                       __Z34ZinComputeProgramSharedValidHeaderI17ZinComputeProgramEbPKvmm, 
                       __Z34ZinComputeProgramSharedValidHeaderI19ZinComputeProgramRTEbPKvmm, 
                       __Z35ZinComputeProgramSharedMakeSegmentsI17ZinComputeProgramE23ZinComputeProgramStatusPT_, 
                       __Z35ZinComputeProgramSharedMakeSegmentsI19ZinComputeProgramRTE23ZinComputeProgramStatusPT_, 
                       __Z36ZinComputeProgramSharedGetCpuSubtypeI17ZinComputeProgramE23ZinComputeProgramStatusPKT_Pi, 
                       __Z36ZinComputeProgramSharedGetCpuSubtypeI19ZinComputeProgramRTE23ZinComputeProgramStatusPKT_Pi, 
                       __Z36ZinComputeProgramSharedGetModelIdentI17ZinComputeProgramE23ZinComputeProgramStatusPKT_PKvS6_PPKc, 
                       __Z36ZinComputeProgramSharedGetModelIdentI19ZinComputeProgramRTE23ZinComputeProgramStatusPKT_PKvS6_PPKc, 
                       __Z38ZinComputeProgramSharedMakeRelocationsI17ZinComputeProgramE23ZinComputeProgramStatusPT_, 
                       __Z38ZinComputeProgramSharedMakeRelocationsI19ZinComputeProgramRTE23ZinComputeProgramStatusPT_, 
                       __Z40ZinComputeProgramSharedGetSymbolWithNameI17ZinComputeProgramEPK20ComputeProgramSymbolPKT_PKc, 
                       __Z40ZinComputeProgramSharedGetSymbolWithNameI19ZinComputeProgramRTEPK20ComputeProgramSymbolPKT_PKc, 
                       __Z41ZinComputeProgramSharedGetSectionWithNameI17ZinComputeProgramEP21ComputeProgramSectionPKT_PKcS7_, 
                       __Z41ZinComputeProgramSharedGetSectionWithNameI19ZinComputeProgramRTEP21ComputeProgramSectionPKT_PKcS7_, 
                       __Z42ZinComputeProgramSharedGetSymbolWithVmaddrI17ZinComputeProgramEPK20ComputeProgramSymbolPKT_y, 
                       __Z42ZinComputeProgramSharedGetSymbolWithVmaddrI19ZinComputeProgramRTEPK20ComputeProgramSymbolPKT_y, 
                       __Z43ZinComputeProgramSharedGetSectionWithVmaddrI17ZinComputeProgramEPK21ComputeProgramSectionPKT_y, 
                       __Z43ZinComputeProgramSharedGetSectionWithVmaddrI19ZinComputeProgramRTEPK21ComputeProgramSectionPKT_y, 
                       __Z43ZinComputeProgramSharedGetSegmentWithVmaddrI17ZinComputeProgramEPK21ComputeProgramSegmentPKT_y, 
                       __Z43ZinComputeProgramSharedGetSegmentWithVmaddrI19ZinComputeProgramRTEPK21ComputeProgramSegmentPKT_y, 
                       __Z46ZinComputeProgramSharedMakeCountDataStructuresI17ZinComputeProgramE23ZinComputeProgramStatusPT_, 
                       __Z46ZinComputeProgramSharedMakeCountDataStructuresI19ZinComputeProgramRTE23ZinComputeProgramStatusPT_, 
                       __ZN22RtOperationNodeStorageI24RtOperationGraphLoopNodeE10RemoveNodeERPS0_, 
                       __ZN22RtOperationNodeStorageI24RtOperationGraphLoopNodeE7AddNodeEv, 
                       __ZN22RtOperationNodeStorageI24RtOperationGraphLoopNodeE8IteratorC1ENSt3__125__hash_map_const_iteratorINS3_21__hash_const_iteratorIPNS3_11__hash_nodeINS3_17__hash_value_typeIPS0_NS3_10unique_ptrIS0_NS3_14default_deleteIS0_EEEEEEPvEEEEEESI_, 
                       __ZN22RtOperationNodeStorageI24RtOperationGraphLoopNodeE8IteratorC1Ev, 
                       __ZN22RtOperationNodeStorageI24RtOperationGraphLoopNodeE8IteratorC2ENSt3__125__hash_map_const_iteratorINS3_21__hash_const_iteratorIPNS3_11__hash_nodeINS3_17__hash_value_typeIPS0_NS3_10unique_ptrIS0_NS3_14default_deleteIS0_EEEEEEPvEEEEEESI_, 
                       __ZN22RtOperationNodeStorageI24RtOperationGraphLoopNodeE8IteratorC2Ev, 
                       __ZN22RtOperationNodeStorageI25RtOperationGraphBlockNodeE10RemoveNodeERPS0_, 
                       __ZN22RtOperationNodeStorageI25RtOperationGraphBlockNodeE7AddNodeEv, 
                       __ZN22RtOperationNodeStorageI25RtOperationGraphBlockNodeE8IteratorC1ENSt3__125__hash_map_const_iteratorINS3_21__hash_const_iteratorIPNS3_11__hash_nodeINS3_17__hash_value_typeIPS0_NS3_10unique_ptrIS0_NS3_14default_deleteIS0_EEEEEEPvEEEEEESI_, 
                       __ZN22RtOperationNodeStorageI25RtOperationGraphBlockNodeE8IteratorC1Ev, 
                       __ZN22RtOperationNodeStorageI25RtOperationGraphBlockNodeE8IteratorC2ENSt3__125__hash_map_const_iteratorINS3_21__hash_const_iteratorIPNS3_11__hash_nodeINS3_17__hash_value_typeIPS0_NS3_10unique_ptrIS0_NS3_14default_deleteIS0_EEEEEEPvEEEEEESI_, 
                       __ZN22RtOperationNodeStorageI25RtOperationGraphBlockNodeE8IteratorC2Ev, 
                       __ZN22RtOperationNodeStorageI29RtOperationGraphConditionNodeE10RemoveNodeERPS0_, 
                       __ZN22RtOperationNodeStorageI29RtOperationGraphConditionNodeE7AddNodeEv, 
                       __ZN22RtOperationNodeStorageI29RtOperationGraphConditionNodeE8IteratorC1ENSt3__125__hash_map_const_iteratorINS3_21__hash_const_iteratorIPNS3_11__hash_nodeINS3_17__hash_value_typeIPS0_NS3_10unique_ptrIS0_NS3_14default_deleteIS0_EEEEEEPvEEEEEESI_, 
                       __ZN22RtOperationNodeStorageI29RtOperationGraphConditionNodeE8IteratorC1Ev, 
                       __ZN22RtOperationNodeStorageI29RtOperationGraphConditionNodeE8IteratorC2ENSt3__125__hash_map_const_iteratorINS3_21__hash_const_iteratorIPNS3_11__hash_nodeINS3_17__hash_value_typeIPS0_NS3_10unique_ptrIS0_NS3_14default_deleteIS0_EEEEEEPvEEEEEESI_, 
                       __ZN22RtOperationNodeStorageI29RtOperationGraphConditionNodeE8IteratorC2Ev, 
                       __ZN22RtOperationNodeStorageI29RtOperationGraphOperationNodeE10RemoveNodeERPS0_, 
                       __ZN22RtOperationNodeStorageI29RtOperationGraphOperationNodeE7AddNodeEv, 
                       __ZN22RtOperationNodeStorageI29RtOperationGraphOperationNodeE8IteratorC1ENSt3__125__hash_map_const_iteratorINS3_21__hash_const_iteratorIPNS3_11__hash_nodeINS3_17__hash_value_typeIPS0_NS3_10unique_ptrIS0_NS3_14default_deleteIS0_EEEEEEPvEEEEEESI_, 
                       __ZN22RtOperationNodeStorageI29RtOperationGraphOperationNodeE8IteratorC1Ev, 
                       __ZN22RtOperationNodeStorageI29RtOperationGraphOperationNodeE8IteratorC2ENSt3__125__hash_map_const_iteratorINS3_21__hash_const_iteratorIPNS3_11__hash_nodeINS3_17__hash_value_typeIPS0_NS3_10unique_ptrIS0_NS3_14default_deleteIS0_EEEEEEPvEEEEEESI_, 
                       __ZN22RtOperationNodeStorageI29RtOperationGraphOperationNodeE8IteratorC2Ev, 
                       __ZN22RtOperationNodeStorageI32RtOperationGraphOrderedBlockNodeE10RemoveNodeERPS0_, 
                       __ZN22RtOperationNodeStorageI32RtOperationGraphOrderedBlockNodeE7AddNodeEv, 
                       __ZN22RtOperationNodeStorageI32RtOperationGraphOrderedBlockNodeE8IteratorC1ENSt3__125__hash_map_const_iteratorINS3_21__hash_const_iteratorIPNS3_11__hash_nodeINS3_17__hash_value_typeIPS0_NS3_10unique_ptrIS0_NS3_14default_deleteIS0_EEEEEEPvEEEEEESI_, 
                       __ZN22RtOperationNodeStorageI32RtOperationGraphOrderedBlockNodeE8IteratorC1Ev, 
                       __ZN22RtOperationNodeStorageI32RtOperationGraphOrderedBlockNodeE8IteratorC2ENSt3__125__hash_map_const_iteratorINS3_21__hash_const_iteratorIPNS3_11__hash_nodeINS3_17__hash_value_typeIPS0_NS3_10unique_ptrIS0_NS3_14default_deleteIS0_EEEEEEPvEEEEEESI_, 
                       __ZN22RtOperationNodeStorageI32RtOperationGraphOrderedBlockNodeE8IteratorC2Ev, 
                       __ZNK22RtOperationNodeStorageI24RtOperationGraphLoopNodeE11GetIteratorEv, 
                       __ZNK22RtOperationNodeStorageI24RtOperationGraphLoopNodeE5CountEv, 
                       __ZNK22RtOperationNodeStorageI24RtOperationGraphLoopNodeE8Iterator4nextEv, 
                       __ZNK22RtOperationNodeStorageI24RtOperationGraphLoopNodeE8Iterator8GetValueEv, 
                       __ZNK22RtOperationNodeStorageI24RtOperationGraphLoopNodeE8IteratorcvbEv, 
                       __ZNK22RtOperationNodeStorageI24RtOperationGraphLoopNodeE8IteratoreqERKS2_, 
                       __ZNK22RtOperationNodeStorageI24RtOperationGraphLoopNodeE8IteratorneERKS2_, 
                       __ZNK22RtOperationNodeStorageI25RtOperationGraphBlockNodeE11GetIteratorEv, 
                       __ZNK22RtOperationNodeStorageI25RtOperationGraphBlockNodeE5CountEv, 
                       __ZNK22RtOperationNodeStorageI25RtOperationGraphBlockNodeE8Iterator4nextEv, 
                       __ZNK22RtOperationNodeStorageI25RtOperationGraphBlockNodeE8Iterator8GetValueEv, 
                       __ZNK22RtOperationNodeStorageI25RtOperationGraphBlockNodeE8IteratorcvbEv, 
                       __ZNK22RtOperationNodeStorageI25RtOperationGraphBlockNodeE8IteratoreqERKS2_, 
                       __ZNK22RtOperationNodeStorageI25RtOperationGraphBlockNodeE8IteratorneERKS2_, 
                       __ZNK22RtOperationNodeStorageI29RtOperationGraphConditionNodeE11GetIteratorEv, 
                       __ZNK22RtOperationNodeStorageI29RtOperationGraphConditionNodeE5CountEv, 
                       __ZNK22RtOperationNodeStorageI29RtOperationGraphConditionNodeE8Iterator4nextEv, 
                       __ZNK22RtOperationNodeStorageI29RtOperationGraphConditionNodeE8Iterator8GetValueEv, 
                       __ZNK22RtOperationNodeStorageI29RtOperationGraphConditionNodeE8IteratorcvbEv, 
                       __ZNK22RtOperationNodeStorageI29RtOperationGraphConditionNodeE8IteratoreqERKS2_, 
                       __ZNK22RtOperationNodeStorageI29RtOperationGraphConditionNodeE8IteratorneERKS2_, 
                       __ZNK22RtOperationNodeStorageI29RtOperationGraphOperationNodeE11GetIteratorEv, 
                       __ZNK22RtOperationNodeStorageI29RtOperationGraphOperationNodeE5CountEv, 
                       __ZNK22RtOperationNodeStorageI29RtOperationGraphOperationNodeE8Iterator4nextEv, 
                       __ZNK22RtOperationNodeStorageI29RtOperationGraphOperationNodeE8Iterator8GetValueEv, 
                       __ZNK22RtOperationNodeStorageI29RtOperationGraphOperationNodeE8IteratorcvbEv, 
                       __ZNK22RtOperationNodeStorageI29RtOperationGraphOperationNodeE8IteratoreqERKS2_, 
                       __ZNK22RtOperationNodeStorageI29RtOperationGraphOperationNodeE8IteratorneERKS2_, 
                       __ZNK22RtOperationNodeStorageI32RtOperationGraphOrderedBlockNodeE11GetIteratorEv, 
                       __ZNK22RtOperationNodeStorageI32RtOperationGraphOrderedBlockNodeE5CountEv, 
                       __ZNK22RtOperationNodeStorageI32RtOperationGraphOrderedBlockNodeE8Iterator4nextEv, 
                       __ZNK22RtOperationNodeStorageI32RtOperationGraphOrderedBlockNodeE8Iterator8GetValueEv, 
                       __ZNK22RtOperationNodeStorageI32RtOperationGraphOrderedBlockNodeE8IteratorcvbEv, 
                       __ZNK22RtOperationNodeStorageI32RtOperationGraphOrderedBlockNodeE8IteratoreqERKS2_, 
                       __ZNK22RtOperationNodeStorageI32RtOperationGraphOrderedBlockNodeE8IteratorneERKS2_ ]
...
