--- !tapi-tbd-v3
archs:                 [ armv7, armv7s, arm64, arm64e ]
platform:              ios
flags:                 [ flat_namespace ]
install-name:          /System/Library/PrivateFrameworks/CoreRE3DGSFoundation.framework/CoreRE3DGSFoundation
current-version:       0
compatibility-version: 0
objc-constraint:       retain_release
exports:
  - archs:                [ armv7, armv7s, arm64, arm64e ]
    symbols:              [ _CoreRE3DGSFoundationVersionNumber,
                            _CoreRE3DGSFoundationVersionString,
                            __Z13GSVersionHashv,
                            __Z17GetDefaultArchivePU19objcproto9MTLDevice11objc_objectPU15__autoreleasingP7NSError,
                            __Z17GetDefaultLibraryPU19objcproto9MTLDevice11objc_objectPU15__autoreleasingP7NSError,
                            __Z18GetRenderingBundlePKc,
                            __Z20GSVersionNumberMajorv,
                            __Z20GSVersionNumberMinorv,
                            __Z20GSVersionNumberPatchv,
                            __ZN12MetalContext19renderPipelineStateERKNSt3__112basic_stringIcNS0_11char_traitsIcEENS0_9allocatorIcEEEES8_,
                            __ZN12MetalContext20computePipelineStateERKNSt3__112basic_stringIcNS0_11char_traitsIcEENS0_9allocatorIcEEEENS0_8optionalIU8__strongP29MTLStageInputOutputDescriptorEENS9_IU8__strongP25MTLFunctionConstantValuesEE,
                            __ZN12MetalContextC1EPU19objcproto9MTLDevice11objc_objectb,
                            __ZN12MetalContextC2EPU19objcproto9MTLDevice11objc_objectb,
                            __ZN4cv3d9aspenbase11concurrency10ThreadPool4WaitEv,
                            __ZN4cv3d9aspenbase11concurrency10ThreadPoolD1Ev,
                            __ZN4cv3d9aspenbase11concurrency10ThreadPoolD2Ev,
                            __ZN4cv3d9aspenbase11concurrency12AsyncManager6ConfigC1ERKNS1_6Thread6ConfigE,
                            __ZN4cv3d9aspenbase11concurrency12AsyncManager6ConfigC1Em,
                            __ZN4cv3d9aspenbase11concurrency12AsyncManager6ConfigC1EmRKNS1_6Thread6ConfigE,
                            __ZN4cv3d9aspenbase11concurrency12AsyncManager6ConfigC1EmmRKNS1_6Thread6ConfigE,
                            __ZN4cv3d9aspenbase11concurrency12AsyncManager6ConfigC2ERKNS1_6Thread6ConfigE,
                            __ZN4cv3d9aspenbase11concurrency12AsyncManager6ConfigC2Em,
                            __ZN4cv3d9aspenbase11concurrency12AsyncManager6ConfigC2EmRKNS1_6Thread6ConfigE,
                            __ZN4cv3d9aspenbase11concurrency12AsyncManager6ConfigC2EmmRKNS1_6Thread6ConfigE,
                            __ZN4cv3d9aspenbase11concurrency12AsyncManagerC1ERKNS2_6ConfigE,
                            __ZN4cv3d9aspenbase11concurrency12AsyncManagerC1Ejm,
                            __ZN4cv3d9aspenbase11concurrency12AsyncManagerC2ERKNS2_6ConfigE,
                            __ZN4cv3d9aspenbase11concurrency12AsyncManagerC2Ejm,
                            __ZN4cv3d9aspenbase11concurrency12AsyncManagerD1Ev,
                            __ZN4cv3d9aspenbase11concurrency12AsyncManagerD2Ev,
                            __ZN4cv3d9aspenbase11concurrency18GetLogicalCPUCountEv,
                            __ZN4cv3d9aspenbase11concurrency5Mutex11CreateMutexEv,
                            __ZN4cv3d9aspenbase11concurrency5Mutex4LockEv,
                            __ZN4cv3d9aspenbase11concurrency5Mutex6UnlockEv,
                            __ZN4cv3d9aspenbase11concurrency5Mutex7TryLockEv,
                            __ZN4cv3d9aspenbase11concurrency5MutexC1Ev,
                            __ZN4cv3d9aspenbase11concurrency5MutexC2Ev,
                            __ZN4cv3d9aspenbase11concurrency5MutexD1Ev,
                            __ZN4cv3d9aspenbase11concurrency5MutexD2Ev,
                            __ZN4cv3d9aspenbase11concurrency6Locker4LockEv,
                            __ZN4cv3d9aspenbase11concurrency6Locker5RlockEv,
                            __ZN4cv3d9aspenbase11concurrency6Locker6UnlockEv,
                            __ZN4cv3d9aspenbase11concurrency6Locker7UnrlockEv,
                            __ZN4cv3d9aspenbase11concurrency6LockerC1Ev,
                            __ZN4cv3d9aspenbase11concurrency6LockerC2Ev,
                            __ZN4cv3d9aspenbase11concurrency6LockerD1Ev,
                            __ZN4cv3d9aspenbase11concurrency6LockerD2Ev,
                            __ZN4cv3d9aspenbase11concurrency6Thread11thread_funcEPv,
                            __ZN4cv3d9aspenbase11concurrency6Thread19StartOnCallerThreadEv,
                            __ZN4cv3d9aspenbase11concurrency6Thread19ThreadFuncInterfaceD0Ev,
                            __ZN4cv3d9aspenbase11concurrency6Thread19ThreadFuncInterfaceD1Ev,
                            __ZN4cv3d9aspenbase11concurrency6Thread19ThreadFuncInterfaceD2Ev,
                            __ZN4cv3d9aspenbase11concurrency6Thread3RunEv,
                            __ZN4cv3d9aspenbase11concurrency6Thread4WaitEv,
                            __ZN4cv3d9aspenbase11concurrency6Thread5SleepEm,
                            __ZN4cv3d9aspenbase11concurrency6Thread5StartEv,
                            __ZN4cv3d9aspenbase11concurrency6ThreadC1ERKNS2_6ConfigE,
                            __ZN4cv3d9aspenbase11concurrency6ThreadC1ERKNSt3__112basic_stringIcNS3_11char_traitsIcEENS3_9allocatorIcEEEE,
                            __ZN4cv3d9aspenbase11concurrency6ThreadC1Ev,
                            __ZN4cv3d9aspenbase11concurrency6ThreadC2ERKNS2_6ConfigE,
                            __ZN4cv3d9aspenbase11concurrency6ThreadC2ERKNSt3__112basic_stringIcNS3_11char_traitsIcEENS3_9allocatorIcEEEE,
                            __ZN4cv3d9aspenbase11concurrency6ThreadC2Ev,
                            __ZN4cv3d9aspenbase11concurrency6ThreadD0Ev,
                            __ZN4cv3d9aspenbase11concurrency6ThreadD1Ev,
                            __ZN4cv3d9aspenbase11concurrency6ThreadD2Ev,
                            __ZN4cv3d9aspenbase11concurrency8SpinLock4LockEv,
                            __ZN4cv3d9aspenbase11concurrency8SpinLock6UnlockEv,
                            __ZN4cv3d9aspenbase11concurrency8SpinLock7TryLockEv,
                            __ZN4cv3d9aspenbase11concurrency8SpinLockC1Ev,
                            __ZN4cv3d9aspenbase11concurrency8SpinLockC2Ev,
                            __ZN4cv3d9aspenbase11concurrency8SpinLockD1Ev,
                            __ZN4cv3d9aspenbase11concurrency8SpinLockD2Ev,
                            __ZN4cv3d9aspenbase11concurrency9Semaphore4InitEj,
                            __ZN4cv3d9aspenbase11concurrency9Semaphore4PostEj,
                            __ZN4cv3d9aspenbase11concurrency9Semaphore4PostEv,
                            __ZN4cv3d9aspenbase11concurrency9Semaphore4WaitEd,
                            __ZN4cv3d9aspenbase11concurrency9Semaphore4WaitEv,
                            __ZN4cv3d9aspenbase11concurrency9Semaphore7TryWaitEv,
                            __ZN4cv3d9aspenbase11concurrency9SemaphoreC1Ej,
                            __ZN4cv3d9aspenbase11concurrency9SemaphoreC1Ev,
                            __ZN4cv3d9aspenbase11concurrency9SemaphoreC2Ej,
                            __ZN4cv3d9aspenbase11concurrency9SemaphoreC2Ev,
                            __ZN4cv3d9aspenbase11concurrency9SemaphoreD1Ev,
                            __ZN4cv3d9aspenbase11concurrency9SemaphoreD2Ev,
                            __ZN9apple3dgs10CheckAllocEPU8__strongPU19objcproto9MTLBuffer11objc_objectmPU19objcproto9MTLDevice11objc_objectm,
                            __ZN9apple3dgs10CheckAllocEPU8__strongPU21objcproto10MTLTexture11objc_object14MTLPixelFormatjjmPU19objcproto9MTLDevice11objc_object,
                            __ZN9apple3dgs10ToCIFormatE14MTLPixelFormat,
                            __ZN9apple3dgs10scaleImageEfjRNSt3__16vectorIhNS0_9allocatorIhEEEERjS6_,
                            __ZN9apple3dgs11CopyTextureER12MetalContextPU27objcproto16MTLCommandBuffer11objc_objectPU21objcproto10MTLTexture11objc_objectS5_,
                            __ZN9apple3dgs11CopyTextureER12MetalContextPU35objcproto24MTLComputeCommandEncoder11objc_objectPU21objcproto10MTLTexture11objc_objectS5_,
                            __ZN9apple3dgs11ErrorDomainEv,
                            __ZN9apple3dgs11ISortWorker10NeedCreateERNSt3__110unique_ptrIS0_NS1_14default_deleteIS0_EEEERKNS_16SorterDescriptorE,
                            __ZN9apple3dgs11ISortWorker16SetInstanceCountEj,
                            __ZN9apple3dgs11ISortWorker20UpdateIndirectBufferEPU27objcproto16MTLCommandBuffer11objc_objectRKDv2_f,
                            __ZN9apple3dgs11ISortWorker6CreateEPU19objcproto9MTLDevice11objc_objectRKNS_16SorterDescriptorERKNS0_10ParametersEj,
                            __ZN9apple3dgs11ISortWorker8AllocateEj,
                            __ZN9apple3dgs11ISortWorkerC2EPU19objcproto9MTLDevice11objc_objectRKNS0_10ParametersEj,
                            __ZN9apple3dgs11MOVExporter12CaptureFrameERKNSt3__112basic_stringIcNS1_11char_traitsIcEENS1_9allocatorIcEEEEP10__CVBufferdRKNS1_8optionalINS1_6vectorIN4simd8float4x4ENS5_ISF_EEEEEE,
                            __ZN9apple3dgs11MOVExporter15SetFileMetadataERKNSt3__112basic_stringIcNS1_11char_traitsIcEENS1_9allocatorIcEEEERKN8nlohmann16json_abi_v3_11_310basic_jsonINS1_3mapENS1_6vectorES7_bxydS5_NSB_14adl_serializerENSE_IhNS5_IhEEEEvEE,
                            __ZN9apple3dgs11MOVExporter18FlushFrameMetadataEd,
                            __ZN9apple3dgs11MOVExporter19CaptureSampleBufferERKNSt3__112basic_stringIcNS1_11char_traitsIcEENS1_9allocatorIcEEEEP20opaqueCMSampleBufferd,
                            __ZN9apple3dgs11MOVExporter5StartEv,
                            __ZN9apple3dgs11MOVExporter8AddTrackERKNSt3__112basic_stringIcNS1_11char_traitsIcEENS1_9allocatorIcEEEEjjjRK14MTLPixelFormatRKNS_13LayerMetadataEbbfNS1_8optionalIjEESH_,
                            __ZN9apple3dgs11MOVExporterC1ERKNSt3__14__fs10filesystem4pathERKNS1_3mapINS1_12basic_stringIcNS1_11char_traitsIcEENS1_9allocatorIcEEEESD_NS1_4lessISD_EENSB_INS1_4pairIKSD_SD_EEEEEE,
                            __ZN9apple3dgs11MOVExporterC2ERKNSt3__14__fs10filesystem4pathERKNS1_3mapINS1_12basic_stringIcNS1_11char_traitsIcEENS1_9allocatorIcEEEESD_NS1_4lessISD_EENSB_INS1_4pairIKSD_SD_EEEEEE,
                            __ZN9apple3dgs11MOVExporterD0Ev,
                            __ZN9apple3dgs11MOVExporterD1Ev,
                            __ZN9apple3dgs11MOVExporterD2Ev,
                            __ZN9apple3dgs11PeeledAsset16PostProcessDepthEPU27objcproto16MTLCommandBuffer11objc_object,
                            __ZN9apple3dgs11PeeledAsset8SetLayerEjPU21objcproto10MTLTexture11objc_objectS2_13simd_float4x4PU27objcproto16MTLCommandBuffer11objc_object,
                            __ZN9apple3dgs11RadixSorter11ClearBufferEPU35objcproto24MTLComputeCommandEncoder11objc_objectPU19objcproto9MTLBuffer11objc_objectjj,
                            __ZN9apple3dgs11RadixSorter11InitIndicesEPU35objcproto24MTLComputeCommandEncoder11objc_objectPU19objcproto9MTLBuffer11objc_objectj,
                            __ZN9apple3dgs11RadixSorter16ComputeHistogramEPU35objcproto24MTLComputeCommandEncoder11objc_objectPU19objcproto9MTLBuffer11objc_objectS4_jj,
                            __ZN9apple3dgs11RadixSorter19PrefixSumSinglePassEPU35objcproto24MTLComputeCommandEncoder11objc_objectPU19objcproto9MTLBuffer11objc_objectS4_j,
                            __ZN9apple3dgs11RadixSorter22CheckInternalDataAllocEj,
                            __ZN9apple3dgs11RadixSorter4SortEPU27objcproto16MTLCommandBuffer11objc_objectPU19objcproto9MTLBuffer11objc_objectS4_j,
                            __ZN9apple3dgs11RadixSorter4SortEPU35objcproto24MTLComputeCommandEncoder11objc_objectPU19objcproto9MTLBuffer11objc_objectS4_j,
                            __ZN9apple3dgs11RadixSorter7ReorderEPU35objcproto24MTLComputeCommandEncoder11objc_objectPU19objcproto9MTLBuffer11objc_objectS4_S4_S4_S4_jj,
                            __ZN9apple3dgs11RadixSorter9PrefixSumEPU35objcproto24MTLComputeCommandEncoder11objc_objectPU19objcproto9MTLBuffer11objc_objectS4_S4_S4_j,
                            __ZN9apple3dgs11RadixSorterC1ER12MetalContextjbb,
                            __ZN9apple3dgs11RadixSorterC2ER12MetalContextjbb,
                            __ZN9apple3dgs11StopCaptureEPU26objcproto15MTLCaptureScope11objc_object,
                            __ZN9apple3dgs11ToMTLFormatEi,
                            __ZN9apple3dgs12CIImageToMTLEP7CIImagePU19objcproto9MTLDevice11objc_objectP20MTLTextureDescriptorP12CGColorSpace,
                            __ZN9apple3dgs12ComputeEigenERKN4simd8float3x3E,
                            __ZN9apple3dgs12FreetimeData11ParseHeaderERNSt3__113basic_istreamIcNS1_11char_traitsIcEEEE,
                            __ZN9apple3dgs12FreetimeData8LoadFileERKNSt3__14__fs10filesystem4pathE,
                            __ZN9apple3dgs12FreetimeDataC1ERKNSt3__14__fs10filesystem4pathE,
                            __ZN9apple3dgs12FreetimeDataC2ERKNSt3__14__fs10filesystem4pathE,
                            __ZN9apple3dgs12GetTrackNameEPK12AVAssetTrack,
                            __ZN9apple3dgs12StartCaptureEPU8__strongPU26objcproto15MTLCaptureScope11objc_object,
                            __ZN9apple3dgs12TextureCache18GetOrCreateTextureEP10__CVBuffer14MTLPixelFormatm,
                            __ZN9apple3dgs12TextureCache5FlushENSt3__16chrono8durationIxNS1_5ratioILl1ELl1000EEEEE,
                            __ZN9apple3dgs12TextureCacheC1EPU19objcproto9MTLDevice11objc_object,
                            __ZN9apple3dgs12TextureCacheC2EPU19objcproto9MTLDevice11objc_object,
                            __ZN9apple3dgs12UniqueSorter13EncodeSortingEPU27objcproto16MTLCommandBuffer11objc_objectNSt3__14spanIKNS3_10shared_ptrIKNS_5AssetEEELm18446744073709551615EEENS5_IKNS_16SorterDescriptorEEENS5_IKNS_16RenderDescriptorEEEPU15__autoreleasingP7NSError,
                            __ZN9apple3dgs12UniqueSorterC1EPU19objcproto9MTLDevice11objc_objectRKNS_11ISortWorker10ParametersEj,
                            __ZN9apple3dgs12UniqueSorterC2EPU19objcproto9MTLDevice11objc_objectRKNS_11ISortWorker10ParametersEj,
                            __ZN9apple3dgs12loadFreetimeERKNSt3__14__fs10filesystem4pathEPU19objcproto9MTLDevice11objc_objectRKNS_5Asset19AttributeDescriptorEPU15__autoreleasingP7NSError,
                            __ZN9apple3dgs12updateFromTvERNS_5AssetERKNSt3__14__fs10filesystem4pathEjPU15__autoreleasingP7NSError,
                            __ZN9apple3dgs13CPUSortWorker11StopCPUSortEv,
                            __ZN9apple3dgs13CPUSortWorker12StartCPUSortEv,
                            __ZN9apple3dgs13CPUSortWorker12StartRunningEv,
                            __ZN9apple3dgs13CPUSortWorker4LockEv,
                            __ZN9apple3dgs13CPUSortWorker4SortEPU27objcproto16MTLCommandBuffer11objc_objectNS_11ISortWorker3JobE,
                            __ZN9apple3dgs13CPUSortWorker6UnlockEv,
                            __ZN9apple3dgs13CPUSortWorker7ProcessERKNS_11ISortWorker3JobE,
                            __ZN9apple3dgs13CPUSortWorker8AllocateEj,
                            __ZN9apple3dgs13CPUSortWorker9AddJobCPUERKNS_11ISortWorker3JobE,
                            __ZN9apple3dgs13CPUSortWorkerC1EPU19objcproto9MTLDevice11objc_objectRKNS_11ISortWorker10ParametersEj,
                            __ZN9apple3dgs13CPUSortWorkerC2EPU19objcproto9MTLDevice11objc_objectRKNS_11ISortWorker10ParametersEj,
                            __ZN9apple3dgs13CPUSortWorkerD0Ev,
                            __ZN9apple3dgs13CPUSortWorkerD1Ev,
                            __ZN9apple3dgs13CPUSortWorkerD2Ev,
                            __ZN9apple3dgs13GPUSortWorker26GetPrecomputePipelineStateERKNS_5AssetEj,
                            __ZN9apple3dgs13GPUSortWorker4SortEPU27objcproto16MTLCommandBuffer11objc_objectNS_11ISortWorker3JobE,
                            __ZN9apple3dgs13GPUSortWorkerC1EPU19objcproto9MTLDevice11objc_objectRKNS_11ISortWorker10ParametersEj,
                            __ZN9apple3dgs13GPUSortWorkerC2EPU19objcproto9MTLDevice11objc_objectRKNS_11ISortWorker10ParametersEj,
                            __ZN9apple3dgs13GetFileFormatERKNSt3__14__fs10filesystem4pathE,
                            __ZN9apple3dgs13MaxAreaFilterEPU21objcproto10MTLTexture11objc_objectS1_S1_iR12MetalContextPU27objcproto16MTLCommandBuffer11objc_object,
                            __ZN9apple3dgs13MinAreaFilterER12MetalContextPU35objcproto24MTLComputeCommandEncoder11objc_objectPU21objcproto10MTLTexture11objc_objectS5_i,
                            __ZN9apple3dgs13NdcProjectionERKN4simd8float3x3Eff,
                            __ZN9apple3dgs13RGBDPanoToMPIER12MetalContextPU27objcproto16MTLCommandBuffer11objc_objectRKNS_8RGBDPanoERKN4simd8float4x4EfRNS_8DenseMPIE,
                            __ZN9apple3dgs13SetActivationERNS_5AssetENS_14ActivationTypeES2_,
                            __ZN9apple3dgs13VRRDensityMap6UpdateEPU27objcproto16MTLCommandBuffer11objc_objectPU34objcproto23MTLRasterizationRateMap11objc_objectj,
                            __ZN9apple3dgs13VRRDensityMapC1EPU19objcproto9MTLDevice11objc_objectj,
                            __ZN9apple3dgs13VRRDensityMapC2EPU19objcproto9MTLDevice11objc_objectj,
                            __ZN9apple3dgs14CFStringEqualsEPK10__CFStringS2_,
                            __ZN9apple3dgs14DescriptorLikeEPU21objcproto10MTLTexture11objc_object,
                            __ZN9apple3dgs14GetMetadataKeyERKNSt3__112basic_stringIcNS0_11char_traitsIcEENS0_9allocatorIcEEEE,
                            __ZN9apple3dgs14MaxLinearScaleERKN4simd8float4x4E,
                            __ZN9apple3dgs14MultiLayerData20GetTextureFromBufferEjjj14MTLPixelFormatPU19objcproto9MTLBuffer11objc_object,
                            __ZN9apple3dgs14MultiLayerData22GetTexture2DDescriptorEjj14MTLPixelFormatm,
                            __ZN9apple3dgs14MultiLayerData27GetTexture2DArrayDescriptorEjjj14MTLPixelFormatm,
                            __ZN9apple3dgs14MultiLayerDataC1EPU19objcproto9MTLDevice11objc_objectRKNS_17MultiLayerOptionsE14MTLPixelFormatS6_,
                            __ZN9apple3dgs14MultiLayerDataC2EPU19objcproto9MTLDevice11objc_objectRKNS_17MultiLayerOptionsE14MTLPixelFormatS6_,
                            __ZN9apple3dgs14PeeledRenderer16BuildODTPipelineEPU21objcproto10MTLLibrary11objc_objectPU27objcproto16MTLBinaryArchive11objc_object14MTLPixelFormatS5_PU15__autoreleasingP7NSErrorm,
                            __ZN9apple3dgs14PeeledRenderer18BuildBlendPipelineEPU21objcproto10MTLLibrary11objc_objectPU27objcproto16MTLBinaryArchive11objc_object14MTLPixelFormatS5_PU15__autoreleasingP7NSErrorm,
                            __ZN9apple3dgs14PeeledRenderer23BuildImageblockPipelineEPU21objcproto10MTLLibrary11objc_objectPU27objcproto16MTLBinaryArchive11objc_object14MTLPixelFormatPU15__autoreleasingP7NSErrorm,
                            __ZN9apple3dgs14PeeledRenderer24BuildTransparentPipelineEPU21objcproto10MTLLibrary11objc_objectPU27objcproto16MTLBinaryArchive11objc_object14MTLPixelFormatS5_PU15__autoreleasingP7NSErrorm,
                            __ZN9apple3dgs14PeeledRenderer26createRenderPassDescriptorEPU21objcproto10MTLTexture11objc_objectS2_PU34objcproto23MTLRasterizationRateMap11objc_object,
                            __ZN9apple3dgs14PeeledRendererC1EPU19objcproto9MTLDevice11objc_object14MTLPixelFormatS3_PU15__autoreleasingP7NSError,
                            __ZN9apple3dgs14PeeledRendererC2EPU19objcproto9MTLDevice11objc_object14MTLPixelFormatS3_PU15__autoreleasingP7NSError,
                            __ZN9apple3dgs14PowerIterationERKN4simd8float3x3Ej,
                            __ZN9apple3dgs15CheckAllocArrayEPU8__strongPU21objcproto10MTLTexture11objc_object14MTLPixelFormatjjjmPU19objcproto9MTLDevice11objc_object,
                            __ZN9apple3dgs15FinalizeAOTFRV1ER12MetalContextPU27objcproto16MTLCommandBuffer11objc_objectPU21objcproto10MTLTexture11objc_objectS5_,
                            __ZN9apple3dgs15FinalizeAOTFRV2ER12MetalContextPU27objcproto16MTLCommandBuffer11objc_objectPU21objcproto10MTLTexture11objc_objectS5_S5_,
                            __ZN9apple3dgs15FreetimeBuilder12PackRotationEDv4_f,
                            __ZN9apple3dgs15FreetimeBuilder12Pack_8_8_8_8EDv4_f,
                            __ZN9apple3dgs15FreetimeBuilder13Pack_11_10_11EDv3_f,
                            __ZN9apple3dgs15FreetimeBuilder14UnpackRotationEj,
                            __ZN9apple3dgs15FreetimeBuilder14Unpack_8_8_8_8Ej,
                            __ZN9apple3dgs15FreetimeBuilder15Unpack_11_10_11Ej,
                            __ZN9apple3dgs15FreetimeBuilderC1Ejj,
                            __ZN9apple3dgs15FreetimeBuilderC2Ejj,
                            __ZN9apple3dgs15ImportToCIImageERKNSt3__14__fs10filesystem4pathE,
                            __ZN9apple3dgs15LinearRGBToSRGBEDv3_f,
                            __ZN9apple3dgs15LoadLinearImageENSt3__14__fs10filesystem4pathEPU19objcproto9MTLDevice11objc_object14MTLPixelFormat,
                            __ZN9apple3dgs15RenderDataCache19CreateDepthBuffer2DEv,
                            __ZN9apple3dgs15SHCoeffToDegreeEj,
                            __ZN9apple3dgs15SRGBToLinearRGBEDv3_f,
                            __ZN9apple3dgs15TextureExporter12CopyRGBToYUVEPU27objcproto16MTLCommandBuffer11objc_objectPU21objcproto10MTLTexture11objc_objectP11__IOSurface,
                            __ZN9apple3dgs15TextureExporter12GetTrackTimeENS0_9TrackInfoEd,
                            __ZN9apple3dgs15TextureExporter17CaptureMetalFrameERKNSt3__112basic_stringIcNS1_11char_traitsIcEENS1_9allocatorIcEEEEPU21objcproto10MTLTexture11objc_objectPU26objcproto15MTLCommandQueue11objc_objectdRKNS1_8optionalINS1_6vectorIN4simd8float4x4ENS5_ISH_EEEEEE,
                            __ZN9apple3dgs15TextureExporter18SetFrameProjectionERKNSt3__112basic_stringIcNS1_11char_traitsIcEENS1_9allocatorIcEEEERKNS1_6vectorIN4simd8float4x4ENS5_ISC_EEEE,
                            __ZN9apple3dgs15TextureExporter8AddTrackERKNSt3__112basic_stringIcNS1_11char_traitsIcEENS1_9allocatorIcEEEEjjjRK14MTLPixelFormatRKNS_13LayerMetadataEbbfNS1_8optionalIjEESH_,
                            __ZN9apple3dgs15TextureExporterC2ERKNSt3__14__fs10filesystem4pathE,
                            __ZN9apple3dgs15TextureExporterD0Ev,
                            __ZN9apple3dgs15TextureExporterD1Ev,
                            __ZN9apple3dgs15TextureExporterD2Ev,
                            __ZN9apple3dgs15loadDepthPeeledERKNSt3__14__fs10filesystem4pathEPU19objcproto9MTLDevice11objc_objectPU15__autoreleasingP7NSError,
                            __ZN9apple3dgs16GetFrustumPlanesERKN4simd8float4x4E,
                            __ZN9apple3dgs16GetMinimumStrideE18MTLAttributeFormat,
                            __ZN9apple3dgs16LoadCubeMapImageERKNSt3__15arrayINS0_4__fs10filesystem4pathELm6EEEPU19objcproto9MTLDevice11objc_object14MTLPixelFormat,
                            __ZN9apple3dgs16PerformReductionEPU19objcproto9MTLBuffer11objc_objectS1_mj18MTLAttributeFormatjNS_10ReduceModeER12MetalContextPU27objcproto16MTLCommandBuffer11objc_objectjj,
                            __ZN9apple3dgs16PostprocessDepthEPU21objcproto10MTLTexture11objc_objectS1_S1_S1_R12MetalContextPU27objcproto16MTLCommandBuffer11objc_object,
                            __ZN9apple3dgs16SplatVideoLoader10IsSplatMOVEP10AVURLAsset,
                            __ZN9apple3dgs16SplatVideoLoader12ResetReadersE6CMTime,
                            __ZN9apple3dgs16SplatVideoLoader13ReadNextFrameEPU26objcproto15MTLCommandQueue11objc_objectRNS_5AssetE,
                            __ZN9apple3dgs16SplatVideoLoader16GetFrameMetadataEv,
                            __ZN9apple3dgs16SplatVideoLoader7ReadTexEPU19objcproto9MTLDevice11objc_objectRKNSt3__112basic_stringIcNS3_11char_traitsIcEENS3_9allocatorIcEEEE14MTLPixelFormat,
                            __ZN9apple3dgs16SplatVideoLoaderC1EPU19objcproto9MTLDevice11objc_objectP10AVURLAsset,
                            __ZN9apple3dgs16SplatVideoLoaderC1EPU19objcproto9MTLDevice11objc_objectP5NSURL,
                            __ZN9apple3dgs16SplatVideoLoaderC2EPU19objcproto9MTLDevice11objc_objectP10AVURLAsset,
                            __ZN9apple3dgs16SplatVideoLoaderC2EPU19objcproto9MTLDevice11objc_objectP5NSURL,
                            __ZN9apple3dgs16SplatVideoLoaderD1Ev,
                            __ZN9apple3dgs16SplatVideoLoaderD2Ev,
                            __ZN9apple3dgs16saveTvFromAssetsERKNSt3__14__fs10filesystem4pathERKNS0_6vectorINS_5AssetENS0_9allocatorIS7_EEEEfi,
                            __ZN9apple3dgs17CreateSimpleAssetEPU26objcproto15MTLCommandQueue11objc_objectRKNS_5Asset19AttributeDescriptorEjb,
                            __ZN9apple3dgs17CreateTextureFromEPU21objcproto10MTLTexture11objc_object14MTLPixelFormat14MTLStorageModem,
                            __ZN9apple3dgs18ComputeColorFromSHER12MetalContextjPU27objcproto16MTLCommandBuffer11objc_objectPU19objcproto9MTLBuffer11objc_objectS5_Dv3_fjjS5_,
                            __ZN9apple3dgs18ComputeColorFromSHERKNSt3__16vectorIDv3_fNS0_9allocatorIS2_EEEERKS2_S9_jb,
                            __ZN9apple3dgs18DeepCopyAttributesERKNS_5Asset10AttributesEPU19objcproto9MTLDevice11objc_objectRS1_,
                            __ZN9apple3dgs18GetTrackColorSpaceEPK12AVAssetTrack,
                            __ZN9apple3dgs18MultiLayerRenderer10CheckAllocERKNS_17MultiLayerOptionsE,
                            __ZN9apple3dgs18MultiLayerRenderer11RenderDepthEPU27objcproto16MTLCommandBuffer11objc_objectNSt3__110shared_ptrIKNS_5AssetEEERNS_15RenderDataCacheENS4_INS_16RenderDescriptorEEENS4_INS_16SorterDescriptorEEEPU15__autoreleasingP7NSError,
                            __ZN9apple3dgs18MultiLayerRenderer16StopWarmUpThreadEv,
                            __ZN9apple3dgs18MultiLayerRenderer17StartWarmUpThreadEPU26objcproto15MTLCommandQueue11objc_objectNSt3__18functionIFvPU27objcproto16MTLCommandBuffer11objc_objectjNS_14ConvertMXIFaceEPU21objcproto10MTLTexture11objc_objectS9_N4simd8float4x4EEEENS3_6chrono8durationIxNS3_5ratioILl1ELl1000EEEEE,
                            __ZN9apple3dgs18MultiLayerRenderer20ComputeNearFarPlanesEPU26objcproto15MTLCommandQueue11objc_objectNSt3__110shared_ptrIKNS_5AssetEEENS_17MultiLayerOptionsEPU15__autoreleasingP7NSError,
                            __ZN9apple3dgs18MultiLayerRenderer22AllocateRenderTexturesERKNS_17MultiLayerOptionsERKDv2_jS6_,
                            __ZN9apple3dgs18MultiLayerRenderer29CreateRenderSorterDescriptorsENSt3__110shared_ptrIKNS_5AssetEEENS_17MultiLayerOptionsE,
                            __ZN9apple3dgs18MultiLayerRenderer6RenderEPU27objcproto16MTLCommandBuffer11objc_objectNSt3__110shared_ptrIKNS_5AssetEEENS_17MultiLayerOptionsENS3_8functionIFvS2_jNS_14ConvertMXIFaceEPU21objcproto10MTLTexture11objc_objectSC_N4simd8float4x4EEEEPU15__autoreleasingP7NSError,
                            __ZN9apple3dgs18MultiLayerRendererC2EPU19objcproto9MTLDevice11objc_object14MTLPixelFormatS3_PU15__autoreleasingP7NSError,
                            __ZN9apple3dgs18MultiLayerRendererC2EPU19objcproto9MTLDevice11objc_objectNS_17MultiLayerOptionsE14MTLPixelFormatS4_PU15__autoreleasingP7NSError,
                            __ZN9apple3dgs18MultiLayerRendererD0Ev,
                            __ZN9apple3dgs18MultiLayerRendererD1Ev,
                            __ZN9apple3dgs18MultiLayerRendererD2Ev,
                            __ZN9apple3dgs18RowMajorToColMajorERKNSt3__16vectorIfNS0_9allocatorIfEEEERN4simd8float3x3E,
                            __ZN9apple3dgs18RowMajorToColMajorERKNSt3__16vectorIfNS0_9allocatorIfEEEERN4simd8float4x4E,
                            __ZN9apple3dgs18SplatVideoExporter12EncodeSplatsEPU26objcproto15MTLCommandQueue11objc_objectRKNS_5AssetEd,
                            __ZN9apple3dgs18SplatVideoExporterC1EPU19objcproto9MTLDevice11objc_objectRKNSt3__14__fs10filesystem4pathERKNS0_7OptionsE,
                            __ZN9apple3dgs18SplatVideoExporterC2EPU19objcproto9MTLDevice11objc_objectRKNSt3__14__fs10filesystem4pathERKNS0_7OptionsE,
                            __ZN9apple3dgs18ToLinearColorSpaceEDv3_fNS_16TransferFunctionE,
                            __ZN9apple3dgs18TransformGaussiansERDv3_fRDv4_fS1_RKN4simd8float4x4E,
                            __ZN9apple3dgs18TransformGaussiansERKNS_9AttributeES2_S2_mRKN4simd8float4x4ENS_14ActivationTypeERS0_S8_S8_,
                            __ZN9apple3dgs19CFDictionaryGetBoolEPK14__CFDictionaryPKv,
                            __ZN9apple3dgs19EstimateBoundingBoxEPU19objcproto9MTLBuffer11objc_objectjRDv3_fS3_,
                            __ZN9apple3dgs19FlipYAxisMTLTextureEPU21objcproto10MTLTexture11objc_objectS1_R12MetalContextPU27objcproto16MTLCommandBuffer11objc_object,
                            __ZN9apple3dgs19GetTrackPixelFormatEP12AVAssetTrack,
                            __ZN9apple3dgs19NDCDepthToRealDepthEPU21objcproto10MTLTexture11objc_objectS1_RK13simd_float4x4R12MetalContextPU27objcproto16MTLCommandBuffer11objc_object,
                            __ZN9apple3dgs19NDCDepthToRealDepthEfRK13simd_float4x4,
                            __ZN9apple3dgs19RealDepthToNDCDepthEfRK13simd_float4x4,
                            __ZN9apple3dgs20CFDictionaryGetFloatEPK14__CFDictionaryPKv,
                            __ZN9apple3dgs20GetRequiredAlignmentE18MTLAttributeFormat,
                            __ZN9apple3dgs20TessellationEdgeSyncEPU19objcproto9MTLBuffer11objc_objectRKDv2_jR12MetalContextPU35objcproto24MTLComputeCommandEncoder11objc_object,
                            __ZN9apple3dgs20UpdateIndirectBufferER12MetalContextPU27objcproto16MTLCommandBuffer11objc_objectPU19objcproto9MTLBuffer11objc_objectRK34MTLDrawPrimitivesIndirectArguments,
                            __ZN9apple3dgs20UpdateIndirectBufferER12MetalContextPU27objcproto16MTLCommandBuffer11objc_objectPU19objcproto9MTLBuffer11objc_objectS5_,
                            __ZN9apple3dgs20UpdateIndirectBufferER12MetalContextPU35objcproto24MTLComputeCommandEncoder11objc_objectPU19objcproto9MTLBuffer11objc_objectRK34MTLDrawPrimitivesIndirectArguments,
                            __ZN9apple3dgs20UpdateIndirectBufferER12MetalContextPU35objcproto24MTLComputeCommandEncoder11objc_objectPU19objcproto9MTLBuffer11objc_objectS5_,
                            __ZN9apple3dgs21CFDictionaryGetStringEPK14__CFDictionaryPKv,
                            __ZN9apple3dgs21CreateNontrivialAssetEPU26objcproto15MTLCommandQueue11objc_objectjj,
                            __ZN9apple3dgs21GetTemporaryDirectoryEv,
                            __ZN9apple3dgs21ReduceThreadgroupSizeER12MetalContextSt16initializer_listI18MTLAttributeFormatES2_INS_10ReduceModeEE,
                            __ZN9apple3dgs21ReduceThreadgroupSizeER12MetalContextbSt16initializer_listINS_10ReduceModeEE,
                            __ZN9apple3dgs21TransformGaussiansGPUER12MetalContextPU27objcproto16MTLCommandBuffer11objc_objectRKNS_9AttributeES6_S6_mRKN4simd8float4x4ENS_14ActivationTypeERS4_SC_SC_m,
                            __ZN9apple3dgs22FrontWeightedQuantilesEjff,
                            __ZN9apple3dgs22SetTessellationFactorsEPU19objcproto9MTLBuffer11objc_objectRKDv2_jDF16_R12MetalContextPU35objcproto24MTLComputeCommandEncoder11objc_object,
                            __ZN9apple3dgs23ComputePrimitiveIndicesER12MetalContextPU27objcproto16MTLCommandBuffer11objc_objectPU19objcproto9MTLBuffer11objc_objectS5_S5_j,
                            __ZN9apple3dgs23ComputePrimitiveIndicesER12MetalContextPU35objcproto24MTLComputeCommandEncoder11objc_objectPU19objcproto9MTLBuffer11objc_objectS5_S5_j,
                            __ZN9apple3dgs23ComputeRefinementWeightER12MetalContextPU27objcproto16MTLCommandBuffer11objc_objectPU21objcproto10MTLTexture11objc_objectS5_S5_b,
                            __ZN9apple3dgs23CreateMemoryLessTextureEPU19objcproto9MTLDevice11objc_object14MTLPixelFormatDv2_jj,
                            __ZN9apple3dgs23FindMetadataValueForKeyEPK7NSArrayRKNSt3__112basic_stringIcNS3_11char_traitsIcEENS3_9allocatorIcEEEE,
                            __ZN9apple3dgs23PackTessellationFactorsEPU19objcproto9MTLBuffer11objc_objectPU21objcproto10MTLTexture11objc_objectRKDv2_jR12MetalContextPU35objcproto24MTLComputeCommandEncoder11objc_object,
                            __ZN9apple3dgs24PeeledMultiLayerRenderer10RenderFaceEPU27objcproto16MTLCommandBuffer11objc_objectNSt3__110shared_ptrINS_5AssetEEERKNS_17MultiLayerOptionsERNS_15RenderDataCacheENS3_8functionIFvS2_jNS_14ConvertMXIFaceEPU21objcproto10MTLTexture11objc_objectSF_N4simd8float4x4EEEESD_NS4_INS_16RenderDescriptorEEENS4_INS_16SorterDescriptorEEEPU15__autoreleasingP7NSError,
                            __ZN9apple3dgs24PeeledMultiLayerRenderer22AllocateRenderTexturesERKNS_17MultiLayerOptionsERKDv2_jS6_,
                            __ZN9apple3dgs24PeeledMultiLayerRendererC1EPU19objcproto9MTLDevice11objc_object14MTLPixelFormatS3_PU15__autoreleasingP7NSError,
                            __ZN9apple3dgs24PeeledMultiLayerRendererC1EPU19objcproto9MTLDevice11objc_objectNS_17MultiLayerOptionsE14MTLPixelFormatS4_PU15__autoreleasingP7NSError,
                            __ZN9apple3dgs24PeeledMultiLayerRendererC2EPU19objcproto9MTLDevice11objc_object14MTLPixelFormatS3_PU15__autoreleasingP7NSError,
                            __ZN9apple3dgs24PeeledMultiLayerRendererC2EPU19objcproto9MTLDevice11objc_objectNS_17MultiLayerOptionsE14MTLPixelFormatS4_PU15__autoreleasingP7NSError,
                            __ZN9apple3dgs25GetRegularDepthBoundariesEjRKN4simd8float4x4E,
                            __ZN9apple3dgs25TransformGaussiansInPlaceERNS_9AttributeES1_S1_mRKN4simd8float4x4ENS_14ActivationTypeE,
                            __ZN9apple3dgs25UnpackTessellationFactorsEPU21objcproto10MTLTexture11objc_objectPU19objcproto9MTLBuffer11objc_objectbR12MetalContextPU35objcproto24MTLComputeCommandEncoder11objc_object,
                            __ZN9apple3dgs25UpdateTessellationFactorsEPU19objcproto9MTLBuffer11objc_objectRKDv2_jS1_S1_jjfR12MetalContextPU35objcproto24MTLComputeCommandEncoder11objc_object,
                            __ZN9apple3dgs26BestFitTessellationFactorsEPU21objcproto10MTLTexture11objc_objectS1_RKN4simd8float4x4EPU19objcproto9MTLBuffer11objc_objectS7_S7_S1_jjfR12MetalContextPU27objcproto16MTLCommandBuffer11objc_object,
                            __ZN9apple3dgs26GetTrackProjectionMetadataEPK12AVAssetTrack,
                            __ZN9apple3dgs27GetTrackCalibrationMetadataEPK12AVAssetTrack,
                            __ZN9apple3dgs28GetMergedStereoFrustumPlanesERKNS_16RenderDescriptorE,
                            __ZN9apple3dgs28TransformGaussiansInPlaceGPUER12MetalContextPU27objcproto16MTLCommandBuffer11objc_objectRNS_9AttributeERKS4_S7_mRKN4simd8float4x4ENS_14ActivationTypeES5_S5_m,
                            __ZN9apple3dgs29PlanarSliceMultiLayerRenderer10RenderFaceEPU27objcproto16MTLCommandBuffer11objc_objectNSt3__110shared_ptrINS_5AssetEEERKNS_17MultiLayerOptionsERNS_15RenderDataCacheENS3_8functionIFvS2_jNS_14ConvertMXIFaceEPU21objcproto10MTLTexture11objc_objectSF_N4simd8float4x4EEEESD_NS4_INS_16RenderDescriptorEEENS4_INS_16SorterDescriptorEEEPU15__autoreleasingP7NSError,
                            __ZN9apple3dgs29PlanarSliceMultiLayerRendererC1EPU19objcproto9MTLDevice11objc_object14MTLPixelFormatS3_PU15__autoreleasingP7NSError,
                            __ZN9apple3dgs29PlanarSliceMultiLayerRendererC1EPU19objcproto9MTLDevice11objc_objectNS_17MultiLayerOptionsE14MTLPixelFormatS4_PU15__autoreleasingP7NSError,
                            __ZN9apple3dgs29PlanarSliceMultiLayerRendererC2EPU19objcproto9MTLDevice11objc_object14MTLPixelFormatS3_PU15__autoreleasingP7NSError,
                            __ZN9apple3dgs29PlanarSliceMultiLayerRendererC2EPU19objcproto9MTLDevice11objc_objectNS_17MultiLayerOptionsE14MTLPixelFormatS4_PU15__autoreleasingP7NSError,
                            __ZN9apple3dgs31CGColorSpaceGetTransferFunctionEP12CGColorSpace,
                            __ZN9apple3dgs31PlaneFitTessellationSubdivisionEPU21objcproto10MTLTexture11objc_objectS1_RKNS_25TessellationErrorUniformsEPU19objcproto9MTLBuffer11objc_objectS6_S6_R12MetalContextPU35objcproto24MTLComputeCommandEncoder11objc_object,
                            __ZN9apple3dgs32CreateDepthBoundaryNearFarPlanesERKNSt3__16vectorIfNS0_9allocatorIfEEEE,
                            __ZN9apple3dgs34CGColorSpaceCreateCopyWithSameNameEP12CGColorSpace,
                            __ZN9apple3dgs34CGColorSpaceToRenderedCGColorSpaceEP12CGColorSpace,
                            __ZN9apple3dgs34GetColorPropertiesFromCGColorSpaceEP12CGColorSpace,
                            __ZN9apple3dgs36GetPixelTransformationFromMPIToImageERKN4simd8float3x3ES3_RKDv2_fS6_,
                            __ZN9apple3dgs41ComputeDepthBoundariesFromUniformSamplingEjRKN4simd8float4x4E,
                            __ZN9apple3dgs47CGColorSpaceCreateSRGBGamutWithTransferFunctionENS_16TransferFunctionE,
                            __ZN9apple3dgs4det2Effff,
                            __ZN9apple3dgs4det3ERKN4simd8float3x3E,
                            __ZN9apple3dgs5Asset12TransformGPUEPU27objcproto16MTLCommandBuffer11objc_objectRKN4simd8float4x4EmPU15__autoreleasingP7NSError,
                            __ZN9apple3dgs5Asset15ComputeCentroidEv,
                            __ZN9apple3dgs5Asset18ComputeCentroidGPUEPU27objcproto16MTLCommandBuffer11objc_object,
                            __ZN9apple3dgs5Asset21DecompressFreetimeGPUEPU27objcproto16MTLCommandBuffer11objc_objectf,
                            __ZN9apple3dgs5Asset22UpdateFromCachedTvDataEv,
                            __ZN9apple3dgs5Asset24ValidateAttributesFiniteEPU15__autoreleasingP7NSError,
                            __ZN9apple3dgs5Asset26RecomputeAnimationDurationEv,
                            __ZN9apple3dgs5Asset26ValidateAttributeAlignmentEPU15__autoreleasingP7NSError,
                            __ZN9apple3dgs5Asset7PrepareENS_16ExtraPrepareStepEPU27objcproto16MTLCommandBuffer11objc_objectPU15__autoreleasingP7NSErrorb,
                            __ZN9apple3dgs5Asset7PrepareEPU27objcproto16MTLCommandBuffer11objc_objectPU15__autoreleasingP7NSError,
                            __ZN9apple3dgs5Asset9TransformEPU27objcproto16MTLCommandBuffer11objc_objectRKN4simd8float4x4EPU15__autoreleasingP7NSError,
                            __ZN9apple3dgs5scopeE,
                            __ZN9apple3dgs6Sorter13EncodeSortingEPU27objcproto16MTLCommandBuffer11objc_objectNSt3__14spanIKNS3_10shared_ptrIKNS_5AssetEEELm18446744073709551615EEENS5_IKNS_16SorterDescriptorEEENS5_IKNS_16RenderDescriptorEEEPU15__autoreleasingP7NSError,
                            __ZN9apple3dgs6SorterC1EPU19objcproto9MTLDevice11objc_objectNSt3__14spanIKNS3_10shared_ptrIKNS_5AssetEEELm18446744073709551615EEENS5_IKNS_16SorterDescriptorEEERKNS_11ISortWorker10ParametersE,
                            __ZN9apple3dgs6SorterC2EPU19objcproto9MTLDevice11objc_objectNSt3__14spanIKNS3_10shared_ptrIKNS_5AssetEEELm18446744073709551615EEENS5_IKNS_16SorterDescriptorEEERKNS_11ISortWorker10ParametersE,
                            __ZN9apple3dgs6TVData7ParseTvERNSt3__113basic_istreamIcNS1_11char_traitsIcEEEEbb,
                            __ZN9apple3dgs6TVData9LoadFrameEjPc,
                            __ZN9apple3dgs6TVDataC1ERKNSt3__112basic_stringIcNS1_11char_traitsIcEENS1_9allocatorIcEEEEbib,
                            __ZN9apple3dgs6TVDataC1ERKNSt3__112basic_stringIcNS1_11char_traitsIcEENS1_9allocatorIcEEEEjj,
                            __ZN9apple3dgs6TVDataC2ERKNSt3__112basic_stringIcNS1_11char_traitsIcEENS1_9allocatorIcEEEEbib,
                            __ZN9apple3dgs6TVDataC2ERKNSt3__112basic_stringIcNS1_11char_traitsIcEENS1_9allocatorIcEEEEjj,
                            __ZN9apple3dgs6loadTvERKNSt3__14__fs10filesystem4pathEjPU19objcproto9MTLDevice11objc_objectRKNS_5Asset19AttributeDescriptorEPU15__autoreleasingP7NSError,
                            __ZN9apple3dgs6resizeERKNSt3__16vectorIhNS0_9allocatorIhEEEEjjjjjRS4_,
                            __ZN9apple3dgs7details14GetMetadataKeyERKNSt3__112basic_stringIcNS1_11char_traitsIcEENS1_9allocatorIcEEEE,
                            __ZN9apple3dgs7details16GenerateMetadataERKN8nlohmann16json_abi_v3_11_310basic_jsonINSt3__13mapENS4_6vectorENS4_12basic_stringIcNS4_11char_traitsIcEENS4_9allocatorIcEEEEbxydSA_NS2_14adl_serializerENS6_IhNSA_IhEEEEvEERKSC_,
                            __ZN9apple3dgs7details17AVStringForOSTypeEj,
                            __ZN9apple3dgs7details21GenerateTimedMetadataERKN8nlohmann16json_abi_v3_11_310basic_jsonINSt3__13mapENS4_6vectorENS4_12basic_stringIcNS4_11char_traitsIcEENS4_9allocatorIcEEEEbxydSA_NS2_14adl_serializerENS6_IhNSA_IhEEEEvEERKSC_6CMTime,
                            __ZN9apple3dgs7details23CreateTextureFromBufferEPU19objcproto9MTLDevice11objc_objectP10__CVBuffermm14MTLPixelFormat,
                            __ZN9apple3dgs7details23stringForVideoCodecTypeEj,
                            __ZN9apple3dgs7details24GetCvFormatFromMTLFormatERK14MTLPixelFormatPb,
                            __ZN9apple3dgs7loadPlyERKNSt3__14__fs10filesystem4pathEPU19objcproto9MTLDevice11objc_objectRKNS_5Asset19AttributeDescriptorEPU15__autoreleasingP7NSError,
                            __ZN9apple3dgs7savePlyERKNSt3__14__fs10filesystem4pathERKNS_5AssetE,
                            __ZN9apple3dgs8Renderer12EncodeRenderEPU34objcproto23MTLRenderCommandEncoder11objc_objectRNS_7ISorterEP23MTLRenderPassDescriptorRKNS_16RenderDescriptorEPU15__autoreleasingP7NSError,
                            __ZN9apple3dgs8Renderer15EncodeSplattingEPU27objcproto16MTLCommandBuffer11objc_objectRNS_7ISorterEP23MTLRenderPassDescriptorRKNS_16RenderDescriptorEPU15__autoreleasingP7NSError,
                            __ZN9apple3dgs8Renderer16EncodeMeshRenderEPU34objcproto23MTLRenderCommandEncoder11objc_objectRNS_7ISorterEP23MTLRenderPassDescriptorRKNS_16RenderDescriptorEPU15__autoreleasingP7NSError,
                            __ZN9apple3dgs8Renderer18UpdateViewMatricesERKNSt3__15arrayIN4simd8float4x4ELm2EEE,
                            __ZN9apple3dgs8Renderer19BuildRenderPipelineERKNSt3__16vectorINS_15BlendingVariantENS1_9allocatorIS3_EEEEPU15__autoreleasingP7NSError,
                            __ZN9apple3dgs8Renderer21BuildBlendingPipelineEPU21objcproto10MTLLibrary11objc_objectPU27objcproto16MTLBinaryArchive11objc_objectRKNSt3__16vectorINS_15BlendingVariantENS5_9allocatorIS7_EEEE14MTLPixelFormatSD_PU15__autoreleasingP7NSErrorm,
                            __ZN9apple3dgs8Renderer25BuildMeshBlendingPipelineEPU21objcproto10MTLLibrary11objc_objectPU27objcproto16MTLBinaryArchive11objc_objectRKNSt3__16vectorINS_15BlendingVariantENS5_9allocatorIS7_EEEE14MTLPixelFormatSD_PU15__autoreleasingP7NSErrorm,
                            __ZN9apple3dgs8RendererC1EPU19objcproto9MTLDevice11objc_object14MTLPixelFormatS3_mbPU15__autoreleasingP7NSError,
                            __ZN9apple3dgs8RendererC1EPU19objcproto9MTLDevice11objc_objectRKNS0_10ParametersEPU15__autoreleasingP7NSError,
                            __ZN9apple3dgs8RendererC1EPU19objcproto9MTLDevice11objc_objectRKNSt3__16vectorINS_15BlendingVariantENS3_9allocatorIS5_EEEERKNS0_10ParametersEPU15__autoreleasingP7NSError,
                            __ZN9apple3dgs8RendererC2EPU19objcproto9MTLDevice11objc_object14MTLPixelFormatS3_mbPU15__autoreleasingP7NSError,
                            __ZN9apple3dgs8RendererC2EPU19objcproto9MTLDevice11objc_objectRKNS0_10ParametersEPU15__autoreleasingP7NSError,
                            __ZN9apple3dgs8RendererC2EPU19objcproto9MTLDevice11objc_objectRKNSt3__16vectorINS_15BlendingVariantENS3_9allocatorIS5_EEEERKNS0_10ParametersEPU15__autoreleasingP7NSError,
                            __ZN9apple3dgs9BoxFilterER12MetalContextPU35objcproto24MTLComputeCommandEncoder11objc_objectPU21objcproto10MTLTexture11objc_objectS5_i,
                            __ZN9apple3dgs9FindTrackEPK7NSArrayRKNSt3__112basic_stringIcNS3_11char_traitsIcEENS3_9allocatorIcEEEE,
                            __ZN9apple3dgs9LoadImageEP7CIImagePU19objcproto9MTLDevice11objc_object14MTLPixelFormatP12CGColorSpace,
                            __ZN9apple3dgs9MPSSorterC1E11MPSDataTypeb,
                            __ZN9apple3dgs9MPSSorterC2E11MPSDataTypeb,
                            __ZN9apple3dgs9SaveImageEPU21objcproto10MTLTexture11objc_objectP5NSURLNS_11kFileFormatEP12CGColorSpaceP7NSError,
                            __ZN9apple3dgs9SaveImageEPU21objcproto10MTLTexture11objc_objectRKNSt3__14__fs10filesystem4pathEP12CGColorSpaceP7NSError,
                            __ZN9apple3dgs9TVBuilder12SetFrameDataEjjRKNS_12TVGaussianV1E,
                            __ZN9apple3dgs9TVBuilder17UpdateDepthBoundsEf,
                            __ZN9apple3dgs9TVBuilder18SetStaticColorDataEjRKNSt3__15arrayIDF16_Lm3EEE,
                            __ZN9apple3dgs9TVBuilder8SaveFileERKNSt3__112basic_stringIcNS1_11char_traitsIcEENS1_9allocatorIcEEEEj,
                            __ZN9apple3dgs9TVBuilder9SetCameraERKNS_8TVCameraE,
                            __ZN9apple3dgs9TVBuilderC1Ejjf,
                            __ZN9apple3dgs9TVBuilderC1Ejjfj,
                            __ZN9apple3dgs9TVBuilderC2Ejjf,
                            __ZN9apple3dgs9TVBuilderC2Ejjfj,
                            __ZN9apple3dgslsERNSt3__113basic_ostreamIcNS0_11char_traitsIcEEEERKDv3_DF16_,
                            __ZN9apple3dgslsERNSt3__113basic_ostreamIcNS0_11char_traitsIcEEEERKDv3_f,
                            __ZN9apple3dgslsERNSt3__113basic_ostreamIcNS0_11char_traitsIcEEEERKDv4_DF16_,
                            __ZN9apple3dgslsERNSt3__113basic_ostreamIcNS0_11char_traitsIcEEEERKDv4_f,
                            __ZN9apple3dgslsERNSt3__113basic_ostreamIcNS0_11char_traitsIcEEEERKN4simd8float3x3E,
                            __ZN9apple3dgslsERNSt3__113basic_ostreamIcNS0_11char_traitsIcEEEERKN4simd8float4x4E,
                            __ZN9apple3dgslsERNSt3__113basic_ostreamIcNS0_11char_traitsIcEEEERKNS_16RenderDescriptorE,
                            __ZN9apple3dgslsERNSt3__113basic_ostreamIcNS0_11char_traitsIcEEEERKNS_16SorterDescriptorE,
                            __ZN9apple3dgslsERNSt3__113basic_ostreamIcNS0_11char_traitsIcEEEERKNS_17MultiLayerOptionsE,
                            __ZN9apple3dgslsERNSt3__113basic_ostreamIcNS0_11char_traitsIcEEEERKNS_5Asset10PropertiesE,
                            __ZN9apple3dgslsERNSt3__113basic_ostreamIcNS0_11char_traitsIcEEEERKNS_5Asset8DefaultsE,
                            __ZN9apple3dgslsERNSt3__113basic_ostreamIcNS0_11char_traitsIcEEEERKNS_5AssetE,
                            __ZNK4cv3d9aspenbase11concurrency12AsyncManager3ForEmNSt3__18functionIFvmEEEm,
                            __ZNK4cv3d9aspenbase11concurrency12AsyncManager3ForEmNSt3__18functionIFvmRNS2_13ThreadContextEEEEm,
                            __ZNK4cv3d9aspenbase11concurrency12AsyncManager4WaitEv,
                            __ZNK4cv3d9aspenbase11concurrency12AsyncManager5FlushEv,
                            __ZNK4cv3d9aspenbase11concurrency12AsyncManager5StartEm,
                            __ZNK4cv3d9aspenbase11concurrency12AsyncManager8AsyncForEmNSt3__18functionIFvmEEEm,
                            __ZNK4cv3d9aspenbase11concurrency12AsyncManager8AsyncForEmNSt3__18functionIFvmRNS2_13ThreadContextEEEEm,
                            __ZNK9apple3dgs11ISortWorker16GetInstanceCountEv,
                            __ZNK9apple3dgs11ISortWorker19GetRenderingBuffersEv,
                            __ZNK9apple3dgs11PeeledAsset14GetAspectRatioEv,
                            __ZNK9apple3dgs11PeeledAsset14GetVerticalFOVEv,
                            __ZNK9apple3dgs12FreetimeData10UnpackTimeEjRKNSt3__15arrayIfLm2EEES5_,
                            __ZNK9apple3dgs12FreetimeData11UnpackColorEjRKNSt3__15arrayIfLm3EEES5_,
                            __ZNK9apple3dgs12FreetimeData11UnpackScaleEjRKNSt3__15arrayIfLm3EEES5_,
                            __ZNK9apple3dgs12FreetimeData13UpdateOpacityEfff,
                            __ZNK9apple3dgs12FreetimeData14UnpackPositionEjRKNSt3__15arrayIfLm3EEES5_,
                            __ZNK9apple3dgs12FreetimeData14UnpackRotationEj,
                            __ZNK9apple3dgs12FreetimeData14UnpackVelocityEjRKNSt3__15arrayIfLm3EEES5_,
                            __ZNK9apple3dgs12FreetimeData14UpdatePositionEfRKDv3_fS3_f,
                            __ZNK9apple3dgs12FreetimeData18GetGaussiansAtTimeEf,
                            __ZNK9apple3dgs13VRRDensityMap10GetTextureEv,
                            __ZNK9apple3dgs14MultiLayerData12GetRealDepthEjj,
                            __ZNK9apple3dgs14MultiLayerData13GetColorArrayEjjj,
                            __ZNK9apple3dgs14MultiLayerData13GetDepthArrayEjjj,
                            __ZNK9apple3dgs14MultiLayerData17GetHeapDescriptorERKNS_17MultiLayerOptionsE,
                            __ZNK9apple3dgs14MultiLayerData20GetColorIntermediateEjj,
                            __ZNK9apple3dgs14MultiLayerData20GetDepthIntermediateEjj,
                            __ZNK9apple3dgs14MultiLayerData22GetRGBAArrayDescriptorEjjj,
                            __ZNK9apple3dgs14MultiLayerData22GetRealDepthDescriptorEjj,
                            __ZNK9apple3dgs14MultiLayerData22GetRefinementWeightmapEjj,
                            __ZNK9apple3dgs14MultiLayerData23GetDepthArrayDescriptorEjjj,
                            __ZNK9apple3dgs14MultiLayerData25GetColorArrayIntermediateEjjj,
                            __ZNK9apple3dgs14MultiLayerData25GetDepthArrayIntermediateEjjj,
                            __ZNK9apple3dgs14MultiLayerData29GetRGBAIntermediateDescriptorEjj,
                            __ZNK9apple3dgs14MultiLayerData30GetDepthIntermediateDescriptorEjj,
                            __ZNK9apple3dgs14MultiLayerData32GetRefinementWeightmapDescriptorEjj,
                            __ZNK9apple3dgs14MultiLayerData34GetRGBAIntermediateArrayDescriptorEjjj,
                            __ZNK9apple3dgs14MultiLayerData35GetDepthIntermediateArrayDescriptorEjjj,
                            __ZNK9apple3dgs14PeeledRenderer12EncodeRenderEPU27objcproto16MTLCommandBuffer11objc_objectRNS_11PeeledAssetEP23MTLRenderPassDescriptor13simd_float4x4RKNS_22PeeledRenderDescriptorE,
                            __ZNK9apple3dgs14PeeledRenderer21EncodeTransparentPassEPU34objcproto23MTLRenderCommandEncoder11objc_objectRNS_11PeeledAssetEP23MTLRenderPassDescriptor13simd_float4x4RKNS_22PeeledRenderDescriptorE,
                            __ZNK9apple3dgs14PeeledRenderer25GetImageblockSampleLengthEv,
                            __ZNK9apple3dgs14PostAlphaBlend6EncodeEPU34objcproto23MTLRenderCommandEncoder11objc_objectRKNS_18DeferredUniformsFSERKNS_16RenderDescriptorEP23MTLRenderPassDescriptorjPU15__autoreleasingP7NSError,
                            __ZNK9apple3dgs15BlendingVariant20GetFunctionConstantsEv,
                            __ZNK9apple3dgs15FreetimeBuilder16GetExpectedColorEj,
                            __ZNK9apple3dgs15FreetimeBuilder16GetExpectedScaleEj,
                            __ZNK9apple3dgs15FreetimeBuilder18GetExpectedOpacityEj,
                            __ZNK9apple3dgs15FreetimeBuilder19GetExpectedPositionEj,
                            __ZNK9apple3dgs15FreetimeBuilder19GetExpectedRotationEj,
                            __ZNK9apple3dgs15FreetimeBuilder8SaveFileERKNSt3__112basic_stringIcNS1_11char_traitsIcEENS1_9allocatorIcEEEE,
                            __ZNK9apple3dgs15TextureExporter8HasTrackERKNSt3__112basic_stringIcNS1_11char_traitsIcEENS1_9allocatorIcEEEE,
                            __ZNK9apple3dgs16SplatVideoLoader11GetDurationEv,
                            __ZNK9apple3dgs16SplatVideoLoader18GetDurationSecondsEv,
                            __ZNK9apple3dgs16SplatVideoLoader6GetFPSERKNSt3__112basic_stringIcNS1_11char_traitsIcEENS1_9allocatorIcEEEE,
                            __ZNK9apple3dgs16SplatVideoLoader7GetSizeERKNSt3__112basic_stringIcNS1_11char_traitsIcEENS1_9allocatorIcEEEE,
                            __ZNK9apple3dgs17PostAlphaBlendSim6EncodeEPU34objcproto23MTLRenderCommandEncoder11objc_objectRKNS_18DeferredUniformsFSERKNS_16RenderDescriptorEP23MTLRenderPassDescriptorjPU15__autoreleasingP7NSError,
                            __ZNK9apple3dgs19PostBlendingVariant20GetFunctionConstantsEv,
                            __ZNK9apple3dgs5AOTFR6EncodeEPU34objcproto23MTLRenderCommandEncoder11objc_objectRKNS_18DeferredUniformsFSERKNS_16RenderDescriptorEP23MTLRenderPassDescriptorjPU15__autoreleasingP7NSError,
                            __ZNK9apple3dgs5Asset13CreateAtlasesEPU27objcproto16MTLCommandBuffer11objc_objectRNSt3__15arrayIU8__strongPU21objcproto10MTLTexture11objc_objectLm2EEE,
                            __ZNK9apple3dgs5Asset13UnPackAtlasesEPU27objcproto16MTLCommandBuffer11objc_objectRKNSt3__15arrayIU8__strongPU21objcproto10MTLTexture11objc_objectLm2EEE,
                            __ZNK9apple3dgs5Asset8DeepCopyEPU15__autoreleasingP7NSError,
                            __ZNK9apple3dgs8Renderer16EncodePostRenderEPU34objcproto23MTLRenderCommandEncoder11objc_objectRNS_7ISorterEP23MTLRenderPassDescriptorRKNS_16RenderDescriptorEPU15__autoreleasingP7NSError,
                            __ZNK9apple3dgs8Renderer17UpdateSorterRangeEPU27objcproto16MTLCommandBuffer11objc_objectRNS_7ISorterERKNS_16RenderDescriptorE,
                            __ZNK9apple3dgs8Renderer26CreateRenderPassDescriptorEPU21objcproto10MTLTexture11objc_objectS2_PU34objcproto23MTLRasterizationRateMap11objc_object13MTLLoadActionS5_,
                            __ZNK9apple3dgs8Renderer26CreateRenderPassDescriptorEPU21objcproto10MTLTexture11objc_objectS2_S2_S2_PU34objcproto23MTLRasterizationRateMap11objc_object13MTLLoadActionS5_,
                            __ZNK9apple3dgs8Renderer28CreateDeferredRenderPipelineEPU27objcproto16MTLBinaryArchive11objc_objectPU22objcproto11MTLFunction11objc_objectS4_RKNS_19PostBlendingVariantEPU15__autoreleasingP7NSError,
                            __ZNK9apple3dgs8Renderer37CreateAOTFRMaskedRenderPassDescriptorEPU21objcproto10MTLTexture11objc_objectS2_PU34objcproto23MTLRasterizationRateMap11objc_object13MTLLoadActionS5_,
                            __ZNK9apple3dgs9MPSSorter7ArgSortEPU27objcproto16MTLCommandBuffer11objc_objectPU19objcproto9MTLBuffer11objc_objectS4_j,
                            __ZNK9apple3dgs9TVBuilder14GetFrameDataV1Ejj,
                            __ZNK9apple3dgs9TVBuilder14GetFrameDataV2Ejj,
                            __ZNK9apple3dgs9TVBuilder18GetStaticColorDataEj,
                            __ZTIN4cv3d9aspenbase11concurrency6Thread19ThreadFuncInterfaceE,
                            __ZTIN4cv3d9aspenbase11concurrency6ThreadE,
                            __ZTIN9apple3dgs11MOVExporterE,
                            __ZTIN9apple3dgs12UniqueSorterE,
                            __ZTIN9apple3dgs13CPUSortWorkerE,
                            __ZTIN9apple3dgs13GPUSortWorkerE,
                            __ZTIN9apple3dgs14PostAlphaBlendE,
                            __ZTIN9apple3dgs15TextureExporterE,
                            __ZTIN9apple3dgs17PostAlphaBlendSimE,
                            __ZTIN9apple3dgs18MultiLayerRendererE,
                            __ZTIN9apple3dgs24PeeledMultiLayerRendererE,
                            __ZTIN9apple3dgs29PlanarSliceMultiLayerRendererE,
                            __ZTIN9apple3dgs5AOTFRE, __ZTIN9apple3dgs6SorterE,
                            __ZTSN4cv3d9aspenbase11concurrency6Thread19ThreadFuncInterfaceE,
                            __ZTSN4cv3d9aspenbase11concurrency6ThreadE,
                            __ZTSN9apple3dgs11MOVExporterE,
                            __ZTSN9apple3dgs12UniqueSorterE,
                            __ZTSN9apple3dgs13CPUSortWorkerE,
                            __ZTSN9apple3dgs13GPUSortWorkerE,
                            __ZTSN9apple3dgs14PostAlphaBlendE,
                            __ZTSN9apple3dgs15TextureExporterE,
                            __ZTSN9apple3dgs17PostAlphaBlendSimE,
                            __ZTSN9apple3dgs18MultiLayerRendererE,
                            __ZTSN9apple3dgs24PeeledMultiLayerRendererE,
                            __ZTSN9apple3dgs29PlanarSliceMultiLayerRendererE,
                            __ZTSN9apple3dgs5AOTFRE, __ZTSN9apple3dgs6SorterE,
                            __ZTVN4cv3d9aspenbase11concurrency6Thread19ThreadFuncInterfaceE,
                            __ZTVN4cv3d9aspenbase11concurrency6ThreadE,
                            __ZTVN9apple3dgs11MOVExporterE,
                            __ZTVN9apple3dgs12UniqueSorterE,
                            __ZTVN9apple3dgs13CPUSortWorkerE,
                            __ZTVN9apple3dgs13GPUSortWorkerE,
                            __ZTVN9apple3dgs14PostAlphaBlendE,
                            __ZTVN9apple3dgs15TextureExporterE,
                            __ZTVN9apple3dgs17PostAlphaBlendSimE,
                            __ZTVN9apple3dgs18MultiLayerRendererE,
                            __ZTVN9apple3dgs24PeeledMultiLayerRendererE,
                            __ZTVN9apple3dgs29PlanarSliceMultiLayerRendererE,
                            __ZTVN9apple3dgs5AOTFRE, __ZTVN9apple3dgs6SorterE,
                            __gs_log ]
    objc-classes:         [ GSAsset, GSConvertMXIOption, GSLayerData,
                            GSLayeredBakingOptions, GSLayeredExporter,
                            GSLayeredImageSaver, GSLayeredVideoRecorder,
                            GSMultiLayerRenderer, GSPeeledAsset,
                            GSPeeledRenderDescriptor, GSPeeledRenderer,
                            GSRenderDescriptor, GSRenderer, GSSorter,
                            GSSorterDescriptor, GSSplatVideoExporter,
                            GSSplatVideoExporterOptions, LayerData, RendererDummy ]
    objc-ivars:           [ GSAsset._currentTime, GSAsset._has_new_frame,
                            GSAsset._impl, GSAsset._loaded_frame, GSAsset._loader,
                            GSAsset._loading_frame, GSAsset._loading_mutex,
                            GSAsset._path, GSConvertMXIOption._impl,
                            GSLayerData._colorTexture, GSLayerData._depthTexture,
                            GSLayerData._projectionMatrix,
                            GSLayeredBakingOptions._colorSpace,
                            GSLayeredBakingOptions._depthFormat,
                            GSLayeredBakingOptions._fps,
                            GSLayeredBakingOptions._height,
                            GSLayeredBakingOptions._isRaw,
                            GSLayeredBakingOptions._layers,
                            GSLayeredBakingOptions._patchPixelSidelength,
                            GSLayeredBakingOptions._pixelFormat,
                            GSLayeredBakingOptions._startFrame,
                            GSLayeredBakingOptions._tessellationErrorThreshold,
                            GSLayeredBakingOptions._width,
                            GSLayeredExporter._colorLayers,
                            GSLayeredExporter._colorSpace,
                            GSLayeredExporter._context,
                            GSLayeredExporter._currentFrame,
                            GSLayeredExporter._depthFormat,
                            GSLayeredExporter._depthLayers,
                            GSLayeredExporter._fps, GSLayeredExporter._numLevels,
                            GSLayeredExporter._patchSize,
                            GSLayeredExporter._projections,
                            GSLayeredExporter._startFrame,
                            GSLayeredExporter._tessFacs,
                            GSLayeredExporter._tessellationErrorThreshold,
                            GSLayeredExporter._url, GSLayeredVideoRecorder._impl,
                            GSLayeredVideoRecorder._isRaw,
                            GSLayeredVideoRecorder.started,
                            GSMultiLayerRenderer._impl, GSPeeledAsset._impl,
                            GSPeeledAsset._path, GSPeeledRenderDescriptor._impl,
                            GSPeeledRenderer._impl, GSRenderDescriptor._impl,
                            GSRenderer._impl, GSSorter._impl,
                            GSSorter._sorterDescriptor, GSSorterDescriptor._impl,
                            GSSplatVideoExporter._exporter,
                            GSSplatVideoExporter._url,
                            GSSplatVideoExporterOptions._options,
                            LayerData._projectionMatrix ]
    weak-def-symbols:     [ __ZN9apple3dgs18GetDepthBoundariesIfEENSt3__16vectorIDv2_fNS1_9allocatorIS3_EEEENS_27AdaptiveLayerSamplingMethodEjRKN4simd8float4x4ERKNS_8Buffer2DIT_EEff,
                            __ZN9apple3dgs19SplatVideoConstants7kSplat0E,
                            __ZN9apple3dgs3SVDIdEENSt3__15tupleIJN4simd6MatrixIT_Lm3ELm3EE4typeENS3_6VectorIS5_Lm3EE4typeES7_EEERKS7_,
                            __ZN9apple3dgs3SVDIfEENSt3__15tupleIJN4simd6MatrixIT_Lm3ELm3EE4typeENS3_6VectorIS5_Lm3EE4typeES7_EEERKS7_,
                            __ZN9apple3dgs44ComputeDepthBoundariesFromImportanceSamplingIfEENSt3__16vectorIfNS1_9allocatorIfEEEEjRKN4simd8float4x4ERKNS_8Buffer2DIT_EEff,
                            __ZN9apple3dgs9TextureIO10kImageSizeE,
                            __ZN9apple3dgs9TextureIO10kNearPlaneE,
                            __ZN9apple3dgs9TextureIO11kAOTFRTrackE,
                            __ZN9apple3dgs9TextureIO11kColorSpaceE,
                            __ZN9apple3dgs9TextureIO12kPixelFormatE,
                            __ZN9apple3dgs9TextureIO14kMetadataTrackE,
                            __ZN9apple3dgs9TextureIO17kProjectionMatrixE,
                            __ZN9apple3dgs9TextureIO18kOriginalTimestampE,
                            __ZN9apple3dgs9TextureIO19kEncodedPixelFormatE,
                            __ZN9apple3dgs9TextureIO9kFarPlaneE,
                            __ZNSt3__119piecewise_constructE ]
...
