--- !tapi-tbd
tbd-version:     4
targets:         [ x86_64-macos, arm64e-macos ]
install-name:    '/System/Library/PrivateFrameworks/OnDeviceStorageDaemon.framework/Versions/A/OnDeviceStorageDaemon'
swift-abi-version: 7
allowable-clients:
  - targets:         [ x86_64-macos, arm64e-macos ]
    clients:         [ OnDeviceStorageDaemonTests, ServicesAnalyticsCore, amsondevicestoraged ]
exports:
  - targets:         [ x86_64-macos ]
    weak-symbols:    [ __ZTIN4hsql12TableElementE, __ZTINSt3__112format_errorE, __ZTSN4hsql12TableElementE, 
                       __ZTSNSt3__112format_errorE ]
  - targets:         [ x86_64-macos, arm64e-macos ]
    symbols:         [ '_$s11RawIterator3Cxx0C10DictionaryPTl', '_$s11RawIterator3Cxx0C17BorrowingSequencePTl', 
                       '_$s11RawIterator3Cxx0C23ConvertibleToCollectionPTl', '_$s11RawIterator3Cxx0C3SetPTl', 
                       '_$s11RawIterator3Cxx0C6VectorPTl', '_$s15InsertionResult3Cxx0C10DictionaryPTl', 
                       '_$s15InsertionResult3Cxx0C3SetPTl', '_$s17BorrowingIterator3Cxx0cA8SequencePTl', 
                       '_$s17DereferenceResult3Cxx06UnsafeC13InputIteratorPTl', '_$s18RawMutableIterator3Cxx0D10DictionaryPTl', 
                       '_$s18RawMutableIterator3Cxx0D3SetPTl', '_$s18RawMutableIterator3Cxx0dB22RandomAccessCollectionPTl', 
                       '_$s21OnDeviceStorageDaemon0cD7ServiceV04machE4NameSSvgZ', 
                       '_$s21OnDeviceStorageDaemon0cD7ServiceV04machE4NameSSvpZMV', 
                       '_$s21OnDeviceStorageDaemon0cD7ServiceV0abD00dE0AAMc', '_$s21OnDeviceStorageDaemon0cD7ServiceV16xpcListenerQueueSo24OS_dispatch_queue_serialCvg', 
                       '_$s21OnDeviceStorageDaemon0cD7ServiceV16xpcListenerQueueSo24OS_dispatch_queue_serialCvpMV', 
                       '_$s21OnDeviceStorageDaemon0cD7ServiceV19handleDirectRequest_4from9sessionIdSE_s8Sendablep0abC4Core13ClientMessageO_AA0N4InfoVSStYaKF', 
                       '_$s21OnDeviceStorageDaemon0cD7ServiceV19handleDirectRequest_4from9sessionIdSE_s8Sendablep0abC4Core13ClientMessageO_AA0N4InfoVSStYaKFTu', 
                       '_$s21OnDeviceStorageDaemon0cD7ServiceV21handleIncomingSessiony3XPC11XPCListenerC0gH7RequestC8DecisionVAIF', 
                       '_$s21OnDeviceStorageDaemon0cD7ServiceVACycfC', '_$s21OnDeviceStorageDaemon0cD7ServiceVMa', 
                       '_$s21OnDeviceStorageDaemon0cD7ServiceVMn', '_$s21OnDeviceStorageDaemon0cD7ServiceVN', 
                       '_$s21OnDeviceStorageDaemon10ClientInfoV0aB10Foundation18EntitlementCheckerAAMc', 
                       '_$s21OnDeviceStorageDaemon10ClientInfoV13forDirectCall8bundleId04userK0ACSS_SStFZ', 
                       '_$s21OnDeviceStorageDaemon10ClientInfoV14hasEntitlementySbSSF', 
                       '_$s21OnDeviceStorageDaemon10ClientInfoV15hasEntitlementsySbSaySSGF', 
                       '_$s21OnDeviceStorageDaemon10ClientInfoV19forInProcessSession8bundleId04userL018entitlementCheckerACSS_SS0aB10Foundation011EntitlementO0_ptFZ', 
                       '_$s21OnDeviceStorageDaemon10ClientInfoVMa', '_$s21OnDeviceStorageDaemon10ClientInfoVMn', 
                       '_$s21OnDeviceStorageDaemon10ClientInfoVN', '_$s21OnDeviceStorageDaemon10TaskCenterMp', 
                       '_$s21OnDeviceStorageDaemon10TaskCenterP20scheduleInitialTasks8asPartOfy7JetCore15BaseObjectGraphC_tFTj', 
                       '_$s21OnDeviceStorageDaemon10TaskCenterP20scheduleInitialTasks8asPartOfy7JetCore15BaseObjectGraphC_tFTq', 
                       '_$s21OnDeviceStorageDaemon10TaskCenterP23scheduleBackgroundTasks4withy0aB10Foundation16BootstrapSessionCy7JetCore15BaseObjectGraphCG_tFTj', 
                       '_$s21OnDeviceStorageDaemon10TaskCenterP23scheduleBackgroundTasks4withy0aB10Foundation16BootstrapSessionCy7JetCore15BaseObjectGraphCG_tFTq', 
                       '_$s21OnDeviceStorageDaemon10TaskCenterP23scheduleBackgroundTasks8asPartOfy7JetCore15BaseObjectGraphC_tFTj', 
                       '_$s21OnDeviceStorageDaemon10TaskCenterP23scheduleBackgroundTasks8asPartOfy7JetCore15BaseObjectGraphC_tFTq', 
                       '_$s21OnDeviceStorageDaemon10TaskCenterP3run_8asPartOfyAA0E4Type_p_7JetCore15BaseObjectGraphCtYaKFTj', 
                       '_$s21OnDeviceStorageDaemon10TaskCenterP3run_8asPartOfyAA0E4Type_p_7JetCore15BaseObjectGraphCtYaKFTjTu', 
                       '_$s21OnDeviceStorageDaemon10TaskCenterP3run_8asPartOfyAA0E4Type_p_7JetCore15BaseObjectGraphCtYaKFTq', 
                       '_$s21OnDeviceStorageDaemon10TaskCenterP8schedule_8asPartOfyAA0E4Type_p_7JetCore15BaseObjectGraphCtFTj', 
                       '_$s21OnDeviceStorageDaemon10TaskCenterP8schedule_8asPartOfyAA0E4Type_p_7JetCore15BaseObjectGraphCtFTq', 
                       '_$s21OnDeviceStorageDaemon10TaskCenterTL', '_$s21OnDeviceStorageDaemon20ClientSessionManagerMp', 
                       '_$s21OnDeviceStorageDaemon20ClientSessionManagerP13handleRequest_4from05inXpcF08asPartOfSE_s8Sendablep0abC4Core0E7MessageO_AA0E4InfoVSS03JetQ015BaseObjectGraphCtYaKFTj', 
                       '_$s21OnDeviceStorageDaemon20ClientSessionManagerP13handleRequest_4from05inXpcF08asPartOfSE_s8Sendablep0abC4Core0E7MessageO_AA0E4InfoVSS03JetQ015BaseObjectGraphCtYaKFTjTu', 
                       '_$s21OnDeviceStorageDaemon20ClientSessionManagerP13handleRequest_4from05inXpcF08asPartOfSE_s8Sendablep0abC4Core0E7MessageO_AA0E4InfoVSS03JetQ015BaseObjectGraphCtYaKFTq', 
                       '_$s21OnDeviceStorageDaemon20ClientSessionManagerP16handleDisconnect3for8asPartOfySS_7JetCore15BaseObjectGraphCtYaFTj', 
                       '_$s21OnDeviceStorageDaemon20ClientSessionManagerP16handleDisconnect3for8asPartOfySS_7JetCore15BaseObjectGraphCtYaFTjTu', 
                       '_$s21OnDeviceStorageDaemon20ClientSessionManagerP16handleDisconnect3for8asPartOfySS_7JetCore15BaseObjectGraphCtYaFTq', 
                       '_$s21OnDeviceStorageDaemon20ClientSessionManagerTL', '_$s21OnDeviceStorageDaemon8TaskTypeMp', 
                       '_$s21OnDeviceStorageDaemon8TaskTypeP12finalCleanup8asPartOfy7JetCore15BaseObjectGraphC_tYaFTj', 
                       '_$s21OnDeviceStorageDaemon8TaskTypeP12finalCleanup8asPartOfy7JetCore15BaseObjectGraphC_tYaFTjTu', 
                       '_$s21OnDeviceStorageDaemon8TaskTypeP12finalCleanup8asPartOfy7JetCore15BaseObjectGraphC_tYaFTq', 
                       '_$s21OnDeviceStorageDaemon8TaskTypeP3run8asPartOfy7JetCore15BaseObjectGraphC_tYaKFTj', 
                       '_$s21OnDeviceStorageDaemon8TaskTypeP3run8asPartOfy7JetCore15BaseObjectGraphC_tYaKFTjTu', 
                       '_$s21OnDeviceStorageDaemon8TaskTypeP3run8asPartOfy7JetCore15BaseObjectGraphC_tYaKFTq', 
                       '_$s21OnDeviceStorageDaemon8TaskTypeP9serviceIdSSvgTj', '_$s21OnDeviceStorageDaemon8TaskTypeP9serviceIdSSvgTq', 
                       '_$s21OnDeviceStorageDaemon8TaskTypePs23CustomStringConvertibleTb', 
                       '_$s21OnDeviceStorageDaemon8TaskTypeTL', '_$s21OnDeviceStorageDaemon9BootstrapV10taskCenterAA04TaskG0_pvg', 
                       '_$s21OnDeviceStorageDaemon9BootstrapV10taskCenterAA04TaskG0_pvpMV', 
                       '_$s21OnDeviceStorageDaemon9BootstrapV5start7JetCore15BaseObjectGraphCyYaKF', 
                       '_$s21OnDeviceStorageDaemon9BootstrapV5start7JetCore15BaseObjectGraphCyYaKFTu', 
                       '_$s21OnDeviceStorageDaemon9BootstrapVACycfC', '_$s21OnDeviceStorageDaemon9BootstrapVMa', 
                       '_$s21OnDeviceStorageDaemon9BootstrapVMn', '_$s21OnDeviceStorageDaemon9BootstrapVN', 
                       '_$s3Cxx06UnsafeA13InputIteratorMp', '_$s3Cxx06UnsafeA13InputIteratorP14__operatorStar17DereferenceResultQzyFTj', 
                       '_$s3Cxx06UnsafeA13InputIteratorP14__operatorStar17DereferenceResultQzyFTq', 
                       '_$s3Cxx06UnsafeA13InputIteratorP7pointee7PointeeQzvrTj', 
                       '_$s3Cxx06UnsafeA13InputIteratorP7pointee7PointeeQzvrTq', 
                       '_$s3Cxx06UnsafeA13InputIteratorP9successorxyFTj', '_$s3Cxx06UnsafeA13InputIteratorP9successorxyFTq', 
                       '_$s3Cxx06UnsafeA13InputIteratorPSQTb', '_$s3Cxx06UnsafeA13InputIteratorTL', 
                       '_$s3Cxx06UnsafeA18ContiguousIteratorMp', '_$s3Cxx06UnsafeA18ContiguousIteratorPAA0ba12RandomAccessD0Tb', 
                       '_$s3Cxx06UnsafeA18ContiguousIteratorTL', '_$s3Cxx06UnsafeA20MutableInputIteratorMp', 
                       '_$s3Cxx06UnsafeA20MutableInputIteratorP7pointee7PointeeQzvMTj', 
                       '_$s3Cxx06UnsafeA20MutableInputIteratorP7pointee7PointeeQzvMTq', 
                       '_$s3Cxx06UnsafeA20MutableInputIteratorP7pointee7PointeeQzvsTj', 
                       '_$s3Cxx06UnsafeA20MutableInputIteratorP7pointee7PointeeQzvsTq', 
                       '_$s3Cxx06UnsafeA20MutableInputIteratorPAA0badE0Tb', '_$s3Cxx06UnsafeA20MutableInputIteratorTL', 
                       '_$s3Cxx06UnsafeA20RandomAccessIteratorMp', '_$s3Cxx06UnsafeA20RandomAccessIteratorP1soiy8DistanceQzx_xtFZTj', 
                       '_$s3Cxx06UnsafeA20RandomAccessIteratorP1soiy8DistanceQzx_xtFZTq', 
                       '_$s3Cxx06UnsafeA20RandomAccessIteratorP2peoiyyxz_8DistanceQztFZTj', 
                       '_$s3Cxx06UnsafeA20RandomAccessIteratorP2peoiyyxz_8DistanceQztFZTq', 
                       '_$s3Cxx06UnsafeA20RandomAccessIteratorP8DistanceAC_SzTn', 
                       '_$s3Cxx06UnsafeA20RandomAccessIteratorPAA0ba5InputE0Tb', 
                       '_$s3Cxx06UnsafeA20RandomAccessIteratorTL', '_$s3Cxx06UnsafeA25MutableContiguousIteratorMp', 
                       '_$s3Cxx06UnsafeA25MutableContiguousIteratorPAA0bac12RandomAccessE0Tb', 
                       '_$s3Cxx06UnsafeA25MutableContiguousIteratorPAA0badE0Tb', 
                       '_$s3Cxx06UnsafeA25MutableContiguousIteratorTL', '_$s3Cxx06UnsafeA27MutableRandomAccessIteratorMp', 
                       '_$s3Cxx06UnsafeA27MutableRandomAccessIteratorPAA0bac5InputF0Tb', 
                       '_$s3Cxx06UnsafeA27MutableRandomAccessIteratorPAA0badeF0Tb', 
                       '_$s3Cxx06UnsafeA27MutableRandomAccessIteratorTL', '_$s3Cxx0A10DictionaryMp', 
                       '_$s3Cxx0A10DictionaryP11RawIteratorAC_AA06Unsafea5InputD0Tn', 
                       '_$s3Cxx0A10DictionaryP11__endUnsafe11RawIteratorQzyFTj', 
                       '_$s3Cxx0A10DictionaryP11__endUnsafe11RawIteratorQzyFTq', 
                       '_$s3Cxx0A10DictionaryP12__findUnsafey11RawIteratorQz3KeyQzFTj', 
                       '_$s3Cxx0A10DictionaryP12__findUnsafey11RawIteratorQz3KeyQzFTq', 
                       '_$s3Cxx0A10DictionaryP13__beginUnsafe11RawIteratorQzyFTj', 
                       '_$s3Cxx0A10DictionaryP13__beginUnsafe11RawIteratorQzyFTq', 
                       '_$s3Cxx0A10DictionaryP13__eraseUnsafey18RawMutableIteratorQzAFFTj', 
                       '_$s3Cxx0A10DictionaryP13__eraseUnsafey18RawMutableIteratorQzAFFTq', 
                       '_$s3Cxx0A10DictionaryP14__insertUnsafey15InsertionResultQz7ElementQzFTj', 
                       '_$s3Cxx0A10DictionaryP14__insertUnsafey15InsertionResultQz7ElementQzFTq', 
                       '_$s3Cxx0A10DictionaryP18RawMutableIteratorAC_AA06Unsafead5InputE0Tn', 
                       '_$s3Cxx0A10DictionaryP19__endMutatingUnsafe18RawMutableIteratorQzyFTj', 
                       '_$s3Cxx0A10DictionaryP19__endMutatingUnsafe18RawMutableIteratorQzyFTq', 
                       '_$s3Cxx0A10DictionaryP20__findMutatingUnsafey18RawMutableIteratorQz3KeyQzFTj', 
                       '_$s3Cxx0A10DictionaryP20__findMutatingUnsafey18RawMutableIteratorQz3KeyQzFTq', 
                       '_$s3Cxx0A10DictionaryP4SizeAC_SzTn', '_$s3Cxx0A10DictionaryP5erasey4SizeQz3KeyQzFTj', 
                       '_$s3Cxx0A10DictionaryP5erasey4SizeQz3KeyQzFTq', '_$s3Cxx0A10DictionaryP7ElementAC_AA0A4PairTn', 
                       '_$s3Cxx0A10DictionaryPAAE11removeValue6forKey0D0QzSg0F0Qz_tF', 
                       '_$s3Cxx0A10DictionaryPAAE16compactMapValuesyqd__5ValueQyd__SgAEQzqd_0_YKXEqd_0_YKAaBRd__s5ErrorRd_0_3KeyQyd__AJRtzr0_lF', 
                       '_$s3Cxx0A10DictionaryPAAE16compactMapValuesyx5ValueQzSgAFqd__YKXEqd__YKs5ErrorRd__lF', 
                       '_$s3Cxx0A10DictionaryPAAE17dictionaryLiteralx3KeyQz_5ValueQztd_tcfC', 
                       '_$s3Cxx0A10DictionaryPAAE5merge_16uniquingKeysWithySDy3KeyQz5ValueQzGn_A2I_AItqd__YKXEtqd__YKs5ErrorRd__SHAGRQlF', 
                       '_$s3Cxx0A10DictionaryPAAE5merge_16uniquingKeysWithyqd__n_5ValueQzAG_AGtqd_0_YKXEtqd_0_YKAaBRd__s5ErrorRd_0_3KeyQyd__AIRtzAFQyd__AGRSr0_lF', 
                       '_$s3Cxx0A10DictionaryPAAE5merge_16uniquingKeysWithyqd__n_5ValueQzAG_AGtqd_0_YKXEtqd_0_YKSTRd__s5ErrorRd_0_3KeyQz_AGt7ElementRtd__r0_lF', 
                       '_$s3Cxx0A10DictionaryPAAE6filteryxSb3KeyQz_5ValueQztKXEKF', 
                       '_$s3Cxx0A10DictionaryPAAE7merging_16uniquingKeysWithxSDy3KeyQz5ValueQzGn_A2I_AItqd__YKXEtqd__YKs5ErrorRd__SHAGRQlF', 
                       '_$s3Cxx0A10DictionaryPAAE7merging_16uniquingKeysWithxqd__n_5ValueQzAG_AGtqd_0_YKXEtqd_0_YKAaBRd__s5ErrorRd_0_3KeyQyd__AIRtzAFQyd__AGRSr0_lF', 
                       '_$s3Cxx0A10DictionaryPAAE7merging_16uniquingKeysWithxqd__n_5ValueQzAG_AGtqd_0_YKXEtqd_0_YKSTRd__s5ErrorRd_0_3KeyQz_AGt7ElementRtd__r0_lF', 
                       '_$s3Cxx0A10DictionaryPAAE8grouping2byxqd__n_3KeyQz7ElementQyd__KXEtKcSTRd__AA0A6Vector5ValueRpzAK_AHQZAIRSlufC', 
                       '_$s3Cxx0A10DictionaryPAAE9mapValuesyqd__5ValueQyd__AEQzqd_0_YKXEqd_0_YKAaBRd__s5ErrorRd_0_3KeyQyd__AIRtzr0_lF', 
                       '_$s3Cxx0A10DictionaryPAAE9mapValuesyx5ValueQzAFqd__YKXEqd__YKs5ErrorRd__lF', 
                       '_$s3Cxx0A10DictionaryPAAE_7default5ValueQz3KeyQz_AFyXKtciM', 
                       '_$s3Cxx0A10DictionaryPAAE_7default5ValueQz3KeyQz_AFyXKtcig', 
                       '_$s3Cxx0A10DictionaryPAAE_7default5ValueQz3KeyQz_AFyXKtcis', 
                       '_$s3Cxx0A10DictionaryPAAEy5ValueQzSg3KeyQzciM', '_$s3Cxx0A10DictionaryPAAEy5ValueQzSg3KeyQzcig', 
                       '_$s3Cxx0A10DictionaryPAAEy5ValueQzSg3KeyQzcipMV', '_$s3Cxx0A10DictionaryPAAEy5ValueQzSg3KeyQzcis', 
                       '_$s3Cxx0A10DictionaryPAAEyxSDy3KeyQz5ValueQzGcSHAERQrlufC', 
                       '_$s3Cxx0A10DictionaryPs013ExpressibleByB7LiteralTb', '_$s3Cxx0A10DictionaryPxycfCTj', 
                       '_$s3Cxx0A10DictionaryPxycfCTq', '_$s3Cxx0A10DictionaryTL', 
                       '_$s3Cxx0A11MutableSpanMp', '_$s3Cxx0A11MutableSpanP12__dataUnsafeSpy7ElementQzGSgyFTj', 
                       '_$s3Cxx0A11MutableSpanP12__dataUnsafeSpy7ElementQzGSgyFTq', 
                       '_$s3Cxx0A11MutableSpanP4SizeAC_SzTn', '_$s3Cxx0A11MutableSpanP4size4SizeQzyFTj', 
                       '_$s3Cxx0A11MutableSpanP4size4SizeQzyFTq', '_$s3Cxx0A11MutableSpanPxycfCTj', 
                       '_$s3Cxx0A11MutableSpanPxycfCTq', '_$s3Cxx0A11MutableSpanPyxSpy7ElementQzGSg_4SizeQztcfCTj', 
                       '_$s3Cxx0A11MutableSpanPyxSpy7ElementQzGSg_4SizeQztcfCTq', 
                       '_$s3Cxx0A11MutableSpanTL', '_$s3Cxx0A11SequenceBoxC8sequencexvM', 
                       '_$s3Cxx0A11SequenceBoxC8sequencexvg', '_$s3Cxx0A11SequenceBoxC8sequencexvpMV', 
                       '_$s3Cxx0A11SequenceBoxC8sequencexvs', '_$s3Cxx0A11SequenceBoxCMa', 
                       '_$s3Cxx0A11SequenceBoxCMn', '_$s3Cxx0A11SequenceBoxCMo', 
                       '_$s3Cxx0A11SequenceBoxCMu', '_$s3Cxx0A11SequenceBoxCfD', 
                       '_$s3Cxx0A11SequenceBoxCfd', '_$s3Cxx0A11SequenceBoxCyACyxGxhcfC', 
                       '_$s3Cxx0A11SequenceBoxCyACyxGxhcfCTj', '_$s3Cxx0A11SequenceBoxCyACyxGxhcfCTq', 
                       '_$s3Cxx0A11SequenceBoxCyACyxGxhcfc', '_$s3Cxx0A17BorrowingIteratorVA2A06Unsafea10ContiguousC003RawC0RpzRi_zRi0_z7ElementRj_zrlE5countSivg', 
                       '_$s3Cxx0A17BorrowingIteratorVA2A06Unsafea10ContiguousC003RawC0RpzRi_zRi0_z7ElementRj_zrlE8nextSpan12maximumCounts0I0VyAHGSi_tF', 
                       '_$s3Cxx0A17BorrowingIteratorVA2A06Unsafea10ContiguousC003RawC0RpzRi_zRi0_z7ElementRj_zrlE8nextSpans0I0VyAHGyF', 
                       '_$s3Cxx0A17BorrowingIteratorVAARi_zRi0_z7ElementRj_zrlE3end03RawC0Qzvg', 
                       '_$s3Cxx0A17BorrowingIteratorVAARi_zRi0_z7ElementRj_zrlE5begin3end8sequenceACyxG03RawC0Qz_AKxhtcfC', 
                       '_$s3Cxx0A17BorrowingIteratorVAARi_zRi0_z7ElementRj_zrlE7current03RawC0QzvM', 
                       '_$s3Cxx0A17BorrowingIteratorVAARi_zRi0_z7ElementRj_zrlE7current03RawC0Qzvg', 
                       '_$s3Cxx0A17BorrowingIteratorVAARi_zRi0_z7ElementRj_zrlE7current03RawC0Qzvs', 
                       '_$s3Cxx0A17BorrowingIteratorVAARi_zRi0_z7ElementRj_zrlE8nextSpan12maximumCounts0F0VyAEGSi_tF', 
                       '_$s3Cxx0A17BorrowingIteratorVMa', '_$s3Cxx0A17BorrowingIteratorVMn', 
                       '_$s3Cxx0A17BorrowingIteratorVyxGs0bC8ProtocolAARi_zRi0_z7ElementRj_zrlMc', 
                       '_$s3Cxx0A17BorrowingSequenceMp', '_$s3Cxx0A17BorrowingSequenceP11RawIteratorAC_17DereferenceResultAA06Unsafea5InputE0Ps8_PointerTn', 
                       '_$s3Cxx0A17BorrowingSequenceP11RawIteratorAC_AA06Unsafea5InputE0Tn', 
                       '_$s3Cxx0A17BorrowingSequenceP11__endUnsafe11RawIteratorQzyFTj', 
                       '_$s3Cxx0A17BorrowingSequenceP11__endUnsafe11RawIteratorQzyFTq', 
                       '_$s3Cxx0A17BorrowingSequenceP13__beginUnsafe11RawIteratorQzyFTj', 
                       '_$s3Cxx0A17BorrowingSequenceP13__beginUnsafe11RawIteratorQzyFTq', 
                       '_$s3Cxx0A17BorrowingSequencePAARi_z7ElementRj_zrlE04makeB8IteratorAA0abF0VyxGyF', 
                       '_$s3Cxx0A17BorrowingSequencePs0bC0Tb', '_$s3Cxx0A17BorrowingSequenceTL', 
                       '_$s3Cxx0A17ConvertibleToBoolMp', '_$s3Cxx0A17ConvertibleToBoolP09__convertcD0SbyFTj', 
                       '_$s3Cxx0A17ConvertibleToBoolP09__convertcD0SbyFTq', '_$s3Cxx0A17ConvertibleToBoolTL', 
                       '_$s3Cxx0A22RandomAccessCollectionMp', '_$s3Cxx0A22RandomAccessCollectionP11RawIteratorAA0a13ConvertibleToD0P_AA06UnsafeabcF0Tn', 
                       '_$s3Cxx0A22RandomAccessCollectionPAA0A8SequenceTb', '_$s3Cxx0A22RandomAccessCollectionPAAE10startIndexSivg', 
                       '_$s3Cxx0A22RandomAccessCollectionPAAE10startIndexSivpMV', 
                       '_$s3Cxx0A22RandomAccessCollectionPAAE15_getRawIterator2at0fG0QzSi_tF', 
                       '_$s3Cxx0A22RandomAccessCollectionPAAE5countSivg', '_$s3Cxx0A22RandomAccessCollectionPAAE5countSivpMV', 
                       '_$s3Cxx0A22RandomAccessCollectionPAAE8endIndexSivg', '_$s3Cxx0A22RandomAccessCollectionPAAE8endIndexSivpMV', 
                       '_$s3Cxx0A22RandomAccessCollectionPAAEy7ElementQzSicig', '_$s3Cxx0A22RandomAccessCollectionPAAEy7ElementQzSicipMV', 
                       '_$s3Cxx0A22RandomAccessCollectionPAAEy7ElementQzSicir', '_$s3Cxx0A22RandomAccessCollectionPSkTb', 
                       '_$s3Cxx0A22RandomAccessCollectionTL', '_$s3Cxx0A23ConvertibleToCollectionMp', 
                       '_$s3Cxx0A23ConvertibleToCollectionP11RawIteratorAC_AA06Unsafea5InputF0Tn', 
                       '_$s3Cxx0A23ConvertibleToCollectionP11__endUnsafe11RawIteratorQzyFTj', 
                       '_$s3Cxx0A23ConvertibleToCollectionP11__endUnsafe11RawIteratorQzyFTq', 
                       '_$s3Cxx0A23ConvertibleToCollectionP13__beginUnsafe11RawIteratorQzyFTj', 
                       '_$s3Cxx0A23ConvertibleToCollectionP13__beginUnsafe11RawIteratorQzyFTq', 
                       '_$s3Cxx0A23ConvertibleToCollectionPAAE7forEachyyy7ElementQzKXEKF', 
                       '_$s3Cxx0A23ConvertibleToCollectionPAASTRzrlE7forEachyyy7ElementACQzKXEKF', 
                       '_$s3Cxx0A23ConvertibleToCollectionTL', '_$s3Cxx0A29MutableRandomAccessCollectionMp', 
                       '_$s3Cxx0A29MutableRandomAccessCollectionP03RawB8IteratorAC_AA06UnsafeabcdG0Tn', 
                       '_$s3Cxx0A29MutableRandomAccessCollectionP19__endMutatingUnsafe03RawB8IteratorQzyFTj', 
                       '_$s3Cxx0A29MutableRandomAccessCollectionP19__endMutatingUnsafe03RawB8IteratorQzyFTq', 
                       '_$s3Cxx0A29MutableRandomAccessCollectionP21__beginMutatingUnsafe03RawB8IteratorQzyFTj', 
                       '_$s3Cxx0A29MutableRandomAccessCollectionP21__beginMutatingUnsafe03RawB8IteratorQzyFTq', 
                       '_$s3Cxx0A29MutableRandomAccessCollectionPAA0acdE0Tb', '_$s3Cxx0A29MutableRandomAccessCollectionPAAEy7ElementQzSiciM', 
                       '_$s3Cxx0A29MutableRandomAccessCollectionPAAEy7ElementQzSicig', 
                       '_$s3Cxx0A29MutableRandomAccessCollectionPAAEy7ElementQzSicipMV', 
                       '_$s3Cxx0A29MutableRandomAccessCollectionPAAEy7ElementQzSicir', 
                       '_$s3Cxx0A29MutableRandomAccessCollectionPAAEy7ElementQzSicis', 
                       '_$s3Cxx0A29MutableRandomAccessCollectionPSMTb', '_$s3Cxx0A29MutableRandomAccessCollectionTL', 
                       '_$s3Cxx0A3SetMp', '_$s3Cxx0A3SetP11RawIteratorAC_AA06Unsafea5InputD0Tn', 
                       '_$s3Cxx0A3SetP11__endUnsafe11RawIteratorQzyFTj', '_$s3Cxx0A3SetP11__endUnsafe11RawIteratorQzyFTq', 
                       '_$s3Cxx0A3SetP12__findUnsafey11RawIteratorQz7ElementQzFTj', 
                       '_$s3Cxx0A3SetP12__findUnsafey11RawIteratorQz7ElementQzFTq', 
                       '_$s3Cxx0A3SetP14__insertUnsafey15InsertionResultQz7ElementQzFTj', 
                       '_$s3Cxx0A3SetP14__insertUnsafey15InsertionResultQz7ElementQzFTq', 
                       '_$s3Cxx0A3SetP18RawMutableIteratorAC_AA06Unsafea5InputE0Tn', 
                       '_$s3Cxx0A3SetP4SizeAC_SzTn', '_$s3Cxx0A3SetP5county4SizeQz7ElementQzFTj', 
                       '_$s3Cxx0A3SetP5county4SizeQz7ElementQzFTq', '_$s3Cxx0A3SetPAAE12arrayLiteralx7ElementQzd_tcfC', 
                       '_$s3Cxx0A3SetPAAE8containsySb7ElementQzF', '_$s3Cxx0A3SetPAAEyxqd__hcSTRd__7ElementQyd__ADRtzlufC', 
                       '_$s3Cxx0A3SetPs25ExpressibleByArrayLiteralTb', '_$s3Cxx0A3SetPxycfCTj', 
                       '_$s3Cxx0A3SetPxycfCTq', '_$s3Cxx0A3SetTL', '_$s3Cxx0A4PairMp', 
                       '_$s3Cxx0A4PairP5first5FirstQzvMTj', '_$s3Cxx0A4PairP5first5FirstQzvMTq', 
                       '_$s3Cxx0A4PairP5first5FirstQzvrTj', '_$s3Cxx0A4PairP5first5FirstQzvrTq', 
                       '_$s3Cxx0A4PairP5first5FirstQzvsTj', '_$s3Cxx0A4PairP5first5FirstQzvsTq', 
                       '_$s3Cxx0A4PairP5first6secondx5FirstQz_6SecondQztcfCTj', '_$s3Cxx0A4PairP5first6secondx5FirstQz_6SecondQztcfCTq', 
                       '_$s3Cxx0A4PairP6second6SecondQzvMTj', '_$s3Cxx0A4PairP6second6SecondQzvMTq', 
                       '_$s3Cxx0A4PairP6second6SecondQzvrTj', '_$s3Cxx0A4PairP6second6SecondQzvrTq', 
                       '_$s3Cxx0A4PairP6second6SecondQzvsTj', '_$s3Cxx0A4PairP6second6SecondQzvsTq', 
                       '_$s3Cxx0A4PairTL', '_$s3Cxx0A4SpanMp', '_$s3Cxx0A4SpanP12__dataUnsafeSPy7ElementQzGSgyFTj', 
                       '_$s3Cxx0A4SpanP12__dataUnsafeSPy7ElementQzGSgyFTq', '_$s3Cxx0A4SpanP4SizeAC_SzTn', 
                       '_$s3Cxx0A4SpanP4size4SizeQzyFTj', '_$s3Cxx0A4SpanP4size4SizeQzyFTq', 
                       '_$s3Cxx0A4SpanPxycfCTj', '_$s3Cxx0A4SpanPxycfCTq', '_$s3Cxx0A4SpanPyxSPy7ElementQzGSg_4SizeQztcfCTj', 
                       '_$s3Cxx0A4SpanPyxSPy7ElementQzGSg_4SizeQztcfCTq', '_$s3Cxx0A4SpanTL', 
                       '_$s3Cxx0A6VectorMp', '_$s3Cxx0A6VectorP11RawIteratorAC_AA06Unsafea12RandomAccessD0Tn', 
                       '_$s3Cxx0A6VectorP12__dataUnsafeSPy7ElementQzGSgyFTj', '_$s3Cxx0A6VectorP12__dataUnsafeSPy7ElementQzGSgyFTq', 
                       '_$s3Cxx0A6VectorP4SizeAC_SzTn', '_$s3Cxx0A6VectorP4size4SizeQzyFTj', 
                       '_$s3Cxx0A6VectorP4size4SizeQzyFTq', '_$s3Cxx0A6VectorP9push_backyy7ElementQzFTj', 
                       '_$s3Cxx0A6VectorP9push_backyy7ElementQzFTq', '_$s3Cxx0A6VectorPAAE12arrayLiteralx7ElementQzd_tcfC', 
                       '_$s3Cxx0A6VectorPAAEyxqd__hcSTRd__7ElementQyd__ADRtzlufC', 
                       '_$s3Cxx0A6VectorPs25ExpressibleByArrayLiteralTb', '_$s3Cxx0A6VectorPxycfCTj', 
                       '_$s3Cxx0A6VectorPxycfCTq', '_$s3Cxx0A6VectorTL', '_$s3Cxx0A8IteratorV03endB003RawB0Qzvg', 
                       '_$s3Cxx0A8IteratorV03endB003RawB0QzvpMV', '_$s3Cxx0A8IteratorV03rawB003RawB0QzvM', 
                       '_$s3Cxx0A8IteratorV03rawB003RawB0Qzvg', '_$s3Cxx0A8IteratorV03rawB003RawB0QzvpMV', 
                       '_$s3Cxx0A8IteratorV03rawB003RawB0Qzvs', '_$s3Cxx0A8IteratorV4next7ElementQzSgyF', 
                       '_$s3Cxx0A8IteratorV8sequenceAA0A11SequenceBoxCyxGvg', '_$s3Cxx0A8IteratorV8sequenceAA0A11SequenceBoxCyxGvpMV', 
                       '_$s3Cxx0A8IteratorV8sequenceACyxGxh_tcfC', '_$s3Cxx0A8IteratorVMa', 
                       '_$s3Cxx0A8IteratorVMn', '_$s3Cxx0A8IteratorVyxGStAAMc', '_$s3Cxx0A8OptionalMp', 
                       '_$s3Cxx0A8OptionalP15__convertToBoolSbyFTj', '_$s3Cxx0A8OptionalP15__convertToBoolSbyFTq', 
                       '_$s3Cxx0A8OptionalP7pointee7WrappedQzvgTj', '_$s3Cxx0A8OptionalP7pointee7WrappedQzvgTq', 
                       '_$s3Cxx0A8OptionalPAAE10nilLiteralxyt_tcfC', '_$s3Cxx0A8OptionalPAAE5value7WrappedQzSgvM', 
                       '_$s3Cxx0A8OptionalPAAE5value7WrappedQzSgvg', '_$s3Cxx0A8OptionalPAAE5value7WrappedQzSgvpMV', 
                       '_$s3Cxx0A8OptionalPAAE5value7WrappedQzSgvs', '_$s3Cxx0A8OptionalPAAE8hasValueSbvg', 
                       '_$s3Cxx0A8OptionalPAAE8hasValueSbvpMV', '_$s3Cxx0A8OptionalPs23ExpressibleByNilLiteralTb', 
                       '_$s3Cxx0A8OptionalPxycfCTj', '_$s3Cxx0A8OptionalPxycfCTq', 
                       '_$s3Cxx0A8OptionalPyx7WrappedQzcfCTj', '_$s3Cxx0A8OptionalPyx7WrappedQzcfCTq', 
                       '_$s3Cxx0A8OptionalTL', '_$s3Cxx0A8SequenceMp', '_$s3Cxx0A8SequenceP11__endUnsafe11RawIteratorQzyFTj', 
                       '_$s3Cxx0A8SequenceP11__endUnsafe11RawIteratorQzyFTq', '_$s3Cxx0A8SequenceP13__beginUnsafe11RawIteratorQzyFTj', 
                       '_$s3Cxx0A8SequenceP13__beginUnsafe11RawIteratorQzyFTq', '_$s3Cxx0A8SequencePAA0A23ConvertibleToCollectionTb', 
                       '_$s3Cxx0A8SequencePAAE12makeIteratorAA0aD0VyxGyF', '_$s3Cxx0A8SequencePSTTb', 
                       '_$s3Cxx0A8SequenceTL', '_$s3Cxx0A9UniqueSetMp', '_$s3Cxx0A9UniqueSetP13__eraseUnsafey18RawMutableIteratorQz0fH0QzFTj', 
                       '_$s3Cxx0A9UniqueSetP13__eraseUnsafey18RawMutableIteratorQz0fH0QzFTq', 
                       '_$s3Cxx0A9UniqueSetP15InsertionResultAA0aC0P_AA0A4PairTn', 
                       '_$s3Cxx0A9UniqueSetPAA0aC0Tb', '_$s3Cxx0A9UniqueSetPAAE6insertySb8inserted_7ElementQz17memberAfterInserttAGF', 
                       '_$s3Cxx0A9UniqueSetPAAE6removey7ElementQzSgAFF', '_$s3Cxx0A9UniqueSetTL', 
                       '_$s3Cxx13unsafeBitCast_2toq_xn_q_mtRi_zRi0_zr0_lF', '_$s3XPC18XPCReceivedMessageV21OnDeviceStorageDaemonE16bundleIdentifierSSvg', 
                       '_$s3XPC18XPCReceivedMessageV21OnDeviceStorageDaemonE16bundleIdentifierSSvpMV', 
                       '_$s4Size3Cxx0B10DictionaryPTl', '_$s4Size3Cxx0B11MutableSpanPTl', 
                       '_$s4Size3Cxx0B3SetPTl', '_$s4Size3Cxx0B4SpanPTl', '_$s4Size3Cxx0B6VectorPTl', 
                       '_$s5First3Cxx0B4PairPTl', '_$s6Second3Cxx0B4PairPTl', '_$s7Element3Cxx0B10DictionaryPTl', 
                       '_$s7Element3Cxx0B11MutableSpanPTl', '_$s7Element3Cxx0B17BorrowingSequencePTl', 
                       '_$s7Element3Cxx0B23ConvertibleToCollectionPTl', '_$s7Element3Cxx0B3SetPTl', 
                       '_$s7Element3Cxx0B4SpanPTl', '_$s7Element3Cxx0B6VectorPTl', 
                       '_$s7Pointee3Cxx06UnsafeB13InputIteratorPTl', '_$s7Wrapped3Cxx0B8OptionalPTl', 
                       '_$s8Distance3Cxx06UnsafeB20RandomAccessIteratorPTl', '_$s9CryptoKit12SymmetricKeyVs23CustomStringConvertible21OnDeviceStorageDaemonMc', 
                       '_$s9CryptoKit13SecureEnclaveO4P256O12KeyAgreementO07PrivateF0Vs23CustomStringConvertible21OnDeviceStorageDaemonMc', 
                       '_$s9CryptoKit13SecureEnclaveO4P256O7SigningO10PrivateKeyVs23CustomStringConvertible21OnDeviceStorageDaemonMc', 
                       '_$sSD3CxxEySDyxq_Gqd__c3KeyQyd__Rsz5ValueQyd__Rs_AA0A10DictionaryRd__lufC', 
                       '_$sSP3CxxRi_zrlE14__operatorStarSPyxGyF', '_$sSPyxG3Cxx06UnsafeA13InputIteratorABRi_zrlMc', 
                       '_$sSPyxG3Cxx06UnsafeA20RandomAccessIteratorABRi_zrlMc', '_$sSb3CxxE04fromA0Sbxh_tcAA0A17ConvertibleToBoolRzlufC', 
                       '_$sSm3CxxEyxqd__hcAA0A23ConvertibleToCollectionRd__7ElementQyd__ACRtzlufC', 
                       '_$sSo4hsqlO16SQLStatementTypeV21OnDeviceStorageDaemonE11descriptionSSvg', 
                       '_$sSo4hsqlO16SQLStatementTypeV21OnDeviceStorageDaemonE11descriptionSSvpMV', 
                       '_$sSo4hsqlO16SQLStatementTypeVs23CustomStringConvertible21OnDeviceStorageDaemonMc', 
                       '_$sSp3CxxRi_zrlE14__operatorStarSpyxGyF', '_$sSpyxG3Cxx06UnsafeA13InputIteratorABRi_zrlMc', 
                       '_$sSpyxG3Cxx06UnsafeA20MutableInputIteratorABRi_zrlMc', '_$sSpyxG3Cxx06UnsafeA20RandomAccessIteratorABRi_zrlMc', 
                       '_$sSpyxG3Cxx06UnsafeA27MutableRandomAccessIteratorABRi_zrlMc', 
                       '_$sSq3CxxAA06UnsafeA13InputIteratorRzlE14__operatorStar17DereferenceResultQzyF', 
                       '_$sSq3CxxAA06UnsafeA13InputIteratorRzlE7pointee7PointeeQzvr', 
                       '_$sSq3CxxAA06UnsafeA13InputIteratorRzlE9successorxSgyF', 
                       '_$sSq3CxxE04fromA0xSgqd___tc7WrappedQyd__RszAA0A8OptionalRd__lufC', 
                       '_$ss10SetAlgebraP3CxxEyxqd__hcAC0C23ConvertibleToCollectionRd__7ElementQyd__AERtzlufC', 
                       '_$sxSg3Cxx06UnsafeA13InputIteratorA2bCRzlMc', _OnDeviceStorageDaemonVersionNumber, 
                       _OnDeviceStorageDaemonVersionString, __Z10hsql_allocmPv, __Z10hsql_errorP15HSQL_CUST_LTYPEPN4hsql15SQLParserResultEPvPKc, 
                       __Z10hsql_parsePN4hsql15SQLParserResultEPv, __Z11hsql_get_inPv, 
                       __Z11hsql_set_inP7__sFILEPv, __Z12hsql_get_outPv, __Z12hsql_reallocPvmS_, 
                       __Z12hsql_restartP7__sFILEPv, __Z12hsql_set_outP7__sFILEPv, 
                       __Z13hsql_get_lengPv, __Z13hsql_get_llocPv, __Z13hsql_get_lvalPv, 
                       __Z13hsql_get_textPv, __Z13hsql_lex_initPPv, __Z13hsql_set_llocP15HSQL_CUST_LTYPEPv, 
                       __Z13hsql_set_lvalP10HSQL_STYPEPv, __Z14hsql_get_debugPv, 
                       __Z14hsql_get_extraPv, __Z14hsql_set_debugiPv, __Z14hsql_set_extraPvS_, 
                       __Z15hsql_get_columnPv, __Z15hsql_get_linenoPv, __Z15hsql_set_columniPv, 
                       __Z15hsql_set_linenoiPv, __Z16hsql__scan_bytesPKcmPv, __Z16hsql_lex_destroyPv, 
                       __Z17hsql__scan_bufferPcmPv, __Z17hsql__scan_stringPKcPv, 
                       __Z18hsql__flush_bufferP15yy_buffer_statePv, __Z19hsql__create_bufferP7__sFILEiPv, 
                       __Z19hsql__delete_bufferP15yy_buffer_statePv, __Z19hsql_lex_init_extraPvPS_, 
                       __Z21hsql_pop_buffer_statePv, __Z22hsql__switch_to_bufferP15yy_buffer_statePv, 
                       __Z22hsql_push_buffer_stateP15yy_buffer_statePv, __Z7yyerrorPKc, 
                       __Z8hsql_lexP10HSQL_STYPEP15HSQL_CUST_LTYPEPv, __Z9hsql_freePvS_, 
                       __ZN4hsql10ColumnTypeC1ENS_8DataTypeExxx, __ZN4hsql10ColumnTypeC2ENS_8DataTypeExxx, 
                       __ZN4hsql10FrameBoundC1ExNS_14FrameBoundTypeEb, __ZN4hsql10FrameBoundC2ExNS_14FrameBoundTypeEb, 
                       __ZN4hsql10printAliasEPNS_5AliasEm, __ZN4hsql11AlterActionC1ENS_10ActionTypeE, 
                       __ZN4hsql11AlterActionC2ENS_10ActionTypeE, __ZN4hsql11AlterActionD0Ev, 
                       __ZN4hsql11AlterActionD1Ev, __ZN4hsql11AlterActionD2Ev, __ZN4hsql11SQLAnalyzer4Impl10popContextEv, 
                       __ZN4hsql11SQLAnalyzer4Impl11pushContextEPNS_7ContextE, __ZN4hsql11SQLAnalyzer4Impl12analyzeLimitEPKNS_16LimitDescriptionE, 
                       __ZN4hsql11SQLAnalyzer4Impl12analyzeTableEPKNS_8TableRefE, 
                       __ZN4hsql11SQLAnalyzer4Impl12clearContextEv, __ZN4hsql11SQLAnalyzer4Impl14analyzeGroupByEPKNS_18GroupByDescriptionE, 
                       __ZN4hsql11SQLAnalyzer4Impl14analyzeOrderByEPKNS_16OrderDescriptionE, 
                       __ZN4hsql11SQLAnalyzer4Impl15analyzeWithListEPKNSt3__16vectorIPNS_15WithDescriptionENS2_9allocatorIS5_EEEE, 
                       __ZN4hsql11SQLAnalyzer4Impl16analyzeTableListEPKNSt3__16vectorIPNS_8TableRefENS2_9allocatorIS5_EEEE, 
                       __ZN4hsql11SQLAnalyzer4Impl17addExpansionPointEPKNS_4ExprEPcS5_S5_RKNSt3__16vectorINS6_12basic_stringIcNS6_11char_traitsIcEENS6_9allocatorIcEEEENSB_ISD_EEEE, 
                       __ZN4hsql11SQLAnalyzer4Impl17analyzeExpressionEPKNS_4ExprE, 
                       __ZN4hsql11SQLAnalyzer4Impl17analyzeSelectListEPKNSt3__16vectorIPNS_4ExprENS2_9allocatorIS5_EEEE, 
                       __ZN4hsql11SQLAnalyzer4Impl17resolveTableAliasEPc, __ZN4hsql11SQLAnalyzer4Impl18analyzeOrderByListEPKNSt3__16vectorIPNS_16OrderDescriptionENS2_9allocatorIS5_EEEE, 
                       __ZN4hsql11SQLAnalyzer4Impl18analyzeWhereClauseEPKNS_4ExprE, 
                       __ZN4hsql11SQLAnalyzer4Impl21analyzeExpressionListEPKNSt3__16vectorIPNS_4ExprENS2_9allocatorIS5_EEEE, 
                       __ZN4hsql11SQLAnalyzer4Impl21resolveSchemaForTableEPc, __ZN4hsql11SQLAnalyzer4Impl22analyzeDeleteStatementEPKNS_15DeleteStatementE, 
                       __ZN4hsql11SQLAnalyzer4Impl22analyzeInsertStatementEPKNS_15InsertStatementE, 
                       __ZN4hsql11SQLAnalyzer4Impl22analyzeSelectStatementEPKNS_15SelectStatementE, 
                       __ZN4hsql11SQLAnalyzer4Impl22analyzeUpdateStatementEPKNS_15UpdateStatementE, 
                       __ZN4hsql11SQLAnalyzer4Impl23analyzeSetOperationListEPKNSt3__16vectorIPNS_12SetOperationENS2_9allocatorIS5_EEEE, 
                       __ZN4hsql11SQLAnalyzer4Impl24addTableToCurrentContextEPcS2_S2_, 
                       __ZN4hsql11SQLAnalyzer7analyzeERKNSt3__112basic_stringIcNS1_11char_traitsIcEENS1_9allocatorIcEEEERNS_19SQLStatementSummaryERNS_16SQLAnalyzerErrorE, 
                       __ZN4hsql11SQLAnalyzerC1Ev, __ZN4hsql11SQLAnalyzerC2Ev, __ZN4hsql11SQLAnalyzerD1Ev, 
                       __ZN4hsql11SQLAnalyzerD2Ev, __ZN4hsql12SQLStatementC1ENS_13StatementTypeE, 
                       __ZN4hsql12SQLStatementC2ENS_13StatementTypeE, __ZN4hsql12SQLStatementD0Ev, 
                       __ZN4hsql12SQLStatementD1Ev, __ZN4hsql12SQLStatementD2Ev, 
                       __ZN4hsql12SetOperationC1Ev, __ZN4hsql12SetOperationC2Ev, 
                       __ZN4hsql12SetOperationD0Ev, __ZN4hsql12SetOperationD1Ev, 
                       __ZN4hsql12SetOperationD2Ev, __ZN4hsql12printOrderByEPKNSt3__16vectorIPNS_16OrderDescriptionENS0_9allocatorIS3_EEEEm, 
                       __ZN4hsql13DropStatementC1ENS_8DropTypeE, __ZN4hsql13DropStatementC2ENS_8DropTypeE, 
                       __ZN4hsql13DropStatementD0Ev, __ZN4hsql13DropStatementD1Ev, 
                       __ZN4hsql13DropStatementD2Ev, __ZN4hsql13ShowStatementC1ENS_8ShowTypeE, 
                       __ZN4hsql13ShowStatementC2ENS_8ShowTypeE, __ZN4hsql13ShowStatementD0Ev, 
                       __ZN4hsql13ShowStatementD1Ev, __ZN4hsql13ShowStatementD2Ev, 
                       __ZN4hsql14AlterStatementC1EPcPNS_11AlterActionE, __ZN4hsql14AlterStatementC2EPcPNS_11AlterActionE, 
                       __ZN4hsql14AlterStatementD0Ev, __ZN4hsql14AlterStatementD1Ev, 
                       __ZN4hsql14AlterStatementD2Ev, __ZN4hsql14JoinDefinitionC1Ev, 
                       __ZN4hsql14JoinDefinitionC2Ev, __ZN4hsql14JoinDefinitionD0Ev, 
                       __ZN4hsql14JoinDefinitionD1Ev, __ZN4hsql14JoinDefinitionD2Ev, 
                       __ZN4hsql15CreateStatement27setColumnDefsAndConstraintsEPNSt3__16vectorIPNS_12TableElementENS1_9allocatorIS4_EEEE, 
                       __ZN4hsql15CreateStatementC1ENS_10CreateTypeE, __ZN4hsql15CreateStatementC2ENS_10CreateTypeE, 
                       __ZN4hsql15CreateStatementD0Ev, __ZN4hsql15CreateStatementD1Ev, 
                       __ZN4hsql15CreateStatementD2Ev, __ZN4hsql15DeleteStatementC1Ev, 
                       __ZN4hsql15DeleteStatementC2Ev, __ZN4hsql15DeleteStatementD0Ev, 
                       __ZN4hsql15DeleteStatementD1Ev, __ZN4hsql15DeleteStatementD2Ev, 
                       __ZN4hsql15ExportStatementC1ENS_10ImportTypeE, __ZN4hsql15ExportStatementC2ENS_10ImportTypeE, 
                       __ZN4hsql15ExportStatementD0Ev, __ZN4hsql15ExportStatementD1Ev, 
                       __ZN4hsql15ExportStatementD2Ev, __ZN4hsql15ImportStatementC1ENS_10ImportTypeE, 
                       __ZN4hsql15ImportStatementC2ENS_10ImportTypeE, __ZN4hsql15ImportStatementD0Ev, 
                       __ZN4hsql15ImportStatementD1Ev, __ZN4hsql15ImportStatementD2Ev, 
                       __ZN4hsql15InsertStatementC1ENS_10InsertTypeE, __ZN4hsql15InsertStatementC2ENS_10InsertTypeE, 
                       __ZN4hsql15InsertStatementD0Ev, __ZN4hsql15InsertStatementD1Ev, 
                       __ZN4hsql15InsertStatementD2Ev, __ZN4hsql15SQLParserResult10parametersEv, 
                       __ZN4hsql15SQLParserResult10setIsValidEb, __ZN4hsql15SQLParserResult12addParameterEPNS_4ExprE, 
                       __ZN4hsql15SQLParserResult12addStatementEPNS_12SQLStatementE, 
                       __ZN4hsql15SQLParserResult15setErrorDetailsEPcii, __ZN4hsql15SQLParserResult17releaseStatementsEv, 
                       __ZN4hsql15SQLParserResult19getMutableStatementEm, __ZN4hsql15SQLParserResult5resetEv, 
                       __ZN4hsql15SQLParserResultC1EOS0_, __ZN4hsql15SQLParserResultC1EPNS_12SQLStatementE, 
                       __ZN4hsql15SQLParserResultC1Ev, __ZN4hsql15SQLParserResultC2EOS0_, 
                       __ZN4hsql15SQLParserResultC2EPNS_12SQLStatementE, __ZN4hsql15SQLParserResultC2Ev, 
                       __ZN4hsql15SQLParserResultD0Ev, __ZN4hsql15SQLParserResultD1Ev, 
                       __ZN4hsql15SQLParserResultD2Ev, __ZN4hsql15SQLParserResultaSEOS0_, 
                       __ZN4hsql15SelectStatementC1Ev, __ZN4hsql15SelectStatementC2Ev, 
                       __ZN4hsql15SelectStatementD0Ev, __ZN4hsql15SelectStatementD1Ev, 
                       __ZN4hsql15SelectStatementD2Ev, __ZN4hsql15TableConstraintC1ENS_14ConstraintTypeEPNSt3__16vectorIPcNS2_9allocatorIS4_EEEE, 
                       __ZN4hsql15TableConstraintC2ENS_14ConstraintTypeEPNSt3__16vectorIPcNS2_9allocatorIS4_EEEE, 
                       __ZN4hsql15TableConstraintD0Ev, __ZN4hsql15TableConstraintD1Ev, 
                       __ZN4hsql15TableConstraintD2Ev, __ZN4hsql15UpdateStatementC1Ev, 
                       __ZN4hsql15UpdateStatementC2Ev, __ZN4hsql15UpdateStatementD0Ev, 
                       __ZN4hsql15UpdateStatementD1Ev, __ZN4hsql15UpdateStatementD2Ev, 
                       __ZN4hsql15WithDescriptionD1Ev, __ZN4hsql15WithDescriptionD2Ev, 
                       __ZN4hsql15printExpressionEPNS_4ExprEm, __ZN4hsql16ColumnDefinitionC1EPcNS_10ColumnTypeEPNSt3__113unordered_setINS_14ConstraintTypeENS3_4hashIS5_EENS3_8equal_toIS5_EENS3_9allocatorIS5_EEEE, 
                       __ZN4hsql16ColumnDefinitionC2EPcNS_10ColumnTypeEPNSt3__113unordered_setINS_14ConstraintTypeENS3_4hashIS5_EENS3_8equal_toIS5_EENS3_9allocatorIS5_EEEE, 
                       __ZN4hsql16ColumnDefinitionD0Ev, __ZN4hsql16ColumnDefinitionD1Ev, 
                       __ZN4hsql16ColumnDefinitionD2Ev, __ZN4hsql16DropColumnActionC1EPc, 
                       __ZN4hsql16DropColumnActionC2EPc, __ZN4hsql16DropColumnActionD0Ev, 
                       __ZN4hsql16DropColumnActionD1Ev, __ZN4hsql16DropColumnActionD2Ev, 
                       __ZN4hsql16ExecuteStatementC1Ev, __ZN4hsql16ExecuteStatementC2Ev, 
                       __ZN4hsql16ExecuteStatementD0Ev, __ZN4hsql16ExecuteStatementD1Ev, 
                       __ZN4hsql16ExecuteStatementD2Ev, __ZN4hsql16FrameDescriptionC1ENS_9FrameTypeEPNS_10FrameBoundES3_, 
                       __ZN4hsql16FrameDescriptionC2ENS_9FrameTypeEPNS_10FrameBoundES3_, 
                       __ZN4hsql16FrameDescriptionD0Ev, __ZN4hsql16FrameDescriptionD1Ev, 
                       __ZN4hsql16FrameDescriptionD2Ev, __ZN4hsql16LimitDescriptionC1EPNS_4ExprES2_, 
                       __ZN4hsql16LimitDescriptionC2EPNS_4ExprES2_, __ZN4hsql16LimitDescriptionD0Ev, 
                       __ZN4hsql16LimitDescriptionD1Ev, __ZN4hsql16LimitDescriptionD2Ev, 
                       __ZN4hsql16OnConflictClauseC1Ev, __ZN4hsql16OnConflictClauseC2Ev, 
                       __ZN4hsql16OnConflictClauseD1Ev, __ZN4hsql16OnConflictClauseD2Ev, 
                       __ZN4hsql16OrderDescriptionC1ENS_9OrderTypeEPNS_4ExprE, __ZN4hsql16OrderDescriptionC2ENS_9OrderTypeEPNS_4ExprE, 
                       __ZN4hsql16OrderDescriptionD0Ev, __ZN4hsql16OrderDescriptionD1Ev, 
                       __ZN4hsql16OrderDescriptionD2Ev, __ZN4hsql16PrepareStatementC1Ev, 
                       __ZN4hsql16PrepareStatementC2Ev, __ZN4hsql16PrepareStatementD0Ev, 
                       __ZN4hsql16PrepareStatementD1Ev, __ZN4hsql16PrepareStatementD2Ev, 
                       __ZN4hsql17WindowDescriptionC1EPNSt3__16vectorIPNS_4ExprENS1_9allocatorIS4_EEEEPNS2_IPNS_16OrderDescriptionENS5_ISA_EEEEPNS_16FrameDescriptionE, 
                       __ZN4hsql17WindowDescriptionC2EPNSt3__16vectorIPNS_4ExprENS1_9allocatorIS4_EEEEPNS2_IPNS_16OrderDescriptionENS5_ISA_EEEEPNS_16FrameDescriptionE, 
                       __ZN4hsql17WindowDescriptionD0Ev, __ZN4hsql17WindowDescriptionD1Ev, 
                       __ZN4hsql17WindowDescriptionD2Ev, __ZN4hsql17printTableRefInfoEPNS_8TableRefEm, 
                       __ZN4hsql18GroupByDescriptionC1Ev, __ZN4hsql18GroupByDescriptionC2Ev, 
                       __ZN4hsql18GroupByDescriptionD0Ev, __ZN4hsql18GroupByDescriptionD1Ev, 
                       __ZN4hsql18GroupByDescriptionD2Ev, __ZN4hsql18printStatementInfoEPKNS_12SQLStatementE, 
                       __ZN4hsql19SQLStatementSummary11buildResultEv, __ZN4hsql19SQLStatementSummary11postProcessERNS_16SQLAnalyzerErrorE, 
                       __ZN4hsql19SQLStatementSummary17addExpansionPointExxPKcS2_S2_RKNSt3__16vectorINS3_12basic_stringIcNS3_11char_traitsIcEENS3_9allocatorIcEEEENS8_ISA_EEEE, 
                       __ZN4hsql19SQLStatementSummary19resolveTableAliasesEv, __ZN4hsql19SQLStatementSummary20resolveColumnAliasesEv, 
                       __ZN4hsql19SQLStatementSummary21updateExpansionPointsEv, __ZN4hsql19SQLStatementSummary5TableC1ERKNSt3__112basic_stringIcNS2_11char_traitsIcEENS2_9allocatorIcEEEESA_SA_RKb, 
                       __ZN4hsql19SQLStatementSummary5TableC2ERKNSt3__112basic_stringIcNS2_11char_traitsIcEENS2_9allocatorIcEEEESA_SA_RKb, 
                       __ZN4hsql19SQLStatementSummary6ColumnC1ERKNSt3__112basic_stringIcNS2_11char_traitsIcEENS2_9allocatorIcEEEESA_SA_, 
                       __ZN4hsql19SQLStatementSummary6ColumnC2ERKNSt3__112basic_stringIcNS2_11char_traitsIcEENS2_9allocatorIcEEEESA_SA_, 
                       __ZN4hsql19SQLStatementSummary8addTableEPKcS2_S2_RKb, __ZN4hsql19SQLStatementSummary9addColumnEPKcS2_S2_, 
                       __ZN4hsql19SQLStatementSummaryC1ENS_16SQLStatementTypeE, __ZN4hsql19SQLStatementSummaryC1Ev, 
                       __ZN4hsql19SQLStatementSummaryC2ENS_16SQLStatementTypeE, __ZN4hsql19SQLStatementSummaryC2Ev, 
                       __ZN4hsql20TransactionStatementC1ENS_18TransactionCommandE, 
                       __ZN4hsql20TransactionStatementC2ENS_18TransactionCommandE, 
                       __ZN4hsql20TransactionStatementD0Ev, __ZN4hsql20TransactionStatementD1Ev, 
                       __ZN4hsql20TransactionStatementD2Ev, __ZN4hsql22printWindowDescriptionEPNS_17WindowDescriptionEm, 
                       __ZN4hsql23printOperatorExpressionEPNS_4ExprEm, __ZN4hsql24printCreateStatementInfoEPKNS_15CreateStatementEm, 
                       __ZN4hsql24printExportStatementInfoEPKNS_15ExportStatementEm, 
                       __ZN4hsql24printImportStatementInfoEPKNS_15ImportStatementEm, 
                       __ZN4hsql24printInsertStatementInfoEPKNS_15InsertStatementEm, 
                       __ZN4hsql24printSelectStatementInfoEPKNS_15SelectStatementEm, 
                       __ZN4hsql28convertToPublicStatementTypeENS_13StatementTypeE, 
                       __ZN4hsql29printTransactionStatementInfoEPKNS_20TransactionStatementEm, 
                       __ZN4hsql30convertToInternalStatementTypeENS_16SQLStatementTypeE, 
                       __ZN4hsql4Expr10makeExistsEPNS_15SelectStatementE, __ZN4hsql4Expr10makeSelectEPNS_15SelectStatementE, 
                       __ZN4hsql4Expr11makeBetweenEPS0_S1_S1_, __ZN4hsql4Expr11makeExtractENS_13DatetimeFieldEPS0_, 
                       __ZN4hsql4Expr11makeLiteralEPc, __ZN4hsql4Expr11makeLiteralEb, 
                       __ZN4hsql4Expr11makeLiteralEd, __ZN4hsql4Expr11makeLiteralEx, 
                       __ZN4hsql4Expr11makeOpUnaryENS_12OperatorTypeEPS0_, __ZN4hsql4Expr12makeCaseListEPS0_, 
                       __ZN4hsql4Expr12makeOpBinaryEPS0_NS_12OperatorTypeES1_, __ZN4hsql4Expr13makeColumnRefEPc, 
                       __ZN4hsql4Expr13makeColumnRefEPcS1_, __ZN4hsql4Expr13makeParameterEi, 
                       __ZN4hsql4Expr14caseListAppendEPS0_S1_, __ZN4hsql4Expr14makeArrayIndexEPS0_x, 
                       __ZN4hsql4Expr14makeInOperatorEPS0_PNS_15SelectStatementE, 
                       __ZN4hsql4Expr14makeInOperatorEPS0_PNSt3__16vectorIS1_NS2_9allocatorIS1_EEEE, 
                       __ZN4hsql4Expr15makeDateLiteralEPc, __ZN4hsql4Expr15makeFunctionRefEPcPNSt3__16vectorIPS0_NS2_9allocatorIS4_EEEEbPNS_17WindowDescriptionE, 
                       __ZN4hsql4Expr15makeNullLiteralEv, __ZN4hsql4Expr19makeCaseListElementEPS0_S1_, 
                       __ZN4hsql4Expr19makeIntervalLiteralExNS_13DatetimeFieldE, 
                       __ZN4hsql4Expr4makeENS_8ExprTypeE, __ZN4hsql4Expr8makeCaseEPS0_S1_S1_, 
                       __ZN4hsql4Expr8makeCastEPS0_NS_10ColumnTypeE, __ZN4hsql4Expr8makeStarEPcxb, 
                       __ZN4hsql4Expr8makeStarEx, __ZN4hsql4Expr9makeArrayEPNSt3__16vectorIPS0_NS1_9allocatorIS3_EEEE, 
                       __ZN4hsql4ExprC1ENS_8ExprTypeE, __ZN4hsql4ExprC2ENS_8ExprTypeE, 
                       __ZN4hsql4ExprD0Ev, __ZN4hsql4ExprD1Ev, __ZN4hsql4ExprD2Ev, 
                       __ZN4hsql5AliasC1EPcPNSt3__16vectorIS1_NS2_9allocatorIS1_EEEE, 
                       __ZN4hsql5AliasC2EPcPNSt3__16vectorIS1_NS2_9allocatorIS1_EEEE, 
                       __ZN4hsql5AliasD1Ev, __ZN4hsql5AliasD2Ev, __ZN4hsql6indentEm, 
                       __ZN4hsql6substrEPKcii, __ZN4hsql7inprintEPKcS1_m, __ZN4hsql7inprintEPKcm, 
                       __ZN4hsql7inprintERKNS_10ColumnTypeEm, __ZN4hsql7inprintERKNS_12OperatorTypeEm, 
                       __ZN4hsql7inprintERKNS_13DatetimeFieldEm, __ZN4hsql7inprintEdm, 
                       __ZN4hsql7inprintExm, __ZN4hsql8TableRefC1ENS_12TableRefTypeE, 
                       __ZN4hsql8TableRefC2ENS_12TableRefTypeE, __ZN4hsql8TableRefD0Ev, 
                       __ZN4hsql8TableRefD1Ev, __ZN4hsql8TableRefD2Ev, __ZN4hsql8inprintCEcm, 
                       __ZN4hsql9SQLParser14parseSQLStringEPKcPNS_15SQLParserResultE, 
                       __ZN4hsql9SQLParser14parseSQLStringERKNSt3__112basic_stringIcNS1_11char_traitsIcEENS1_9allocatorIcEEEEPNS_15SQLParserResultE, 
                       __ZN4hsql9SQLParser5parseERKNSt3__112basic_stringIcNS1_11char_traitsIcEENS1_9allocatorIcEEEEPNS_15SQLParserResultE, 
                       __ZN4hsql9SQLParser8tokenizeERKNSt3__112basic_stringIcNS1_11char_traitsIcEENS1_9allocatorIcEEEEPNS1_6vectorIsNS5_IsEEEE, 
                       __ZN4hsql9SQLParserC1Ev, __ZN4hsql9SQLParserC2Ev, __ZN4hsqleqERKNS_10ColumnTypeES2_, 
                       __ZN4hsqllsERNSt3__113basic_ostreamIcNS0_11char_traitsIcEEEERKNS_10ColumnTypeE, 
                       __ZN4hsqllsERNSt3__113basic_ostreamIcNS0_11char_traitsIcEEEERKNS_10FrameBoundE, 
                       __ZN4hsqllsERNSt3__113basic_ostreamIcNS0_11char_traitsIcEEEERKNS_12OperatorTypeE, 
                       __ZN4hsqllsERNSt3__113basic_ostreamIcNS0_11char_traitsIcEEEERKNS_13DatetimeFieldE, 
                       __ZN4hsqlneERKNS_10ColumnTypeES2_, __ZNK4hsql11SQLAnalyzer4Impl18tableNameInContextEPc, 
                       __ZNK4hsql11SQLAnalyzer4Impl22tableNameListInContextEv, __ZNK4hsql12SQLStatement2isENS_13StatementTypeE, 
                       __ZNK4hsql12SQLStatement4typeEv, __ZNK4hsql12SQLStatement6isTypeENS_13StatementTypeE, 
                       __ZNK4hsql15SQLParserResult11errorColumnEv, __ZNK4hsql15SQLParserResult12getStatementEm, 
                       __ZNK4hsql15SQLParserResult13getStatementsEv, __ZNK4hsql15SQLParserResult4sizeEv, 
                       __ZNK4hsql15SQLParserResult7isValidEv, __ZNK4hsql15SQLParserResult8errorMsgEv, 
                       __ZNK4hsql15SQLParserResult9errorLineEv, __ZNK4hsql19SQLStatementSummary10getColumnsEv, 
                       __ZNK4hsql19SQLStatementSummary10getSchemasEv, __ZNK4hsql19SQLStatementSummary16getEstimatedSizeEv, 
                       __ZNK4hsql19SQLStatementSummary18getExpansionPointsEv, __ZNK4hsql19SQLStatementSummary18getTablesForSchemaERKNSt3__112basic_stringIcNS1_11char_traitsIcEENS1_9allocatorIcEEEE, 
                       __ZNK4hsql19SQLStatementSummary26getColumnsForTableInSchemaERKNSt3__112basic_stringIcNS1_11char_traitsIcEENS1_9allocatorIcEEEES9_, 
                       __ZNK4hsql19SQLStatementSummary9getTablesEv, __ZNK4hsql4Expr6isTypeENS_8ExprTypeE, 
                       __ZNK4hsql4Expr7getNameEv, __ZNK4hsql4Expr8hasAliasEv, __ZNK4hsql4Expr8hasTableEv, 
                       __ZNK4hsql4Expr9isLiteralEv, __ZNK4hsql8TableRef7getNameEv, 
                       __ZNK4hsql8TableRef9hasSchemaEv, __ZTIN4hsql11AlterActionE, 
                       __ZTIN4hsql12SQLStatementE, __ZTIN4hsql12SetOperationE, __ZTIN4hsql13DropStatementE, 
                       __ZTIN4hsql13ShowStatementE, __ZTIN4hsql14AlterStatementE, 
                       __ZTIN4hsql14JoinDefinitionE, __ZTIN4hsql15CreateStatementE, 
                       __ZTIN4hsql15DeleteStatementE, __ZTIN4hsql15ExportStatementE, 
                       __ZTIN4hsql15ImportStatementE, __ZTIN4hsql15InsertStatementE, 
                       __ZTIN4hsql15SQLParserResultE, __ZTIN4hsql15SelectStatementE, 
                       __ZTIN4hsql15TableConstraintE, __ZTIN4hsql15UpdateStatementE, 
                       __ZTIN4hsql16ColumnDefinitionE, __ZTIN4hsql16DropColumnActionE, 
                       __ZTIN4hsql16ExecuteStatementE, __ZTIN4hsql16FrameDescriptionE, 
                       __ZTIN4hsql16LimitDescriptionE, __ZTIN4hsql16OrderDescriptionE, 
                       __ZTIN4hsql16PrepareStatementE, __ZTIN4hsql17WindowDescriptionE, 
                       __ZTIN4hsql18GroupByDescriptionE, __ZTIN4hsql20TransactionStatementE, 
                       __ZTIN4hsql4ExprE, __ZTIN4hsql8TableRefE, __ZTSN4hsql11AlterActionE, 
                       __ZTSN4hsql12SQLStatementE, __ZTSN4hsql12SetOperationE, __ZTSN4hsql13DropStatementE, 
                       __ZTSN4hsql13ShowStatementE, __ZTSN4hsql14AlterStatementE, 
                       __ZTSN4hsql14JoinDefinitionE, __ZTSN4hsql15CreateStatementE, 
                       __ZTSN4hsql15DeleteStatementE, __ZTSN4hsql15ExportStatementE, 
                       __ZTSN4hsql15ImportStatementE, __ZTSN4hsql15InsertStatementE, 
                       __ZTSN4hsql15SQLParserResultE, __ZTSN4hsql15SelectStatementE, 
                       __ZTSN4hsql15TableConstraintE, __ZTSN4hsql15UpdateStatementE, 
                       __ZTSN4hsql16ColumnDefinitionE, __ZTSN4hsql16DropColumnActionE, 
                       __ZTSN4hsql16ExecuteStatementE, __ZTSN4hsql16FrameDescriptionE, 
                       __ZTSN4hsql16LimitDescriptionE, __ZTSN4hsql16OrderDescriptionE, 
                       __ZTSN4hsql16PrepareStatementE, __ZTSN4hsql17WindowDescriptionE, 
                       __ZTSN4hsql18GroupByDescriptionE, __ZTSN4hsql20TransactionStatementE, 
                       __ZTSN4hsql4ExprE, __ZTSN4hsql8TableRefE, __ZTVN4hsql11AlterActionE, 
                       __ZTVN4hsql12SQLStatementE, __ZTVN4hsql12SetOperationE, __ZTVN4hsql13DropStatementE, 
                       __ZTVN4hsql13ShowStatementE, __ZTVN4hsql14AlterStatementE, 
                       __ZTVN4hsql14JoinDefinitionE, __ZTVN4hsql15CreateStatementE, 
                       __ZTVN4hsql15DeleteStatementE, __ZTVN4hsql15ExportStatementE, 
                       __ZTVN4hsql15ImportStatementE, __ZTVN4hsql15InsertStatementE, 
                       __ZTVN4hsql15SQLParserResultE, __ZTVN4hsql15SelectStatementE, 
                       __ZTVN4hsql15TableConstraintE, __ZTVN4hsql15UpdateStatementE, 
                       __ZTVN4hsql16ColumnDefinitionE, __ZTVN4hsql16DropColumnActionE, 
                       __ZTVN4hsql16ExecuteStatementE, __ZTVN4hsql16FrameDescriptionE, 
                       __ZTVN4hsql16LimitDescriptionE, __ZTVN4hsql16OrderDescriptionE, 
                       __ZTVN4hsql16PrepareStatementE, __ZTVN4hsql17WindowDescriptionE, 
                       __ZTVN4hsql18GroupByDescriptionE, __ZTVN4hsql20TransactionStatementE, 
                       __ZTVN4hsql4ExprE, __ZTVN4hsql8TableRefE ]
    weak-symbols:    [ __ZNSt3__119piecewise_constructE ]
...
