--- !tapi-tbd
tbd-version:     4
targets:         [ arm64e-macos ]
install-name:    '/System/Library/PrivateFrameworks/CoreUSDEdit.framework/Versions/A/CoreUSDEdit'
current-version: 0
compatibility-version: 0
exports:
  - targets:         [ arm64e-macos ]
    symbols:         [ _CIE_WAVELENGTHS, _CIE_X_ENTRIES, _CIE_Y_ENTRIES, _CIE_Z_ENTRIES, 
                       _COLLAPSE_MATERIAL_ATTR, _CUERendererNameOpenUSDStorm, _CUERendererNameRaytracer, 
                       _CUERendererNameRealityKit, _CUESpatialSyncIsAssetUnshareableError, 
                       _CURRENT_TIMECODE_CHANGE, _CUSDCopyItemAtURL, _CUSDEndFileAccessScope, 
                       _CUSDSetStereoComfortPreference, _CUSDStartFileAccessScope, 
                       _CUSD_PLAYBACK_STATE_CHANGED, _CUSD_PLAYBACK_STATE_CHANGED_KEY, 
                       _CUSD_SELECTED_TOOL_CHANGED, _CUSD_SELECTED_TOOL_CHANGED_KEY, 
                       _CUSTOM_NODE_CLASS, _CUSTOM_SELECTION_CHANGE, _CoreUSDEditSecServiceErrorDomain, 
                       _DEVELOPER_SIMULATE_STREAMING_TOGGLE, _DISPLACEMENT_SHADER_ATTR, 
                       _DOCUMENT_ATTR, _DOCUMENT_LOADED, _DOCUMENT_RENAMED, _EXPAND_MATERIAL_ATTR, 
                       _EXPLORER_COLUMNS_CHANGE, _EXPLORER_FILTER_CHANGE, _FILENAME_ATTR, 
                       _FRAMES_PER_SECOND_CHANGE, _GUI_SELECTION_CHANGE, _GUI_STAGE_CHANGED, 
                       _GUI_TOOL_OPTION_CHANGED, _GUI_TOOL_OPTION_SHOW, _GUI_VIEWPORT_CLOSED, 
                       _GUI_WIDGET_CLOSED, _GUI_WIDGET_CREATED, _GUI_WIDGET_FOCUSED, 
                       _GUI_WIDGET_RESIZED, _HDVIEW_DAILIES_READY, _HDVIEW_FRAME_RESIZE, 
                       _HDVIEW_FRAME_RESIZE_STATUS, _HDVIEW_FREE_CAMERA_CHANGE, _HDVIEW_HIDE_PLAYBAR, 
                       _HDVIEW_LOOKAT, _HDVIEW_LOOKTHROUGH, _HDVIEW_LOOKTHROUGH_LOCK, 
                       _HDVIEW_PICK_LOCATION, _HDVIEW_PICK_LOCATION_DONE, _HDVIEW_PICK_LOCATION_OK, 
                       _HDVIEW_PRIMPATH_INFO, _HDVIEW_REFRESH_OVERLAY, _HDVIEW_RENDERER_CHANGE, 
                       _HDVIEW_SETTINGS_CHANGE, _IS_SOME_VIEW_STREAMING_INFO, _LOCALIZE_MATERIAL_ATTR, 
                       _MATERIAL_ATTR, _MATERIAL_TYPE_ATTR, _NODALPOS_ATTR, _PreferenceTokens, 
                       _REMOVE_ALL_OBJECTS, _SPATIAL_SYNC_DEFAULT_CAMERA, _SPATIAL_SYNC_OPTIMIZATION_PROGRESS, 
                       _SPATIAL_SYNC_OPTIMIZATION_PROGRESS_KEY, _SPATIAL_SYNC_REMOTELY_INVALIDATED, 
                       _SPATIAL_SYNC_SCENE_START_REQUESTED, _SPATIAL_SYNC_STATUS_CHANGED, 
                       _STREAM_CLIENT_STATE_CHANGED, _STREAM_HAS_CLIENTS_INFO, _STREAM_RENDERER_STATE_CHANGED, 
                       _STREAM_WIDGET_CHANGED, _SURFACE_SHADER_ATTR, _TIME_RANGE_CHANGE, 
                       _TOOLBAR_DOCUMENT_CHANGE, _TOOLBAR_SELECT_MODE_CHANGE, _TOOLBAR_STRING_INFO, 
                       _ToolTokens, _USDTREE_SELECTION_UPDATED, _UxdSchemaTokens, 
                       _VOLUME_SHADER_ATTR, __Z10_glColor3dddd, __Z10_glColor3ffff, 
                       __Z10_glColor4ddddd, __Z10_glColor4fffff, __Z10_glColor4iiiii, 
                       __Z10_glDisablej, __Z10_glEndListv, __Z10_glFrustumdddddd, 
                       __Z10_glLogicOpj, __Z10_glNewListjj, __Z10_glPopNamev, __Z10_glRotateddddd, 
                       __Z10_glRotatefffff, __Z10_glTexEnvfjjf, __Z10_glTexEnvijji, 
                       __Z10adjust_ipdddd, __Z10apply_fontP6NSViewP6NSFont, __Z10core_atollPKc, 
                       __Z10core_atoucPKc, __Z10core_atouiPKc, __Z10core_atoulPKc, 
                       __Z10core_atousPKc, __Z10hash_valueRK15HdAppleRTPortal, __Z10initializev, 
                       __Z10is_context16OfBaseItemHandleILb0EE, __Z10is_context16OfBasePlugHandleILb0EE, 
                       __Z10is_virtual16OfBaseItemHandleILb0EE, __Z10is_virtual16OfBasePlugHandleILb0EE, 
                       __Z10make_titleRKNSt3__112basic_stringIcNS_11char_traitsIcEENS_9allocatorIcEEEE, 
                       __Z10metal_pickN32pxrInternal__aapl__pxrReserved__7GfVec2fEi, 
                       __Z10mx_res_dirv, __Z10parse_atomR5LexerR4PoolI10ParseEntryEj, 
                       __Z10path_traceR8NgCpuCtxR6NgAovs, __Z10scaleXformRKN32pxrInternal__aapl__pxrReserved__16UsdGeomXformableEd, 
                       __Z10startswithPKcS0_, __Z10to_context16OfBaseItemHandleILb0EE, 
                       __Z10to_context16OfBasePlugHandleILb0EE, __Z11__is_kindofPK18ComponentInterfaceS1_R13CoreHashTableIS1_bE, 
                       __Z11_glCallListj, __Z11_glColor3dvPKd, __Z11_glColor3fvPKf, 
                       __Z11_glColor3ubhhh, __Z11_glColor4fvPKf, __Z11_glColor4ubhhhh, 
                       __Z11_glGenListsi, __Z11_glGetErrorv, __Z11_glLoadNamej, __Z11_glNormal3dddd, 
                       __Z11_glNormal3ffff, __Z11_glPushNamej, __Z11_glVertex2ddd, 
                       __Z11_glVertex2fff, __Z11_glVertex2iii, __Z11_glVertex3dddd, 
                       __Z11_glVertex3ffff, __Z11_glVertex3iiii, __Z11_glVertex4ddddd, 
                       __Z11_glVertex4fffff, __Z11_glViewportiiii, __Z11_gluOrtho2Ddddd, 
                       __Z11core_atoullPKc, __Z11get_context16OfBaseItemHandleILb0EE, 
                       __Z11get_context16OfBasePlugHandleILb0EE, __Z11get_objectsRK6OfAttrPKcR10CoreVectorIPK8OfObjectE, 
                       __Z11get_objectsRK6OfAttrPKcR7CoreSetIPK8OfObjectE, __Z11get_objectsRK6OfAttrRK13CoreClassInfoR10CoreVectorIPK8OfObjectE, 
                       __Z11get_objectsRK6OfAttrRK13CoreClassInfoR7CoreSetIPK8OfObjectE, 
                       __Z11is_child_ofP15OfObjectFactoryP9OfContextRK14CoreBasicArrayI10CoreStringE, 
                       __Z11is_embedded16OfBaseItemHandleILb0EE, __Z11is_embedded16OfBasePlugHandleILb0EE, 
                       __Z11move_symbolRK6BitSetRK4PoolI8NFAStateEjRS_, __Z11mx_categoryRK15CoreBasicString, 
                       __Z11parse_stageRKN32pxrInternal__aapl__pxrReserved__9TfWeakPtrINS_8UsdStageEEERNSt3__113unordered_mapI4PathNS5_6vectorI8PathUserNS5_9allocatorIS9_EEEENS5_4hashIS7_EENS5_8equal_toIS7_EENSA_INS5_4pairIKS7_SC_EEEEEE, 
                       __Z11print_pathsRKNSt3__113unordered_mapI4PathNS_6vectorI8PathUserNS_9allocatorIS3_EEEENS_4hashIS1_EENS_8equal_toIS1_EENS4_INS_4pairIKS1_S6_EEEEEE, 
                       __Z11resize_tileRN12ImageProcess18ChannelProcessDataEPKf, 
                       __Z11rotateXformRKN32pxrInternal__aapl__pxrReserved__16UsdGeomXformableEddd, 
                       __Z11skip_layersRK7CtxEvalRKN16NgRenderDelegate9RenderCtxER17NgRenderThreadCtxR8NgCpuCtxP11CtxRaytrace, 
                       __Z11sys_get_envPKc, __Z11sys_get_envv, __Z11sys_set_envPKcS0_, 
                       __Z11triangulatePK9GMathVec2IfEPKjRS3_Pj, __Z11update_pathRKNSt3__113unordered_mapI4PathNS_6vectorI8PathUserNS_9allocatorIS3_EEEENS_4hashIS1_EENS_8equal_toIS1_EENS4_INS_4pairIKS1_S6_EEEEEERSC_RKNS_12basic_stringIcNS_11char_traitsIcEENS4_IcEEEE, 
                       __Z11usd_convertN32pxrInternal__aapl__pxrReserved__21UsdGeomXformCommonAPI13RotationOrderE, 
                       __Z12CreatePickerP11UsdDocument6CGRectbbRKNSt3__16vectorIN32pxrInternal__aapl__pxrReserved__7TfTokenENS2_9allocatorIS5_EEEERKNS2_3setINS4_7UsdPrimENS2_4lessISC_EENS6_ISC_EEEE, 
                       __Z12GetShapeTypeRKN32pxrInternal__aapl__pxrReserved__7TfTokenE, 
                       __Z12_glAlphaFuncjf, __Z12_glBlendFuncjj, __Z12_glCallListsijPKv, 
                       __Z12_glClipPlanejPKd, __Z12_glColor3ubvPKh, __Z12_glColor4ubvPKh, 
                       __Z12_glColorMaskhhhh, __Z12_glDepthFuncj, __Z12_glDepthMaskh, 
                       __Z12_glGetFloatvjPf, __Z12_glGetStringj, __Z12_glInitNamesv, 
                       __Z12_glIsEnabledj, __Z12_glIsProgramj, __Z12_glIsTexturej, 
                       __Z12_glLineWidthf, __Z12_glMapBufferjj, __Z12_glPointSizef, 
                       __Z12_glPopAttribv, __Z12_glPopMatrixv, __Z12_glStencilOpjjj, 
                       __Z12_glUniform1fif, __Z12_glUniform1iii, __Z12_glUniform2fiff, 
                       __Z12_glUniform2iiii, __Z12_glUniform3fifff, __Z12_glUniform3iiiii, 
                       __Z12_glUniform4fiffff, __Z12_glUniform4iiiiii, __Z12_glVertex2dvPKd, 
                       __Z12_glVertex3dvPKd, __Z12getAppFlavorv, __Z12get_categoryRK10CoreString, 
                       __Z12get_ref_poolv, __Z12is_displacedRK17R2cItemDescriptor, 
                       __Z12is_valid_refPK6OfItem, __Z12kTkTRSOffsetv, __Z12mx_copy_nodeRNSt3__110shared_ptrIN15MaterialX__aapl8DocumentEEERKNS0_INS1_4NodeEEERNS_13unordered_mapINS_12basic_stringIcNS_11char_traitsIcEENS_9allocatorIcEEEES6_NS_4hashISF_EENS_8equal_toISF_EENSD_INS_4pairIKSF_S6_EEEEEE, 
                       __Z12mx_get_valueI10CoreStringET_RKNSt3__110shared_ptrIN15MaterialX__aapl5ValueEEE, 
                       __Z12mx_get_valueI10CoreVectorI10CoreStringEET_RKNSt3__110shared_ptrIN15MaterialX__aapl5ValueEEE, 
                       __Z12mx_get_valueI10CoreVectorIbEET_RKNSt3__110shared_ptrIN15MaterialX__aapl5ValueEEE, 
                       __Z12mx_get_valueI10CoreVectorIdEET_RKNSt3__110shared_ptrIN15MaterialX__aapl5ValueEEE, 
                       __Z12mx_get_valueI10CoreVectorIlEET_RKNSt3__110shared_ptrIN15MaterialX__aapl5ValueEEE, 
                       __Z12mx_get_valueI14GMathMatrix3x3IdLb1EEET_RKNSt3__110shared_ptrIN15MaterialX__aapl5ValueEEE, 
                       __Z12mx_get_valueI14GMathMatrix4x4IdLb1EEET_RKNSt3__110shared_ptrIN15MaterialX__aapl5ValueEEE, 
                       __Z12mx_get_valueI9GMathVec2IdEET_RKNSt3__110shared_ptrIN15MaterialX__aapl5ValueEEE, 
                       __Z12mx_get_valueI9GMathVec3IdEET_RKNSt3__110shared_ptrIN15MaterialX__aapl5ValueEEE, 
                       __Z12mx_get_valueI9GMathVec4IdEET_RKNSt3__110shared_ptrIN15MaterialX__aapl5ValueEEE, 
                       __Z12mx_get_valueIN15MaterialX__aapl6Color3EET_RK6OfAttr, 
                       __Z12mx_get_valueIN15MaterialX__aapl6Color4EET_RK6OfAttr, 
                       __Z12mx_get_valueIN15MaterialX__aapl7Vector2EET_RK6OfAttr, 
                       __Z12mx_get_valueIN15MaterialX__aapl7Vector3EET_RK6OfAttr, 
                       __Z12mx_get_valueIN15MaterialX__aapl7Vector4EET_RK6OfAttr, 
                       __Z12mx_get_valueIN15MaterialX__aapl8Matrix33EET_RK6OfAttr, 
                       __Z12mx_get_valueIN15MaterialX__aapl8Matrix44EET_RK6OfAttr, 
                       __Z12mx_get_valueINSt3__112basic_stringIcNS0_11char_traitsIcEENS0_9allocatorIcEEEEET_RK6OfAttr, 
                       __Z12mx_get_valueINSt3__16vectorINS0_12basic_stringIcNS0_11char_traitsIcEENS0_9allocatorIcEEEENS5_IS7_EEEEET_RK6OfAttr, 
                       __Z12mx_get_valueINSt3__16vectorIbNS0_9allocatorIbEEEEET_RK6OfAttr, 
                       __Z12mx_get_valueINSt3__16vectorIfNS0_9allocatorIfEEEEET_RK6OfAttr, 
                       __Z12mx_get_valueINSt3__16vectorIiNS0_9allocatorIiEEEEET_RK6OfAttr, 
                       __Z12mx_get_valueIbET_RK6OfAttr, __Z12mx_get_valueIbET_RKNSt3__110shared_ptrIN15MaterialX__aapl5ValueEEE, 
                       __Z12mx_get_valueIdET_RKNSt3__110shared_ptrIN15MaterialX__aapl5ValueEEE, 
                       __Z12mx_get_valueIfET_RK6OfAttr, __Z12mx_get_valueIiET_RK6OfAttr, 
                       __Z12mx_get_valueIlET_RKNSt3__110shared_ptrIN15MaterialX__aapl5ValueEEE, 
                       __Z12mx_set_valueI10CoreStringEbR6OfAttrRKT_b, __Z12mx_set_valueI15CoreBasicStringEbR6OfAttrRKT_b, 
                       __Z12mx_set_valueIbEbR6OfAttrRKT_b, __Z12mx_set_valueIiEbR6OfAttrRKT_b, 
                       __Z12mx_set_valueR6OfAttrRKN15MaterialX__aapl10ShaderPortE, 
                       __Z12mx_set_valueR6OfAttrRKNSt3__110shared_ptrIN15MaterialX__aapl5InputEEE, 
                       __Z12mx_set_valueRN15MaterialX__aapl5InputERK6OfAttr, __Z12parse_concatR5LexerR4PoolI10ParseEntryEj, 
                       __Z12recurse_readR11SysSocketIdPvRKmRl, __Z12toggleOnIconv, 
                       __Z12usedPrimvarsRKN32pxrInternal__aapl__pxrReserved__16UsdShadeMaterialE, 
                       __Z13HD_NREF_TOKENv, __Z13HD_PREF_TOKENv, __Z13_glBindBufferjj, 
                       __Z13_glBufferDatajiPKvj, __Z13_glClearColorffff, __Z13_glClearDepthd, 
                       __Z13_glDrawArraysjii, __Z13_glGenBuffersiPj, __Z13_glGetDoublevjPd, 
                       __Z13_glMatrixModej, __Z13_glPushAttribj, __Z13_glPushMatrixv, 
                       __Z13_glReadPixelsiiiijjPv, __Z13_glRenderModej, __Z13_glTexCoord2ddd, 
                       __Z13_glTexCoord2fff, __Z13_glTexImage1DjiiiijjPKv, __Z13_glTexImage2DjiiiiijjPKv, 
                       __Z13_glTexImage3DjiiiiiijjPKv, __Z13_glTranslatedddd, __Z13_glTranslateffff, 
                       __Z13_glUniform1fvijPKf, __Z13_glUniform1ivijPKi, __Z13_glUniform2fvijPKf, 
                       __Z13_glUniform2ivijPKi, __Z13_glUniform3fvijPKf, __Z13_glUniform3ivijPKi, 
                       __Z13_glUniform4fvijPKf, __Z13_glUniform4ivijPKi, __Z13_glUseProgramj, 
                       __Z13addShadingAOVR19OfBaseContextHandleILb0EEP8OfObject, 
                       __Z13core_get_hashRK14GMathMatrix3x3IfLb1EE, __Z13core_get_hashRKN23HrpLightResourceManager15HrpIblHandleKeyE, 
                       __Z13core_get_hashRKN23HrpLightResourceManager15HrpIesHandleKeyE, 
                       __Z13core_get_hashRKN23HrpLightResourceManager18HrpPortalHandleKeyE, 
                       __Z13ctx_tool_initR7CtxTool, __Z13doubleCompareddd, __Z13dump_childrenP6NSViewP8NSStringb, 
                       __Z13getPreferenceRKN32pxrInternal__aapl__pxrReserved__7TfTokenE, 
                       __Z13get_attr_poolv, __Z13get_item_infoPK16R2cSceneDelegatePvR10NgItemInfo, 
                       __Z13is_type_validI10CoreStringEbR11ParserEntryj, __Z13is_type_validIbEbR11ParserEntryj, 
                       __Z13mx_get_inputsRK8OfObject, __Z13mx_get_inputsRKNSt3__110shared_ptrIN15MaterialX__aapl8DocumentEEERKNS0_INS1_6ShaderEEE, 
                       __Z13mx_initializeR5OfApp, __Z13osl_parameterRN3OSL13ShadingSystemE14CoreBasicArrayI14OSLShaderParamE, 
                       __Z13osl_parameterRN3OSL13ShadingSystemERK14CoreBasicArrayI18OSLShaderValueDescERKS2_I11CoreVariantEbPNS_11ShaderGroupEPKc, 
                       __Z13osl_parameterRN3OSL13ShadingSystemERK14OSLShaderParamPNS_11ShaderGroupEPKc, 
                       __Z13osl_type_nameRKN16OpenImageIO_v2_58TypeDescE, __Z13parse_clampedR5LexerR4PoolI10ParseEntryEjRb, 
                       __Z13parse_optionsR5LexerR4PoolI10ParseEntryEj, __Z13toggleOnColorv, 
                       __Z13update_handlePK28OfSceneAssemblyContextEngine11CoreVariantR16OfBaseItemHandleILb0EE, 
                       __Z13update_handlePK28OfSceneAssemblyContextEngine11CoreVariantR16OfBasePlugHandleILb0EE, 
                       __Z13usd_get_layerRKN32pxrInternal__aapl__pxrReserved__12UsdAttributeE, 
                       __Z14CreateEyePropsiiidd, __Z14GuiIconForPrefRKN32pxrInternal__aapl__pxrReserved__7TfTokenE, 
                       __Z14GuiIconForPrimRKN32pxrInternal__aapl__pxrReserved__7UsdPrimE, 
                       __Z14_glBindTexturejj, __Z14_glDeleteListsji, __Z14_glGenTexturesiPj, 
                       __Z14_glGetBooleanvjPh, __Z14_glGetIntegervjPi, __Z14_glGetShaderivjjPi, 
                       __Z14_glLineStippleit, __Z14_glLinkProgramj, __Z14_glLoadMatrixdPKd, 
                       __Z14_glLoadMatrixfPKf, __Z14_glMultMatrixdPKd, __Z14_glMultMatrixfPKf, 
                       __Z14_glPixelStorefjf, __Z14_glPixelStoreiji, __Z14_glPolygonModejj, 
                       __Z14_glStencilFuncjij, __Z14_glTexCoord2fvPKf, __Z14_glUnmapBufferj, 
                       __Z14_gluNewQuadricv, __Z14_gluPickMatrixddddPi, __Z14addGeometryAOVR19OfBaseContextHandleILb0EEP8OfObject, 
                       __Z14compile_shaderjRK10CoreStringPKc, __Z14core_strupcasePc, 
                       __Z14create_ewa_lutv, __Z14create_programPK10CoreStringS1_, 
                       __Z14dfa_from_regexRK10CoreStringR18DFATransitionTable, __Z14draw_circle_3DRKdS0_RKb, 
                       __Z14dump_hierarchyP6NSView, __Z14generateCameraRK18OfBaseObjectHandleILb0EERK14GMathMatrix4x4IdLb1EEf, 
                       __Z14getMetalDevicev, __Z14get_value_poolv, __Z14gmath_contrastPKfPKdRf, 
                       __Z14hd_convert_mapRK5HdMap9HdMapTypeRKN32pxrInternal__aapl__pxrReserved__7VtArrayIiEES7_, 
                       __Z14kTkUxdXformApiv, __Z14mx_dot_classesv, __Z14mx_get_libraryv, 
                       __Z14mx_get_shadersRKNSt3__110shared_ptrIN15MaterialX__aapl8DocumentEEEjRK15CoreBasicStringS8_S8_jPvj, 
                       __Z14mx_get_ui_nameRKN15MaterialX__aapl7NodeDefEb, __Z14mx_is_child_ofRKN15MaterialX__aapl8FilePathES2_, 
                       __Z15CUEIsInternalOSv, __Z15CreateScaleToolPU19objcproto9GuiWidget11objc_object, 
                       __Z15GuiBadgeForPrimRKN32pxrInternal__aapl__pxrReserved__7UsdPrimE, 
                       __Z15IsImplicitShapeRKN32pxrInternal__aapl__pxrReserved__7TfTokenE, 
                       __Z15MakeAssetDialogR16MakeAssetOptions, __Z15_glAttachShaderjj, 
                       __Z15_glClearStencili, __Z15_glCreateShaderj, __Z15_glDeleteShaderj, 
                       __Z15_glDetachShaderjj, __Z15_glDrawElementsjijPKv, __Z15_glGetProgramivjjPi, 
                       __Z15_glGetUniformfvjiPf, __Z15_glLoadIdentityv, __Z15_glSelectBufferiPj, 
                       __Z15_glShaderSourcejiPPKcPKi, __Z15_gluErrorStringj, __Z15_gluPerspectivedddd, 
                       __Z15_set_attr_valueI10CoreStringEvP6OfAttrRKT_jPv, __Z15_set_attr_valueIbEvP6OfAttrRKT_jPv, 
                       __Z15_set_attr_valueIdEvP6OfAttrRKT_jPv, __Z15_set_attr_valueIlEvP6OfAttrRKT_jPv, 
                       __Z15can_convert_argRKN17OfCommandArgument4TypeES2_, __Z15compute_fresnelRK9GMathVec3IdES2_f, 
                       __Z15core_glob_matchRK15CoreBasicStringS1_b, __Z15ctx_filter_initR14CtxPixelFilter, 
                       __Z15ctx_filter_initR15CtxKernelFilter, __Z15ctx_filter_initR19CtxWholeImageFilter, 
                       __Z15ctx_filter_initR9CtxFilter, __Z15dso_get_pointerP9DsoHandleRK10CoreString, 
                       __Z15epsilon_closureRK6BitSetRK4PoolI8NFAStateE, __Z15get_entry_valueI10CoreStringET_R11ParserEntryj, 
                       __Z15get_entry_valueIbET_R11ParserEntryj, __Z15get_gas_ray_ctxR9CtxShader, 
                       __Z15get_memory_sizeRK15ModuleImageInfo, __Z15get_memory_sizeRK21ModuleLayerSourceInfo, 
                       __Z15get_r2c_item_idy, __Z15get_user_numberRK10CoreString, 
                       __Z15hd_get_primvarsRN32pxrInternal__aapl__pxrReserved__15HdSceneDelegateERKNS_7SdfPathEbPKNS_7TfTokenES7_, 
                       __Z15image_io_maketxP8SysAssetN16OpenImageIO_v2_517basic_string_viewIcNSt3__111char_traitsIcEEEES6_P7AppBaseb, 
                       __Z15metal_draw_coneN32pxrInternal__aapl__pxrReserved__7GfVec3fE4AxisNS_7GfVec2fEiNS_7GfVec4fE, 
                       __Z15metal_draw_cubeN32pxrInternal__aapl__pxrReserved__7GfVec3fES0_NS_7GfVec4fE, 
                       __Z15metal_draw_diskN32pxrInternal__aapl__pxrReserved__7GfVec3fE4AxisfiNS_7GfVec4fE, 
                       __Z15metal_draw_domeN32pxrInternal__aapl__pxrReserved__7GfVec3fE4AxisfNS_7GfVec2iENS_7GfVec4fE, 
                       __Z15metal_draw_lineN32pxrInternal__aapl__pxrReserved__7GfVec3fES0_NS_7GfVec4fE, 
                       __Z15metal_draw_quadN32pxrInternal__aapl__pxrReserved__7GfVec3fE4AxisNS_7GfVec2fENS_7GfVec4fE, 
                       __Z15metal_end_frame18MetalContextHandle, __Z15metal_state_popv, 
                       __Z15mx_get_node_defRK8OfObjectRKNSt3__110shared_ptrIKN15MaterialX__aapl8DocumentEEE, 
                       __Z15osl_scan_paramsRK10CoreStringR10CoreVectorI18OSLShaderParamDescER13CoreHashTableIS_17OSLShaderMetadataE, 
                       __Z15printEryxHandleRK18OfBaseObjectHandleILb0EE, __Z15register_shaderP7OfClassRK10CoreStringS3_S3_S3_RK10CoreVectorI18OSLShaderParamDescERK13CoreHashTableIS1_17OSLShaderMetadataERK15CoreBasicString, 
                       __Z15register_shaderRK10CoreStringS1_b, __Z15run_integrationR8NgCpuCtxR17NgRenderThreadCtxRK11CtxRaytraceRKjR15NgShadingOutputRKPFvS0_R8NgVertexR6NgAovsE, 
                       __Z15sys_get_os_infoR10CoreStringS0_, __Z15uxdScaleMethodsv, 
                       __Z16CreateRotateToolPU19objcproto9GuiWidget11objc_object, 
                       __Z16CreateSelectToolPU19objcproto9GuiWidget11objc_object, 
                       __Z16GuiRunModalAlertP8NSStringS0_12NSAlertStyle, __Z16UxdGetReferencesRK11UxdProperty, 
                       __Z16UxdGetReferencesRK11UxdPropertyRKN32pxrInternal__aapl__pxrReserved__7UsdPrimE, 
                       __Z16UxdHasReferencesRKN32pxrInternal__aapl__pxrReserved__7TfTokenERKNS_7UsdPrimE, 
                       __Z16UxdSchemaMethodsRKN32pxrInternal__aapl__pxrReserved__11UsdPropertyE, 
                       __Z16_glActiveTexturej, __Z16_glColorMaterialjj, __Z16_glCompileShaderj, 
                       __Z16_glCreateProgramv, __Z16_glDeleteBuffersiPKj, __Z16_glDeleteProgramj, 
                       __Z16_glIsFramebufferj, __Z16_glPolygonOffsetff, __Z16_glTexParameterfjjf, 
                       __Z16_glTexParameterijji, __Z16_glTexSubImage1DjiiijjPKv, 
                       __Z16_glTexSubImage2DjiiiiijjPKv, __Z16_glTexSubImage3DjiiiiiiijjPKv, 
                       __Z16build_cosine_lutv, __Z16configure_widgetR18OSLShaderParamDescRKN10OfPlugType4TypeE, 
                       __Z16count_hash_slotsRKN32pxrInternal__aapl__pxrReserved__17HdTimeSampleArrayINS_7VtValueELj8EEE, 
                       __Z16desaturate_colorRKN32pxrInternal__aapl__pxrReserved__7GfVec4fEd, 
                       __Z16free_gas_ray_ctxR9CtxShaderR9GasRayCtx, __Z16generate_murmur3PhRKyR21NodeLockedLicenseHashRKj, 
                       __Z16getAppFlavorNamev, __Z16get_gas_tree_ctxR9CtxShader, 
                       __Z16get_license_descv, __Z16get_value_as_vecI9GMathVec3IdEET_RK6OfAttr, 
                       __Z16get_value_as_vecI9GMathVec4IdEET_RK6OfAttr, __Z16gmath_hsl_to_hsvPKfRfS1_S1_, 
                       __Z16gmath_hsl_to_rgbPKdRdS1_S1_, __Z16gmath_hsl_to_rgbPKfRfS1_S1_, 
                       __Z16gmath_hsv_to_hslPKfRfS1_S1_, __Z16gmath_hsv_to_rgbPKdRdS1_S1_, 
                       __Z16gmath_hsv_to_rgbPKfRfS1_S1_, __Z16gmath_rgb_to_hslPKdRdS1_S1_, 
                       __Z16gmath_rgb_to_hslPKfRfS1_S1_, __Z16gmath_rgb_to_hsvPKdRdS1_S1_, 
                       __Z16gmath_rgb_to_hsvPKfRfS1_S1_, __Z16gmath_rgb_to_hsvfffRfS_S_, 
                       __Z16gmath_rgb_to_yuvPKfRfS1_S1_, __Z16gmath_yuv_to_rgbPKfRfS1_S1_, 
                       __Z16is_override_safeP9OfContext, __Z16kTkOrthoClippingv, 
                       __Z16material_averageR9GMathVec3IdERK11PbrMaterialRKS0_PK10PbrScatter15PbrChannelIndexSA_RK12SphericalCapRK12GRandomPcg32j, 
                       __Z16metal_draw_donutN32pxrInternal__aapl__pxrReserved__7GfVec3fE4AxisNS_7GfVec2fENS_7GfVec2iENS_7GfVec4fE, 
                       __Z16metal_end_rasterv, __Z16metal_initializePU19objcproto9MTLDevice11objc_object14MTLPixelFormatS1_i, 
                       __Z16metal_state_pushb, __Z16mx_copy_node_defRNSt3__110shared_ptrIN15MaterialX__aapl8DocumentEEERKNS0_INS1_7NodeDefEEERK8OfObject, 
                       __Z16mx_get_input_defRKNSt3__110shared_ptrIKN15MaterialX__aapl7NodeDefEEERKNS_12basic_stringIcNS_11char_traitsIcEENS_9allocatorIcEEEE, 
                       __Z16mx_get_materialsNSt3__110shared_ptrIN15MaterialX__aapl8DocumentEEEb, 
                       __Z16mx_is_expandableRKNSt3__110shared_ptrIN15MaterialX__aapl7ElementEEE, 
                       __Z16mx_update_inputsR8OfObjectRKNSt3__110shared_ptrIN15MaterialX__aapl8DocumentEEERKNS2_INS3_6ShaderEEE, 
                       __Z16parse_full_eventR5LexerR4PoolI10ParseEntryEj, __Z16register_pbr_lutRK15CoreBasicString, 
                       __Z16register_shadersv, __Z16resize_rgba_tileRN12ImageProcess18ChannelProcessDataEPKf, 
                       __Z16sys_get_home_dirv, __Z16sys_get_usernameR10CoreString, 
                       __Z16sys_thread_equalPK11SysThreadIdS1_, __Z16sys_thread_yieldv, 
                       __Z16uv_bake_finalizeRK7CtxEvalR9CtxShaderRK15UvBakeRenderCtxR11CtxRaytracePK11ImageSampleIdEPd, 
                       __Z16uxdActiveMethodsv, __Z16uxdRotateMethodsv, __Z17CreatePickFitToolPU19objcproto9GuiWidget11objc_object, 
                       __Z17ForwardLogMessageRK11LogCategory13os_log_type_tRKNSt3__112basic_stringIcNS3_11char_traitsIcEENS3_9allocatorIcEEEE, 
                       __Z17GetFilterPrimFlagi, __Z17UxdSchemaIsHiddenRKN32pxrInternal__aapl__pxrReserved__11UsdPropertyE, 
                       __Z17UxdSchemaIsHiddenRKN32pxrInternal__aapl__pxrReserved__7TfTokenERKNS_7UsdPrimE, 
                       __Z17_glDeleteTexturesiPKj, __Z17_glGenerateMipmapj, __Z17_glIsRenderbufferj, 
                       __Z17_glPolygonStipplePKh, __Z17_gluDeleteQuadricP10GLUquadric, 
                       __Z17draw_rectangle_3DRKdS0_S0_RKb, __Z17free_gas_tree_ctxR9CtxShaderR10GasTreeCtx, 
                       __Z17get_free_filenameRK10CoreString, __Z17get_null_geometryv, 
                       __Z17is_graph_externalPK6OfItem, __Z17kTkOrthoClippingXv, 
                       __Z17kTkOrthoClippingYv, __Z17kTkOrthoClippingZv, __Z17kTkUxdAimDistancev, 
                       __Z17metal_begin_frame18MetalContextHandle17MetalFrameOptions, 
                       __Z17metal_end_computev, __Z17mx_compare_valuesRKN15MaterialX__aapl10ShaderPortERK6OfAttr, 
                       __Z17mx_compare_valuesRKNSt3__110shared_ptrIN15MaterialX__aapl5InputEEERK6OfAttr, 
                       __Z17mx_custom_lib_dirv, __Z17mx_get_class_nameRKN15MaterialX__aapl7NodeDefE, 
                       __Z17print_parse_entryRK4PoolI10ParseEntryEjj, __Z17register_pbr_lutsR5OfApp, 
                       __Z17sample_wavelengthd, __Z17set_lpe_constantsPK6OfAttrR10CoreVectorI15LpeConstantDescE, 
                       __Z17sys_is_valid_ipv415CoreBasicString, __Z17time_since_string8timespec, 
                       __Z17undistinguishableRK18DFATransitionTablejjRK10CoreVectorI6BitSetE, 
                       __Z17usd_get_transformRKN32pxrInternal__aapl__pxrReserved__10GfMatrix4dE, 
                       __Z17uxdPrimvarMethodsv, __Z17uxdVariantMethodsv, __Z17uxdVisibleMethodsv, 
                       __Z18MakeDocumentWindowv, __Z18SetDictionaryValueP14__CFDictionaryPKvRKNSt3__16vectorIdNS3_9allocatorIdEEEE, 
                       __Z18SetDictionaryValueP14__CFDictionaryPKvd, __Z18SetDictionaryValueP14__CFDictionaryPKvi, 
                       __Z18UxdImageExtensionsv, __Z18_change_attr_valueI10CoreStringEvP6OfAttrRKT_jPv, 
                       __Z18_change_attr_valueIbEvP6OfAttrRKT_jPv, __Z18_change_attr_valueIdEvP6OfAttrRKT_jPv, 
                       __Z18_change_attr_valueIlEvP6OfAttrRKT_jPv, __Z18_glBindFramebufferjj, 
                       __Z18_glGenFramebuffersiPj, __Z18_glMultiTexCoord2djdd, __Z18_glMultiTexCoord2fjff, 
                       __Z18_glMultiTexCoord2ijii, __Z18_glPointParameterfjf, __Z18_glPointParameteriji, 
                       __Z18_glPopClientAttribv, __Z18_glValidateProgramj, __Z18_gluQuadricNormalsP10GLUquadricj, 
                       __Z18core_find_first_ofRK15CoreBasicStringS_j, __Z18forward_next_eventRK8NgCpuCtxR8NgVertexR20NgIntersectionResultRK18NgSamplingSettingsR9NgCpuPooljs, 
                       __Z18generateDefaultAOVR19OfBaseContextHandleILb0EERK10CoreStringlP8OfObject, 
                       __Z18generateVector3AOVR19OfBaseContextHandleILb0EERK10CoreStringS4_P8OfObject, 
                       __Z18getCurrentDocumentv, __Z18get_override_tablev, __Z18get_prefs_categoryv, 
                       __Z18hd_compute_murmur3I10CoreStringE17Core128BitHashKeyRK14CoreBasicArrayIT_E, 
                       __Z18hd_compute_murmur3I5HdMapE17Core128BitHashKeyRK14CoreBasicArrayIT_E, 
                       __Z18hd_compute_murmur3RK5HdMap, __Z18hd_compute_murmur3RKN32pxrInternal__aapl__pxrReserved__7VtValueE, 
                       __Z18hd_extract_uv_mapsRN32pxrInternal__aapl__pxrReserved__15HdSceneDelegateERKNS_7SdfPathERKNS_7VtArrayIiEES8_9HdMapType, 
                       __Z18hdview_blit_renderPU21objcproto10MTLTexture11objc_objectDv2_fDv4_f13HdViewCheckerb, 
                       __Z18isParentingAllowedN32pxrInternal__aapl__pxrReserved__7UsdPrimENSt3__16vectorINS_7SdfPathENS1_9allocatorIS3_EEEE, 
                       __Z18is_class_supportedP8OfObjectRK10CoreVectorIPK7OfClassES7_, 
                       __Z18metal_begin_rasterv, __Z18metal_deinitialize18MetalContextHandle, 
                       __Z18metal_draw_pyramidN32pxrInternal__aapl__pxrReserved__7GfVec3fE4AxisNS_7GfVec2fENS_7GfVec4fE, 
                       __Z18mx_create_documentRK10CoreString, __Z18mx_dirty_materials14CoreBasicArrayI18OfBaseObjectHandleILb0EEE, 
                       __Z18mx_get_color_spaceRK6OfAttr, __Z18mx_get_search_pathv, 
                       __Z18mx_set_color_spaceR6OfAttrRK15CoreBasicString, __Z18osl_compile_shaderRK10CoreStringS1_S1_RK10CoreVectorIS_ERS_, 
                       __Z18osl_execute_shaderRK15OSLShaderInputsPvS2_S2_R10CoreVectorI14OSLShaderParamE, 
                       __Z18osl_log_statisticsi, __Z18parse_single_eventR5LexerN5Token4TypeER6BitSetb, 
                       __Z18pre_multiply_imageRN12ImageProcess11ProcessDataE, __Z18project_polygon_2dPK9GMathVec3IfEPKjRS3_P9GMathVec2IfE, 
                       __Z18register_ocio_lutsv, __Z18resolve_asset_pathRKN32pxrInternal__aapl__pxrReserved__8TfRefPtrINS_8SdfLayerEEERKNS_12SdfAssetPathE, 
                       __Z18reverse_poly_orderPKjRS_R9CoreArrayIjE, __Z18saveCameraMetadataPK12ModuleCameraP11ModuleLayerRK10CoreString, 
                       __Z18select_next_eventsRK8NgCpuCtxR8NgVertexR20NgIntersectionResultRK18NgSamplingSettingsR9NgCpuPooljs, 
                       __Z18setCurrentDocumentP11UsdDocument, __Z18state_minimizationR18DFATransitionTableRKS_, 
                       __Z18sys_create_uuid_v4v, __Z18sys_launch_processRK10CoreStringRK10CoreVectorIS_E, 
                       __Z18sys_process_existsj, __Z18usd_get_asset_pathRKN32pxrInternal__aapl__pxrReserved__12UsdAttributeERKNS_11UsdTimeCodeE, 
                       __Z18usd_get_asset_pathRKN32pxrInternal__aapl__pxrReserved__9TfWeakPtrINS_8SdfLayerEEERKNS_12SdfAssetPathE, 
                       __Z18uxdMetadataMethodsv, __Z19CUEEnableInternalUIv, __Z19CUSDFrameworkBundlev, 
                       __Z19CreateTranslateToolPU19objcproto9GuiWidget11objc_object, 
                       __Z19GuiRunOpenFilePanel16GuiFilePanelTypeP5NSURLP8NSStringP7NSArrayIP6UTTypeEP6NSViewb, 
                       __Z19MakeRightMouseEventP7NSEvent, __Z19RegisterLogListeneryNSt3__18functionIFvRK11LogCategory13os_log_type_tRKNS_12basic_stringIcNS_11char_traitsIcEENS_9allocatorIcEEEEEEE, 
                       __Z19UxdSchemaPropertiesRKN32pxrInternal__aapl__pxrReserved__7UsdPrimEb, 
                       __Z19_glBindRenderbufferjj, __Z19_glGenRenderbuffersiPj, __Z19_glGetActiveUniformjjiPiS_PjPc, 
                       __Z19_glGetShaderInfoLogjiPiPc, __Z19_glPushClientAttribj, 
                       __Z19_glUniformMatrix4fvijhPKf, __Z19computeAndSaveImageR5OfAppR11ModuleImageRK10CoreString, 
                       __Z19createAndSetupLayerR19OfBaseContextHandleILb0EEP11ModuleImageR18OfBaseObjectHandleILb0EES6_, 
                       __Z19dome_world_to_imageRK9GMathVec3IfERK14GMathMatrix3x3IfLb1EE, 
                       __Z19getStagePreferencesv, __Z19get_box_solid_angleRK10GMathBbox3IdERK9GMathVec3IdE, 
                       __Z19get_value_as_stringRK16ResourcePropertyRK21GeometryPointPropertyjR10CoreString, 
                       __Z19gmath_get_axis_name4Axis, __Z19hdview_blit_texturePU21objcproto10MTLTexture11objc_object, 
                       __Z19make_application_idPcRKj, __Z19metal_begin_computev, 
                       __Z19metal_draw_cylinderN32pxrInternal__aapl__pxrReserved__7GfVec3fE4AxisffiNS_7GfVec4fE, 
                       __Z19mx_configure_objectR8OfObjectRKNSt3__110shared_ptrIN15MaterialX__aapl7NodeDefEEER13CoreHashTableI10CoreStringNS2_INS3_5InputEEEE, 
                       __Z19mx_get_class_inputsRK8OfObject, __Z19mx_resolve_filenameRNSt3__112basic_stringIcNS_11char_traitsIcEENS_9allocatorIcEEEERKN15MaterialX__aapl8FilePathE, 
                       __Z19mx_string_ends_withRKNSt3__112basic_stringIcNS_11char_traitsIcEENS_9allocatorIcEEEEPKcy, 
                       __Z19osl_get_attr_valuesRK6OfAttrR10CoreVectorI11CoreVariantE, 
                       __Z19osl_get_exec_handleRK10CoreStringRK10CoreVectorI14OSLShaderParamERKS2_IS_E, 
                       __Z19osl_register_outputR7OfClassRK18OSLShaderParamDescRK10CoreString, 
                       __Z19osl_register_outputR8OfObjectRK18OSLShaderParamDescRK10CoreString, 
                       __Z19printEryxAttrHandleRK16OfBaseAttrHandleILb0EE, __Z19reserve_gas_ray_ctxR9CtxShader, 
                       __Z19subset_constructionR18DFATransitionTableRK4PoolI8NFAStateE, 
                       __Z19sys_get_desktop_dirv, __Z19sys_get_mac_addressv, __Z19sys_get_temp_folderv, 
                       __Z19sys_time_get_string8timespecS_, __Z19sys_time_get_stringR8timespec, 
                       __Z19sys_time_get_stringl, __Z19triangulate_polygonPK9GMathVec3IfEPKjRS3_Pj, 
                       __Z19uxdPrototypeMethodsv, __Z19uxdTranslateMethodsv, __Z20_glGetAttribLocationjPKc, 
                       __Z20_glGetProgramInfoLogjiPiPc, __Z20_gluQuadricDrawStyleP10GLUquadricj, 
                       __Z20compute_channel_listRN16OpenImageIO_v2_59ImageSpecERK16ImageLoadOptionsR9GMathVec4IiER8ImageMapR10CoreVectorIjE, 
                       __Z20cuda_is_driver_foundv, __Z20draw_conical_frustumRKdS0_S0_S0_, 
                       __Z20get_all_license_descv, __Z20get_disk_solid_angledRK9GMathVec3IdE, 
                       __Z20get_profile_categoryv, __Z20glOnContextDestroyedv, __Z20is_auto_global_lightP8OfObject, 
                       __Z20is_mac_address_validPKc, __Z20metal_draw_line_cubeN32pxrInternal__aapl__pxrReserved__7GfVec3fES0_NS_7GfVec4fE, 
                       __Z20metal_draw_line_quadN32pxrInternal__aapl__pxrReserved__7GfVec3fE4AxisNS_7GfVec2fENS_7GfVec4fE, 
                       __Z20mx_resolve_filenamesRNSt3__110shared_ptrIN15MaterialX__aapl8DocumentEEERK15CoreBasicString, 
                       __Z20osl_get_plug_ui_nameRK10OfPlugType, __Z20reserve_gas_tree_ctxR9CtxShaderRKj, 
                       __Z20sys_compare_and_swapPvS_S_, __Z20sys_get_memory_limitv, 
                       __Z20sys_get_memory_usagev, __Z21CreateBrushSelectToolPU19objcproto9GuiWidget11objc_object, 
                       __Z21GuiRunPrimPickerPanelP11UsdDocumentP8NSStringbRKNSt3__16vectorIN32pxrInternal__aapl__pxrReserved__7TfTokenENS3_9allocatorIS6_EEEERKNS3_3setINS5_7UsdPrimENS3_4lessISD_EENS7_ISD_EEEERNS4_ISD_SG_EEb, 
                       __Z21TOOL_FACTORY_CATEGORYv, __Z21UnregisterLogListenery, 
                       __Z21_glBindAttribLocationjjPKc, __Z21_glDeleteFramebuffersiPj, 
                       __Z21_glGetUniformLocationjPKc, __Z21_set_attr_array_valueI14CoreBasicArrayI10CoreStringEEvP6OfAttrRKT_Pv, 
                       __Z21_set_attr_array_valueI14CoreBasicArrayIbEEvP6OfAttrRKT_Pv, 
                       __Z21_set_attr_array_valueI14CoreBasicArrayIdEEvP6OfAttrRKT_Pv, 
                       __Z21_set_attr_array_valueI14CoreBasicArrayIlEEvP6OfAttrRKT_Pv, 
                       __Z21clip_region_to_windowiiiiRK9GMathVec4IiE, __Z21core_metadata_to_jsonRK13CoreHashTableI10CoreString17CoreMetadataEntryEj, 
                       __Z21filterSelectionByKindN2rd6RefPtrINS_9SelectionEEERKN32pxrInternal__aapl__pxrReserved__7TfTokenE, 
                       __Z21filterSelectionByKindNSt3__16vectorIN32pxrInternal__aapl__pxrReserved__7UsdPrimENS_9allocatorIS2_EEEERKNS1_7TfTokenE, 
                       __Z21get_uniform_type_namej, __Z21hd_extract_color_mapsRN32pxrInternal__aapl__pxrReserved__15HdSceneDelegateERKNS_7SdfPathERKNS_7VtArrayIiEES8_9HdMapType, 
                       __Z21hd_get_geometry_flagsRN32pxrInternal__aapl__pxrReserved__15HdSceneDelegateERKNS_7SdfPathE, 
                       __Z21hd_set_shading_groupsR8OfObjectRK14CoreBasicArrayI10CoreStringE, 
                       __Z21hd_sync_display_attrsP8OfObjectRK5HdMap, __Z21hdview_draw_line_gridif, 
                       __Z21hdview_draw_line_iconjPKN32pxrInternal__aapl__pxrReserved__7GfVec3fEjPKjfNS_7GfVec4fE, 
                       __Z21metal_state_set_depthbb, __Z21mx_string_starts_withRKNSt3__112basic_stringIcNS_11char_traitsIcEENS_9allocatorIcEEEEPKcy, 
                       __Z21mx_update_color_spaceRK6OfAttr, __Z21osl_build_shader_iconRK10CoreString, 
                       __Z21populate_shader_groupRN3OSL13ShadingSystemERK8OfObjectRK13OslShaderInfoRK10CoreStringbRK12UniqueStringR7CoreSetIS8_E, 
                       __Z21portal_image_to_worldRK9GMathVec2IfERK14GMathMatrix3x3IfLb1EERf, 
                       __Z22_glDeleteRenderbuffersiPj, __Z22_glRenderbufferStoragejjii, 
                       __Z22_glVertexAttribPointerjijhiPKv, __Z22draw_pyramidal_frustumRKdS0_S0_S0_S0_S0_, 
                       __Z22findHighestLevelXformsRKN32pxrInternal__aapl__pxrReserved__7UsdPrimERNSt3__16vectorINS_16UsdGeomXformableENS3_9allocatorIS5_EEEE, 
                       __Z22findParentPrimWithKindN32pxrInternal__aapl__pxrReserved__7UsdPrimERKNS_7TfTokenE, 
                       __Z22get_cnode_license_descv, __Z22get_local_raytrace_ctxR9GasRayCtxRK19GeometryRaytraceCtx, 
                       __Z22get_next_core_array_idv, __Z22get_osl_default_widgetN10OfPlugType4TypeE, 
                       __Z22hd_extract_normal_mapsRN32pxrInternal__aapl__pxrReserved__15HdSceneDelegateERKNS_7SdfPathERKNS_7VtArrayIiEES8_9HdMapTypeii, 
                       __Z22hdview_compute_composePU21objcproto10MTLTexture11objc_objectS0_S0_fS0_fff7MTLSize, 
                       __Z22is_partially_displacedRK17R2cItemDescriptor, __Z22metal_draw_line_circleN32pxrInternal__aapl__pxrReserved__7GfVec3fE4AxisfiNS_7GfVec4fES0_, 
                       __Z22mx_get_document_stringRKNSt3__110shared_ptrIN15MaterialX__aapl8DocumentEEEb, 
                       __Z22osl_parameter_matchingRK18OSLShaderParamDescRK6OfAttr, 
                       __Z22osl_parameter_matchingRK18OSLShaderParamDescRK8OfOutput, 
                       __Z22osl_register_attributeR7OfClassRK18OSLShaderParamDescRK10CoreStringS6_, 
                       __Z22osl_register_attributeR8OfObjectRK18OSLShaderParamDescRK10CoreStringS6_, 
                       __Z22osl_scan_buffer_paramsRK10CoreStringR10CoreVectorI18OSLShaderParamDescER13CoreHashTableIS_17OSLShaderMetadataE, 
                       __Z22osl_set_output_optionsR7OfClassR8OfOutputRK18OSLShaderParamDesc, 
                       __Z22osl_set_output_optionsR8OfObjectR8OfOutputRK18OSLShaderParamDesc, 
                       __Z22osl_thread_data_createv, __Z22osl_thread_exec_createv, 
                       __Z22print_transition_tableRK18DFATransitionTable, __Z23_glLoadTransposeMatrixdPKd, 
                       __Z23_glLoadTransposeMatrixfPKf, __Z23_glMultTransposeMatrixdPKd, 
                       __Z23_glMultTransposeMatrixfPKf, __Z23compute_camera_positionPK12ModuleCameraRK7CtxEvalRK14GeometrySampleRKddR9GMathVec3IfE, 
                       __Z23create_cgimage_zerocopyPKvjjmmmP12CGColorSpace, __Z23getBundleCacheDirectoryv, 
                       __Z23get_execution_mode_nameRK13ExecutionMode, __Z23get_file_format_managerv, 
                       __Z23get_motion_sample_county, __Z23get_next_core_vector_idv, 
                       __Z23get_polygon_solid_angleRK9GMathVec3IdEPS1_S2_dbj, __Z23get_polygon_solid_angleRK9GMathVec3IdES2_PS1_S2_dbj, 
                       __Z23get_texture_color_spaceNSt3__112basic_stringIcNS_11char_traitsIcEENS_9allocatorIcEEEEb, 
                       __Z23metal_configure_encoderP17MetalEncoderState, __Z23metal_state_set_mode_2db, 
                       __Z23metal_state_set_pickingbj, __Z23metal_state_set_shadingPKcS0_, 
                       __Z23mx_add_debug_attributesP7OfClass, __Z23mx_string_contains_pathRKNSt3__112basic_stringIcNS_11char_traitsIcEENS_9allocatorIcEEEEPKcy, 
                       __Z23osl_is_binding_possibleRK8OfOutputRK6OfAttr, __Z23osl_is_type_convertibleRKN10OfPlugType10VisualHintERK10CoreString, 
                       __Z23osl_register_parametersR7OfClassRK10CoreVectorI18OSLShaderParamDescERK10CoreString, 
                       __Z23osl_release_exec_handlePv, __Z23osl_thread_data_destroyPv, 
                       __Z23osl_thread_exec_destroyPv, __Z23osl_widget_name_to_enumRK10CoreString, 
                       __Z23sys_time_get_elapsed_ns8timespecS_, __Z23sys_time_get_elapsed_nsR8timespec, 
                       __Z24_change_attr_array_valueI14CoreBasicArrayI10CoreStringEEvP6OfAttrRKT_Pv, 
                       __Z24_change_attr_array_valueI14CoreBasicArrayIbEEvP6OfAttrRKT_Pv, 
                       __Z24_change_attr_array_valueI14CoreBasicArrayIdEEvP6OfAttrRKT_Pv, 
                       __Z24_change_attr_array_valueI14CoreBasicArrayIlEEvP6OfAttrRKT_Pv, 
                       __Z24clarisse_ray_type_to_oslRKN8GMathRayIdE4TypeE, __Z24construct_serialise_treeR8ctx_nodeR7CoreSetIP6OfItemEP15OfSerialOptions, 
                       __Z24get_class_name_from_fileRK15CoreBasicString, __Z24get_license_desc_releasev, 
                       __Z24get_udim_paths_from_usdzRK15CoreBasicStringRNSt3__16vectorI10CoreStringNS2_9allocatorIS4_EEEERiS9_, 
                       __Z24gmath_temperature_to_rgbdd, __Z24hd_get_computed_primvarsRN32pxrInternal__aapl__pxrReserved__15HdSceneDelegateERKNS_7SdfPathEb, 
                       __Z24is_valid_osl_shader_fileRK10CoreString, __Z24metal_state_set_clippingbf, 
                       __Z24register_special_shaders10OslBackendPN3OSL13ShadingSystemE, 
                       __Z24sys_get_available_memoryv, __Z24sys_parse_server_addressRK10CoreStringRS_Rj, 
                       __Z25CreateRestrictedHierarchy6CGRect, __Z25_glCheckFramebufferStatusj, 
                       __Z25compute_aov_camera_normalPK12ModuleCameraRK7CtxEvalRK9CtxShaderRK14GeometrySampleRKdd, 
                       __Z25compute_aov_motion_vectorPK12ModuleCameraRK7CtxEvalRK9CtxShaderRK19GeometryRaytraceCtxRK14GeometrySampleRKjRKdd, 
                       __Z25configure_special_shadersv, __Z25core_debug_dump_backtracePv14CoreBasicArrayIS_Emb, 
                       __Z25core_debug_dump_backtraceR10CoreString14CoreBasicArrayIPvEmb, 
                       __Z25getApplicationPreferencesv, __Z25get_document_log_categoryv, 
                       __Z25get_rectangle_solid_angleRK10GMathBbox2IdERKdRK9GMathVec3IdE, 
                       __Z25get_renderer_motion_flagsPK16R2cSceneDelegate, __Z25is_scene_object_instancerP8OfModuleR9CoreArrayIP17ModuleSceneObjectE, 
                       __Z25license_get_mac_addressesv, __Z25metal_picking_set_context18MetalContextHandle, 
                       __Z25osl_compile_shader_bufferRK10CoreStringS1_RK10CoreVectorIS_ERS_, 
                       __Z25osl_set_attribute_optionsR7OfClassR6OfAttrRK18OSLShaderParamDesc, 
                       __Z25osl_set_attribute_optionsR8OfObjectR6OfAttrRK18OSLShaderParamDesc, 
                       __Z25osl_type_to_clarisse_typeRKN16OpenImageIO_v2_58TypeDescER18OSLShaderValueDesc, 
                       __Z25register_internal_shadersv, __Z25remove_user_attrib_prefixRK10CoreString, 
                       __Z25resolve_bundle_prototypesPvR13CoreHashTableIS_P9CoreArrayIS_EERS0_IS_21R2cBundleResourceInfoE, 
                       __Z25sys_get_all_mac_addressesv, __Z25sys_get_current_thread_idv, 
                       __Z25sys_get_peak_memory_usagev, __Z25sys_release_unused_memoryv, 
                       __Z25sys_send_http_get_request15CoreBasicStringS_tj, __Z26CUSDMakePrimContextualMenuP11objc_objectP13objc_selectorP11UsdDocumentN2rd6RefPtrINS5_9SelectionEEEN32pxrInternal__aapl__pxrReserved__7UsdPrimEbm, 
                       __Z26UxdSchemaLocalizeGroupNameRK8UxdGroupb, __Z26_glEnableVertexAttribArrayj, 
                       __Z26_glFramebufferRenderbufferjjjj, __Z26append_value_bit_to_stringI10CoreStringEvRS0_RKT_, 
                       __Z26append_value_bit_to_stringIbEvR10CoreStringRKT_, __Z26clip_region_to_data_windowRN7Imf_3_16HeaderERK9GMathVec4IiE, 
                       __Z26createVideoFileFromCIImageP7CIImageP5NSURLiiiiU13block_pointerFvvEP6NSDataS6_, 
                       __Z26create_cgimage_from_bufferRK11ImageBufferjjP12CGColorSpace, 
                       __Z26generate_shader_group_nameRK10CoreString, __Z26get_all_cnode_license_descv, 
                       __Z26get_color_transform_shaderR10CoreVectorI14OSLShaderParamERK15CoreBasicStringS5_, 
                       __Z26get_freelance_license_descv, __Z26get_window_editor_categoryv, 
                       __Z26hd_sample_computed_primvarRN32pxrInternal__aapl__pxrReserved__15HdSceneDelegateERKNS_7SdfPathERKNS_7TfTokenEj, 
                       __Z26hdview_blit_stereo_texturePU21objcproto10MTLTexture11objc_objecti, 
                       __Z26metal_state_set_line_widthf, __Z26mx_configure_material_modeR8OfObject, 
                       __Z26mx_register_shading_systemRK15CoreBasicStringO15MxShadingSystem, 
                       __Z26osl_get_interactive_valuesRN3OSL13ShadingSystemEPNS_11ShaderGroupER10CoreVectorIcERjc, 
                       __Z26populate_supported_classesR10CoreVectorIPK7OfClassERK14ModuleRendererRK14CoreBasicArrayI10CoreStringER5OfApp, 
                       __Z26sys_get_current_process_idv, __Z26sys_get_ipv4_from_hostname15CoreBasicStringR10CoreString, 
                       __Z26sys_send_http_post_request15CoreBasicStringS_S_tj, __Z26sys_time_get_current_pointv, 
                       __Z26uv_bake_projection_flat_inRK7CtxEvalR9CtxShaderRK19UvBakeProjectionCtxR8GMathRayIdER20GeometryIntersection, 
                       __Z26uxdInheritTransformMethodsv, __Z27_glDisableVertexAttribArrayj, 
                       __Z27compute_quads_neighbourhoodR9CoreArrayIjERK14CoreBasicArrayIjERKjP14AppProgressBar, 
                       __Z27frustum_bezier_intersectionRK7CtxEvalRKjPK9GMathVec3IfER18GeometryFrustumCtxS3_, 
                       __Z27get_evaluation_license_descv, __Z27get_ng_deformed_resource_idy, 
                       __Z27hdview_blit_latlong_texturePU21objcproto10MTLTexture11objc_objectffffi, 
                       __Z27isolated_item_serialisationP8ctx_nodeR10CoreStringbS0_S1_, 
                       __Z27metal_picking_reset_contextv, __Z27metal_state_get_camera_datav, 
                       __Z27metal_state_set_compositing21MetalCompositingDepthf, 
                       __Z27metal_state_set_compositingbf, __Z27mx_register_library_classesR5OfAppR10CoreVectorIP7OfClassE, 
                       __Z27onAppFlavorPreferenceUpdateN32pxrInternal__aapl__pxrReserved__12UsdAttributeEb, 
                       __Z27sys_get_framework_full_pathv, __Z27sys_get_hardware_core_countv, 
                       __Z27uv_bake_intersection_filterRK7CtxEvalRK19GeometryRaytraceCtxRKjR20GeometryIntersectionRNS2_10FilterDataE, 
                       __Z27uv_bake_projection_flat_outRK7CtxEvalR9CtxShaderRK19UvBakeProjectionCtxR8GMathRayIdER20GeometryIntersection, 
                       __Z27uv_bake_remap_object_filterRK7CtxEvalRK19GeometryRaytraceCtxRKjR20GeometryIntersectionRNS2_10FilterDataE, 
                       __Z28build_acceleration_structurePU19objcproto9MTLDevice11objc_objectPU26objcproto15MTLCommandQueue11objc_objectP34MTLAccelerationStructureDescriptorb, 
                       __Z28default_get_osl_shader_groupR8OfObject10OslBackend20OslMaterialComponent, 
                       __Z28get_license_desc_maintenancev, __Z28get_next_core_basic_array_idv, 
                       __Z28hd_extract_property_resourceRK5HdMap, __Z28metal_state_get_model_matrixv, 
                       __Z28metal_state_set_model_matrix13simd_float4x4, __Z28osl_is_interactive_parameterPKcS0_, 
                       __Z28resolve_instancer_prototypesP17ModuleSceneObjectbRK10CoreVectorIPK7OfClassES7_R13CoreHashTableIPvP9CoreArrayIS9_EERS8_IS9_21R2cBundleResourceInfoERS1_IS9_E, 
                       __Z28split_and_sample_next_eventsRK8NgCpuCtxR8NgVertexR20NgIntersectionResultRK18NgSamplingSettingsR9NgCpuPooljs, 
                       __Z28sys_get_executable_full_pathv, __Z28sys_get_hardware_group_countv, 
                       __Z28tessellation_accumulate_areaRKN18GeometryPointCloud8GeometryEPjR9GMathVec4IdE, 
                       __Z28uv_bake_projection_smooth_inRK7CtxEvalR9CtxShaderRK19UvBakeProjectionCtxR8GMathRayIdER20GeometryIntersection, 
                       __Z28wavelength_to_normalized_RGBd, __Z29UxdSchemaLocalizePropertyNameRK11UxdPropertyb, 
                       __Z29core_debug_is_tracking_memoryv, __Z29core_debug_set_crash_callbackPFvPvES_, 
                       __Z29filetype_supports_data_windowN17ImageIOFileFormat4SaveE, 
                       __Z29getApplicationPreferenceStagev, __Z29gmath_get_rotation_order_axis18GMathRotationOrderj, 
                       __Z29gmath_get_rotation_order_name18GMathRotationOrder, __Z29hdview_blit_texture_with_gridPU21objcproto10MTLTexture11objc_objectS0_13simd_float4x4S1_fff4Axis, 
                       __Z29metal_create_fragment_libraryj, __Z29metal_get_camera_plane_matrixN32pxrInternal__aapl__pxrReserved__7GfVec3fE, 
                       __Z29split_and_forward_next_eventsRK8NgCpuCtxR8NgVertexR20NgIntersectionResultRK18NgSamplingSettingsR9NgCpuPooljs, 
                       __Z29uv_bake_projection_smooth_outRK7CtxEvalR9CtxShaderRK19UvBakeProjectionCtxR8GMathRayIdER20GeometryIntersection, 
                       __Z30_set_attr_array_indexed_valuesI14CoreBasicArrayI10CoreStringEEvP6OfAttrRKT_RKS0_IjEPv, 
                       __Z30compute_polygons_neighbourhoodR9CoreArrayIjES1_RS_IhERK14CoreBasicArrayIjES7_S7_RKjP14AppProgressBar, 
                       __Z30core_debug_init_crash_handlersbPKc, __Z30generate_embedded_dependenciesPK8OfObjectR15OfSerialOptionsb, 
                       __Z30get_cnode_license_desc_releasev, __Z30is_precompiled_osl_shader_fileRK10CoreString, 
                       __Z30metal_state_set_alpha_blendingb, __Z30mx_create_document_from_stringRK15CoreBasicString, 
                       __Z30mx_register_post_init_callbackO12CoreFunctionIFvR5OfAppEE, 
                       __Z30uv_bake_projection_flat_in_outRK7CtxEvalR9CtxShaderRK19UvBakeProjectionCtxR8GMathRayIdER20GeometryIntersection, 
                       __Z31RD_PASTEBOARD_TYPE_OUTLINE_PRIMv, __Z31compute_triangles_neighbourhoodR9CoreArrayIjERK14CoreBasicArrayIjERKjP14AppProgressBar, 
                       __Z31core_debug_stop_memory_trackingv, __Z31create_spatial_image_propertiesbiRKNSt3__16vectorIdNS_9allocatorIdEEEES5_, 
                       __Z31hdview_draw_background_gradientN32pxrInternal__aapl__pxrReserved__7GfVec4fES0_, 
                       __Z31metal_configure_compute_encoderP17MetalEncoderState, 
                       __Z31metal_state_set_outline_enabledb, __Z31retrocomp_deserialize_overridesRK14CoreBasicArrayIP11ParserEntryE, 
                       __Z32core_debug_check_signal_handlersv, __Z32core_debug_get_current_backtraceR9CoreArrayIPvEj, 
                       __Z32core_debug_start_memory_trackingRKm, __Z32get_material_editor_log_categoryv, 
                       __Z32metal_state_set_backface_cullingb, __Z32mx_default_generic_volume_sourcev, 
                       __Z32osl_set_attribute_default_valuesR6OfAttrRK18OSLShaderParamDesc, 
                       __Z32ray_bezier_intersection_adaptiveRK7CtxEvalRKjPK9GMathVec3IfER19GeometryRaytraceCtx, 
                       __Z32ray_bezier_intersection_estimateRK7CtxEvalRKjPK9GMathVec3IfER19GeometryRaytraceCtxS3_, 
                       __Z32uv_bake_projection_smooth_in_outRK7CtxEvalR9CtxShaderRK19UvBakeProjectionCtxR8GMathRayIdER20GeometryIntersection, 
                       __Z33calculate_spatial_camera_metadatajjffRNSt3__16vectorIdNS_9allocatorIdEEEES4_S4_Ri, 
                       __Z33filetype_supports_multiple_layersN17ImageIOFileFormat4SaveE, 
                       __Z33metal_state_set_projection_matrix13simd_float4x4, __Z33mx_default_generic_surface_sourcev, 
                       __Z33sys_get_hardware_group_core_countRKj, __Z34get_cnode_license_desc_maintenancev, 
                       __Z34get_freelance_license_desc_releasev, __Z34sys_launch_process_and_wait_resultRK10CoreStringS1_RK10CoreVectorIS_ERi, 
                       __Z35geometry_points_shading_group_namesv, __Z35get_evaluation_license_desc_releasev, 
                       __Z35metal_generate_color_transform_codeRK16ColorIOConverterPKcj, 
                       __Z35sys_get_application_preferences_dirv, __Z36CUSDDispatchPrimContextualMenuActionP10NSMenuItemP11UsdDocumentN2rd6RefPtrINS3_9SelectionEEEN32pxrInternal__aapl__pxrReserved__7UsdPrimE, 
                       __Z36geometry_default_shading_group_namesv, __Z36geometry_surface_shading_group_namesv, 
                       __Z36volume_post_process_density_callbackRK7CtxEvalRK19GeometryRaytraceCtxRKjR20GeometryIntersectionRNS2_10FilterDataE, 
                       __Z37hd_extract_polymesh_property_resourceP16PolyMeshPropertyRK5HdMap, 
                       __Z37wavelength_dependent_refractive_indexddd, __Z38get_freelance_license_desc_maintenancev, 
                       __Z38hd_extract_curvemesh_property_resourceP17CurveMeshPropertyRK5HdMap, 
                       __Z39default_geometry_property_evaluate_realRK16GeometryPropertyRK7CtxEvalRK16GeometryFragmentRKjPdSA_SA_SA_S9_, 
                       __Z39get_evaluation_license_desc_maintenancev, __Z39metal_state_set_compositing_see_throughf, 
                       __Z41metal_snapshot_drawable_and_resume_rasterPU21objcproto10MTLTexture11objc_object, 
                       __Z42default_geometry_property_evaluate_naturalRK16GeometryPropertyRK7CtxEvalRK16GeometryFragmentRKjPxSA_SA_SA_S9_, 
                       __Z4snipPK9GMathVec2IfERKjS4_S4_S4_PS3_S5_, __Z5indexjjj, 
                       __Z5parseP11NSSplitViewR11ParserGroup, __Z6_glEndv, __Z6getHgiv, 
                       __Z6mx_logN12CoreLogLevel4TypeEPKcz, __Z7_glHintjj, __Z7hrp_logN12CoreLogLevel4TypeEPKcz, 
                       __Z8_glBeginj, __Z8_glClearj, __Z8_glFlushv, __Z8_glOrthodddddd, 
                       __Z8_glRectiiiii, __Z8_gluDiskP10GLUquadricddii, __Z8dso_openRK10CoreStringb, 
                       __Z8endswithPKcS0_, __Z8exec_cmdPc, __Z8get_datev, __Z8get_namePKci, 
                       __Z8init_satPfPKfjj, __Z8osl_initR5OfApp, __Z8parse_orR5LexerR4PoolI10ParseEntryEj, 
                       __Z8sys_timeRmS_, __Z8sys_timev, __Z9_glEnablej, __Z9_glIsListj, 
                       __Z9_glScaledddd, __Z9_glScaleffff, __Z9build_nfaR11BuildNFACtxj, 
                       __Z9core_atocPKc, __Z9core_atodPKc, __Z9core_atofPKc, __Z9core_atoiPKc, 
                       __Z9core_atolPKc, __Z9core_atosPKc, __Z9core_ntoaPcmc, __Z9core_ntoaPcmd, 
                       __Z9core_ntoaPcmf, __Z9core_ntoaPcmh, __Z9core_ntoaPcmi, __Z9core_ntoaPcmj, 
                       __Z9core_ntoaPcml, __Z9core_ntoaPcmm, __Z9core_ntoaPcms, __Z9core_ntoaPcmt, 
                       __Z9core_ntoaPcmx, __Z9core_ntoaPcmy, __Z9dso_closeP9DsoHandle, 
                       __Z9get_files10CoreStringRKS_, __Z9mx_is_dotRK7OfClass, __Z9parse_repR5LexerR4PoolI10ParseEntryEj, 
                       __Z9sys_sleepRKj, __Z9to_object16OfBaseItemHandleILb0EE, __Z9to_object16OfBasePlugHandleILb0EE, 
                       __Z9to_objectP14CoreBaseObject, __ZN10AnimFCurve10class_infoEv, 
                       __ZN10AnimFCurve17on_curve_modifiedEv, __ZN10AnimFCurveC1ER6OfAttrPFvS1_RS_E, 
                       __ZN10AnimFCurveC1ERKS_R6OfAttrPFvS3_RS_E, __ZN10AnimFCurveC1Ev, 
                       __ZN10AnimFCurveC2ER6OfAttrPFvS1_RS_E, __ZN10AnimFCurveC2ERKS_R6OfAttrPFvS3_RS_E, 
                       __ZN10AnimFCurveC2Ev, __ZN10AnimFCurveD0Ev, __ZN10AnimFCurveD1Ev, 
                       __ZN10AnimFCurveD2Ev, __ZN10CacheRules16on_factory_eventER15OfObjectFactoryRKN11EventObject9EventInfoEPv, 
                       __ZN10CacheRules18connect_to_factoryER15OfObjectFactory, __ZN10CacheRules31is_object_compatible_with_entryE18OfBaseObjectHandleILb1EER10CacheEntry, 
                       __ZN10CacheRules3addERK10CoreStringRK10FilterInfoS2_R10CoreVectorI18OfBaseObjectHandleILb0EEERK14CoreBasicArrayIP7OfClassEPK9OfContext, 
                       __ZN10CacheRules3getERK10CoreString, __ZN10CacheRules5clearEv, 
                       __ZN10CacheRules8buildKeyERK10CoreStringS2_RK14CoreBasicArrayIS0_ERK18CoreBitFieldHelperbPK9OfContext, 
                       __ZN10CacheRulesC1Ev, __ZN10CacheRulesC2Ev, __ZN10CoreLogCtx10add_loggerER10CoreLogger, 
                       __ZN10CoreLogCtx10class_infoEv, __ZN10CoreLogCtx13remove_loggerER10CoreLogger, 
                       __ZN10CoreLogCtx13remove_loggerEj, __ZN10CoreLogCtx18remove_all_loggersEv, 
                       __ZN10CoreLogCtx3logEiRK10CoreStringj, __ZN10CoreLogCtxC1Ev, 
                       __ZN10CoreLogCtxC2Ev, __ZN10CoreLogCtxD0Ev, __ZN10CoreLogCtxD1Ev, 
                       __ZN10CoreLogCtxD2Ev, __ZN10CoreLogger10class_infoEv, __ZN10CoreLogger6outputERK14CoreLogMessage, 
                       __ZN10CoreLoggerC1Ev, __ZN10CoreLoggerC2Ev, __ZN10CoreLoggerD0Ev, 
                       __ZN10CoreLoggerD1Ev, __ZN10CoreLoggerD2Ev, __ZN10CoreSerial10class_infoEv, 
                       __ZN10CoreSerialC1EPvRKmS2_, __ZN10CoreSerialC2EPvRKmS2_, 
                       __ZN10CoreString10after_lastERKS_c, __ZN10CoreString10alpha_sortER10CoreVectorIPS_Eb, 
                       __ZN10CoreString10alpha_sortER10CoreVectorIS_Eb, __ZN10CoreString10alpha_sortER9CoreArrayIPS_Eb, 
                       __ZN10CoreString10alpha_sortER9CoreArrayIS_Eb, __ZN10CoreString10camel_caseERKS_, 
                       __ZN10CoreString10camel_caseEv, __ZN10CoreString10lower_caseEv, 
                       __ZN10CoreString10make_titleEb, __ZN10CoreString10upper_caseEv, 
                       __ZN10CoreString11after_firstERKS_c, __ZN10CoreString11before_lastERKS_c, 
                       __ZN10CoreString11deserializeER10CoreSerial, __ZN10CoreString11remove_lastEv, 
                       __ZN10CoreString12before_firstERKS_c, __ZN10CoreString15get_null_stringEv, 
                       __ZN10CoreString15make_identifierEv, __ZN10CoreString17remove_occurencesEc, 
                       __ZN10CoreString23append_number_with_unitEdb, __ZN10CoreString4joinERK14CoreBasicArrayIS_ERKS_b, 
                       __ZN10CoreString5clearEv, __ZN10CoreString5printEPKcz, __ZN10CoreString6appendEPKcm, 
                       __ZN10CoreString6resizeEjb, __ZN10CoreString6resizeEm, __ZN10CoreString7compareERKS_S1_, 
                       __ZN10CoreString7replaceEcc, __ZN10CoreString8set_dataEPKcm, 
                       __ZN10CoreStringD1Ev, __ZN10CoreStringD2Ev, __ZN10CoreStringpLEDn, 
                       __ZN10CoreStringpLEPKc, __ZN10CoreStringpLEPKv, __ZN10CoreStringpLERK15CoreBasicString, 
                       __ZN10CoreStringpLEb, __ZN10CoreStringpLEc, __ZN10CoreStringpLEd, 
                       __ZN10CoreStringpLEf, __ZN10CoreStringpLEh, __ZN10CoreStringpLEi, 
                       __ZN10CoreStringpLEj, __ZN10CoreStringpLEl, __ZN10CoreStringpLEm, 
                       __ZN10CoreStringpLEs, __ZN10CoreStringpLEt, __ZN10CoreStringpLEx, 
                       __ZN10CoreStringpLEy, __ZN10CtxHelpers10class_infoEv, __ZN10CtxHelpers24filter_clip_map_callbackERK7CtxEvalRK19GeometryRaytraceCtxRKjR20GeometryIntersectionRNS3_10FilterDataE, 
                       __ZN10CtxHelpers26filter_wireframes_callbackERK7CtxEvalRK19GeometryRaytraceCtxRKjR20GeometryIntersectionRNS3_10FilterDataE, 
                       __ZN10CtxHelpers30filter_ignore_volumes_callbackERK7CtxEvalRK19GeometryRaytraceCtxRNS3_10FilterDataE, 
                       __ZN10CtxHelpers30ray_filter_scene_item_callbackERK7CtxEvalRK19GeometryRaytraceCtxRNS3_10FilterDataE, 
                       __ZN10CtxHelpers34frustum_filter_scene_item_callbackERK7CtxEvalRK18GeometryFrustumCtxRNS3_10FilterDataE, 
                       __ZN10CtxHelpers36ray_filter_pickable_objects_callbackERK7CtxEvalRK19GeometryRaytraceCtxRNS3_10FilterDataE, 
                       __ZN10CtxHelpers38ray_frustum_filter_scene_item_callbackERK7CtxEvalRK21GeometryRayFrustumCtxRNS3_10FilterDataE, 
                       __ZN10CtxHelpers40frustum_filter_pickable_objects_callbackERK7CtxEvalRK18GeometryFrustumCtxRNS3_10FilterDataE, 
                       __ZN10CtxHelpers41volume_density_cutoff_intersection_filterERK7CtxEvalRK19GeometryRaytraceCtxRKjR20GeometryIntersectionRNS3_10FilterDataE, 
                       __ZN10CtxHelpers44ray_frustum_filter_pickable_objects_callbackERK7CtxEvalRK21GeometryRayFrustumCtxRNS3_10FilterDataE, 
                       __ZN10DisneyHair6sampleEPK6NgBSDFRK11NgShaderCtxPKfRN3OSL4DualIN9Imath_3_14Vec3IfEELi2EEERfR10NgPathType, 
                       __ZN10DisneyHair8evaluateEPK6NgBSDFRK11NgShaderCtxRKN9Imath_3_14Vec3IfEERfR10NgPathType, 
                       __ZN10DisneyHair9roughnessEPK6NgBSDF, __ZN10DisneyHairC1ERK14DisneyHairArgs, 
                       __ZN10DisneyHairC1ERKS_, __ZN10DisneyHairC2ERK14DisneyHairArgs, 
                       __ZN10DisneyHairC2ERKS_, __ZN10GMathBbox2IdE10class_infoEv, 
                       __ZN10GMathBbox2IfE10class_infoEv, __ZN10GMathBbox2IiE10class_infoEv, 
                       __ZN10GMathBbox3IdE10class_infoEv, __ZN10GMathBbox3IfE10class_infoEv, 
                       __ZN10GMathUnits12apply_factorEddNS_6FormatEi, __ZN10GMathUnits13get_displayedERK10CoreVectorINS_8UnitTypeEERK10CoreString, 
                       __ZN10GMathUnits13get_unit_baseERK10CoreVectorINS_8UnitTypeEERK10CoreStringS7_, 
                       __ZN10GMathUnits13get_unit_typeER10CoreVectorINS_8UnitTypeEERK10CoreString, 
                       __ZN10GMathUnits13get_unit_typeERK10CoreVectorINS_8UnitTypeEERK10CoreString, 
                       __ZN10GMathUnits13set_displayedER10CoreVectorINS_8UnitTypeEERK10CoreStringb, 
                       __ZN10GMathUnits13set_unit_baseER10CoreVectorINS_8UnitTypeEERK10CoreStringS6_S6_, 
                       __ZN10GMathUnits13stringify_intEd, __ZN10GMathUnits15get_format_unitERK10CoreVectorINS_8UnitTypeEERK10CoreStringS7_, 
                       __ZN10GMathUnits15get_unit_systemEPKNS_8UnitTypeERK10CoreString, 
                       __ZN10GMathUnits15get_unit_systemEPNS_8UnitTypeERK10CoreString, 
                       __ZN10GMathUnits15get_unit_systemER10CoreVectorINS_8UnitTypeEERK10CoreStringS6_, 
                       __ZN10GMathUnits15get_unit_systemERK10CoreVectorINS_8UnitTypeEERK10CoreStringS7_, 
                       __ZN10GMathUnits15set_format_unitER10CoreVectorINS_8UnitTypeEERK10CoreStringS6_S6_, 
                       __ZN10GMathUnits15stringify_floatEdi, __ZN10GMathUnits15to_string_debugERK10CoreVectorINS_8UnitTypeEE, 
                       __ZN10GMathUnits17get_editable_unitERK10CoreVectorINS_8UnitTypeEERK10CoreStringS7_, 
                       __ZN10GMathUnits17get_used_fps_unitERK10CoreVectorINS_8UnitTypeEERK10CoreStringS7_, 
                       __ZN10GMathUnits17set_editable_unitER10CoreVectorINS_8UnitTypeEERK10CoreStringS6_b, 
                       __ZN10GMathUnits17set_used_fps_unitER10CoreVectorINS_8UnitTypeEERK10CoreStringS6_b, 
                       __ZN10GMathUnits18get_all_type_namesERK10CoreVectorINS_8UnitTypeEE, 
                       __ZN10GMathUnits19get_time_from_valueEdfiNS_6FormatEi, __ZN10GMathUnits19get_unit_base_indexEPKNS_10UnitSystemERK10CoreString, 
                       __ZN10GMathUnits19get_unit_base_indexEPNS_10UnitSystemERK10CoreString, 
                       __ZN10GMathUnits23get_display_format_unitERK10CoreVectorINS_8UnitTypeEERK10CoreStringS7_, 
                       __ZN10GMathUnits23set_display_format_unitER10CoreVectorINS_8UnitTypeEERK10CoreStringS6_S6_, 
                       __ZN10GMathUnits24NUMERIC_UNIT_FACTOR_NONEE, __ZN10GMathUnits24get_internal_factor_unitERK10CoreVectorINS_8UnitTypeEERK10CoreStringS7_, 
                       __ZN10GMathUnits24set_internal_factor_unitER10CoreVectorINS_8UnitTypeEERK10CoreStringS6_f, 
                       __ZN10GMathUnits25get_all_system_unit_namesERK10CoreVectorINS_8UnitTypeEERK10CoreString, 
                       __ZN10GMathUnits25get_or_create_unit_systemER10CoreVectorINS_8UnitTypeEERK10CoreStringS6_, 
                       __ZN10GMathUnits25get_time_factor_from_unitERK10CoreStringf, 
                       __ZN10GMathUnits25get_time_unit_from_factorEdi, __ZN10GMathUnits25get_unit_system_time_nameERKNS_14UnitSystemTimeE, 
                       __ZN10GMathUnits26NUMERIC_UNIT_TIME_FACTOR_DE, __ZN10GMathUnits26NUMERIC_UNIT_TIME_FACTOR_HE, 
                       __ZN10GMathUnits26NUMERIC_UNIT_TIME_SYMBOL_DE, __ZN10GMathUnits26NUMERIC_UNIT_TIME_SYMBOL_HE, 
                       __ZN10GMathUnits28NUMERIC_UNIT_TIME_FACTOR_MINE, __ZN10GMathUnits28NUMERIC_UNIT_TIME_FACTOR_SECE, 
                       __ZN10GMathUnits28NUMERIC_UNIT_TIME_SYMBOL_MINE, __ZN10GMathUnits28NUMERIC_UNIT_TIME_SYMBOL_SECE, 
                       __ZN10GMathUnits28get_value_from_str_with_unitERK10CoreVectorINS_8UnitTypeEERK10CoreStringfS7_S7_S7_NS_6FormatE, 
                       __ZN10GMathUnits29split_value_and_unit_from_strERK10CoreStringRS0_S3_, 
                       __ZN10GMathUnits30NUMERIC_UNIT_TIME_FACTOR_FRAMEE, __ZN10GMathUnits30NUMERIC_UNIT_TIME_SYMBOL_FRAMEE, 
                       __ZN10GMathUnits30get_unit_system_time_from_nameERK10CoreString, 
                       __ZN10GMathUnits30get_value_with_unit_from_valueERK10CoreVectorINS_8UnitTypeEEdfRK10CoreStringS7_S7_NS_6FormatEi, 
                       __ZN10GMathUnits41get_formated_time_value_from_millisecondsEm, 
                       __ZN10GMathUnits8add_unitER10CoreVectorINS_8UnitTypeEERK10CoreStringS6_S6_dS6_, 
                       __ZN10GlUtilsCtxC1ERKbRKjS3_RK9GMathVec3IhE, __ZN10GlUtilsCtxC1Ev, 
                       __ZN10GlUtilsCtxC2ERKbRKjS3_RK9GMathVec3IhE, __ZN10GlUtilsCtxC2Ev, 
                       __ZN10GlUtilsCtxD0Ev, __ZN10GlUtilsCtxD1Ev, __ZN10GlUtilsCtxD2Ev, 
                       __ZN10ImagePixel10class_infoEv, __ZN10ImagePixel14get_depth_nameERKNS_5DepthE, 
                       __ZN10ImagePixel18get_bit_depth_nameERKNS_8BitDepthE, __ZN10ImageProxy10class_infoEv, 
                       __ZN10ImageProxyC1ERK11ImageCanvas9GMathVec4IiE, __ZN10ImageProxyC2ERK11ImageCanvas9GMathVec4IiE, 
                       __ZN10ImageProxyD0Ev, __ZN10ImageProxyD1Ev, __ZN10ImageProxyD2Ev, 
                       __ZN10LicenseKey12generate_keyERKj, __ZN10LicenseKey12generate_keyERKjPKc, 
                       __ZN10LicenseKey13_generate_keyERKjPKc, __ZN10LicenseKey13base32_decodeEPKcPci, 
                       __ZN10LicenseKey13base32_encodeEPKciPci, __ZN10LicenseKey7decryptEv, 
                       __ZN10LicenseKey7encryptEv, __ZN10LicenseKey7set_keyEPKc, 
                       __ZN10LicenseKey8is_validEPKc, __ZN10MatteTable6updateERK14CoreBasicArrayIP17ModuleSceneObjectERK7CoreSetIS2_E, 
                       __ZN10MetalBatch5indexEt, __ZN10MetalBatch6vertexEfffffff, 
                       __ZN10MetalBatchC1E18MetalPrimitiveTypett, __ZN10MetalBatchC2E18MetalPrimitiveTypett, 
                       __ZN10MetalBatchD1Ev, __ZN10MetalBatchD2Ev, __ZN10ModuleShot10class_infoEv, 
                       __ZN10ModuleShot19on_attribute_changeERK6OfAttrRiRKi, __ZN10ModuleShotC1Ev, 
                       __ZN10ModuleShotC2Ev, __ZN10MxNodeData16get_attr_ui_nameERK10OfPlugType, 
                       __ZN10MxNodeData18handle_enumerationERK8OfObjectRK6OfAttrR10CoreVectorI10CoreStringER9CoreArrayIbE, 
                       __ZN10MxNodeData23get_or_create_attr_dataEP6OfAttr, __ZN10NgLightLUT10initializeE12CoreFunctionIFN9Imath_3_16Color3IfEEffRKS_EE, 
                       __ZN10NgLightLUT24initialize_multithreadedERK5OfApp12CoreFunctionIFN9Imath_3_16Color3IfEEjffRfRKS_EE, 
                       __ZN10OfPlugType10class_infoEv, __ZN10OfPlugTypeC1ER8OfObjectRK10CoreStringRKNS_4TypeERKNS_9ContainerERKNS_10VisualHintE, 
                       __ZN10OfPlugTypeC2ER8OfObjectRK10CoreStringRKNS_4TypeERKNS_9ContainerERKNS_10VisualHintE, 
                       __ZN10ParserFile10set_binaryERK10CoreVectorIcE, __ZN10ParserFile12set_filenameERK10CoreString, 
                       __ZN10ParserFile15preprocess_fileER10CoreStringRKS0_S3_R7CoreSetIS0_EP14AppProgressBar, 
                       __ZN10ParserFile16set_search_pathsERK10CoreVectorI10CoreStringE, 
                       __ZN10ParserFile4readERK10CoreStringS2_P14AppProgressBar, 
                       __ZN10ParserFile5clearEv, __ZN10ParserFile5writeERKNS_4ModeERK10CoreStringS5_, 
                       __ZN10ParserFileC1ER11ParserGroup, __ZN10ParserFileC1ERK10CoreString, 
                       __ZN10ParserFileC2ER11ParserGroup, __ZN10ParserFileC2ERK10CoreString, 
                       __ZN10ParserFileD0Ev, __ZN10ParserFileD1Ev, __ZN10ParserFileD2Ev, 
                       __ZN10ParserImpl12load_archiveER13ParserArchiveRK10CoreStringP14AppProgressBar, 
                       __ZN10ParserImpl12save_archiveERK13ParserArchiveRK10CoreStringP14AppProgressBar, 
                       __ZN10ParserImpl13archive_entryER11ParserEntryR13ParserArchiveP14AppProgressBar, 
                       __ZN10ParserImpl13archive_groupER11ParserGroupR13ParserArchiveRKbP14AppProgressBar, 
                       __ZN10ParserImpl13archive_valueER11ParserValueR13ParserArchiveP14AppProgressBar, 
                       __ZN10ParserImpl17group_set_archiveER11ParserGroupRK13ParserArchiveP14AppProgressBar, 
                       __ZN10ParserWord13is_value_typeERKNS_4TypeE, __ZN10ParserWordC1ERK11CoreVersion, 
                       __ZN10ParserWordC1ERK15CoreBasicStringRKbRK11CoreVersion, 
                       __ZN10ParserWordC2ERK11CoreVersion, __ZN10ParserWordC2ERK15CoreBasicStringRKbRK11CoreVersion, 
                       __ZN10ParserWordD0Ev, __ZN10ParserWordD1Ev, __ZN10ParserWordD2Ev, 
                       __ZN10ParserWordaSERKS_, __ZN10PbrSasBase10class_infoEv, __ZN10PbrSasTree10class_infoEv, 
                       __ZN10PbrSasTree19clear_sas_resourcesERK13CoreClassInfo, __ZN10PlateImage10clear_dataEv, 
                       __ZN10PlateImage13add_requesterEv, __ZN10PlateImage16remove_requesterEv, 
                       __ZN10PlateImage4loadEP14AppProgressBar, __ZN10PlateImageC1ERK10CoreString, 
                       __ZN10PlateImageC2ERK10CoreString, __ZN10PlateImageD1Ev, __ZN10PlateImageD2Ev, 
                       __ZN10Reflection13set_path_typeER10NgPathType, __ZN10Reflection6albedoEPK6NgBSDFRK11NgShaderCtx, 
                       __ZN10Reflection6sampleEPK6NgBSDFRK11NgShaderCtxPKfRN3OSL4DualIN9Imath_3_14Vec3IfEELi2EEERfR10NgPathType, 
                       __ZN10Reflection8evaluateEPK6NgBSDFRK11NgShaderCtxRKN9Imath_3_14Vec3IfEERfR10NgPathType, 
                       __ZN10ReflectionC1ERK14ReflectionArgs, __ZN10ReflectionC1ERKS_, 
                       __ZN10ReflectionC2ERK14ReflectionArgs, __ZN10ReflectionC2ERKS_, 
                       __ZN10RibbonMesh10class_infoEv, __ZN10TubeMesh3d10class_infoEv, 
                       __ZN10UsdArAsset17get_resolved_pathEv, __ZN10UsdArAsset4readEPvm, 
                       __ZN10UsdArAsset8get_dataEv, __ZN10UsdArAsset8get_pathEv, 
                       __ZN10UsdArAsset8get_sizeEv, __ZN10UsdArAsset8get_timeEv, 
                       __ZN10UsdArAsset8is_validEv, __ZN10UsdArAssetC1ERK15CoreBasicString, 
                       __ZN10UsdArAssetC2ERK15CoreBasicString, __ZN11AppMainMenu10run_scriptERK10CoreStringS2_, 
                       __ZN11AppMainMenu11add_commandERK10CoreStringPFbR15AppMainMenuItemES2_S2_, 
                       __ZN11AppMainMenu11add_commandERK10CoreStringS2_S2_S2_, __ZN11AppMainMenu12exec_commandERK10CoreString, 
                       __ZN11AppMainMenu12move_commandERK10CoreStringS2_RKb, __ZN11AppMainMenu14enable_commandERK10CoreStringRKb, 
                       __ZN11AppMainMenu14remove_commandERK10CoreString, __ZN11AppMainMenu16create_hierarchyERK10CoreString, 
                       __ZN11AppMainMenu16get_all_commandsERKbS1_, __ZN11AppMainMenu16get_sub_commandsERK10CoreStringRKbS4_, 
                       __ZN11AppMainMenu16is_relative_pathERK10CoreString, __ZN11AppMainMenu17add_show_callbackERK10CoreStringS2_NS_8ShowModeE, 
                       __ZN11AppMainMenu19remove_all_commandsERK10CoreString, __ZN11AppMainMenu19remove_all_commandsEv, 
                       __ZN11AppMainMenu21add_command_as_scriptERK10CoreStringS2_S2_S2_S2_, 
                       __ZN11AppMainMenu8get_itemERK10CoreStringRKb, __ZN11AppMainMenu8run_fileERK10CoreStringS0_, 
                       __ZN11AppMainMenuC1ER9AppObject, __ZN11AppMainMenuC2ER9AppObject, 
                       __ZN11CoreMD5Impl6decodeEPjPKhRKm, __ZN11CoreMD5Impl6encodeEPhPKjRKm, 
                       __ZN11CoreMD5Impl6updateEPKhRKmPjPhR17Core128BitHashKey, __ZN11CoreMD5Impl9transformEPKhR17Core128BitHashKey, 
                       __ZN11CoreVariant10null_valueEv, __ZN11CoreVariant13get_type_nameERKNS_4TypeE, 
                       __ZN11CoreVariant5clearEv, __ZN11CoreVariantaSEOS_, __ZN11CoreVariantaSEPK14CoreBaseObject, 
                       __ZN11CoreVariantaSEPv, __ZN11CoreVariantaSERK15CoreBasicString, 
                       __ZN11CoreVariantaSERKS_, __ZN11CoreVariantaSEb, __ZN11CoreVariantaSEd, 
                       __ZN11CoreVariantaSEl, __ZN11CoreVersion7epsilonE, __ZN11EventObject10class_infoEv, 
                       __ZN11EventObject10disconnectERS_jMS_FvS0_RKNS_9EventInfoEPvES4_, 
                       __ZN11EventObject10disconnectERS_jPFvS0_RKNS_9EventInfoEPvES4_, 
                       __ZN11EventObject11raise_eventERS_RKNS_9EventInfoE, __ZN11EventObject11raise_eventERS_j, 
                       __ZN11EventObject12is_connectedERS_jPv, __ZN11EventObject14connect_methodERS_RK17EventReceiverInfoj, 
                       __ZN11EventObject14disconnect_allERS_, __ZN11EventObject14disconnect_allEv, 
                       __ZN11EventObject16connect_functionERS_RK17EventReceiverInfoj, 
                       __ZN11EventObject21remove_all_connectionEv, __ZN11EventObject7connectERS_MS_FvS0_RKNS_9EventInfoEPvES4_, 
                       __ZN11EventObject7connectERS_PFvS0_RKNS_9EventInfoEPvES4_, 
                       __ZN11EventObject7connectERS_S0_MS_FvS0_RKNS_9EventInfoEPvES4_, 
                       __ZN11EventObject7connectERS_jMS_FvS0_RKNS_9EventInfoEPvES4_, 
                       __ZN11EventObject7connectERS_jPFvS0_RKNS_9EventInfoEPvES4_, 
                       __ZN11EventObject7connectERS_jS0_MS_FvS0_RKNS_9EventInfoEPvES4_, 
                       __ZN11EventObject8set_muteERKb, __ZN11EventObjectD0Ev, __ZN11EventObjectD1Ev, 
                       __ZN11EventObjectD2Ev, __ZN11FCurveKeyId15get_invalid_keyEv, 
                       __ZN11GasGeometry10MotionDataC1ERKjPv, __ZN11GasGeometry10MotionDataC2ERKjPv, 
                       __ZN11GasGeometry10MotionDataD1Ev, __ZN11GasGeometry10MotionDataD2Ev, 
                       __ZN11GasGeometry10class_infoEv, __ZN11GasGeometry20frustum_hit_callbackEPKS_RK7CtxEvalR9CtxShaderR18GeometryFrustumCtx, 
                       __ZN11GasGeometry22memory_update_callbackERKmS1_Pv, __ZN11GasGeometry23ray_hit_motion_callbackEPKS_RK7CtxEvalR9CtxShaderR19GeometryRaytraceCtx, 
                       __ZN11GasGeometry23ray_hit_static_callbackEPKS_RK7CtxEvalR9CtxShaderR19GeometryRaytraceCtx, 
                       __ZN11GasGeometry24get_leaf_bboxes_callbackEPKS_RK7CtxEvalRKjPS5_P10GMathBbox3IfE, 
                       __ZN11GasGeometry26primitive_ray_hit_callbackEPKS_RKjRK7CtxEvalR9CtxShaderR19GeometryRaytraceCtx, 
                       __ZN11GasGeometry27get_leaf_bboxes_at_callbackEPKS_RK7CtxEvalRKdRKjPS7_P10GMathBbox3IfE, 
                       __ZN11GasGeometry30primitive_frustum_hit_callbackEPKS_RKjRK7CtxEvalR9CtxShaderR18GeometryFrustumCtx, 
                       __ZN11GasGeometry31ray_hit_nearest_motion_callbackEPKS_RK7CtxEvalR9CtxShaderR19GeometryRaytraceCtx, 
                       __ZN11GasGeometry31ray_hit_nearest_static_callbackEPKS_RK7CtxEvalR9CtxShaderR19GeometryRaytraceCtx, 
                       __ZN11GasGeometry6createERK7CtxEvalPK14GeometryObjectS5_P14AppProgressBar, 
                       __ZN11GasGeometry6createERK7CtxEvalPK14GeometryObjectS5_S5_S5_RK14CoreBasicArrayIjEP14AppProgressBar, 
                       __ZN11GasGeometryC1Ev, __ZN11GasGeometryC2Ev, __ZN11GasGeometryD0Ev, 
                       __ZN11GasGeometryD1Ev, __ZN11GasGeometryD2Ev, __ZN11GasGridTree11create_gridEPK10GMathBbox3IfEPKjRS4_S6_P14AppProgressBar, 
                       __ZN11GasGridTree16set_leaf_indicesEPKj, __ZN11GasGridTree26grid_cell_ray_hit_callbackEPvRKjRK7CtxEvalR9CtxShaderR19GeometryRaytraceCtx, 
                       __ZN11GasGridTree30grid_cell_frustum_hit_callbackEPvRKjRK7CtxEvalR9CtxShaderR18GeometryFrustumCtx, 
                       __ZN11GasGridTree34grid_cell_ray_frustum_hit_callbackEPvRKjRK7CtxEvalR9CtxShaderR21GeometryRayFrustumCtx, 
                       __ZN11GasGridTree34grid_cell_ray_hit_nearest_callbackEPvRKjRK7CtxEvalR9CtxShaderR19GeometryRaytraceCtx, 
                       __ZN11GasGridTree5clearEv, __ZN11GasGridTree6createEPK10GMathBbox3IfEPKjRS4_S6_P14AppProgressBar, 
                       __ZN11GasGridTree6createEPK10GMathBbox3IfERKjS5_P14AppProgressBar, 
                       __ZN11GasGridTree6createERK14CoreBasicArrayI10GMathBbox3IfEERKS0_IjERKjP14AppProgressBar, 
                       __ZN11GasGridTree6createERK14CoreBasicArrayI10GMathBbox3IfEERKjP14AppProgressBar, 
                       __ZN11GasGridTree6createERK7CtxEvalRK14CoreBasicArrayIjERKjP14AppProgressBar, 
                       __ZN11GasGridTreeC1Ev, __ZN11GasGridTreeC2Ev, __ZN11GasGridTreeD0Ev, 
                       __ZN11GasGridTreeD1Ev, __ZN11GasGridTreeD2Ev, __ZN11GasTreeData21destroy_gas_tree_dataERS_, 
                       __ZN11GeometryBox10class_infoEv, __ZN11GeometryBoxC1ERK9GMathVec3IfE, 
                       __ZN11GeometryBoxC2ERK9GMathVec3IfE, __ZN11IESEmission4initERK8OfObjectdb, 
                       __ZN11IExpression10deactivateEv, __ZN11IExpression10initializeEv, 
                       __ZN11IExpression12uninitializeEv, __ZN11IExpression18get_function_namesER10CoreVectorI10CoreStringE, 
                       __ZN11IExpression19set_expression_implERK10CoreString, __ZN11IExpression5resetEb, 
                       __ZN11IExpression8activateEv, __ZN11IExpression8evaluateEb, 
                       __ZN11IExpression9add_errorERK10CoreStringii, __ZN11IExpressionC2Ev, 
                       __ZN11IExpressionD0Ev, __ZN11IExpressionD1Ev, __ZN11IExpressionD2Ev, 
                       __ZN11ImageCanvas10class_infoEv, __ZN11ImageCanvas10set_canvasERKiS1_RKjS3_PK9GMathVec4IiE, 
                       __ZN11ImageCanvas11create_fromERKS_RKiS3_PK9GMathVec4IiEPK14CoreBasicArrayI10CoreStringE, 
                       __ZN11ImageCanvas11dirty_imageEv, __ZN11ImageCanvas12blit_visibleERKS_RK9GMathVec4IiERKN10ImagePixel8BlitModeE, 
                       __ZN11ImageCanvas12create_imageEPK9GMathVec4IiERKN10ImagePixel5DepthERKNS4_8BitDepthERKNS4_7BitTypeERKi, 
                       __ZN11ImageCanvas12dirty_borderERK9GMathVec4IiE, __ZN11ImageCanvas12get_no_imageEv, 
                       __ZN11ImageCanvas14dirty_channelsERK10CoreVectorI10CoreStringE, 
                       __ZN11ImageCanvas15fill_clean_dataERKS_RK9GMathVec4IiE, __ZN11ImageCanvas15process_visibleER11ImageMapCtxPFvPfRKjPvES5_PK9GMathVec4IfE, 
                       __ZN11ImageCanvas15reset_dirtinessEv, __ZN11ImageCanvas17get_default_imageEv, 
                       __ZN11ImageCanvas17on_update_visibleERK10GMathBbox2IiES3_, 
                       __ZN11ImageCanvas17update_mip_canvasEv, __ZN11ImageCanvas18get_default_canvasEN10ImagePixel10RepeatModeES1_, 
                       __ZN11ImageCanvas19compute_image_edgesEv, __ZN11ImageCanvas22update_custom_channelsERK10CoreVectorI10CoreStringES4_, 
                       __ZN11ImageCanvas29compute_uv_ray_intersection_xERKfS1_S1_S1_R8GMathRayIdER20GeometryIntersection, 
                       __ZN11ImageCanvas29compute_uv_ray_intersection_yERKfS1_S1_S1_R8GMathRayIdER20GeometryIntersection, 
                       __ZN11ImageCanvas29compute_uv_ray_intersection_zERKfS1_S1_S1_R8GMathRayIdER20GeometryIntersection, 
                       __ZN11ImageCanvas34compute_uv_ray_intersection_plus_xERKfS1_S1_S1_R8GMathRayIdER20GeometryIntersection, 
                       __ZN11ImageCanvas34compute_uv_ray_intersection_plus_yERKfS1_S1_S1_R8GMathRayIdER20GeometryIntersection, 
                       __ZN11ImageCanvas34compute_uv_ray_intersection_plus_zERKfS1_S1_S1_R8GMathRayIdER20GeometryIntersection, 
                       __ZN11ImageCanvas35set_intersection_user_differentialsERKfS1_R20GeometryIntersection, 
                       __ZN11ImageCanvas5clearERK9GMathVec4IiEPS2_j, __ZN11ImageCanvas5clearEv, 
                       __ZN11ImageCanvas6resizeERKS_RS_NS_13ResizeOptionsEP7AppBase, 
                       __ZN11ImageCanvas6resizeERKS_RS_RKiS4_i, __ZN11ImageCanvas7destroyEv, 
                       __ZN11ImageCanvas8finalizeERKbS1_, __ZN11ImageCanvas9copy_fromERKS_, 
                       __ZN11ImageCanvas9move_dataERKiS1_, __ZN11ImageCanvasC1ER8ImageMap, 
                       __ZN11ImageCanvasC1ERKiS1_RKjS3_S3_S3_, __ZN11ImageCanvasC1ERKjS1_S1_S1_, 
                       __ZN11ImageCanvasC1Eb, __ZN11ImageCanvasC2ER8ImageMap, __ZN11ImageCanvasC2ERKiS1_RKjS3_S3_S3_, 
                       __ZN11ImageCanvasC2ERKjS1_S1_S1_, __ZN11ImageCanvasC2Eb, __ZN11ImageCanvasD0Ev, 
                       __ZN11ImageCanvasD1Ev, __ZN11ImageCanvasD2Ev, __ZN11ImageHandle10class_infoEv, 
                       __ZN11ImageHandle16get_empty_handleEv, __ZN11ImageHandle17get_default_imageEv, 
                       __ZN11ImageHandleC1Eb, __ZN11ImageHandleC2Eb, __ZN11ImageHelper13create_bitmapER17ImageHelperBitmapRK11ImageHandleRKjS6_S6_S6_RK14CoreBasicArrayI10CoreStringE, 
                       __ZN11ImageIOLoad10class_infoEv, __ZN11ImageIOLoad10load_imageERK15CoreBasicStringR11ImageCanvasRK16ImageLoadOptionsP5OfAppP14AppProgressBar, 
                       __ZN11ImageIOLoad11load_headerERK15CoreBasicStringRNSt3__110unique_ptrIN16OpenImageIO_v2_510ImageInputENS3_14default_deleteIS6_EEEERNS5_9ImageSpecE, 
                       __ZN11ImageIOLoad15read_tiled_dataEPN16OpenImageIO_v2_510ImageInputERNS0_9ImageSpecER8ImageMapR9GMathVec4IiERK16ImageLoadOptionsP5OfAppP14AppProgressBar, 
                       __ZN11ImageIOLoad18read_scanline_dataEPN16OpenImageIO_v2_510ImageInputERNS0_9ImageSpecER8ImageMapR9GMathVec4IiERK16ImageLoadOptionsbP5OfAppP14AppProgressBar, 
                       __ZN11ImageIOLoad9read_dataEPN16OpenImageIO_v2_510ImageInputERNS0_9ImageSpecER8ImageMapR9GMathVec4IiERK16ImageLoadOptionsbP5OfAppP14AppProgressBar, 
                       __ZN11ImageIOSave10class_infoEv, __ZN11ImageIOSave10save_basicE16ImageEvalContextRK10CoreStringRK16ImageSaveOptionsPK8ImageMapRK9GMathVec4IiEP5OfAppP14AppProgressBar, 
                       __ZN11ImageIOSave10save_tiledEPN16OpenImageIO_v2_511ImageOutputERK14CoreBasicArrayIP15ImageMapChannelEPK8ImageMapRK10CoreStringP7AppBaseP14AppProgressBar, 
                       __ZN11ImageIOSave11save_regionEP5OfAppR14ImageIOOutputsR16ImageEvalContextRK9GMathVec4IiEP14AppProgressBar, 
                       __ZN11ImageIOSave12save_genericE16ImageEvalContextRK10CoreStringRK16ImageSaveOptionsPK8ImageMapRK9GMathVec4IiESD_P5OfAppP14AppProgressBar, 
                       __ZN11ImageIOSave13build_outputsEP5OfAppRK16ImageSaveOptionsRK10CoreStringPK8ImageMapRK9GMathVec4IiESE_R14ImageIOOutputs, 
                       __ZN11ImageIOSave13save_advancedE16ImageEvalContextRK10CoreStringRK16ImageSaveOptionsPK8ImageMapRK9GMathVec4IiESD_P5OfAppP14AppProgressBar, 
                       __ZN11ImageIOSave13save_scanlineEPN16OpenImageIO_v2_511ImageOutputERK14CoreBasicArrayIP15ImageMapChannelEPK8ImageMapRK10CoreStringP7AppBaseP14AppProgressBar, 
                       __ZN11ImageIOSave17save_tiled_regionEPN16OpenImageIO_v2_511ImageOutputERK9GMathVec4IiERK14CoreBasicArrayIP15ImageMapChannelEPK8ImageMapRK10CoreStringP7AppBaseP14AppProgressBar, 
                       __ZN11ImageIOSave18build_image_outputEP5OfAppRK16ImageSaveOptionsRK10CoreStringRK14CoreBasicArrayIP15ImageMapChannelEiRK9GMathVec4IiESH_S7_, 
                       __ZN11ImageIOSave18save_openexr_tiledER16ImageEvalContextRN7Imf_3_16HeaderERNS2_15TiledOutputFileERK14CoreBasicArrayIP15ImageMapChannelERKjRK10CoreStringP7AppBaseP14AppProgressBar, 
                       __ZN11ImageIOSave20build_openexr_headerEP5OfAppRK16ImageSaveOptionsRK14CoreBasicArrayIP15ImageMapChannelEiRK9GMathVec4IiESE_b, 
                       __ZN11ImageIOSave20save_scanline_regionEPN16OpenImageIO_v2_511ImageOutputERK9GMathVec4IiERK14CoreBasicArrayIP15ImageMapChannelEPK8ImageMapRK10CoreStringP7AppBaseP14AppProgressBar, 
                       __ZN11ImageIOSave21save_openexr_scanlineERN7Imf_3_16HeaderERNS0_10OutputFileERK14CoreBasicArrayIP15ImageMapChannelERKjRK10CoreStringP7AppBaseP14AppProgressBar, 
                       __ZN11ImageIOSave22write_one_aov_per_fileE16ImageEvalContext10CoreStringRK16ImageSaveOptionsRK14CoreBasicArrayIP15ImageMapChannelERK9GMathVec4IiEP7AppBaseP14AppProgressBar, 
                       __ZN11ImageIOSave23write_image_from_bufferERK10CoreStringRKN17ImageIOFileFormat4SaveEPfjjj, 
                       __ZN11ImageIOSave25save_openexr_tiled_regionER16ImageEvalContextRN7Imf_3_16HeaderERNS2_15TiledOutputFileERK9GMathVec4IiERK14CoreBasicArrayIP15ImageMapChannelEiRK10CoreStringP7AppBaseP14AppProgressBar, 
                       __ZN11ImageIOSave28save_openexr_scanline_regionERN7Imf_3_16HeaderERNS0_10OutputFileERK9GMathVec4IiERK14CoreBasicArrayIP15ImageMapChannelERKjRK10CoreStringP7AppBaseP14AppProgressBar, 
                       __ZN11ImageIOSave4saveEP5OfAppR14ImageIOOutputsR16ImageEvalContextP14AppProgressBar, 
                       __ZN11ImageMapCtx13get_mode_nameERKNS_4ModeE, __ZN11ImageMapCtxC1ERK8ImageMap, 
                       __ZN11ImageMapCtxC1ERK8ImageMapRK9GMathVec4IiERKjPKs, __ZN11ImageMapCtxC1ERKS_, 
                       __ZN11ImageMapCtxC2ERK8ImageMap, __ZN11ImageMapCtxC2ERK8ImageMapRK9GMathVec4IiERKjPKs, 
                       __ZN11ImageMapCtxC2ERKS_, __ZN11ImageMapCtxD1Ev, __ZN11ImageMapCtxD2Ev, 
                       __ZN11LicenseDescC1EPKcS1_RKj, __ZN11LicenseDescC2EPKcS1_RKj, 
                       __ZN11LicenseInfo10set_flavorEN7License6FlavorE, __ZN11LicenseInfo11deserializeEPKc, 
                       __ZN11LicenseInfo16get_null_licenseEv, __ZN11LicenseInfo18set_application_idERKy, 
                       __ZN11LicenseInfo20set_application_nameEPKc, __ZN11LicenseInfo3idlERS_, 
                       __ZN11LicenseInfoC1ERKS_, __ZN11LicenseInfoC1Ev, __ZN11LicenseInfoC2ERKS_, 
                       __ZN11LicenseInfoC2Ev, __ZN11LicenseInfoD0Ev, __ZN11LicenseInfoD1Ev, 
                       __ZN11LicenseInfoD2Ev, __ZN11LicenseInfoaSERKS_, __ZN11LogCategory15defaultCategoryEv, 
                       __ZN11LogCategoryC1ERKNSt3__112basic_stringIcNS0_11char_traitsIcEENS0_9allocatorIcEEEE, 
                       __ZN11LogCategoryC2ERKNSt3__112basic_stringIcNS0_11char_traitsIcEENS0_9allocatorIcEEEE, 
                       __ZN11LogFunction17register_functionEv, __ZN11LogFunction4evalEN7SeExpr214ExprFuncSimple9ArgHandleE, 
                       __ZN11LogFunctionC1Ev, __ZN11LogFunctionC2Ev, __ZN11LogFunctionD0Ev, 
                       __ZN11LogFunctionD1Ev, __ZN11LogFunctionD2Ev, __ZN11LpeAutomata5resetEv, 
                       __ZN11LpeAutomata7add_aovERK10CoreStringRK14CoreBasicArrayIKsE, 
                       __ZN11LpeAutomata8finalizeEv, __ZN11LpeAutomataC1ERK14CoreBasicArrayI12UniqueStringES4_, 
                       __ZN11LpeAutomataC2ERK14CoreBasicArrayI12UniqueStringES4_, 
                       __ZN11LpeAutomataD0Ev, __ZN11LpeAutomataD1Ev, __ZN11LpeAutomataD2Ev, 
                       __ZN11ModuleGroup10add_filterERK10CoreString, __ZN11ModuleGroup10class_infoEv, 
                       __ZN11ModuleGroup10set_filterERK10CoreString, __ZN11ModuleGroup10set_filterERK14CoreBasicArrayI10CoreStringEb, 
                       __ZN11ModuleGroup11destroy_gasEv, __ZN11ModuleGroup11set_objectsERK14CoreBasicArrayIP12ModuleObjectE, 
                       __ZN11ModuleGroup11set_objectsERK14CoreBasicArrayIP8OfObjectE, 
                       __ZN11ModuleGroup12_get_objectsER9CoreArrayIP8OfObjectE, __ZN11ModuleGroup13clear_contentEv, 
                       __ZN11ModuleGroup14set_group_ruleERK10CoreString, __ZN11ModuleGroup15get_matte_tableEPK16ModuleLayerScene, 
                       __ZN11ModuleGroup15get_matte_tableEPK17ModuleRenderScene, 
                       __ZN11ModuleGroup15set_update_modeERKNS_15GroupUpdateModeE, 
                       __ZN11ModuleGroup16set_search_pathsEP16ModuleSearchPath, __ZN11ModuleGroup17clear_matte_tableEPKv, 
                       __ZN11ModuleGroup17clear_shading_gasEP18ModuleShadingLayer, 
                       __ZN11ModuleGroup17cmd_clear_contentEP13OfCommandData, __ZN11ModuleGroup17dirty_motion_blurEv, 
                       __ZN11ModuleGroup17get_override_dataEP18ModuleShadingLayerb, 
                       __ZN11ModuleGroup17on_rename_contextER9OfContext, __ZN11ModuleGroup17set_group_objectsERK14CoreBasicArrayIP8OfObjectE, 
                       __ZN11ModuleGroup17set_input_contextEP9OfContext, __ZN11ModuleGroup17set_result_filterERK10CoreString, 
                       __ZN11ModuleGroup17set_shading_layerEP18ModuleShadingLayer, 
                       __ZN11ModuleGroup18module_constructorER8OfObject, __ZN11ModuleGroup18set_exclusion_ruleERK10CoreString, 
                       __ZN11ModuleGroup18set_inclusion_ruleERK10CoreString, __ZN11ModuleGroup19get_shading_gas_ctxEP18ModuleShadingLayerbR6CtxGas, 
                       __ZN11ModuleGroup19get_updated_objectsER9CoreArrayI18OfBaseObjectHandleILb0EEEPK9OfContext, 
                       __ZN11ModuleGroup19get_updated_objectsER9CoreArrayIP8OfObjectE, 
                       __ZN11ModuleGroup19on_attribute_changeERK6OfAttrRiRKi, __ZN11ModuleGroup20add_exclusion_objectEP8OfObject, 
                       __ZN11ModuleGroup20add_inclusion_objectEP8OfObject, __ZN11ModuleGroup20clear_shading_tablesEP18ModuleShadingLayer, 
                       __ZN11ModuleGroup20manage_factory_eventER15OfObjectFactoryRKN11EventObject9EventInfoEPv, 
                       __ZN11ModuleGroup20on_item_state_changeER6OfItemRKN11EventObject9EventInfoEPv, 
                       __ZN11ModuleGroup20update_root_contextsEv, __ZN11ModuleGroup21add_exclusion_objectsERK14CoreBasicArrayIP12ModuleObjectE, 
                       __ZN11ModuleGroup21add_exclusion_objectsERK14CoreBasicArrayIP8OfObjectE, 
                       __ZN11ModuleGroup21add_inclusion_objectsERK14CoreBasicArrayIP12ModuleObjectE, 
                       __ZN11ModuleGroup21add_inclusion_objectsERK14CoreBasicArrayIP8OfObjectE, 
                       __ZN11ModuleGroup21build_dynamic_objectsEv, __ZN11ModuleGroup21cmd_clear_shading_gasEP13OfCommandData, 
                       __ZN11ModuleGroup21set_exclusion_objectsERK14CoreBasicArrayIP12ModuleObjectE, 
                       __ZN11ModuleGroup21set_exclusion_objectsERK14CoreBasicArrayIP8OfObjectE, 
                       __ZN11ModuleGroup21set_inclusion_objectsERK14CoreBasicArrayIP12ModuleObjectE, 
                       __ZN11ModuleGroup21set_inclusion_objectsERK14CoreBasicArrayIP8OfObjectE, 
                       __ZN11ModuleGroup23force_update_referencesEv, __ZN11ModuleGroup23update_integration_dataERK8OfObjectPK11OfAttrEvent, 
                       __ZN11ModuleGroup24cmd_clear_shading_tablesEP13OfCommandData, 
                       __ZN11ModuleGroup24destroy_integration_dataERKj, __ZN11ModuleGroup24destroy_integration_dataEv, 
                       __ZN11ModuleGroup24get_default_root_contextEv, __ZN11ModuleGroup24set_default_root_contextEv, 
                       __ZN11ModuleGroup24set_group_exclusion_ruleERK10CoreString, 
                       __ZN11ModuleGroup25on_shading_layer_modifiedER8OfObjectRKN11EventObject9EventInfoEPv, 
                       __ZN11ModuleGroup28get_shading_integration_dataERK16ModuleIntegratorPK14ModuleMaterialP18ModuleShadingLayer, 
                       __ZN11ModuleGroup30clear_shading_integration_dataERKjP18ModuleShadingLayer, 
                       __ZN11ModuleGroup34cmd_clear_shading_integration_dataEP13OfCommandData, 
                       __ZN11ModuleGroupC1Ev, __ZN11ModuleGroupC2Ev, __ZN11ModuleGroupD0Ev, 
                       __ZN11ModuleGroupD1Ev, __ZN11ModuleGroupD2Ev, __ZN11ModuleImage10class_infoEv, 
                       __ZN11ModuleImage11build_imageERKN18ModuleImageQuality5LevelEPK9GMathVec4IfE, 
                       __ZN11ModuleImage11destroy_allEv, __ZN11ModuleImage11dirty_imageEv, 
                       __ZN11ModuleImage12add_progressERf, __ZN11ModuleImage12dirty_layersE10GMathBbox2IfES1_, 
                       __ZN11ModuleImage13compute_imageERKN18ModuleImageQuality5LevelEPvPK9GMathVec4IfERKdRKb, 
                       __ZN11ModuleImage13compute_imageERKN18ModuleImageQuality5LevelES3_PvPK9GMathVec4IfERKdRKb, 
                       __ZN11ModuleImage14get_all_imagesEv, __ZN11ModuleImage15get_image_asyncERN18ModuleImageQuality5LevelERKbPK9GMathVec4IfERKd, 
                       __ZN11ModuleImage15update_overscanEv, __ZN11ModuleImage16add_sub_progressERf, 
                       __ZN11ModuleImage16set_active_layerEP11ModuleLayer, __ZN11ModuleImage18get_image_progressEv, 
                       __ZN11ModuleImage18image_level_updateERKN18ModuleImageQuality5LevelE, 
                       __ZN11ModuleImage18module_constructorER8OfObject, __ZN11ModuleImage18stop_compute_imageEPv, 
                       __ZN11ModuleImage19check_need_to_dirtyEv, __ZN11ModuleImage19get_progress_bufferEv, 
                       __ZN11ModuleImage19init_progress_countEv, __ZN11ModuleImage19on_attribute_changeERK6OfAttrRiRKi, 
                       __ZN11ModuleImage20send_image_dirtinessEPv, __ZN11ModuleImage24add_draw_region_callbackEPvPFvS0_RK27ModuleImageProgressInitInfoEPFvS0_P11ImageHandleEPFvS0_S7_RK10CoreVectorI9GMathVec4IiEEEPFvS0_SF_E, 
                       __ZN11ModuleImage24limited_region_validatorERK6OfAttrRdjPv, 
                       __ZN11ModuleImage24set_progress_pixel_countEii, __ZN11ModuleImage25check_need_to_dirty_levelERKN18ModuleImageQuality5LevelE, 
                       __ZN11ModuleImage25update_progress_receiversEv, __ZN11ModuleImage27remove_draw_region_callbackEPv, 
                       __ZN11ModuleImage28add_progress_update_callbackEPvPFvS0_RKfE, 
                       __ZN11ModuleImage30get_current_render_bucket_listEv, __ZN11ModuleImage31add_image_level_update_callbackEPvPFvS0_RKN18ModuleImageQuality5LevelE11ImageHandleE, 
                       __ZN11ModuleImage31remove_progress_update_callbackEPv, __ZN11ModuleImage34remove_image_level_update_callbackEPv, 
                       __ZN11ModuleImage9add_layerERK10CoreStringS2_, __ZN11ModuleImage9add_layerERK10CoreStringS2_S2_, 
                       __ZN11ModuleImage9get_imageERKN18ModuleImageQuality5LevelE, 
                       __ZN11ModuleImage9get_imageERKN18ModuleImageQuality5LevelERKbPK9GMathVec4IfE, 
                       __ZN11ModuleImageC1Ev, __ZN11ModuleImageC2Ev, __ZN11ModuleImageD0Ev, 
                       __ZN11ModuleImageD1Ev, __ZN11ModuleImageD2Ev, __ZN11ModuleLayer10add_filterERK10CoreStringS2_, 
                       __ZN11ModuleLayer10class_infoEv, __ZN11ModuleLayer11destroy_allEv, 
                       __ZN11ModuleLayer11dirty_layerERKb, __ZN11ModuleLayer13mark_as_dirtyEv, 
                       __ZN11ModuleLayer13stop_progressEP11ImageHandle, __ZN11ModuleLayer14start_progressERKN18ModuleImageQuality5LevelE, 
                       __ZN11ModuleLayer15on_image_changeER8OfObjectRKN11EventObject9EventInfoEPv, 
                       __ZN11ModuleLayer15update_overscanEv, __ZN11ModuleLayer17bucket_render_endERK9GMathVec4IiEj, 
                       __ZN11ModuleLayer17on_update_visibleERK10GMathBbox2IfES3_, 
                       __ZN11ModuleLayer18dirty_layer_borderER9GMathVec4IfE, __ZN11ModuleLayer18module_constructorER8OfObject, 
                       __ZN11ModuleLayer19bucket_render_startERK9GMathVec4IiEj, __ZN11ModuleLayer19on_attribute_changeERK6OfAttrRiRKi, 
                       __ZN11ModuleLayer20dirty_image_channelsERK10CoreVectorI10CoreStringE, 
                       __ZN11ModuleLayer20dirty_layer_positionEv, __ZN11ModuleLayer20init_progress_bufferERKi, 
                       __ZN11ModuleLayer21update_image_channelsERK10CoreVectorI10CoreStringES4_, 
                       __ZN11ModuleLayer24set_progress_pixel_countEi, __ZN11ModuleLayer31add_image_level_update_callbackEPvPFvS0_RKN18ModuleImageQuality5LevelE11ImageHandleE, 
                       __ZN11ModuleLayer34remove_image_level_update_callbackEPv, 
                       __ZN11ModuleLayerC1Ev, __ZN11ModuleLayerC2Ev, __ZN11ModuleLayerD0Ev, 
                       __ZN11ModuleLayerD1Ev, __ZN11ModuleLayerD2Ev, __ZN11ModuleLight10class_infoEv, 
                       __ZN11ModuleLight18module_constructorER8OfObject, __ZN11ModuleLight19on_attribute_changeERK6OfAttrRiRKi, 
                       __ZN11ModuleLightC1Ev, __ZN11ModuleLightC2Ev, __ZN11ModuleLightD0Ev, 
                       __ZN11ModuleLightD1Ev, __ZN11ModuleLightD2Ev, __ZN11ModuleScope10class_infoEv, 
                       __ZN11ModuleScope17module_destructorEv, __ZN11ModuleScope18module_constructorER8OfObject, 
                       __ZN11ModuleScope19on_attribute_changeERK6OfAttrRiRKi, __ZN11ModuleScopeC1Ev, 
                       __ZN11ModuleScopeC2Ev, __ZN11ModuleScopeD0Ev, __ZN11ModuleScopeD1Ev, 
                       __ZN11ModuleScopeD2Ev, __ZN11NgGlobalCtx12init_camerasERK13CtxMotionBlurRK14CoreBasicArrayIP12ModuleCameraES5_, 
                       __ZN11NgOptixItem11synchronizeEPK17ModuleSceneObject, __ZN11NgOptixItem12get_matricesEPK17ModuleSceneObject20IxOptixMotionOptionsPf, 
                       __ZN11NgOptixItem20get_visibility_flagsEPK17ModuleSceneObject, 
                       __ZN11NgOptixItem24get_optix_resource_countEv, __ZN11NgOptixItem5buildEb, 
                       __ZN11NgOptixItem5dirtyEj, __ZN11NgOptixItemC1Ey14CoreBasicArrayIyERK9GMathVec3IdEPf20IxOptixMotionOptionsjj, 
                       __ZN11NgOptixItemC2Ey14CoreBasicArrayIyERK9GMathVec3IdEPf20IxOptixMotionOptionsjj, 
                       __ZN11NgOptixItemD0Ev, __ZN11NgOptixItemD1Ev, __ZN11NgOptixItemD2Ev, 
                       __ZN11NgTransform10initializeEPK15ModuleSceneItemRK13CtxMotionBlurb, 
                       __ZN11NgTransform14multiply_rightERKS_, __ZN11OfAttrEvent13get_type_nameERKNS_4TypeE, 
                       __ZN11OfAttrEvent14clear_dg_infosEv, __ZN11OfAttrEvent16dec_dg_info_refsEv, 
                       __ZN11OfAttrEvent16driven_requesterEv, __ZN11OfAttrEvent16inc_dg_info_refsEv, 
                       __ZN11OfAttrEventD1Ev, __ZN11OfAttrEventD2Ev, __ZN11OfAttrTable10remove_rowEj, 
                       __ZN11OfAttrTable10save_stateEv, __ZN11OfAttrTable10set_doubleEjjdj, 
                       __ZN11OfAttrTable10set_hiddenEb, __ZN11OfAttrTable10set_lockedEb, 
                       __ZN11OfAttrTable10set_stringEjj10CoreStringj, __ZN11OfAttrTable13restore_stateERK16OfAttrTableState, 
                       __ZN11OfAttrTable13set_localizedEb, __ZN11OfAttrTable14set_cell_valueEjjRK11CoreVariantj, 
                       __ZN11OfAttrTable14set_row_valuesEjRK14CoreBasicArrayI11CoreVariantE, 
                       __ZN11OfAttrTable15set_cell_valuesEjjRK14CoreBasicArrayI11CoreVariantE, 
                       __ZN11OfAttrTable15set_row_enabledEjb, __ZN11OfAttrTable5awakeEb, 
                       __ZN11OfAttrTable5clearEv, __ZN11OfAttrTable5resetEv, __ZN11OfAttrTable6asleepEb, 
                       __ZN11OfAttrTable6revertEv, __ZN11OfAttrTable7add_rowEj, __ZN11OfAttrTable8move_rowEjj, 
                       __ZN11OfAttrTable8set_boolEjjbj, __ZN11OfAttrTable8set_longEjjlj, 
                       __ZN11OfAttrTable9set_vec2dEjj9GMathVec2IdE, __ZN11OfAttrTable9set_vec2fEjj9GMathVec2IfE, 
                       __ZN11OfAttrTable9set_vec2iEjj9GMathVec2IiE, __ZN11OfAttrTable9set_vec3dEjj9GMathVec3IdE, 
                       __ZN11OfAttrTable9set_vec3fEjj9GMathVec3IfE, __ZN11OfAttrTable9set_vec3iEjj9GMathVec3IiE, 
                       __ZN11OfAttrTable9set_vec4dEjj9GMathVec4IdE, __ZN11OfAttrTable9set_vec4fEjj9GMathVec4IfE, 
                       __ZN11OfAttrTable9set_vec4iEjj9GMathVec4IiE, __ZN11OfAttrTable9swap_rowsEjj, 
                       __ZN11OfAttrTableC1ER8OfObjectR14OfAttrTableDef, __ZN11OfAttrTableC1ERKS_, 
                       __ZN11OfAttrTableC2ER8OfObjectR14OfAttrTableDef, __ZN11OfAttrTableC2ERKS_, 
                       __ZN11OfAttrTableD1Ev, __ZN11OfAttrTableD2Ev, __ZN11OfAttrTableaSERKS_, 
                       __ZN11OfAttrValue15detach_embeddedER10CoreVectorIP8OfObjectE, 
                       __ZN11OfAttrValue16cleanup_embeddedEP6OfAttr, __ZN11OfAttrValue16detach_referenceEP6OfAttr, 
                       __ZN11OfAttrValue17cleanup_referenceEP6OfAttr, __ZN11OfAttrValue4initERKN10OfPlugType4TypeEP6OfAttrRKj, 
                       __ZN11OfAttrValue7cleanupERKN10OfPlugType4TypeEP6OfAttr, __ZN11OfAttrValueD1Ev, 
                       __ZN11OfAttrValueD2Ev, __ZN11OfOverrides10make_localEv, __ZN11OfOverrides10sort_pathsERK14CoreBasicArrayI10CoreStringER10CoreVectorIjE, 
                       __ZN11OfOverrides11deserializeERK11ParserEntryRK15OfSerialOptions, 
                       __ZN11OfOverrides11extract_setER8OfObject, __ZN11OfOverrides12_deserializeERKjRK11ParserEntryRK15OfSerialOptions, 
                       __ZN11OfOverrides14OverrideSourceC1ERK9OfContextS3_RKj, __ZN11OfOverrides14OverrideSourceC1ERKS0_, 
                       __ZN11OfOverrides14OverrideSourceC1Ev, __ZN11OfOverrides14OverrideSourceC2ERK9OfContextS3_RKj, 
                       __ZN11OfOverrides14OverrideSourceC2ERKS0_, __ZN11OfOverrides14OverrideSourceC2Ev, 
                       __ZN11OfOverrides14OverrideSourceD1Ev, __ZN11OfOverrides14OverrideSourceD2Ev, 
                       __ZN11OfOverrides15ObjectOverrides11reset_dirtyEv, __ZN11OfOverrides15ObjectOverrides20backup_initial_stateEP8OfObjectRKj, 
                       __ZN11OfOverrides15ObjectOverrides20update_initial_stateERNS_19ObjectOverrideInfos15CustomAttrInfosE, 
                       __ZN11OfOverrides15ObjectOverrides21release_initial_stateEv, 
                       __ZN11OfOverrides15ObjectOverrides21restore_initial_stateEP8OfObject, 
                       __ZN11OfOverrides15ObjectOverrides21set_partially_appliedEv, 
                       __ZN11OfOverrides15ObjectOverrides24release_object_overridesEv, 
                       __ZN11OfOverrides15ObjectOverrides24update_cam_initial_stateERNS_19ObjectOverrideInfos12CamAttrInfosE, 
                       __ZN11OfOverrides15ObjectOverrides27release_attribute_overridesEv, 
                       __ZN11OfOverrides15ObjectOverrides5storeEv, __ZN11OfOverrides15ObjectOverrides7releaseEv, 
                       __ZN11OfOverrides15ObjectOverrides9set_dirtyEv, __ZN11OfOverrides15ObjectOverridesC1Ev, 
                       __ZN11OfOverrides15ObjectOverridesC2Ev, __ZN11OfOverrides15ObjectOverridesD1Ev, 
                       __ZN11OfOverrides15ObjectOverridesD2Ev, __ZN11OfOverrides15clear_and_applyEPK11ParserEntryRK15OfSerialOptions, 
                       __ZN11OfOverrides15on_object_eventERKN11EventObject9EventInfoERK8OfObject, 
                       __ZN11OfOverrides15store_overridesEv, __ZN11OfOverrides16_apply_overridesERK15OfSerialOptionsRKjRK14CoreBasicArrayIP8OfObjectE, 
                       __ZN11OfOverrides16get_context_pathERK9OfContextS2_R10CoreString, 
                       __ZN11OfOverrides16remove_overridesERKjRK10CoreStringS1_RKNS_13OverrideStateE, 
                       __ZN11OfOverrides16remove_overridesERKjRK10CoreStringS4_S1_RKNS_13OverrideStateERKb, 
                       __ZN11OfOverrides16remove_overridesERKjRK14CoreBasicArrayI10CoreStringERKS3_S1_RKNS_13OverrideStateERKb, 
                       __ZN11OfOverrides16revert_overridesERK14CoreBasicArrayI10CoreStringERKjRKbS8_, 
                       __ZN11OfOverrides16revert_overridesERKjRKb, __ZN11OfOverrides17BaseOverrideInfosC1ERKNS_14OverrideSourceERKj, 
                       __ZN11OfOverrides17BaseOverrideInfosC1Ev, __ZN11OfOverrides17BaseOverrideInfosC2ERKNS_14OverrideSourceERKj, 
                       __ZN11OfOverrides17BaseOverrideInfosC2Ev, __ZN11OfOverrides17BaseOverrideInfosD0Ev, 
                       __ZN11OfOverrides17BaseOverrideInfosD1Ev, __ZN11OfOverrides17BaseOverrideInfosD2Ev, 
                       __ZN11OfOverrides17_add_override_setERK10CoreString, __ZN11OfOverrides17_detach_overridesERK14CoreBasicArrayI10CoreStringE, 
                       __ZN11OfOverrides17_from_path_to_keyERK9OfContextRK10CoreStringRS3_, 
                       __ZN11OfOverrides17_listen_attributeEPK6OfAttrRK10CoreStringPK9OfContextRK8OfObject, 
                       __ZN11OfOverrides17_remove_overridesEPK9OfContextRKjRK14CoreBasicArrayI10CoreStringERKbRKS6_S4_RKNS_13OverrideStateESB_, 
                       __ZN11OfOverrides17set_override_setsERK14CoreBasicArrayI10CoreStringE, 
                       __ZN11OfOverrides18AttributeOverrides11reset_dirtyEv, __ZN11OfOverrides18AttributeOverrides20backup_initial_stateEP6OfAttr, 
                       __ZN11OfOverrides18AttributeOverrides21release_initial_stateEv, 
                       __ZN11OfOverrides18AttributeOverrides21restore_initial_stateEP6OfAttr, 
                       __ZN11OfOverrides18AttributeOverrides21set_partially_appliedERKj, 
                       __ZN11OfOverrides18AttributeOverrides5storeEv, __ZN11OfOverrides18AttributeOverrides7releaseEv, 
                       __ZN11OfOverrides18AttributeOverrides8set_attrEP6OfAttrRK10CoreString, 
                       __ZN11OfOverrides18AttributeOverrides9set_dirtyEv, __ZN11OfOverrides18AttributeOverridesC1ERKS0_, 
                       __ZN11OfOverrides18AttributeOverridesC1Ev, __ZN11OfOverrides18AttributeOverridesC2ERKS0_, 
                       __ZN11OfOverrides18AttributeOverridesC2Ev, __ZN11OfOverrides18AttributeOverridesD1Ev, 
                       __ZN11OfOverrides18AttributeOverridesD2Ev, __ZN11OfOverrides18AttributeOverridesaSERKS0_, 
                       __ZN11OfOverrides18_from_path_to_keysERK9OfContextRK14CoreBasicArrayI10CoreStringER10CoreVectorIS4_E, 
                       __ZN11OfOverrides18load_from_settingsEPK11ParserEntry, __ZN11OfOverrides18make_relative_pathERK10CoreStringRK9OfContext, 
                       __ZN11OfOverrides18set_overriden_flagEP6OfAttrRKbS3_, __ZN11OfOverrides18set_overriden_flagEP8OfObjectRKb, 
                       __ZN11OfOverrides18set_overriden_flagERK14CoreBasicArrayIP6OfAttrERKbS7_, 
                       __ZN11OfOverrides18set_overriden_flagERK14CoreBasicArrayIP8OfObjectERKb, 
                       __ZN11OfOverrides19ObjectOverrideInfos10set_storedEv, __ZN11OfOverrides19ObjectOverrideInfos17get_object_reasonERKj, 
                       __ZN11OfOverrides19ObjectOverrideInfos5mergeERS0_, __ZN11OfOverrides19ObjectOverrideInfos7releaseEv, 
                       __ZN11OfOverrides19ObjectOverrideInfosC1ERKNS_14OverrideSourceERKj, 
                       __ZN11OfOverrides19ObjectOverrideInfosC1ERKS0_, __ZN11OfOverrides19ObjectOverrideInfosC1Ev, 
                       __ZN11OfOverrides19ObjectOverrideInfosC2ERKNS_14OverrideSourceERKj, 
                       __ZN11OfOverrides19ObjectOverrideInfosC2ERKS0_, __ZN11OfOverrides19ObjectOverrideInfosC2Ev, 
                       __ZN11OfOverrides19ObjectOverrideInfosD0Ev, __ZN11OfOverrides19ObjectOverrideInfosD1Ev, 
                       __ZN11OfOverrides19ObjectOverrideInfosD2Ev, __ZN11OfOverrides19ObjectOverrideInfosaSERKS0_, 
                       __ZN11OfOverrides19on_pending_promotedER15OfObjectFactoryRKN11EventObject9EventInfoEPv, 
                       __ZN11OfOverrides20_add_object_overrideER17CoreSharedPointerINS_15ObjectOverridesE17CoreSharedCounterERK10CoreStringRNS_19ObjectOverrideInfosEP8OfObject, 
                       __ZN11OfOverrides20_serialize_attributeEPK6OfAttrRKjRK15OfSerialOptions, 
                       __ZN11OfOverrides20is_overridden_objectE18OfBaseObjectHandleILb1EERK10CoreStringRKj, 
                       __ZN11OfOverrides20set_listening_eventsEb, __ZN11OfOverrides21get_overridden_objectERK9OfContextRK10CoreStringRP8OfObject, 
                       __ZN11OfOverrides21get_overridden_objectERK9OfContextRK10CoreStringRPS0_RP8OfObjectRb, 
                       __ZN11OfOverrides21get_overriden_objectsER10CoreVectorIP8OfObjectERK10CoreStringRKj, 
                       __ZN11OfOverrides22AttributeOverrideInfos10set_storedEv, __ZN11OfOverrides22AttributeOverrideInfos20get_attribute_reasonERKj, 
                       __ZN11OfOverrides22AttributeOverrideInfos5mergeERS0_, __ZN11OfOverrides22AttributeOverrideInfos7releaseEv, 
                       __ZN11OfOverrides22AttributeOverrideInfosC1ERKNS_14OverrideSourceERKj, 
                       __ZN11OfOverrides22AttributeOverrideInfosC1ERKS0_, __ZN11OfOverrides22AttributeOverrideInfosC1Ev, 
                       __ZN11OfOverrides22AttributeOverrideInfosC2ERKNS_14OverrideSourceERKj, 
                       __ZN11OfOverrides22AttributeOverrideInfosC2ERKS0_, __ZN11OfOverrides22AttributeOverrideInfosC2Ev, 
                       __ZN11OfOverrides22AttributeOverrideInfosD0Ev, __ZN11OfOverrides22AttributeOverrideInfosD1Ev, 
                       __ZN11OfOverrides22AttributeOverrideInfosD2Ev, __ZN11OfOverrides22AttributeOverrideInfosaSERKS0_, 
                       __ZN11OfOverrides22add_attribute_overrideERK10CoreStringS2_RNS_22AttributeOverrideInfosEP6OfAttr, 
                       __ZN11OfOverrides22add_paste_item_mappingERK10CoreStringS2_RKb, 
                       __ZN11OfOverrides23_add_attribute_overrideER17CoreSharedPointerINS_15ObjectOverridesE17CoreSharedCounterERK10CoreStringS7_RNS_22AttributeOverrideInfosEP6OfAttr, 
                       __ZN11OfOverrides23_apply_object_overridesER15OfSerialOptions, 
                       __ZN11OfOverrides23clear_top_context_cacheEv, __ZN11OfOverrides23get_top_override_engineERK9OfContext, 
                       __ZN11OfOverrides23is_overridden_attributeE16OfBaseAttrHandleILb1EERK10CoreStringRKj, 
                       __ZN11OfOverrides23on_provider_path_changeER15OfObjectFactoryRKN11EventObject9EventInfoEPv, 
                       __ZN11OfOverrides23set_top_level_referenceERKb, __ZN11OfOverrides24_apply_project_overridesER15OfSerialOptions, 
                       __ZN11OfOverrides24_create_object_overridesE10CoreStringRKj, 
                       __ZN11OfOverrides24_is_override_to_considerERK10CoreStringRK14CoreBasicArrayIS0_ERKb, 
                       __ZN11OfOverrides24_serialize_lock_overrideERKb, __ZN11OfOverrides24clear_paste_item_mappingEv, 
                       __ZN11OfOverrides24get_overriden_attributesE18OfBaseObjectHandleILb1EER10CoreVectorIP6OfAttrERK10CoreStringRKj, 
                       __ZN11OfOverrides24get_overriden_attributesER10CoreVectorIP6OfAttrERK10CoreStringRKj, 
                       __ZN11OfOverrides24get_top_override_contextERK9OfContext, 
                       __ZN11OfOverrides25_make_local_override_setsER10CoreString, 
                       __ZN11OfOverrides25change_override_root_pathERK10CoreStringRK9OfContext, 
                       __ZN11OfOverrides25get_sub_override_contextsERK9OfContextR10CoreVectorIPS0_E, 
                       __ZN11OfOverrides26_apply_overrides_on_objectEP8OfObjectRKbRNS_15ObjectOverridesER15OfSerialOptions, 
                       __ZN11OfOverrides26_recurse_set_override_treeEv, __ZN11OfOverrides26get_parent_override_engineERK9OfContext, 
                       __ZN11OfOverrides26register_referenced_objectEP8OfObjectPNS_18AttributeOverridesE, 
                       __ZN11OfOverrides26remove_attribute_overridesERKjRK10CoreStringRK14CoreBasicArrayIS2_ES4_S1_RKNS_13OverrideStateE, 
                       __ZN11OfOverrides26remove_attribute_overridesERKjRK10CoreStringS4_S4_S1_RKNS_13OverrideStateE, 
                       __ZN11OfOverrides26remove_attribute_overridesERKjRK14CoreBasicArrayI10CoreStringERKS3_S1_RKNS_13OverrideStateE, 
                       __ZN11OfOverrides26set_allowed_update_contentEb, __ZN11OfOverrides27_remove_attribute_overridesEPK9OfContextRKjRK10CoreStringRK14CoreBasicArrayIS5_ES7_S4_RKNS_13OverrideStateE, 
                       __ZN11OfOverrides27_serialize_comment_overrideERK10CoreString, 
                       __ZN11OfOverrides27_serialize_disable_overrideERKb, __ZN11OfOverrides27get_parent_override_contextERK9OfContext, 
                       __ZN11OfOverrides27revert_attributes_overridesERK14CoreBasicArrayI10CoreStringERKjRKb, 
                       __ZN11OfOverrides28_serialize_colortag_overrideERK10CoreString, 
                       __ZN11OfOverrides28on_reference_attribute_eventER8OfObjectRKN11EventObject9EventInfoEPv, 
                       __ZN11OfOverrides29_create_object_override_infosERNS_15ObjectOverridesERNS_19ObjectOverrideInfosE, 
                       __ZN11OfOverrides29get_all_sub_override_contextsERK9OfContextR10CoreVectorIPS0_E, 
                       __ZN11OfOverrides29revert_cam_creation_overridesERK10CoreStringS2_RKb, 
                       __ZN11OfOverrides30_apply_overrides_on_attributesEP8OfObjectRNS_15ObjectOverridesERK10CoreStringRKjRKNS_14OverrideSourceES8_R15OfSerialOptionsRKb, 
                       __ZN11OfOverrides30_remove_cam_creation_overridesERK10CoreStringS2_RKb, 
                       __ZN11OfOverrides30_revert_cam_creation_overridesERK10CoreStringS2_RKb, 
                       __ZN11OfOverrides32_create_attribute_override_infosER17CoreSharedPointerINS_15ObjectOverridesE17CoreSharedCounterERK10CoreStringS5_RNS_22AttributeOverrideInfosERPNS_18AttributeOverridesEP6OfAttr, 
                       __ZN11OfOverrides35revert_attribute_creation_overridesERK10CoreStringS2_RKb, 
                       __ZN11OfOverrides36_remove_attribute_creation_overridesERK10CoreStringS2_RKb, 
                       __ZN11OfOverrides36_revert_attribute_creation_overridesERK10CoreStringS2_RKb, 
                       __ZN11OfOverrides4initEPK11ParserEntry, __ZN11OfOverrides51connect_attribute_override_to_all_referenced_objectEP6OfAttrPNS_18AttributeOverridesE, 
                       __ZN11OfOverrides5clearEv, __ZN11OfOverridesC1ER24OfOverridesContextEngine, 
                       __ZN11OfOverridesC2ER24OfOverridesContextEngine, __ZN11OfOverridesD0Ev, 
                       __ZN11OfOverridesD1Ev, __ZN11OfOverridesD2Ev, __ZN11OsdMeshMaps10class_infoEv, 
                       __ZN11OsdMeshMapsC1ERKS_, __ZN11OsdMeshMapsC1Ev, __ZN11OsdMeshMapsC2ERKS_, 
                       __ZN11OsdMeshMapsC2Ev, __ZN11ParserEntry10add_doubleERKd, 
                       __ZN11ParserEntry10add_stringERK10CoreString, __ZN11ParserEntry10move_valueERKjS1_, 
                       __ZN11ParserEntry10set_binaryERK10CoreVectorIcERy, __ZN11ParserEntry10set_doubleERKdRKj, 
                       __ZN11ParserEntry10set_stringERK10CoreStringRKj, __ZN11ParserEntry12remove_valueERK14CoreBasicArrayIjE, 
                       __ZN11ParserEntry12remove_valueERK8CoreListIjE, __ZN11ParserEntry12remove_valueERKj, 
                       __ZN11ParserEntry12set_templateERK10CoreString, __ZN11ParserEntry15add_binary_dataEPvRKj, 
                       __ZN11ParserEntry15set_binary_dataEPvRKjS2_, __ZN11ParserEntry5resetEv, 
                       __ZN11ParserEntry6renameERK10CoreString, __ZN11ParserEntry7add_intERKi, 
                       __ZN11ParserEntry7set_intERKiRKj, __ZN11ParserEntry8add_boolERKb, 
                       __ZN11ParserEntry8add_charERKc, __ZN11ParserEntry8add_wordERK10ParserWordRKN11ParserValue4TypeE, 
                       __ZN11ParserEntry8set_boolERKbRKj, __ZN11ParserEntry9add_groupEP11ParserGroup, 
                       __ZN11ParserEntry9add_vec2dERK9GMathVec2IdE, __ZN11ParserEntry9add_vec2iERK9GMathVec2IiE, 
                       __ZN11ParserEntry9add_vec3dERK9GMathVec3IdE, __ZN11ParserEntry9add_vec4dERK9GMathVec4IdE, 
                       __ZN11ParserEntry9copy_fromERKS_, __ZN11ParserEntry9set_arrayERKbRKj, 
                       __ZN11ParserEntryC1ERK15CoreBasicStringRKNS_4TypeERKmS7_, 
                       __ZN11ParserEntryC1ERKS_, __ZN11ParserEntryC2ERK15CoreBasicStringRKNS_4TypeERKmS7_, 
                       __ZN11ParserEntryC2ERKS_, __ZN11ParserEntryD0Ev, __ZN11ParserEntryD1Ev, 
                       __ZN11ParserEntryD2Ev, __ZN11ParserGroup10move_entryERKjRS_, 
                       __ZN11ParserGroup10move_entryERKjS1_, __ZN11ParserGroup10set_binaryERK10CoreVectorIcERy, 
                       __ZN11ParserGroup12detach_entryERKj, __ZN11ParserGroup12move_entriesERS_, 
                       __ZN11ParserGroup12move_entriesERS_j, __ZN11ParserGroup12remove_entryERK15CoreBasicString, 
                       __ZN11ParserGroup12remove_entryEj, __ZN11ParserGroup14remove_entriesE14CoreBasicArrayIjE, 
                       __ZN11ParserGroup18set_encrypted_textERK10CoreStringS2_, __ZN11ParserGroup18set_encrypted_textERK9CoreArrayIhERK10CoreString, 
                       __ZN11ParserGroup21get_first_entry_indexEN11ParserEntry4TypeE, 
                       __ZN11ParserGroup3setERKS_, __ZN11ParserGroup5clearEv, __ZN11ParserGroup8set_textER16ParserWordStreamP14AppProgressBar, 
                       __ZN11ParserGroup8set_textERK10CoreStringRK11CoreVersionP14AppProgressBar, 
                       __ZN11ParserGroup9add_entryERK11ParserEntry, __ZN11ParserGroup9add_entryERK15CoreBasicStringRKmS4_, 
                       __ZN11ParserGroup9add_groupEPS_, __ZN11ParserGroup9add_groupERK15CoreBasicString, 
                       __ZN11ParserGroupC1ERK15CoreBasicString, __ZN11ParserGroupC1ERKS_, 
                       __ZN11ParserGroupC2ERK15CoreBasicString, __ZN11ParserGroupC2ERKS_, 
                       __ZN11ParserGroupD0Ev, __ZN11ParserGroupD1Ev, __ZN11ParserGroupD2Ev, 
                       __ZN11ParserValue10bin_to_intERK10CoreVectorIcERy, __ZN11ParserValue10get_binaryER10CoreVectorIcERyRKb, 
                       __ZN11ParserValue10int_to_binER10CoreVectorIcERKi, __ZN11ParserValue10set_doubleERKd, 
                       __ZN11ParserValue10set_stringERK10CoreString, __ZN11ParserValue11bin_to_boolERK10CoreVectorIcERy, 
                       __ZN11ParserValue11bin_to_charERK10CoreVectorIcERy, __ZN11ParserValue11bin_to_sizeERK10CoreVectorIcERy, 
                       __ZN11ParserValue11bool_to_binER10CoreVectorIcERKb, __ZN11ParserValue11char_to_binER10CoreVectorIcERKc, 
                       __ZN11ParserValue11size_to_binER10CoreVectorIcERKy, __ZN11ParserValue12bin_to_valueERK10CoreVectorIcERy, 
                       __ZN11ParserValue12group_to_binER10CoreVectorIcERK11ParserGroup, 
                       __ZN11ParserValue13bin_to_doubleERK10CoreVectorIcERy, __ZN11ParserValue13bin_to_stringERK10CoreVectorIcERy, 
                       __ZN11ParserValue13double_to_binER10CoreVectorIcERKd, __ZN11ParserValue13get_type_nameERKNS_4TypeE, 
                       __ZN11ParserValue13string_to_binER10CoreVectorIcERK10CoreString, 
                       __ZN11ParserValue15set_binary_dataEPvRKj, __ZN11ParserValue18bin_to_binary_dataERK10CoreVectorIcERyRj, 
                       __ZN11ParserValue18binary_data_to_binER10CoreVectorIcEPvRKj, 
                       __ZN11ParserValue19word_to_binary_dataERPvRjRK10ParserWord, 
                       __ZN11ParserValue5clearEv, __ZN11ParserValue7set_intERKi, 
                       __ZN11ParserValue8set_boolERKb, __ZN11ParserValue8set_charERKc, 
                       __ZN11ParserValueC1EP11ParserGroup, __ZN11ParserValueC1EPvRKj, 
                       __ZN11ParserValueC1ERK10CoreString, __ZN11ParserValueC1ERKNS_4TypeERK10CoreString, 
                       __ZN11ParserValueC1ERKS_, __ZN11ParserValueC1ERKb, __ZN11ParserValueC1ERKc, 
                       __ZN11ParserValueC1ERKd, __ZN11ParserValueC1ERKi, __ZN11ParserValueC2EP11ParserGroup, 
                       __ZN11ParserValueC2EPvRKj, __ZN11ParserValueC2ERK10CoreString, 
                       __ZN11ParserValueC2ERKNS_4TypeERK10CoreString, __ZN11ParserValueC2ERKS_, 
                       __ZN11ParserValueC2ERKb, __ZN11ParserValueC2ERKc, __ZN11ParserValueC2ERKd, 
                       __ZN11ParserValueC2ERKi, __ZN11ParserValueD0Ev, __ZN11ParserValueD1Ev, 
                       __ZN11ParserValueD2Ev, __ZN11PbrHairData10set_valuesEff, __ZN11PbrHairData6sampleEff, 
                       __ZN11PbrHairData8evaluateERK9GMathVec3IdE, __ZN11PbrHairData9configureERK9GMathVec3IdES3_S3_, 
                       __ZN11PbrLasBasic10MotionDataC1ERKjPv, __ZN11PbrLasBasic10MotionDataC2ERKjPv, 
                       __ZN11PbrLasBasic10MotionDataD1Ev, __ZN11PbrLasBasic10MotionDataD2Ev, 
                       __ZN11PbrLasBasic17dirty_motion_blurEv, __ZN11PbrLasBasic31ray_hit_nearest_static_callbackEPK9GasObjectRK7CtxEvalR9CtxShaderR19GeometryRaytraceCtx, 
                       __ZN11PbrLasBasic36leaf_ray_hit_nearest_motion_callbackEPvRKjRK7CtxEvalR9CtxShaderR19GeometryRaytraceCtx, 
                       __ZN11PbrLasBasic36leaf_ray_hit_nearest_static_callbackEPvRKjRK7CtxEvalR9CtxShaderR19GeometryRaytraceCtx, 
                       __ZN11PbrLasBasic6createERK14CoreBasicArrayIP11ModuleLightEP14AppProgressBar, 
                       __ZN11PbrLasBasicC1Ev, __ZN11PbrLasBasicC2Ev, __ZN11PbrLasBasicD0Ev, 
                       __ZN11PbrLasBasicD1Ev, __ZN11PbrLasBasicD2Ev, __ZN11PbrMaterial8finalizeERK23CtxPbrSamplingConstantsRKbS4_PK12UniqueStringRK10CoreVectorIjERK9GMathVec3IdERKSC_IfE, 
                       __ZN11PbrSasLocal19clear_sas_resourcesERK13CoreClassInfo, 
                       __ZN11PbrSasLocal3setERK14CoreBasicArrayIP14SceneObjectSasERKS0_IjE, 
                       __ZN11PbrSasLocalD1Ev, __ZN11PbrSasLocalD2Ev, __ZN11PbrSasScene10class_infoEv, 
                       __ZN11PbrSasScene10clear_treeEv, __ZN11PbrSasScene13clear_objectsEv, 
                       __ZN11PbrSasScene3setERK14CoreBasicArrayIP14SceneObjectSasERKS0_IjE, 
                       __ZN11PbrSasScene6createEP14AppProgressBar, __ZN11PbrSasSceneD0Ev, 
                       __ZN11PbrSasSceneD1Ev, __ZN11PbrSasSceneD2Ev, __ZN11PolyHelpers18create_poly_sphereERKjS1_RK9GMathVec3IdE, 
                       __ZN11SasOverride13EventListener11connect_allEP13OfCommandData, 
                       __ZN11SasOverride13EventListener17delay_connect_allEP17ModuleSceneObjectRK9CoreArrayIP14ModuleMaterialERKS3_IP18ModuleDisplacementE, 
                       __ZN11SasOverride13EventListener18on_material_changeER8OfObjectRKN11EventObject9EventInfoEPv, 
                       __ZN11SasOverride13EventListener21on_geometry_dirtinessER8OfObjectRKN11EventObject9EventInfoEPv, 
                       __ZN11SasOverride13EventListener22on_displacement_changeER8OfObjectRKN11EventObject9EventInfoEPv, 
                       __ZN11SasOverride14connect_deleteEP13OfCommandData, __ZN11SasOverride16create_variationERK26GeometryAttributesOverrideP24GeometryResourceOverrideRK9CoreArrayIP18ModuleDisplacementE, 
                       __ZN11SasOverride16on_object_deleteER8OfObjectRKN11EventObject9EventInfoEPv, 
                       __ZN11SasOverride18on_resource_updateERK18ResourceConnectionP12ResourceData, 
                       __ZN11SasOverride29create_sas_geometry_variationERK26GeometryAttributesOverrideP24GeometryResourceOverrideRK9CoreArrayIP18ModuleDisplacementE, 
                       __ZN11SasOverride38create_sas_scene_object_tree_variationERK26GeometryAttributesOverrideRK9CoreArrayIP18ModuleDisplacementE, 
                       __ZN11SasOverrideC1EP17ModuleSceneObjectP16GeometryOverrideRK14CoreBasicArrayIP14ModuleMaterialEbb, 
                       __ZN11SasOverrideC2EP17ModuleSceneObjectP16GeometryOverrideRK14CoreBasicArrayIP14ModuleMaterialEbb, 
                       __ZN11SasOverrideD0Ev, __ZN11SasOverrideD1Ev, __ZN11SasOverrideD2Ev, 
                       __ZN11SdsMeshBase10class_infoEv, __ZN11SdsMeshBase12import_quadsERK14CoreBasicArrayIjES3_S3_RKjR9CoreArrayIjERS6_INS_10VertexInfoEERNS_13EdgesTopologyEP14AppProgressBar, 
                       __ZN11SdsMeshBase21compute_bezier_cornerERKNS_15TopologyContextERKjPK9GMathVec3IfERS6_, 
                       __ZN11SdsMeshBase21compute_tangent_infosERKjPKNS_19VertexLocalTopologyEPNS_16PatchTangentInfoERKbP14AppProgressBar, 
                       __ZN11SdsMeshBase22compute_bezier_cornersERKNS_15TopologyContextERK14CoreBasicArrayI9GMathVec3IfEEPS5_P14AppProgressBar, 
                       __ZN11SdsMeshBase23compute_bezier_tangentsERK13SdsBezierMeshRKNS_13EdgesTopologyERK14CoreBasicArrayINS_16PatchTangentInfoEERKS6_INS_19VertexLocalTopologyEEP9GMathVec3IfEP14AppProgressBar, 
                       __ZN11SdsMeshBase23compute_bezier_tangentsERK13SdsBezierMeshRKNS_13EdgesTopologyERK14CoreBasicArrayINS_16PatchTangentInfoEERKS6_INS_19VertexLocalTopologyEEP9GMathVec3IfER20SysThreadTaskManagerP14AppProgressBar, 
                       __ZN11SdsMeshBase23compute_bezier_tangentsERK13SdsBezierMeshRKNS_13EdgesTopologyERKjRKNS_16PatchTangentInfoEPKNS_19VertexLocalTopologyEP9GMathVec3IfE, 
                       __ZN11SdsMeshBase23compute_bezier_topologyERKNS_15TopologyContextER9CoreArrayINS_11BezierPatchEEP14AppProgressBar, 
                       __ZN11SdsMeshBase23compute_bezier_topologyERKNS_15TopologyContextERKjRNS_11BezierPatchE, 
                       __ZN11SdsMeshBase25set_all_vertices_as_fixedERK14CoreBasicArrayIjERKNS_13EdgesTopologyER9CoreArrayINS_10VertexInfoEE, 
                       __ZN11SdsMeshBase28set_all_vertices_as_smoothedERK14CoreBasicArrayIjERKNS_13EdgesTopologyER9CoreArrayINS_10VertexInfoEE, 
                       __ZN11SdsMeshBase28set_border_vertices_as_fixedERK14CoreBasicArrayIjERKNS_13EdgesTopologyER9CoreArrayINS_10VertexInfoEE, 
                       __ZN11SdsMeshBase28set_corner_vertices_as_fixedERK14CoreBasicArrayIjERKNS_13EdgesTopologyER9CoreArrayINS_10VertexInfoEE, 
                       __ZN11SdsMeshBase29compute_subdivision_positionsERK14CoreBasicArrayI9GMathVec3IfEERKNS_15TopologyContextEPS2_RKbP14AppProgressBar, 
                       __ZN11SdsMeshBase29compute_subdivision_positionsERK14CoreBasicArrayI9GMathVec3IfEES5_RKNS_15TopologyContextEPS2_S9_RKbP14AppProgressBar, 
                       __ZN11SdsMeshBase31analyse_vertices_local_topologyERKNS_13EdgesTopologyER9CoreArrayINS_19VertexLocalTopologyEERKbP14AppProgressBar, 
                       __ZN11SdsMeshBase31analyse_vertices_local_topologyERKNS_13EdgesTopologyER9CoreArrayINS_19VertexLocalTopologyEERKbR20SysThreadTaskManagerP14AppProgressBar, 
                       __ZN11SdsMeshBase3setERKjRK14CoreBasicArrayIjES5_S5_RKS2_I10CoreStringEP14AppProgressBar, 
                       __ZN11SdsMeshBase9subdivideERK14CoreBasicArrayIjES3_S3_RKjR9CoreArrayIjERS6_INS_10VertexInfoEERNS_13EdgesTopologyERNS_19SubdivisionTopologyEP14AppProgressBar, 
                       __ZN11SdsMeshBaseC1EPK8PolyMesh, __ZN11SdsMeshBaseC1ERKS_, 
                       __ZN11SdsMeshBaseC2EPK8PolyMesh, __ZN11SdsMeshBaseC2ERKS_, 
                       __ZN11SdsMeshBaseD0Ev, __ZN11SdsMeshBaseD1Ev, __ZN11SdsMeshBaseD2Ev, 
                       __ZN11SdsMeshMaps10class_infoEv, __ZN11SdsMeshMaps23compute_uv_map_controlsERKN11SdsMeshBase15TopologyContextERNS_8SdsUvMapERKbP14AppProgressBar, 
                       __ZN11SdsMeshMaps26compute_subdivision_colorsERK14CoreBasicArrayI9GMathVec4IhEERKN11SdsMeshBase15TopologyContextER9CoreArrayIS2_EP14AppProgressBar, 
                       __ZN11SdsMeshMaps3setERK11SdsMeshBaseRK9CoreArrayIjERKS3_I13GeometryUvMapERKS3_I16GeometryColorMapERKNS_17InterpolationModeEP14AppProgressBar, 
                       __ZN11SdsMeshMaps44set_discontinuities_border_vertices_as_fixedERK9CoreArrayIjERKN11SdsMeshBase13EdgesTopologyES7_RS0_INS4_10VertexInfoEE, 
                       __ZN11SdsMeshMaps44set_discontinuities_corner_vertices_as_fixedERK9CoreArrayIjERKN11SdsMeshBase13EdgesTopologyES7_RS0_INS4_10VertexInfoEE, 
                       __ZN11SdsMeshMapsC1ERKS_, __ZN11SdsMeshMapsC1Ev, __ZN11SdsMeshMapsC2ERKS_, 
                       __ZN11SdsMeshMapsC2Ev, __ZN11SdsMeshMapsD0Ev, __ZN11SdsMeshMapsD1Ev, 
                       __ZN11SdsMeshMapsD2Ev, __ZN11UxdProperty10resetValueEv, __ZN11UxdProperty11getTypeNameERKN32pxrInternal__aapl__pxrReserved__11UsdPropertyE, 
                       __ZN11UxdProperty11getTypeNameERKN32pxrInternal__aapl__pxrReserved__7VtValueE, 
                       __ZN11UxdProperty11updateStateERKN32pxrInternal__aapl__pxrReserved__11UsdTimeCodeEb, 
                       __ZN11UxdProperty13setColorSpaceERKN32pxrInternal__aapl__pxrReserved__7TfTokenE, 
                       __ZN11UxdProperty14deleteOverrideEv, __ZN11UxdProperty15defaultExpandedERKNSt3__112basic_stringIcNS0_11char_traitsIcEENS0_9allocatorIcEEEE, 
                       __ZN11UxdProperty15deleteAnimationEv, __ZN11UxdProperty15getPrimTypeNameERKN32pxrInternal__aapl__pxrReserved__7UsdPrimE, 
                       __ZN11UxdProperty15updateAnimationERKN32pxrInternal__aapl__pxrReserved__7UsdPrimERKNS0_7TfTokenE, 
                       __ZN11UxdProperty18initToDefaultValueEv, __ZN11UxdProperty19forceToDefaultValueEv, 
                       __ZN11UxdProperty20getPrimDocumentationERKN32pxrInternal__aapl__pxrReserved__7UsdPrimE, 
                       __ZN11UxdProperty6addKeyEv, __ZN11UxdProperty8setIndexEid, 
                       __ZN11UxdProperty9removeKeyEv, __ZN11UxdProperty9setValuesERKN32pxrInternal__aapl__pxrReserved__7VtValueE, 
                       __ZN11UxdXformAPI14_IsTypedSchemaEv, __ZN11UxdXformAPI16_GetStaticTfTypeEv, 
                       __ZN11UxdXformAPI16getPropertyOrderERNSt3__16vectorIN32pxrInternal__aapl__pxrReserved__7TfTokenENS0_9allocatorIS3_EEEE, 
                       __ZN11UxdXformAPI17makeTransformableEN32pxrInternal__aapl__pxrReserved__7UsdPrimE, 
                       __ZN11UxdXformAPI23GetSchemaAttributeNamesEb, __ZN11UxdXformAPI3GetERKN32pxrInternal__aapl__pxrReserved__9TfWeakPtrINS0_8UsdStageEEERKNS0_7SdfPathE, 
                       __ZN12AppEvaluator10class_infoEv, __ZN12AppEvaluatorC2ERK7AppBase, 
                       __ZN12AppEvaluatorD0Ev, __ZN12AppEvaluatorD1Ev, __ZN12AppEvaluatorD2Ev, 
                       __ZN12AppSelection10class_infoEv, __ZN12AppSelection10remove_allERK10CoreStringS2_, 
                       __ZN12AppSelection10remove_allEv, __ZN12AppSelection10select_allERK10CoreStringS2_, 
                       __ZN12AppSelection11remove_itemE16OfBaseItemHandleILb0EE, 
                       __ZN12AppSelection11remove_itemERK10CoreStringS2_16OfBaseItemHandleILb0EE, 
                       __ZN12AppSelection11remove_itemERK10CoreStringS2_RKj, __ZN12AppSelection12deselect_allERK10CoreStringS2_, 
                       __ZN12AppSelection12remove_itemsERK10CoreVectorI16OfBaseItemHandleILb0EEE, 
                       __ZN12AppSelection12remove_itemsERK14CoreBasicArrayIP9OfContextERKS0_I18OfBaseObjectHandleILb0EEE, 
                       __ZN12AppSelection13load_settingsERK11ParserGroup, __ZN12AppSelection13set_selectionERK10CoreStringS2_16OfBaseItemHandleILb0EE, 
                       __ZN12AppSelection13set_selectionERK10CoreStringS2_RK10CoreVectorI16OfBaseItemHandleILb0EEE, 
                       __ZN12AppSelection13set_selectionERK10CoreStringS2_RK10CoreVectorI8OfHandleE, 
                       __ZN12AppSelection13set_selectionERK10CoreStringS2_RK8OfHandle, 
                       __ZN12AppSelection13set_selectionERK10CoreStringS2_RK9CoreArrayI16OfBaseItemHandleILb0EEE, 
                       __ZN12AppSelection13set_selectionERK10CoreStringS2_RK9CoreArrayI8OfHandleE, 
                       __ZN12AppSelection15get_slot_existsERK10CoreString, __ZN12AppSelection20clear_slot_selectionERK10CoreString, 
                       __ZN12AppSelection20get_local_slot_labelEv, __ZN12AppSelection20is_selection_changedERK14CoreBasicArrayI8OfHandleERK10CoreVectorIS1_E, 
                       __ZN12AppSelection20propagate_selectionsEv, __ZN12AppSelection21get_global_slot_labelEv, 
                       __ZN12AppSelection21set_selection_stealthERK10CoreStringS2_RK10CoreVectorI8OfHandleE, 
                       __ZN12AppSelection22emit_selection_changedERK10CoreStringS2_, 
                       __ZN12AppSelection22get_global_group_labelEv, __ZN12AppSelection23set_all_slots_selectionERK10CoreString16OfBaseItemHandleILb0EE, 
                       __ZN12AppSelection23set_all_slots_selectionERK10CoreStringRK10CoreVectorI16OfBaseItemHandleILb0EEE, 
                       __ZN12AppSelection23set_all_slots_selectionERK10CoreStringRK10CoreVectorI8OfHandleE, 
                       __ZN12AppSelection23set_all_slots_selectionERK10CoreStringRK8OfHandle, 
                       __ZN12AppSelection24set_slot_working_contextERK10CoreStringPK9OfContext, 
                       __ZN12AppSelection27get_is_slot_selection_emptyERK10CoreString, 
                       __ZN12AppSelection5resetEv, __ZN12AppSelection8add_itemERK10CoreString16OfBaseItemHandleILb0EES2_, 
                       __ZN12AppSelection8add_slotERK10CoreString, __ZN12AppSelectionC1ER9AppObject, 
                       __ZN12AppSelectionC2ER9AppObject, __ZN12AppSelectionD0Ev, 
                       __ZN12AppSelectionD1Ev, __ZN12AppSelectionD2Ev, __ZN12AppShelfItem10load_entryEP11ParserEntryN8AppShelf8ItemTypeEP9AppObject, 
                       __ZN12AppShelfItem10save_entryEP11ParserGroup, __ZN12AppShelfItem16is_relative_pathERK10CoreString, 
                       __ZN12AppShelfItemC1ERKS_, __ZN12AppShelfItemC2ERKS_, __ZN12AppShelfItemaSERKS_, 
                       __ZN12ColorIOMetal14create_samplerEPU19objcproto9MTLDevice11objc_objectRKN17ColorIOShaderData7TextureE, 
                       __ZN12ColorIOMetal14create_textureEPU19objcproto9MTLDevice11objc_objectRKN17ColorIOShaderData7TextureE14MTLStorageMode, 
                       __ZN12CoreBaseType10class_infoEv, __ZN12GasSceneTree10MotionDataC1ERKjPv, 
                       __ZN12GasSceneTree10MotionDataC2ERKjPv, __ZN12GasSceneTree10MotionDataD1Ev, 
                       __ZN12GasSceneTree10MotionDataD2Ev, __ZN12GasSceneTree17dirty_motion_blurEv, 
                       __ZN12GasSceneTree20frustum_hit_callbackEPK9GasObjectRK7CtxEvalR9CtxShaderR18GeometryFrustumCtx, 
                       __ZN12GasSceneTree23ray_hit_motion_callbackEPK9GasObjectRK7CtxEvalR9CtxShaderR19GeometryRaytraceCtx, 
                       __ZN12GasSceneTree23ray_hit_static_callbackEPK9GasObjectRK7CtxEvalR9CtxShaderR19GeometryRaytraceCtx, 
                       __ZN12GasSceneTree25leaf_frustum_hit_callbackERK7CtxEvalR9CtxShaderR18GeometryFrustumCtxRK14CoreBasicArrayIjEPv, 
                       __ZN12GasSceneTree28leaf_ray_hit_motion_callbackERK7CtxEvalR9CtxShaderR19GeometryRaytraceCtxRK14CoreBasicArrayIjEPv, 
                       __ZN12GasSceneTree28leaf_ray_hit_static_callbackERK7CtxEvalR9CtxShaderR19GeometryRaytraceCtxRK14CoreBasicArrayIjEPv, 
                       __ZN12GasSceneTree31ray_hit_nearest_motion_callbackEPK9GasObjectRK7CtxEvalR9CtxShaderR19GeometryRaytraceCtx, 
                       __ZN12GasSceneTree31ray_hit_nearest_static_callbackEPK9GasObjectRK7CtxEvalR9CtxShaderR19GeometryRaytraceCtx, 
                       __ZN12GasSceneTree36leaf_ray_hit_nearest_motion_callbackERK7CtxEvalR9CtxShaderR19GeometryRaytraceCtxRK14CoreBasicArrayIjEPv, 
                       __ZN12GasSceneTree36leaf_ray_hit_nearest_static_callbackERK7CtxEvalR9CtxShaderR19GeometryRaytraceCtxRK14CoreBasicArrayIjEPv, 
                       __ZN12GasSceneTree44leaf_ray_hit_nearest_motion_vectors_callbackERK7CtxEvalR9CtxShaderR19GeometryRaytraceCtxRK14CoreBasicArrayIjEPv, 
                       __ZN12GasSceneTree6createERK7AppBaseP14AppProgressBar, __ZN12GasSceneTree6createERK7AppBaseRK14CoreBasicArrayIP17ModuleSceneObjectEP14AppProgressBar, 
                       __ZN12GasSceneTree6createERK7AppBaseRK14CoreBasicArrayIP17ModuleSceneObjectERKS3_IP16GeometryOverrideEP14AppProgressBar, 
                       __ZN12GasSceneTreeC1Ev, __ZN12GasSceneTreeC2Ev, __ZN12GasSceneTreeD0Ev, 
                       __ZN12GasSceneTreeD1Ev, __ZN12GasSceneTreeD2Ev, __ZN12GeometryCone10class_infoEv, 
                       __ZN12GeometryConeC1ERKfRKjS1_, __ZN12GeometryConeC2ERKfRKjS1_, 
                       __ZN12GeometryDisk10class_infoEv, __ZN12GeometryDisk10set_radiusERKf, 
                       __ZN12GeometryDiskC1ERKfRKN17GeometryPrimitive9SideFlagsERKN19GeometryDiskSamplerIdE6UvModeE, 
                       __ZN12GeometryDiskC2ERKfRKN17GeometryPrimitive9SideFlagsERKN19GeometryDiskSamplerIdE6UvModeE, 
                       __ZN12GlUtilsGlCtx12delete_listsERKjS1_, __ZN12GlUtilsGlCtx17flush_gl_commandsEv, 
                       __ZN12GlUtilsGlCtx22clear_pending_commandsEv, __ZN12GlUtilsGlCtxC1ERKS_, 
                       __ZN12GlUtilsGlCtxC1Ev, __ZN12GlUtilsGlCtxC2ERKS_, __ZN12GlUtilsGlCtxC2Ev, 
                       __ZN12GlUtilsGlCtxD0Ev, __ZN12GlUtilsGlCtxD1Ev, __ZN12GlUtilsGlCtxD2Ev, 
                       __ZN12GroupManager10class_infoEv, __ZN12GroupManager12check_updateER15OfObjectFactory, 
                       __ZN12GroupManager12remove_groupEP11ModuleGroup, __ZN12GroupManager12set_is_dirtyERKb, 
                       __ZN12GroupManager16on_factory_eventER15OfObjectFactoryRKN11EventObject9EventInfoEPv, 
                       __ZN12GroupManager19on_project_load_endER5OfAppRKN11EventObject9EventInfoEPv, 
                       __ZN12GroupManager20on_group_attr_changeER8OfObjectRKN11EventObject9EventInfoEPv, 
                       __ZN12GroupManager21on_group_state_changeER8OfObjectRKN11EventObject9EventInfoEPv, 
                       __ZN12GroupManager22connect_factory_eventsER15OfObjectFactory, 
                       __ZN12GroupManager26build_dynamic_objects_clbkEPv, __ZN12GroupManager9add_groupEP11ModuleGroup, 
                       __ZN12GroupManager9singletonEv, __ZN12GroupManagerC1Ev, __ZN12GroupManagerC2Ev, 
                       __ZN12HdAppleRTApp10class_infoEv, __ZN12HdAppleRTApp10initializeEv, 
                       __ZN12HdAppleRTApp14pre_initializeEv, __ZN12HdAppleRTApp15flush_main_loopEv, 
                       __ZN12HdAppleRTApp15set_preferencesEv, __ZN12HdAppleRTApp7startupERKb, 
                       __ZN12HdAppleRTApp8instanceEv, __ZN12HdAppleRTAppC1EiPPc, 
                       __ZN12HdAppleRTAppC1Ev, __ZN12HdAppleRTAppC2EiPPc, __ZN12HdAppleRTAppC2Ev, 
                       __ZN12HdAppleRTAppD0Ev, __ZN12HdAppleRTAppD1Ev, __ZN12HdAppleRTAppD2Ev, 
                       __ZN12HdAppleRTVDB13create_objectERN32pxrInternal__aapl__pxrReserved__13HdRenderIndexE, 
                       __ZN12HdAppleRTVDB15UpdateRenderTagEPN32pxrInternal__aapl__pxrReserved__15HdSceneDelegateEPNS0_13HdRenderParamE, 
                       __ZN12HdAppleRTVDB4SyncEPN32pxrInternal__aapl__pxrReserved__15HdSceneDelegateEPNS0_13HdRenderParamEPjRKNS0_7TfTokenE, 
                       __ZN12HdAppleRTVDB8FinalizeEPN32pxrInternal__aapl__pxrReserved__13HdRenderParamE, 
                       __ZN12HdAppleRTVDB9sync_mainERN32pxrInternal__aapl__pxrReserved__13HdRenderIndexERKj, 
                       __ZN12HdAppleRTVDBC1EOS_RKN32pxrInternal__aapl__pxrReserved__7SdfPathE, 
                       __ZN12HdAppleRTVDBC1ERKN32pxrInternal__aapl__pxrReserved__7SdfPathE, 
                       __ZN12HdAppleRTVDBC2EOS_RKN32pxrInternal__aapl__pxrReserved__7SdfPathE, 
                       __ZN12HdAppleRTVDBC2ERKN32pxrInternal__aapl__pxrReserved__7SdfPathE, 
                       __ZN12HdAppleRTVDBD0Ev, __ZN12HdAppleRTVDBD1Ev, __ZN12HdAppleRTVDBD2Ev, 
                       __ZN12HrpIblHandle4initEP11objc_objectPK5OfAppRK15CoreBasicStringRK14GMathMatrix3x3IfLb1EESB_S7_S7_, 
                       __ZN12HrpIblHandle4initEP11objc_objectPK5OfAppjRK15CoreBasicStringS7_S7_, 
                       __ZN12HrpIesHandle4initEP11objc_objectPK5OfAppRK10CoreStringN7IESData17InterpolationTypeEf, 
                       __ZN12HrpVDBHandle5buildEPK8OfObjectP11objc_object, __ZN12ImageIOUtils29getDeviceMaxMetalTextureWidthEv, 
                       __ZN12ImageIOUtils30getDeviceMaxMetalTextureHeightEv, __ZN12ImageMapTile10write_dataEPKfRK9GMathVec4IiEiibb, 
                       __ZN12ImageMapTile11copy_bufferE18ImageMapTileHandle, __ZN12ImageMapTile11free_bufferEv, 
                       __ZN12ImageMapTile11update_dataER11ImageMapCtx, __ZN12ImageMapTile11update_dataER11ImageMapCtxRKiS3_S3_S3_, 
                       __ZN12ImageMapTile12clamp_valuesERKfS1_RK9GMathVec4IiE, __ZN12ImageMapTile13clear_outsideEbPK9GMathVec4IiE, 
                       __ZN12ImageMapTile13convert_colorEPhRKfRKN10ImagePixel8BitDepthERKNS3_7BitTypeE, 
                       __ZN12ImageMapTile14get_color_funcE, __ZN12ImageMapTile14init_callbacksEv, 
                       __ZN12ImageMapTile15allocate_bufferEb, __ZN12ImageMapTile16check_uniformityEv, 
                       __ZN12ImageMapTile17fill_region_colorERK9GMathVec4IiERKf, 
                       __ZN12ImageMapTile18convert_color_funcE, __ZN12ImageMapTile21reset_dirtiness_countERK9GMathVec4IiE, 
                       __ZN12ImageMapTile22get_bicubic_color_funcE, __ZN12ImageMapTile23get_bilinear_color_funcE, 
                       __ZN12ImageMapTile24init_buffer_from_m_valueEv, __ZN12ImageMapTile25check_uniformity_interiorEv, 
                       __ZN12ImageMapTile4blitER11ImageMapCtx18ImageMapTileHandleS1_RKN10ImagePixel8BlitModeE, 
                       __ZN12ImageMapTile4blitER11ImageMapCtxPhRK9GMathVec4IiERKN10ImagePixel8BlitModeE, 
                       __ZN12ImageMapTile4fillERKfPK9GMathVec4IiE, __ZN12ImageMapTile4initERK15ImageMapChannel18ImageMapTileHandlePK9GMathVec4IiE, 
                       __ZN12ImageMapTile4initERK15ImageMapChannelRKiS4_RKjb, __ZN12ImageMapTile5clearEbPK9GMathVec4IiE, 
                       __ZN12ImageMapTile7processER11ImageMapCtxPFvPfRKjPvES5_, __ZN12ImageMapTile8set_dataER11ImageMapCtxRKiS3_RKfb, 
                       __ZN12ImageMapTile9blit_funcE, __ZN12ImageMapTile9copy_dataE18ImageMapTileHandlePK9GMathVec4IiE, 
                       __ZN12ImageMapTile9copy_fromE18ImageMapTileHandlePK9GMathVec4IiE, 
                       __ZN12ImageMapTileC1Ev, __ZN12ImageMapTileC2Ev, __ZN12ImageMapTileD1Ev, 
                       __ZN12ImageMapTileD2Ev, __ZN12ImageProcess12apply_canvasER8ImageMapRK11ImageCanvasRNS_17ProcessParametersEbP7AppBaseP14AppProgressBar, 
                       __ZN12ImageProcess5applyER8ImageMapNS_24InPlaceProcessParametersEbP7AppBase, 
                       __ZN12ImageSampler16sample_time_zeroERKS_RKNS_9SampleCtxE, 
                       __ZN12ImageSampler17set_time_samplingERKNS_12TimeSamplingEPK9GMathLut1IdE, 
                       __ZN12ImageSampler18set_pixel_samplingERKNS_13PixelSamplingEPK16SamplingKernel2d, 
                       __ZN12ImageSampler20s_sampling_dimensionE, __ZN12ImageSampler4initERKjS1_S1_S1_S1_S1_S1_S1_RKNS_13PixelSamplingEPK16SamplingKernel2dRKNS_12TimeSamplingEPK9GMathLut1IdE, 
                       __ZN12ImageSamplerC1Ev, __ZN12ImageSamplerC2Ev, __ZN12LicenseTools10NodeLocked15request_licenseEPKcS2_RKfRKjS6_R11LicenseInfo, 
                       __ZN12LicenseTools10NodeLocked16generate_licenseEPcPKcS3_S3_RKfS3_iiijj, 
                       __ZN12LicenseTools10NodeLocked16is_valid_licenseEPKc, __ZN12LicenseTools10NodeLocked20display_license_infoEPKcS2_RKb, 
                       __ZN12LicenseTools11request_keyEPcPKcRKj, __ZN12LicenseTools11request_keyEPcRKj, 
                       __ZN12LicenseTools13license_seedsEv, __ZN12LicenseTools15get_license_ptrEPKcRKj, 
                       __ZN12LicenseTools15get_status_descENS_6StatusE, __ZN12LicenseTools17get_status_stringERKNS_6StatusE, 
                       __ZN12LicenseTools18get_application_idEPcRKj, __ZN12LicenseTools18license_seed_countEv, 
                       __ZN12LicenseTools20get_request_key_infoEPKcPtRtS3_, __ZN12LicenseTools20is_request_key_validEPKc, 
                       __ZN12LicenseTools21create_license_bufferERKjRPc, __ZN12LicenseTools21list_application_keysEv, 
                       __ZN12LicenseTools22get_current_process_idEv, __ZN12LicenseTools23get_application_versionEv, 
                       __ZN12LicenseTools23get_license_buffer_sizeERKj, __ZN12LicenseTools24generate_application_keyEPc, 
                       __ZN12LicenseTools24get_original_request_keyEPKcPc, __ZN12LicenseTools28get_application_release_dateEv, 
                       __ZN12LicenseTools31get_registered_application_nameEPKc, __ZN12LicenseTools38get_registered_application_descriptionEPKc, 
                       __ZN12LicenseTools7IxForce12read_licenseERKNSt3__16vectorIhNS1_9allocatorIhEEEERNS0_7LicenseE, 
                       __ZN12LicenseTools7IxForce16generate_licenseERKNS0_7LicenseERNSt3__16vectorIhNS4_9allocatorIhEEEE, 
                       __ZN12LicenseTools7IxForce16is_valid_licenseERKNS0_7LicenseE, 
                       __ZN12LicenseTools7IxForce4Data4initERKNS0_7LicenseE, __ZN12LicenseTools8Floating11has_expiredEPKcS2_, 
                       __ZN12LicenseTools8Floating11log_licenseEPKcRKj, __ZN12LicenseTools8Floating16extract_licensesEPKcRKjRPcS6_RjS7_, 
                       __ZN12LicenseTools8Floating16generate_licenseEP11LicenseDescRKjRPc, 
                       __ZN12LicenseTools8Floating16get_license_descEPKcS2_R11LicenseDesc, 
                       __ZN12LicenseTools8Floating16get_license_infoEPKcS2_Pc, __ZN12LicenseTools8Floating16get_license_infoEPKcS2_R17LicenseServerInfo, 
                       __ZN12LicenseTools8Floating16is_valid_licenseEPKcS2_, __ZN12LicenseTools8Floating17get_licenses_infoEPKcRKjRPPcRj, 
                       __ZN12LicenseTools8Floating18get_application_idERK17LicenseServerInfoPc, 
                       __ZN12LicenseTools8Floating20display_license_infoEPKcRKjRKb, 
                       __ZN12LicenseTools8Floating23check_license_integrityEPKcRKj, 
                       __ZN12LicenseTools8Floating23display_license_contentEPKcRKj, 
                       __ZN12LicenseTools8Floating23get_license_descriptionEPKcS2_Pc, 
                       __ZN12LicenseTools8Floating24convert_license_to_bytesEPKcRKjPc, 
                       __ZN12LicenseTools8Floating25get_binary_license_lengthEv, 
                       __ZN12MetalContext7currentE, __ZN12ModuleAovSet10class_infoEv, 
                       __ZN12ModuleAovSet18module_constructorER8OfObject, __ZN12ModuleAovSet19on_attribute_changeERK6OfAttrRiRKi, 
                       __ZN12ModuleAovSetC1Ev, __ZN12ModuleAovSetC2Ev, __ZN12ModuleAovSetD0Ev, 
                       __ZN12ModuleAovSetD1Ev, __ZN12ModuleAovSetD2Ev, __ZN12ModuleCamera10class_infoEv, 
                       __ZN12ModuleCamera15get_all_camerasER10CoreVectorIPS_E, __ZN12ModuleCamera15get_proj_matrixEfR14GMathMatrix4x4IdLb1EE, 
                       __ZN12ModuleCamera18module_constructorER8OfObject, __ZN12ModuleCameraC1Ev, 
                       __ZN12ModuleCameraC2Ev, __ZN12ModuleCameraD0Ev, __ZN12ModuleCameraD1Ev, 
                       __ZN12ModuleCameraD2Ev, __ZN12ModuleObject10class_infoEv, 
                       __ZN12ModuleObject11on_new_timeERKd, __ZN12ModuleObject12add_resourceERKiRK14CoreBasicArrayI15OfAttrDirtinessEP16OfResourceCustom, 
                       __ZN12ModuleObject13add_variationEjP12ResourceUser, __ZN12ModuleObject13get_variationEj, 
                       __ZN12ModuleObject13on_send_eventEj, __ZN12ModuleObject14clear_resourceERKi, 
                       __ZN12ModuleObject14clear_resourceEjs, __ZN12ModuleObject14share_resourceERKiS1_, 
                       __ZN12ModuleObject15ResourceHandler12AttrKeyTable9dirty_allEv, 
                       __ZN12ModuleObject15ResourceHandler12AttrKeyTableC1Ev, __ZN12ModuleObject15ResourceHandler12AttrKeyTableC2Ev, 
                       __ZN12ModuleObject15ResourceHandler12AttrKeyTableD1Ev, __ZN12ModuleObject15ResourceHandler12AttrKeyTableD2Ev, 
                       __ZN12ModuleObject15ResourceHandler13make_attr_keyER10CoreStringRK6OfAttrRNS0_12AttrKeyTableE, 
                       __ZN12ModuleObject15ResourceHandler14init_resourcesERKS_, 
                       __ZN12ModuleObject15ResourceHandler15make_string_keyER10CoreStringRK6OfAttrRK9CoreArrayI11CoreVariantE, 
                       __ZN12ModuleObject15ResourceHandler15make_unique_keyER10CoreStringPv, 
                       __ZN12ModuleObject15ResourceHandler17ResourceVariation14add_connectionERS_PNS0_12ResourceLinkERK26GeometryAttributesOverrideRK14CoreBasicArrayIjE, 
                       __ZN12ModuleObject15ResourceHandler17ResourceVariation18on_resource_updateERK18ResourceConnectionP12ResourceData, 
                       __ZN12ModuleObject15ResourceHandler17ResourceVariation7refreshEv, 
                       __ZN12ModuleObject15ResourceHandler17compute_attr_keysEPKNS0_12ResourceLinkERK26GeometryAttributesOverrideRNS0_12AttrKeyTableE, 
                       __ZN12ModuleObject15ResourceHandler18make_reference_keyER10CoreStringRK6OfAttrRK14CoreBasicArrayIP8OfObjectE, 
                       __ZN12ModuleObject15ResourceHandler19update_dependenciesEP15ResourceManagerRS_PNS0_12ResourceLinkE, 
                       __ZN12ModuleObject15ResourceHandler19update_resource_keyEP15ResourceManagerRS_PNS0_12ResourceLinkE, 
                       __ZN12ModuleObject15ResourceHandler19update_resource_keyERS_PNS0_12ResourceLinkE, 
                       __ZN12ModuleObject15ResourceHandler19update_resource_keyERS_RK6OfAttriRNS0_12ResourceLinkE, 
                       __ZN12ModuleObject15ResourceHandler30get_resources_requesters_countER13CoreHashTableI10CoreStringjE, 
                       __ZN12ModuleObject15ResourceHandlerC1Ev, __ZN12ModuleObject15ResourceHandlerC2Ev, 
                       __ZN12ModuleObject15ResourceHandlerD1Ev, __ZN12ModuleObject15ResourceHandlerD2Ev, 
                       __ZN12ModuleObject15get_resource_idEPKc, __ZN12ModuleObject15get_resource_idERK10CoreString, 
                       __ZN12ModuleObject15remove_resourceERKi, __ZN12ModuleObject15update_resourceERKi, 
                       __ZN12ModuleObject16declare_resourceEPKc, __ZN12ModuleObject16declare_resourceERK10CoreString, 
                       __ZN12ModuleObject16declare_resourceEsPKc, __ZN12ModuleObject16declare_resourceEsRK10CoreString, 
                       __ZN12ModuleObject16get_resource_keyEsP24GeometryResourceOverride, 
                       __ZN12ModuleObject16get_resource_tagEs, __ZN12ModuleObject16remove_variationEjP12ResourceUser, 
                       __ZN12ModuleObject17ResourceRegistrar12get_instanceEv, __ZN12ModuleObject17ResourceRegistrar15s_max_tag_countE, 
                       __ZN12ModuleObject17ResourceRegistrarC1Ev, __ZN12ModuleObject17ResourceRegistrarC2Ev, 
                       __ZN12ModuleObject17ResourceRegistrarD1Ev, __ZN12ModuleObject17ResourceRegistrarD2Ev, 
                       __ZN12ModuleObject17ResourceVariation14add_connectionEs14CoreBasicArrayIsES1_I18OfAttrPtrDirtinessERK26GeometryAttributesOverrideRKS1_IjE, 
                       __ZN12ModuleObject17ResourceVariation24add_resource_custom_dataEsP20OfResourceCustomData, 
                       __ZN12ModuleObject17ResourceVariation4lockEv, __ZN12ModuleObject17ResourceVariation6unlockEv, 
                       __ZN12ModuleObject17ResourceVariationC1EPS_Pv, __ZN12ModuleObject17ResourceVariationC2EPS_Pv, 
                       __ZN12ModuleObject17ResourceVariationD1Ev, __ZN12ModuleObject17ResourceVariationD2Ev, 
                       __ZN12ModuleObject17declare_custom_uiERK10CoreVectorI16OfBaseAttrHandleILb0EEER9GuiWidgetPv, 
                       __ZN12ModuleObject17module_destructorEv, __ZN12ModuleObject17register_variableER14CoreBasicArrayIP21OfObjectVariableValueER10CoreVectorIjE, 
                       __ZN12ModuleObject17set_resource_dataERKiP12ResourceDataRK10CoreString, 
                       __ZN12ModuleObject17set_resource_dataERKiPvRKmRK10CoreString, 
                       __ZN12ModuleObject17set_resource_depsERKiRK14CoreBasicArrayIsE, 
                       __ZN12ModuleObject18module_constructorER8OfObject, __ZN12ModuleObject18on_resource_updateERK18ResourceConnectionP12ResourceData, 
                       __ZN12ModuleObject18set_resource_attrsERKiRK14CoreBasicArrayI15OfAttrDirtinessE, 
                       __ZN12ModuleObject18set_resource_attrsERKiRK14CoreBasicArrayIP6OfAttrE, 
                       __ZN12ModuleObject19add_shared_resourceERKiS1_, __ZN12ModuleObject19on_attribute_changeERK6OfAttrRiRKi, 
                       __ZN12ModuleObject19unregister_variableER14CoreBasicArrayIP21OfObjectVariableValueE, 
                       __ZN12ModuleObject19update_resource_keyERKi, __ZN12ModuleObject20get_resource_handlerEv, 
                       __ZN12ModuleObject20update_resource_keysEv, __ZN12ModuleObject21get_attr_preset_hintsER9CoreArrayIbERK6OfAttr, 
                       __ZN12ModuleObject21set_resource_user_keyEsb, __ZN12ModuleObject22clear_unused_resourcesER16SysThreadManagerRK14CoreBasicArrayIP8OfObjectE, 
                       __ZN12ModuleObject23clear_unused_variationsER10CoreVectorIP20OfResourceCustomDataE, 
                       __ZN12ModuleObject23udpate_variables_statusER14CoreBasicArrayIjES2_, 
                       __ZN12ModuleObject24get_custom_table_cell_uiERK11OfAttrTableR17GuiSpreadsheetRowjjb, 
                       __ZN12ModuleObject25propagate_resource_updateERKiP12ResourceData, 
                       __ZN12ModuleObject7refreshEv, __ZN12ModuleObjectC1Ev, __ZN12ModuleObjectC2Ev, 
                       __ZN12ModuleObjectD0Ev, __ZN12ModuleObjectD1Ev, __ZN12ModuleObjectD2Ev, 
                       __ZN12ModuleUvBake10class_infoEv, __ZN12ModuleUvBake18module_constructorER8OfObject, 
                       __ZN12ModuleUvBake19on_attribute_changeERK6OfAttrRiRKi, __ZN12ModuleUvBakeC1Ev, 
                       __ZN12ModuleUvBakeC2Ev, __ZN12ModuleUvSlot10class_infoEv, 
                       __ZN12ModuleUvSlot19on_attribute_changeERK6OfAttrRiRKi, __ZN12ModuleUvSlotC1Ev, 
                       __ZN12ModuleUvSlotC2Ev, __ZN12ModuleUvSlotD0Ev, __ZN12ModuleUvSlotD1Ev, 
                       __ZN12ModuleUvSlotD2Ev, __ZN12ModuleVolume10class_infoEv, 
                       __ZN12ModuleVolume18set_density_cutoffERKd, __ZN12ModuleVolumeC1Ev, 
                       __ZN12ModuleVolumeC2Ev, __ZN12ModuleVolumeD0Ev, __ZN12ModuleVolumeD1Ev, 
                       __ZN12ModuleVolumeD2Ev, __ZN12ModuleWidget10class_infoEv, 
                       __ZN12ModuleWidget13create_widgetER9GuiWidget, __ZN12ModuleWidget13load_settingsERK11ParserGroup, 
                       __ZN12ModuleWidget15add_item_filterERK10CoreString, __ZN12ModuleWidget15set_item_filterERK10CoreString, 
                       __ZN12ModuleWidget15set_item_filterERK10CoreVectorI10CoreStringE, 
                       __ZN12ModuleWidget15set_item_filterERK8CoreListI10CoreStringE, 
                       __ZN12ModuleWidget15set_item_filterERK9CoreArrayI10CoreStringE, 
                       __ZN12ModuleWidget17clear_item_filterEv, __ZN12ModuleWidget17on_vizroot_changeEPK9OfContext, 
                       __ZN12ModuleWidget18module_constructorER8OfObject, __ZN12ModuleWidget19add_selection_groupERK10CoreString, 
                       __ZN12ModuleWidget19on_selection_changeERK10CoreStringRK21ModuleWidgetSelection, 
                       __ZN12ModuleWidget19on_widget_destroyedER11EventObjectRKNS0_9EventInfoEPv, 
                       __ZN12ModuleWidget19set_selection_groupERK10CoreString, __ZN12ModuleWidget19set_selection_groupERK10CoreVectorI10CoreStringE, 
                       __ZN12ModuleWidget19set_selection_groupERK8CoreListI10CoreStringE, 
                       __ZN12ModuleWidget19set_selection_groupERK9CoreArrayI10CoreStringE, 
                       __ZN12ModuleWidget21clear_selection_groupEv, __ZN12ModuleWidget29on_application_context_changeEP9OfContext, 
                       __ZN12ModuleWidgetC1Ev, __ZN12ModuleWidgetC2Ev, __ZN12ModuleWidgetD0Ev, 
                       __ZN12ModuleWidgetD1Ev, __ZN12ModuleWidgetD2Ev, __ZN12MxColorSpace11get_ui_nameENS_2IdE, 
                       __ZN12MxColorSpace17get_rendering_idsEv, __ZN12MxColorSpace6get_idENSt3__112basic_stringIcNS0_11char_traitsIcEENS0_9allocatorIcEEEENS_2IdE, 
                       __ZN12MxColorSpace8get_nameENS_2IdE, __ZN12NgAovManager14shadow_catcherEv, 
                       __ZN12NgAovManager19create_builtin_aovsER15OfObjectFactory, 
                       __ZN12NgAovManager21create_builtin_objectER15OfObjectFactoryRKN23R2cDefaultObjectManager17DefaultObjectDescE, 
                       __ZN12NgAovManager26create_shadow_catcher_aovsER15OfObjectFactory, 
                       __ZN12NgAovManager7add_aovER15OfObjectFactoryjRK10CoreStringS4_, 
                       __ZN12NgAovManager7builtinEv, __ZN12NgLpeManager15add_builtin_lpeER15OfObjectFactoryRK10CoreStringS4_S4_S4_, 
                       __ZN12NgLpeManager19create_builtin_lpesER15OfObjectFactory, 
                       __ZN12NgLpeManager21create_builtin_objectER15OfObjectFactoryRKN23R2cDefaultObjectManager17DefaultObjectDescE, 
                       __ZN12NgLpeManager3getEv, __ZN12NgOptixScene10add_lightsEPK16R2cSceneDelegateR7CtxEvalRK10CoreVectorIPvEb, 
                       __ZN12NgOptixScene11add_objectsEPK16R2cSceneDelegateR7CtxEvalR10CoreVectorIPvEb, 
                       __ZN12NgOptixScene11add_shadersEPK16R2cSceneDelegateR10CoreVectorIPvEbP14AppProgressBar, 
                       __ZN12NgOptixScene11dirty_lightEPK16R2cSceneDelegatePvj, __ZN12NgOptixScene11init_renderERKN15R2cRenderBuffer6RegionEjjjfffjjR8NgBufferIN11NgGlobalCtx6CameraEE, 
                       __ZN12NgOptixScene11synchronizeEPK16R2cSceneDelegateR7CtxEvalb, 
                       __ZN12NgOptixScene12dirty_objectEPK16R2cSceneDelegatePvj, 
                       __ZN12NgOptixScene12dirty_shaderEPK16R2cSceneDelegatePvj, 
                       __ZN12NgOptixScene13remove_lightsEPK16R2cSceneDelegateRK10CoreVectorIPvE, 
                       __ZN12NgOptixScene13resume_renderEjfRj, __ZN12NgOptixScene13update_lightsEPK16R2cSceneDelegateR7CtxEvalbRK14CoreBasicArrayIPvEP14AppProgressBar, 
                       __ZN12NgOptixScene14cpu_lpe_to_gpuEjPKfjjjj, __ZN12NgOptixScene14gpu_lpe_to_cpuEjPfjjjj, 
                       __ZN12NgOptixScene14remove_objectsEPK16R2cSceneDelegateRK10CoreVectorIPvE, 
                       __ZN12NgOptixScene14remove_shadersEPK16R2cSceneDelegateRK10CoreVectorIPvE, 
                       __ZN12NgOptixScene14update_shadersEPK16R2cSceneDelegatebRK14CoreBasicArrayIPvEP14AppProgressBar, 
                       __ZN12NgOptixScene16cpu_depth_to_gpuEPKfjjjj, __ZN12NgOptixScene16gpu_depth_to_cpuEPfjjjj, 
                       __ZN12NgOptixScene16sync_light_tableEPK16R2cSceneDelegateb, 
                       __ZN12NgOptixScene17cpu_albedo_to_gpuEPKfjjjj, __ZN12NgOptixScene17cpu_beauty_to_gpuEPKfjjjj, 
                       __ZN12NgOptixScene17find_dirty_pixelsEjf, __ZN12NgOptixScene17gpu_albedo_to_cpuEPfjjjj, 
                       __ZN12NgOptixScene17gpu_beauty_to_cpuEPfjjjj, __ZN12NgOptixScene18cpu_quality_to_gpuEPKfjjjj, 
                       __ZN12NgOptixScene18gpu_quality_to_cpuEPfjjjj, __ZN12NgOptixScene18sync_shading_tableEPK16R2cSceneDelegateb, 
                       __ZN12NgOptixScene18synchronize_lightsEPK16R2cSceneDelegateR7CtxEvalbRK14CoreBasicArrayIPvEP14AppProgressBar, 
                       __ZN12NgOptixScene19init_render_buffersERKN15R2cRenderBuffer6RegionEjj, 
                       __ZN12NgOptixScene19synchronize_objectsEPK16R2cSceneDelegateR7CtxEvalbRK14CoreBasicArrayIPvE, 
                       __ZN12NgOptixScene19synchronize_shadersEPK16R2cSceneDelegatebRK14CoreBasicArrayIPvEP14AppProgressBar, 
                       __ZN12NgOptixScene19update_dirty_lightsEPK16R2cSceneDelegateR7CtxEvalbP14AppProgressBar, 
                       __ZN12NgOptixScene20clear_render_buffersERKN15R2cRenderBuffer6RegionE, 
                       __ZN12NgOptixScene20update_dirty_shadersEPK16R2cSceneDelegatebP14AppProgressBar, 
                       __ZN12NgOptixScene22gpu_cryptomatte_to_cpuEPjS0_S0_Pfjjjj, 
                       __ZN12NgOptixScene23cpu_sample_count_to_gpuEPKfjjjj, __ZN12NgOptixScene23gpu_sample_count_to_cpuEPfjjjj, 
                       __ZN12NgOptixScene24cpu_camera_normal_to_gpuEPKfjjjj, __ZN12NgOptixScene24gpu_camera_normal_to_cpuEPfjjjj, 
                       __ZN12NgOptixScene25cpu_color_variance_to_gpuEPKfjjjj, __ZN12NgOptixScene25gpu_color_variance_to_cpuEPfjjjj, 
                       __ZN12NgOptixScene30cpu_shadow_catcher_diff_to_gpuEPKfjjjj, 
                       __ZN12NgOptixScene30cpu_shadow_catcher_mask_to_gpuEPKfjjjj, 
                       __ZN12NgOptixScene30gpu_shadow_catcher_diff_to_cpuEPfjjjj, 
                       __ZN12NgOptixScene30gpu_shadow_catcher_mask_to_cpuEPfjjjj, 
                       __ZN12NgOptixScene30update_max_sampling_multiplierEb, __ZN12NgOptixScene31cpu_camera_motion_vector_to_gpuEPKfjjjj, 
                       __ZN12NgOptixScene31cpu_texture_sample_count_to_gpuEPKfjjjj, 
                       __ZN12NgOptixScene31gpu_camera_motion_vector_to_cpuEPfjjjj, 
                       __ZN12NgOptixScene31gpu_texture_sample_count_to_cpuEPfjjjj, 
                       __ZN12NgOptixScene32cpu_shadow_catcher_direct_to_gpuEPKfjjjj, 
                       __ZN12NgOptixScene32gpu_shadow_catcher_direct_to_cpuEPfjjjj, 
                       __ZN12NgOptixScene35cpu_texture_cache_miss_count_to_gpuEPKfjjjj, 
                       __ZN12NgOptixScene35gpu_texture_cache_miss_count_to_cpuEPfjjjj, 
                       __ZN12NgOptixScene5clearEv, __ZN12NgOptixScene6renderERK14NgRenderBucketjf, 
                       __ZN12NgOptixScene6renderEjjj, __ZN12NgOptixScene8sync_gasEPK16R2cSceneDelegateb, 
                       __ZN12NgOptixSceneD1Ev, __ZN12NgOptixSceneD2Ev, __ZN12NgPathDepths4initERK19NgPathDepthSettings, 
                       __ZN12NgSasHelpers17get_object_bboxesER9CoreArrayI10CoreVectorIjEER10NgSasArrayIjES7_S7_, 
                       __ZN12NgSasHelpers19is_module_supportedEPK17ModuleSceneObject, 
                       __ZN12NgSasHelpers21is_scene_object_lightEPK17ModuleSceneObjectRK14CoreBasicArrayIP14ModuleMaterialERj, 
                       __ZN12NgSasHelpers29set_nodes_parent_bbox_indicesEPK11GasTreeDataRK14CoreBasicArrayIjER10NgSasArrayIjE, 
                       __ZN12OSLUtilities15info_group_nameEv, __ZN12OSLUtilities16error_group_nameEv, 
                       __ZN12OSLUtilities16input_group_nameEv, __ZN12OSLUtilities17output_group_nameEv, 
                       __ZN12OSLUtilities22osl_user_attrib_prefixEv, __ZN12OSLUtilities26osl_internal_attrib_prefixEv, 
                       __ZN12OfExpression10Expression11evaluate_atEb, __ZN12OfExpression10Expression14set_expressionERK10CoreString, 
                       __ZN12OfExpression10Expression15create_functionERK10CoreString, 
                       __ZN12OfExpression10Expression15create_variableERK10CoreString, 
                       __ZN12OfExpression10Expression18on_evaluate_stringEPKc, __ZN12OfExpression10Expression21on_evaluate_numericalEPKdi, 
                       __ZN12OfExpression10Expression8evaluateEb, __ZN12OfExpression10Expression8on_resetEb, 
                       __ZN12OfExpression10ExpressionC1EP6OfAttrjRK10CoreString, 
                       __ZN12OfExpression10ExpressionC1ERK10CoreStringP8OfObject, 
                       __ZN12OfExpression10ExpressionC2EP6OfAttrjRK10CoreString, 
                       __ZN12OfExpression10ExpressionC2ERK10CoreStringP8OfObject, 
                       __ZN12OfExpression10enable_logEb, __ZN12OfExpression11get_factoryEv, 
                       __ZN12OfExpression12GetVec3Value17register_functionEv, __ZN12OfExpression12GetVec3Value7prepareERK10CoreVectorI7OperandE, 
                       __ZN12OfExpression12GetVec3Value8evaluateER9Arguments, __ZN12OfExpression12GetVec3ValueC1EPNS_10ExpressionE, 
                       __ZN12OfExpression12GetVec3ValueC2EPNS_10ExpressionE, __ZN12OfExpression12TimeVariable11s_time_attrE, 
                       __ZN12OfExpression12TimeVariable4evalEPPKc, __ZN12OfExpression12TimeVariable4evalEPd, 
                       __ZN12OfExpression12TimeVariableC1ER6OfVars, __ZN12OfExpression12TimeVariableC2ER6OfVars, 
                       __ZN12OfExpression12compute_pathERK10CoreString, __ZN12OfExpression13FrameVariable10s_fps_attrE, 
                       __ZN12OfExpression13FrameVariable12s_frame_attrE, __ZN12OfExpression13FrameVariable4evalEPPKc, 
                       __ZN12OfExpression13FrameVariable4evalEPd, __ZN12OfExpression13FrameVariableC1ER6OfVars, 
                       __ZN12OfExpression13FrameVariableC2ER6OfVars, __ZN12OfExpression13escape_stringERK10CoreString, 
                       __ZN12OfExpression14GetDoubleValue17register_functionEv, __ZN12OfExpression14GetDoubleValue7prepareERK10CoreVectorI7OperandE, 
                       __ZN12OfExpression14GetDoubleValue8evaluateER9Arguments, __ZN12OfExpression14GetDoubleValueC1EPNS_10ExpressionE, 
                       __ZN12OfExpression14GetDoubleValueC2EPNS_10ExpressionE, __ZN12OfExpression14GetStringValue17register_functionEv, 
                       __ZN12OfExpression14GetStringValue7prepareERK10CoreVectorI7OperandE, 
                       __ZN12OfExpression14GetStringValue8evaluateER9Arguments, __ZN12OfExpression14GetStringValueC1EPNS_10ExpressionE, 
                       __ZN12OfExpression14GetStringValueC2EPNS_10ExpressionE, __ZN12OfExpression14GlobalVariable4evalEPPKc, 
                       __ZN12OfExpression14GlobalVariable4evalEPd, __ZN12OfExpression14GlobalVariable6updateEv, 
                       __ZN12OfExpression14GlobalVariableC1EP6OfVarsRK10CoreString, 
                       __ZN12OfExpression14GlobalVariableC2EP6OfVarsRK10CoreString, 
                       __ZN12OfExpression14StaticVariable4evalEPPKc, __ZN12OfExpression14StaticVariable4evalEPd, 
                       __ZN12OfExpression14StaticVariableC1ERK10CoreString, __ZN12OfExpression14StaticVariableC2ERK10CoreString, 
                       __ZN12OfExpression14is_log_enabledEv, __ZN12OfExpression14object_factoryE, 
                       __ZN12OfExpression15create_functionEPNS_10ExpressionERK10CoreString, 
                       __ZN12OfExpression15unescape_stringERK10CoreString, __ZN12OfExpression16is_path_absoluteERK15CoreBasicString, 
                       __ZN12OfExpression17is_time_dependentERK10CoreString, __ZN12OfExpression17register_functionERK10CoreStringS2_PFP9IFunctionPNS_10ExpressionEE, 
                       __ZN12OfExpression19compute_shading_varERK10CoreString, __ZN12OfExpression19compute_shading_varERK10CoreStringP8OfObject, 
                       __ZN12OfExpression21ParseShadingVariables11parse_indexER10CoreString, 
                       __ZN12OfExpression21ParseShadingVariables21parse_local_variablesER10CoreStringR10CoreVectorIP21OfObjectVariableValueE, 
                       __ZN12OfExpression21ParseShadingVariables22parse_global_variablesER10CoreString, 
                       __ZN12OfExpression21ParseShadingVariables4Data6unbindEv, __ZN12OfExpression21ParseShadingVariables4DataC1Ev, 
                       __ZN12OfExpression21ParseShadingVariables4DataC2Ev, __ZN12OfExpression21ParseShadingVariables4DataD0Ev, 
                       __ZN12OfExpression21ParseShadingVariables4DataD1Ev, __ZN12OfExpression21ParseShadingVariables4DataD2Ev, 
                       __ZN12OfExpression21ParseShadingVariables7prepareERK10CoreVectorI7OperandE, 
                       __ZN12OfExpression21ParseShadingVariables8evaluateER9Arguments, 
                       __ZN12OfExpression21ParseShadingVariablesC1EPNS_10ExpressionE, 
                       __ZN12OfExpression21ParseShadingVariablesC2EPNS_10ExpressionE, 
                       __ZN12OfExpression21raw_legacy_expressionE, __ZN12OfExpression23get_output_dependenciesE16OfBaseAttrHandleILb0EEj, 
                       __ZN12OfExpression24get_registered_functionsER10CoreVectorI10CoreStringE, 
                       __ZN12OfExpression24handle_legacy_expressionERK6OfAttrRK10CoreString, 
                       __ZN12OfExpression25get_raw_legacy_expressionEv, __ZN12OfExpression25set_raw_legacy_expressionERK10CoreString, 
                       __ZN12OfExpression4Eval17register_functionEv, __ZN12OfExpression4Eval7prepareERK10CoreVectorI7OperandE, 
                       __ZN12OfExpression4Eval8evaluateER9Arguments, __ZN12OfExpression4EvalC1EPNS_10ExpressionE, 
                       __ZN12OfExpression4EvalC2EPNS_10ExpressionE, __ZN12OfExpression4EvalD0Ev, 
                       __ZN12OfExpression4EvalD1Ev, __ZN12OfExpression4EvalD2Ev, 
                       __ZN12OfExpression5Curve17register_functionEv, __ZN12OfExpression5Curve7prepareERK10CoreVectorI7OperandE, 
                       __ZN12OfExpression5Curve8evaluateER9Arguments, __ZN12OfExpression5CurveC1EPNS_10ExpressionE, 
                       __ZN12OfExpression5CurveC2EPNS_10ExpressionE, __ZN12OfExpression5CurveD0Ev, 
                       __ZN12OfExpression5CurveD1Ev, __ZN12OfExpression5CurveD2Ev, 
                       __ZN12OfExpression7Binding10is_enabledEv, __ZN12OfExpression7Binding10s_bindingsE, 
                       __ZN12OfExpression7Binding11set_enabledEb, __ZN12OfExpression7Binding12update_flagsEPNS_10ExpressionEPK6OfAttrj, 
                       __ZN12OfExpression7Binding13clear_visitedEv, __ZN12OfExpression7Binding13on_attr_addedER11EventObjectRKNS1_9EventInfoEPv, 
                       __ZN12OfExpression7Binding13on_item_addedER11EventObjectRKNS1_9EventInfoEPv, 
                       __ZN12OfExpression7Binding15need_evaluationEPNS_10ExpressionEP6OfAttrjb, 
                       __ZN12OfExpression7Binding15on_attr_changedER11EventObjectRKNS1_9EventInfoEPv, 
                       __ZN12OfExpression7Binding15on_attr_removedER11EventObjectRKNS1_9EventInfoEPv, 
                       __ZN12OfExpression7Binding15on_item_removedER11EventObjectRKNS1_9EventInfoEPv, 
                       __ZN12OfExpression7Binding15on_item_renamedER11EventObjectRKNS1_9EventInfoEPv, 
                       __ZN12OfExpression7Binding16get_binding_dataEPNS_10ExpressionERK10CoreString, 
                       __ZN12OfExpression7Binding16has_been_visitedEPNS_10ExpressionE, 
                       __ZN12OfExpression7Binding17check_name_changeER15OfObjectFactoryRK10CoreStringS5_PKv, 
                       __ZN12OfExpression7Binding17is_bound_to_protoEPK6OfAttrj, 
                       __ZN12OfExpression7Binding18set_time_dependentEPNS_10ExpressionE, 
                       __ZN12OfExpression7Binding19evaluate_expressionEPNS_10ExpressionE, 
                       __ZN12OfExpression7Binding19s_dirty_expressionsE, __ZN12OfExpression7Binding22gather_dependent_attrsEPNS_10ExpressionER7CoreSetI16OfBaseAttrHandleILb0EEE, 
                       __ZN12OfExpression7Binding22remove_time_dependencyEPNS_10ExpressionE, 
                       __ZN12OfExpression7Binding23get_output_dependenciesE16OfBaseAttrHandleILb0EEj, 
                       __ZN12OfExpression7Binding24notify_animation_changedEPNS_10ExpressionE, 
                       __ZN12OfExpression7Binding25process_dirty_expressionsEv, __ZN12OfExpression7Binding26get_bound_expression_countEv, 
                       __ZN12OfExpression7Binding27on_attr_value_count_changedER11EventObjectRKNS1_9EventInfoEPv, 
                       __ZN12OfExpression7Binding28cmd_notify_animation_changedEP13OfCommandData, 
                       __ZN12OfExpression7Binding3addEPNS_10ExpressionE, __ZN12OfExpression7Binding3addEPNS_10ExpressionERKNS_11BindingDataE, 
                       __ZN12OfExpression7Binding5visitEPNS_10ExpressionE, __ZN12OfExpression7Binding6removeEPNS_10ExpressionE, 
                       __ZN12OfExpression7Binding6removeEPNS_10ExpressionERKNS_11BindingDataE, 
                       __ZN12OfExpression7Binding6updateEPNS_10ExpressionERKNS_11BindingDataES5_, 
                       __ZN12OfExpression7Binding8get_flagER7CoreSetIPNS_10ExpressionEES3_NS2_4FlagE, 
                       __ZN12OfExpression7Binding9set_dirtyEPNS_10ExpressionE, __ZN12OfExpression7Factory17create_expressionEP6OfAttrjRK10CoreString, 
                       __ZN12OfExpression7Factory17create_expressionERK10CoreStringP8OfObject, 
                       __ZN12OfExpression7Factory17delete_expressionEPNS_10ExpressionE, 
                       __ZN12OfExpression7GetName17register_functionEv, __ZN12OfExpression7GetName7prepareERK10CoreVectorI7OperandE, 
                       __ZN12OfExpression7GetName8evaluateER9Arguments, __ZN12OfExpression7GetNameC1EPNS_10ExpressionEb, 
                       __ZN12OfExpression7GetNameC2EPNS_10ExpressionEb, __ZN12OfExpression7GetNameD0Ev, 
                       __ZN12OfExpression7GetNameD1Ev, __ZN12OfExpression7GetNameD2Ev, 
                       __ZN12OfExpression7computeERK10CoreString, __ZN12OfExpression7computeERK10CoreStringP8OfObject, 
                       __ZN12OfExpression7factoryE, __ZN12OfExpression8FindItem17register_functionEv, 
                       __ZN12OfExpression8FindItem7prepareERK10CoreVectorI7OperandE, 
                       __ZN12OfExpression8FindItem8evaluateER9Arguments, __ZN12OfExpression8FindItemC1EPNS_10ExpressionE, 
                       __ZN12OfExpression8FindItemC2EPNS_10ExpressionE, __ZN12OfExpression8FindItemD0Ev, 
                       __ZN12OfExpression8FindItemD1Ev, __ZN12OfExpression8FindItemD2Ev, 
                       __ZN12OfExpression8GetValue15update_bindingsERK10CoreStringRK12VariableTypebPKc, 
                       __ZN12OfExpression8GetValue7prepareERK10CoreVectorI7OperandERK12VariableTypebPKc, 
                       __ZN12OfExpression8GetValueC2EPNS_10ExpressionE, __ZN12OfExpression8GetValueD0Ev, 
                       __ZN12OfExpression8GetValueD1Ev, __ZN12OfExpression8GetValueD2Ev, 
                       __ZN12OfExpression9GetObjVar17register_functionEv, __ZN12OfExpression9GetObjVar7prepareERK10CoreVectorI7OperandE, 
                       __ZN12OfExpression9GetObjVar8evaluateER9Arguments, __ZN12OfExpression9GetObjVarC1EPNS_10ExpressionE, 
                       __ZN12OfExpression9GetObjVarC2EPNS_10ExpressionE, __ZN12OfExpression9GetObjVarD0Ev, 
                       __ZN12OfExpression9GetObjVarD1Ev, __ZN12OfExpression9GetObjVarD2Ev, 
                       __ZN12PbrBxdfBaker18compute_bxdf_valueER20SysThreadTaskManagerR9CoreArrayI15Sample2DLutTaskERKjS7_S7_RK9GMathVec3IdER10CoreVectorIfE, 
                       __ZN12PbrLpeLabels10SUBSURFACEEv, __ZN12PbrLpeLabels10UNOCCLUDEDEv, 
                       __ZN12PbrLpeLabels11HAIR_GLINTSEv, __ZN12PbrLpeLabels13CHANNEL_EVENTEv, 
                       __ZN12PbrLpeLabels15BACKGROUND_NAMEEv, __ZN12PbrLpeLabels17DEFAULT_LOBE_NAMEEv, 
                       __ZN12PbrLpeLabels18CHANNEL_SCATTERINGEv, __ZN12PbrLpeLabels4COATEv, 
                       __ZN12PbrLpeLabels5METALEv, __ZN12PbrLpeLabels5SHEENEv, __ZN12PbrLpeLabels6ALBEDOEv, 
                       __ZN12PbrLpeLabels6HAIR_REv, __ZN12PbrLpeLabels7HAIR_TTEv, 
                       __ZN12PbrLpeLabels8CLAMPINGEv, __ZN12PbrLpeLabels8CONSTANTEv, 
                       __ZN12PbrLpeLabels8HAIR_TRTEv, __ZN12PbrLpeLabels8MATERIALEv, 
                       __ZN12PbrLpeLabels8SPECULAREv, __ZN12PbrLpeLabels9EXCLUSIVEEv, 
                       __ZN12PbrLpeLabels9ROUGHNESSEv, __ZN12PbrSasGlobal10dirty_treeEv, 
                       __ZN12PbrSasGlobal11create_treeER5OfApp, __ZN12PbrSasGlobal11get_weightsER5OfApp, 
                       __ZN12PbrSasGlobal13dirty_weightsEv, __ZN12PbrSasGlobal14create_weightsER5OfApp, 
                       __ZN12PbrSasGlobal3setERK14CoreBasicArrayIP14SceneObjectSasERKS0_IjE, 
                       __ZN12PbrSasObject10class_infoEv, __ZN12PolyMeshBase10class_infoEv, 
                       __ZN12R2cInstancerC1ERK16R2cSceneDelegatePvRK9CoreArrayIS3_Eb, 
                       __ZN12R2cInstancerC2ERK16R2cSceneDelegatePvRK9CoreArrayIS3_Eb, 
                       __ZN12R2cInstancerD1Ev, __ZN12R2cInstancerD2Ev, __ZN12RandFunction17register_functionEv, 
                       __ZN12RandFunction4evalEN7SeExpr214ExprFuncSimple9ArgHandleE, 
                       __ZN12RandFunctionC1Ev, __ZN12RandFunctionC2Ev, __ZN12RandFunctionD0Ev, 
                       __ZN12RandFunctionD1Ev, __ZN12RandFunctionD2Ev, __ZN12RayGeneratorC1EPFjRKS_PK9GMathVec2IdERKjP8GMathRayIdEPjPdEPFbS1_RS4_SF_R12GMathFrustumE, 
                       __ZN12RayGeneratorC2EPFjRKS_PK9GMathVec2IdERKjP8GMathRayIdEPjPdEPFbS1_RS4_SF_R12GMathFrustumE, 
                       __ZN12ResourceData10class_infoEv, __ZN12ResourceData15set_import_dataEP18ResourceImportData, 
                       __ZN12ResourceDataC1ERKS_, __ZN12ResourceDataC1Ev, __ZN12ResourceDataC2ERKS_, 
                       __ZN12ResourceDataC2Ev, __ZN12ResourceDataD0Ev, __ZN12ResourceDataD1Ev, 
                       __ZN12ResourceDataD2Ev, __ZN12ResourceUser10class_infoEv, 
                       __ZN12ResourceUserC2Ev, __ZN12ResourceUserD0Ev, __ZN12ResourceUserD1Ev, 
                       __ZN12ResourceUserD2Ev, __ZN12SysFileAsset17get_resolved_pathEv, 
                       __ZN12SysFileAsset4readEPvm, __ZN12SysFileAsset8get_dataEv, 
                       __ZN12SysFileAsset8get_pathEv, __ZN12SysFileAsset8get_sizeEv, 
                       __ZN12SysFileAsset8get_timeEv, __ZN12SysFileAsset8is_validEv, 
                       __ZN12SysFileAssetC1ERK15CoreBasicString, __ZN12SysFileAssetC2ERK15CoreBasicString, 
                       __ZN12SysFileAssetD0Ev, __ZN12SysFileAssetD1Ev, __ZN12SysFileAssetD2Ev, 
                       __ZN12SysFileTools12get_fullpathERK10CoreStringS2_RKlb, __ZN12SysFileTools17generate_tmp_fileER7SysFileRK10CoreStringS4_RKNS0_4ModeERKNS0_4TypeE, 
                       __ZN12SysFileTools24generate_random_filenameERK10CoreStringS2_, 
                       __ZN12SysFileTools9copy_fileERK10CoreStringS2_RKb, __ZN12SysFileTools9move_fileERK10CoreStringS2_RKb, 
                       __ZN12SysStatistic17get_readable_sizeERKm, __ZN12SysStatisticC1Ev, 
                       __ZN12SysStatisticC2Ev, __ZN12TubeMeshFast10class_infoEv, 
                       __ZN12TubeMeshFast3setERK9CurveMeshRK10CoreVectorIjERKd, __ZN12TubeMeshFastC1ERKS_, 
                       __ZN12TubeMeshFastC1ERKS_RK9CurveMesh, __ZN12TubeMeshFastC1Ev, 
                       __ZN12TubeMeshFastC2ERKS_, __ZN12TubeMeshFastC2ERKS_RK9CurveMesh, 
                       __ZN12TubeMeshFastC2Ev, __ZN12TubeMeshFastD0Ev, __ZN12TubeMeshFastD1Ev, 
                       __ZN12TubeMeshFastD2Ev, __ZN12UniqueString5emptyEv, __ZN12UniqueStringC1EPKc, 
                       __ZN12UniqueStringC1ERK10CoreString, __ZN12UniqueStringC2EPKc, 
                       __ZN12UniqueStringC2ERK10CoreString, __ZN12UvBakeConfig3setEP17ModuleSceneObject, 
                       __ZN12UxdReference13arcTypeLetterEN32pxrInternal__aapl__pxrReserved__10PcpArcTypeE, 
                       __ZN12VariableTypeC1ENS_4TypeEiNS_8LifetimeE, __ZN12VariableTypeC1ERKN7SeExpr28ExprTypeE, 
                       __ZN12VariableTypeC1Ev, __ZN12VariableTypeC2ENS_4TypeEiNS_8LifetimeE, 
                       __ZN12VariableTypeC2ERKN7SeExpr28ExprTypeE, __ZN12VariableTypeC2Ev, 
                       __ZN12VolumeSparse10class_infoEv, __ZN12VolumeSparseC1EPK16VolumeSparseData, 
                       __ZN12VolumeSparseC2EPK16VolumeSparseData, __ZN12VolumeSparseD0Ev, 
                       __ZN12VolumeSparseD1Ev, __ZN12VolumeSparseD2Ev, __ZN13AngularPDFMap8recreateERK18IESAngularEmission, 
                       __ZN13AngularPDFMapC1Ev, __ZN13AngularPDFMapC2Ev, __ZN13AppObjectImpl20process_command_portEv, 
                       __ZN13AppObjectImpl23on_object_factory_eventER15OfObjectFactoryRKN11EventObject9EventInfoEPv, 
                       __ZN13AppObjectImpl24set_project_dir_variableERK9AppObjectRK10CoreString, 
                       __ZN13AppObjectImpl25start_command_port_serverEv, __ZN13AppObjectImpl28shutdown_command_port_serverEv, 
                       __ZN13AppObjectImpl36rebuild_scripting_engines_extensionsEv, 
                       __ZN13BatchCommands6cancelEPKcPKv, __ZN13BatchCommands6cancelEPKv, 
                       __ZN13BatchCommands7noMergeEv, __ZN13BatchCommands9keepEmptyEv, 
                       __ZN13BatchCommandsC1EPKc, __ZN13BatchCommandsC1EPKcPKv, __ZN13BatchCommandsC1EPKv, 
                       __ZN13BatchCommandsC1Ev, __ZN13BatchCommandsC2EPKc, __ZN13BatchCommandsC2EPKcPKv, 
                       __ZN13BatchCommandsC2EPKv, __ZN13BatchCommandsC2Ev, __ZN13BatchCommandsD1Ev, 
                       __ZN13BatchCommandsD2Ev, __ZN13CoreClassInfo9new_classEPKcPKS_, 
                       __ZN13CoreClassInfoC1EPKcPKS_, __ZN13CoreClassInfoC2EPKcPKS_, 
                       __ZN13CoreClassInfoD1Ev, __ZN13CoreClassInfoD2Ev, __ZN13CoreLogStream10class_infoEv, 
                       __ZN13CoreSemaphore4waitEP19CoreSemaphoreHandle, __ZN13CoreSemaphore6createEj, 
                       __ZN13CoreSemaphore7destroyEP19CoreSemaphoreHandle, __ZN13CoreSemaphore7releaseEP19CoreSemaphoreHandlej, 
                       __ZN13CptLpeManager15add_builtin_lpeER15OfObjectFactoryRK10CoreStringS4_S4_, 
                       __ZN13CptLpeManager19create_builtin_lpesER15OfObjectFactory, 
                       __ZN13CptLpeManager21create_builtin_objectER15OfObjectFactoryRKN23R2cDefaultObjectManager17DefaultObjectDescE, 
                       __ZN13CptLpeManager3getEv, __ZN13CtxMotionBlur10insert_keyER7AppBaseRKj, 
                       __ZN13CtxMotionBlur10remove_keyERKj, __ZN13CtxMotionBlur14get_slot_countEv, 
                       __ZN13CtxMotionBlur14get_slot_indexERKj, __ZN13CtxMotionBlur15remove_slot_keyERKj, 
                       __ZN13CtxMotionBlur4initERK7AppBaseRKd, __ZN13CtxMotionBlur4initERKjRKNS_13DirectionModeERKdS6_S6_, 
                       __ZN13CtxMotionBlur7disableEv, __ZN13CtxMotionBlur8make_keyERKjRKNS_13DirectionModeERKd, 
                       __ZN13CtxMotionBlurC1Ev, __ZN13CtxMotionBlurC2Ev, __ZN13GRandomFastMt12m_table_sizeE, 
                       __ZN13GRandomFastMt4initEv, __ZN13GRandomFastMt7destroyEv, 
                       __ZN13GRandomFastMt7m_tableE, __ZN13GasTreeMotion10set_sampleERKjRK14CoreBasicArrayI10GMathBbox3IfEERKS2_IjE, 
                       __ZN13GasTreeMotion13transfer_dataEPK11GasTreeDataR17GasTreeMotionData, 
                       __ZN13GasTreeMotion5clearEv, __ZN13GasTreeMotion9configureEPK7GasTreeRKj, 
                       __ZN13GasTreeMotionC1Ev, __ZN13GasTreeMotionC2Ev, __ZN13GasTreeMotionD0Ev, 
                       __ZN13GasTreeMotionD1Ev, __ZN13GasTreeMotionD2Ev, __ZN13HdAppleRTBind13get_attributeEP8OfObject, 
                       __ZN13HdAppleRTBind3setEP8OfObjectRKN32pxrInternal__aapl__pxrReserved__7GfVec3fE, 
                       __ZN13HdAppleRTBind3setEP8OfObjectb, __ZN13HdAppleRTBind3setEP8OfObjectd, 
                       __ZN13HdAppleRTBind3setEP8OfObjectf, __ZN13HdAppleRTBind3setEP8OfObjecti, 
                       __ZN13HdAppleRTBind7set_intEP8OfObjectRN32pxrInternal__aapl__pxrReserved__15HdSceneDelegateERKNS2_7SdfPathE, 
                       __ZN13HdAppleRTBind8set_boolEP8OfObjectRN32pxrInternal__aapl__pxrReserved__15HdSceneDelegateERKNS2_7SdfPathE, 
                       __ZN13HdAppleRTBind8set_enumEP8OfObjectPKc, __ZN13HdAppleRTBind8set_enumEP8OfObjectRKN32pxrInternal__aapl__pxrReserved__7TfTokenE, 
                       __ZN13HdAppleRTBind8set_enumEP8OfObjectRKN32pxrInternal__aapl__pxrReserved__7VtValueE, 
                       __ZN13HdAppleRTBind8set_enumEP8OfObjectRN32pxrInternal__aapl__pxrReserved__15HdSceneDelegateERKNS2_7SdfPathE, 
                       __ZN13HdAppleRTBind9set_floatEP8OfObjectRN32pxrInternal__aapl__pxrReserved__15HdSceneDelegateERKNS2_7SdfPathE, 
                       __ZN13HdAppleRTBind9set_floatEP8OfObjectRN32pxrInternal__aapl__pxrReserved__15HdSceneDelegateERKNS2_7SdfPathEf, 
                       __ZN13HdAppleRTBind9set_vec3dEP8OfObjectRN32pxrInternal__aapl__pxrReserved__15HdSceneDelegateERKNS2_7SdfPathE, 
                       __ZN13HdAppleRTMesh13create_objectERN32pxrInternal__aapl__pxrReserved__13HdRenderIndexE, 
                       __ZN13HdAppleRTMesh14register_classER5OfApp, __ZN13HdAppleRTMesh15UpdateRenderTagEPN32pxrInternal__aapl__pxrReserved__15HdSceneDelegateEPNS0_13HdRenderParamE, 
                       __ZN13HdAppleRTMesh15create_resourceER8OfObjecti, __ZN13HdAppleRTMesh16get_model_matrixEdR14GMathMatrix4x4IdLb1EE, 
                       __ZN13HdAppleRTMesh17sync_displacementERN32pxrInternal__aapl__pxrReserved__13HdRenderIndexE, 
                       __ZN13HdAppleRTMesh4SyncEPN32pxrInternal__aapl__pxrReserved__15HdSceneDelegateEPNS0_13HdRenderParamEPjRKNS0_7TfTokenE, 
                       __ZN13HdAppleRTMesh8FinalizeEPN32pxrInternal__aapl__pxrReserved__13HdRenderParamE, 
                       __ZN13HdAppleRTMesh8pre_syncERKj, __ZN13HdAppleRTMesh9_InitReprERKN32pxrInternal__aapl__pxrReserved__7TfTokenEPj, 
                       __ZN13HdAppleRTMesh9sync_mainERN32pxrInternal__aapl__pxrReserved__13HdRenderIndexERKj, 
                       __ZN13HdAppleRTMeshC1EOS_RKN32pxrInternal__aapl__pxrReserved__7SdfPathE, 
                       __ZN13HdAppleRTMeshC1ERKN32pxrInternal__aapl__pxrReserved__7SdfPathE, 
                       __ZN13HdAppleRTMeshC2EOS_RKN32pxrInternal__aapl__pxrReserved__7SdfPathE, 
                       __ZN13HdAppleRTMeshC2ERKN32pxrInternal__aapl__pxrReserved__7SdfPathE, 
                       __ZN13HdAppleRTMeshD0Ev, __ZN13HdAppleRTMeshD1Ev, __ZN13HdAppleRTMeshD2Ev, 
                       __ZN13ImageIOOutput10write_failEv, __ZN13ImageIOOutput12write_regionER16ImageEvalContextRK9GMathVec4IiEP14AppProgressBar, 
                       __ZN13ImageIOOutput4openEP5OfAppRK16ImageSaveOptionsRK9GMathVec4IiES8_i, 
                       __ZN13ImageIOOutput5closeEv, __ZN13ImageIOOutput5writeER16ImageEvalContextP14AppProgressBar, 
                       __ZN13ImageIOOutput8open_exrEPN7Imf_3_16HeaderE, __ZN13ImageIOOutput9open_failEv, 
                       __ZN13ImageIOOutput9open_oiioENSt3__110unique_ptrIN16OpenImageIO_v2_511ImageOutputENS0_14default_deleteIS3_EEEE, 
                       __ZN13ImageProgress13update_regionERK9GMathVec4IiE, __ZN13ImageProgress17bucket_render_endERK9GMathVec4IiEj, 
                       __ZN13ImageProgress19bucket_render_startERK9GMathVec4IiEj, 
                       __ZN13ImageProgress19set_progress_bufferEPKc, __ZN13ImageProgress22process_progress_imageEPv, 
                       __ZN13ImageProgress24add_draw_region_callbackEPvPFvS0_RK27ModuleImageProgressInitInfoEPFvS0_P11ImageHandleEPFvS0_S7_RK10CoreVectorI9GMathVec4IiEEEPFvS0_SF_E, 
                       __ZN13ImageProgress25end_draw_region_receiversEP11ImageHandle, 
                       __ZN13ImageProgress26init_draw_region_receiversEv, __ZN13ImageProgress27remove_draw_region_callbackEPv, 
                       __ZN13ImageProgress31get_draw_region_receivers_countEv, __ZN13ImageProgress4stopEP11ImageHandle, 
                       __ZN13ImageProgress5clearEv, __ZN13ImageProgress5startE11ImageHandleS0_PKcRKN18ModuleImageQuality5LevelEPK8OfObject, 
                       __ZN13ImageProgressC1ER5OfAppP11ModuleImage, __ZN13ImageProgressC2ER5OfAppP11ModuleImage, 
                       __ZN13ImageProgressD1Ev, __ZN13ImageProgressD2Ev, __ZN13LayerListener31on_layer_info_did_change_noticeERKN32pxrInternal__aapl__pxrReserved__9SdfNotice18LayerInfoDidChangeE, 
                       __ZN13LayerListener32on_layer_muteness_changed_noticeERKN32pxrInternal__aapl__pxrReserved__9SdfNotice20LayerMutenessChangedE, 
                       __ZN13LayerListener33on_layer_dirtiness_changed_noticeERKN32pxrInternal__aapl__pxrReserved__9SdfNotice21LayerDirtinessChangedE, 
                       __ZN13LayerListener34on_layer_did_reload_content_noticeERKN32pxrInternal__aapl__pxrReserved__9SdfNotice21LayerDidReloadContentE, 
                       __ZN13LayerListener35on_layer_did_replace_content_noticeERKN32pxrInternal__aapl__pxrReserved__9SdfNotice22LayerDidReplaceContentE, 
                       __ZN13LayerListener37on_layer_identifier_did_change_noticeERKN32pxrInternal__aapl__pxrReserved__9SdfNotice24LayerIdentifierDidChangeE, 
                       __ZN13LayerListener38on_layer_did_save_layer_to_file_noticeERKN32pxrInternal__aapl__pxrReserved__9SdfNotice23LayerDidSaveLayerToFileE, 
                       __ZN13LayerListener6listenERKN32pxrInternal__aapl__pxrReserved__9TfWeakPtrINS0_8SdfLayerEEEONSt3__18functionIFvNS_5EventERKNS0_7VtValueEEEE, 
                       __ZN13LayerListenerD1Ev, __ZN13LayerListenerD2Ev, __ZN13ModuleLayer3d10class_infoEv, 
                       __ZN13ModuleLayer3d11destroy_allEv, __ZN13ModuleLayer3d11dirty_layerERKb, 
                       __ZN13ModuleLayer3d14set_aovs_dirtyEv, __ZN13ModuleLayer3d17s_empty_lpe_descsEv, 
                       __ZN13ModuleLayer3d18module_constructorER8OfObject, __ZN13ModuleLayer3d19on_attribute_changeERK6OfAttrRiRKi, 
                       __ZN13ModuleLayer3d20on_geometries_changeERK6OfAttrRiRKi, 
                       __ZN13ModuleLayer3d20on_group_attr_changeERK6OfAttrRiRKi, 
                       __ZN13ModuleLayer3d21on_item_state_changedER8OfObjectRKN11EventObject9EventInfoEPv, 
                       __ZN13ModuleLayer3d22on_scene_object_changeER11ModuleGroupRKN11EventObject9EventInfoEPv, 
                       __ZN13ModuleLayer3d24on_channel_group_changedER16OfChannelManagerRKN11EventObject9EventInfoE, 
                       __ZN13ModuleLayer3d25add_all_aovs_from_shadingEv, __ZN13ModuleLayer3d27refresh_scene_objects_groupEv, 
                       __ZN13ModuleLayer3dC1Ev, __ZN13ModuleLayer3dC2Ev, __ZN13ModuleLayer3dD0Ev, 
                       __ZN13ModuleLayer3dD1Ev, __ZN13ModuleLayer3dD2Ev, __ZN13ModuleProcess10class_infoEv, 
                       __ZN13ModuleProcess11end_processER14AppProgressBar, __ZN13ModuleProcess11run_processER14AppProgressBar, 
                       __ZN13ModuleProcess13begin_processER14AppProgressBar, __ZN13ModuleProcess16on_attr_overrideER6OfAttrRK10CoreString, 
                       __ZN13ModuleProcess3runER14AppProgressBar, __ZN13ModuleProcess3runERK14CoreBasicArrayI10CoreStringER14AppProgressBar, 
                       __ZN13ModuleProcess3runERK14CoreBasicArrayI10CoreStringERKb, 
                       __ZN13ModuleProcessC1ERKb, __ZN13ModuleProcessC2ERKb, __ZN13ModuleProcessD0Ev, 
                       __ZN13ModuleProcessD1Ev, __ZN13ModuleProcessD2Ev, __ZN13ModuleRuleSet10class_infoEv, 
                       __ZN13ModuleRuleSet10set_inputsERK14CoreBasicArrayIP8OfObjectE, 
                       __ZN13ModuleRuleSet11set_filtersERK14CoreBasicArrayI10CoreStringE, 
                       __ZN13ModuleRuleSet19get_rules_recursiveER10CoreVectorI11FilterRulesE, 
                       __ZN13ModuleRuleSet19on_attribute_changeERK6OfAttrRiRKi, __ZN13ModuleRuleSet9set_rulesERK10CoreString, 
                       __ZN13ModuleRuleSetC1ER8OfObject, __ZN13ModuleRuleSetC2ER8OfObject, 
                       __ZN13ModuleTexture10class_infoEv, __ZN13ModuleTexture18module_constructorER8OfObject, 
                       __ZN13ModuleTexture19on_attribute_changeERK6OfAttrRiRKi, __ZN13ModuleTexture22set_master_input_valueERK10CoreString, 
                       __ZN13ModuleTextureC1Ev, __ZN13ModuleTextureC2Ev, __ZN13ModuleUnknown10class_infoEv, 
                       __ZN13ModuleUnknown14on_deserializeERK11CoreVersionRK11ParserGroupRK15OfSerialOptions, 
                       __ZN13ModuleUnknownC1Ev, __ZN13ModuleUnknownC2Ev, __ZN13ModuleUnknownD0Ev, 
                       __ZN13ModuleUnknownD1Ev, __ZN13ModuleUnknownD2Ev, __ZN13NgModuleLight16get_object_countER5OfApp, 
                       __ZN13NgModuleLight6new_idER8OfModuleR10OfModuleId, __ZN13NgModuleLight7free_idER8OfModuleR10OfModuleId, 
                       __ZN13NgSasGeometry10create_sasEP17ModuleSceneObject14CoreBasicArrayIP14ModuleMaterialERK14NgSasMotionCtxb, 
                       __ZN13NgSasGeometry10create_sasEP17ModuleSceneObjectPK14GeometryObjectS4_S4_S4_14CoreBasicArrayIP14ModuleMaterialES5_IP18ModuleDisplacementERK14NgSasMotionCtxb, 
                       __ZN13NgSasGeometry16upload_to_deviceEP13NgSasResourceRK14CoreBasicArrayIPK15NgOptixGeometryE, 
                       __ZN13NgSasGeometry17get_geometry_typeEPK14GeometryObject, 
                       __ZN13NgSasGeometry6createERK5OfAppPK14GeometryObjectS5_S5_S5_RK14CoreBasicArrayIjES9_RK14NgSasMotionCtxbP14AppProgressBar, 
                       __ZN13NgSasGeometry7destroyEPP13NgSasResourceb, __ZN13NgSasGeometryD1Ev, 
                       __ZN13NgSasGeometryD2Ev, __ZN13NgSasResource15set_device_dataEPS_Pv, 
                       __ZN13NgSasResource7destroyEPPS_b, __ZN13NgSasResource8set_dataEPS_PvS1_NS_17NgSasResourceTypeE, 
                       __ZN13OfContextImpl10get_objectERK9OfContextRK10CoreString, 
                       __ZN13OfContextImpl11get_contextERK9OfContextRK10CoreString, 
                       __ZN13OfContextImpl11get_objectsERK9OfContextR9CoreArrayI18OfBaseObjectHandleILb0EEERK18CoreBitFieldHelperi, 
                       __ZN13OfContextImpl11get_objectsERK9OfContextRK14CoreBasicArrayI10CoreStringER9CoreArrayI18OfBaseObjectHandleILb0EEERK18CoreBitFieldHelperi, 
                       __ZN13OfContextImpl11item_existsERK9OfContextRK10CoreString, 
                       __ZN13OfContextImpl12remove_itemsER15OfObjectFactoryRK14CoreBasicArrayI16OfBaseItemHandleILb0EEEP14AppProgressBar, 
                       __ZN13OfContextImpl13get_all_itemsERK9OfContextR10CoreVectorI16OfBaseItemHandleILb0EEERK18CoreBitFieldHelperi, 
                       __ZN13OfContextImpl13get_item_pathERK9OfContext16OfBaseItemHandleILb1EE, 
                       __ZN13OfContextImpl13object_existsERK9OfContextRK10CoreString, 
                       __ZN13OfContextImpl14context_existsERK9OfContextRK10CoreString, 
                       __ZN13OfContextImpl14find_attributeERK9OfContextRK10CoreString, 
                       __ZN13OfContextImpl14find_attributeERK9OfContextRK10CoreStringRbRj, 
                       __ZN13OfContextImpl14find_attributeERK9OfContextRK10CoreStringRj, 
                       __ZN13OfContextImpl14find_attributeERK9OfContextRK10CoreStringRjRb, 
                       __ZN13OfContextImpl15do_remove_itemsER15OfObjectFactoryRK7CoreSetIP9OfContextERKS2_I18OfBaseObjectHandleILb0EEERK14CoreBasicArrayIS4_ERKSD_IS9_ESJ_P14AppProgressBar, 
                       __ZN13OfContextImpl15find_attributesERK9OfContextR10CoreVectorI16OfBaseAttrHandleILb0EEERK10CoreStringSA_, 
                       __ZN13OfContextImpl15get_all_objectsERK9OfContextR7CoreSetI18OfBaseObjectHandleILb0EEERK18CoreBitFieldHelperi, 
                       __ZN13OfContextImpl15get_all_objectsERK9OfContextRK14CoreBasicArrayI10CoreStringER7CoreSetI18OfBaseObjectHandleILb0EEERK18CoreBitFieldHelperi, 
                       __ZN13OfContextImpl15get_object_pathERK9OfContext18OfBaseObjectHandleILb1EE, 
                       __ZN13OfContextImpl15get_object_pathERK9OfContext18OfBaseObjectHandleILb1EER10CoreVectorIPS0_E, 
                       __ZN13OfContextImpl16find_output_plugERK9OfContextRK10CoreStringRj, 
                       __ZN13OfContextImpl16get_context_pathERK9OfContext19OfBaseContextHandleILb1EE, 
                       __ZN13OfContextImpl18is_context_optionsERK8OfObject, __ZN13OfContextImpl19find_item_neighbourERK9OfContextPK6OfItemb, 
                       __ZN13OfContextImpl19get_context_optionsER9OfContext, __ZN13OfContextImpl19get_context_optionsERK9OfContext, 
                       __ZN13OfContextImpl22gather_items_to_removeER7CoreSetIP9OfContextERS0_I18OfBaseObjectHandleILb0EEERK14CoreBasicArrayIS6_ER10CoreVectorIS2_ERSD_IS6_ESH_, 
                       __ZN13OfContextImpl31process_gather_object_to_removeE18OfBaseObjectHandleILb0EER7CoreSetIS1_E, 
                       __ZN13OfContextImpl32process_gather_context_to_removeEPK9OfContextR7CoreSetIPS0_ERS3_I18OfBaseObjectHandleILb0EEE, 
                       __ZN13OfContextImpl33process_gather_embedded_to_removeE18OfBaseObjectHandleILb0EER7CoreSetIS1_E, 
                       __ZN13OfContextImpl8get_itemERK9OfContextRK10CoreString, __ZN13OfContextImpl8get_itemERK9OfContextj, 
                       __ZN13OfContextImpl9get_itemsERK9OfContextR10CoreVectorI16OfBaseItemHandleILb0EEERK18CoreBitFieldHelperi, 
                       __ZN13OslShaderInfo21shader_type_from_nameERK10CoreString, 
                       __ZN13OslShaderInfoC1EPKcRK14CoreBasicArrayI13OSLShaderPlugIjEES7_13OslShaderType, 
                       __ZN13OslShaderInfoC2EPKcRK14CoreBasicArrayI13OSLShaderPlugIjEES7_13OslShaderType, 
                       __ZN13ParserArchivepLERK10CoreString, __ZN13ParticleCloud10class_infoEv, 
                       __ZN13ParticleCloud11deserializeEPvRKm, __ZN13ParticleCloud12compute_bboxEv, 
                       __ZN13ParticleCloud15set_point_cloudERK18GeometryPointCloudP14AppProgressBar, 
                       __ZN13ParticleCloud16compute_hash_keyEv, __ZN13ParticleCloudC1ERK18GeometryPointCloud17CoreSharedPointerINS_22MotionBlurSampleLoaderE17CoreSharedCounterE, 
                       __ZN13ParticleCloudC1ERKS_, __ZN13ParticleCloudC1Ev, __ZN13ParticleCloudC2ERK18GeometryPointCloud17CoreSharedPointerINS_22MotionBlurSampleLoaderE17CoreSharedCounterE, 
                       __ZN13ParticleCloudC2ERKS_, __ZN13ParticleCloudC2Ev, __ZN13ParticleCloudD0Ev, 
                       __ZN13ParticleCloudD1Ev, __ZN13ParticleCloudD2Ev, __ZN13PbrLutHelpers14s_sample_countE, 
                       __ZN13PbrLutHelpers21s_size_lut_2d_diffuseE, __ZN13PbrLutHelpers22s_sample_count_averageE, 
                       __ZN13PbrLutHelpers24s_size_lut_2d_reflectionE, __ZN13PbrLutHelpers28generate_oren_nayar_full_lutERK10CoreString, 
                       __ZN13PbrLutHelpers28s_size_lut_3d_refraction_0_1E, __ZN13PbrLutHelpers29generate_oren_nayar_basic_lutERK10CoreString, 
                       __ZN13PbrLutHelpers30s_size_lut_3d_refraction_1_infE, __ZN13PbrLutHelpers31compute_specific_brdf_ggx_valueERKjS1_S1_S1_, 
                       __ZN13PbrLutHelpers32compute_specific_brdf_ward_valueERKjS1_S1_S1_, 
                       __ZN13PbrLutHelpers32generate_oren_nayar_improved_lutERK10CoreString, 
                       __ZN13PbrLutHelpers33compute_specific_brdf_sheen_valueERKjS1_S1_S1_, 
                       __ZN13PbrLutHelpers34init_pbr_baker_for_ward_reflectionERK9CtxShaderR12PbrBxdfBakerRP7PbrWard, 
                       __ZN13PbrLutHelpers35compute_specific_btdf_ggx_value_0_1ERKjS1_S1_S1_S1_S1_S1_, 
                       __ZN13PbrLutHelpers35generate_microfacet_reflect_lut_ggxERK10CoreString, 
                       __ZN13PbrLutHelpers36compute_specific_brdf_beckmann_valueERKjS1_S1_S1_, 
                       __ZN13PbrLutHelpers36generate_microfacet_reflect_lut_wardERK10CoreString, 
                       __ZN13PbrLutHelpers37compute_specific_btdf_ggx_value_1_infERKjS1_S1_S1_S1_S1_S1_, 
                       __ZN13PbrLutHelpers38compute_specific_oren_nayar_full_valueERKjS1_S1_S1_, 
                       __ZN13PbrLutHelpers39compute_specific_oren_nayar_basic_valueERKjS1_S1_S1_, 
                       __ZN13PbrLutHelpers39generate_microfacet_reflect_lut_ggx_avgERK10CoreString, 
                       __ZN13PbrLutHelpers39generate_microfacet_refract_lut_ggx_0_1ERK10CoreString, 
                       __ZN13PbrLutHelpers40compute_specific_btdf_beckmann_value_0_1ERKjS1_S1_S1_S1_S1_S1_, 
                       __ZN13PbrLutHelpers40compute_specific_btdf_slab_ggx_value_0_1ERKjS1_S1_S1_S1_S1_S1_, 
                       __ZN13PbrLutHelpers40generate_microfacet_reflect_lut_beckmannERK10CoreString, 
                       __ZN13PbrLutHelpers40generate_microfacet_reflect_lut_ward_avgERK10CoreString, 
                       __ZN13PbrLutHelpers41generate_microfacet_refract_lut_ggx_1_infERK10CoreString, 
                       __ZN13PbrLutHelpers42compute_specific_brdf_ggx_correlated_valueERKjS1_S1_S1_, 
                       __ZN13PbrLutHelpers42compute_specific_btdf_beckmann_value_1_infERKjS1_S1_S1_S1_S1_S1_, 
                       __ZN13PbrLutHelpers42compute_specific_btdf_slab_ggx_value_1_infERKjS1_S1_S1_S1_S1_S1_, 
                       __ZN13PbrLutHelpers42compute_specific_oren_nayar_improved_valueERKjS1_S1_S1_, 
                       __ZN13PbrLutHelpers44generate_microfacet_reflect_lut_beckmann_avgERK10CoreString, 
                       __ZN13PbrLutHelpers44generate_microfacet_refract_lut_beckmann_0_1ERK10CoreString, 
                       __ZN13PbrLutHelpers44generate_microfacet_refract_slab_lut_ggx_0_1ERK10CoreString, 
                       __ZN13PbrLutHelpers45compute_specific_btdf_slab_beckmann_value_0_1ERKjS1_S1_S1_S1_S1_S1_, 
                       __ZN13PbrLutHelpers46compute_specific_brdf_ggx_dielectric_0_1_valueERKjS1_S1_S1_S1_S1_, 
                       __ZN13PbrLutHelpers46compute_specific_btdf_ggx_correlated_value_0_1ERKjS1_S1_S1_S1_S1_S1_, 
                       __ZN13PbrLutHelpers46compute_specific_btdf_ggx_dielectric_value_0_1ERKjS1_S1_S1_S1_S1_S1_, 
                       __ZN13PbrLutHelpers46generate_microfacet_reflect_lut_ggx_correlatedERK10CoreString, 
                       __ZN13PbrLutHelpers46generate_microfacet_refract_lut_beckmann_1_infERK10CoreString, 
                       __ZN13PbrLutHelpers46generate_microfacet_refract_slab_lut_ggx_1_infERK10CoreString, 
                       __ZN13PbrLutHelpers47compute_specific_btdf_slab_beckmann_value_1_infERKjS1_S1_S1_S1_S1_S1_, 
                       __ZN13PbrLutHelpers48compute_specific_brdf_ggx_dielectric_1_inf_valueERKjS1_S1_S1_S1_S1_, 
                       __ZN13PbrLutHelpers48compute_specific_btdf_ggx_correlated_value_1_infERKjS1_S1_S1_S1_S1_S1_, 
                       __ZN13PbrLutHelpers48compute_specific_btdf_ggx_dielectric_value_1_infERKjS1_S1_S1_S1_S1_S1_, 
                       __ZN13PbrLutHelpers48generate_microfacet_reflect_lut_sheen_correlatedERK10CoreString, 
                       __ZN13PbrLutHelpers49generate_microfacet_refract_slab_lut_beckmann_0_1ERK10CoreString, 
                       __ZN13PbrLutHelpers50generate_microfacet_reflect_lut_ggx_correlated_avgERK10CoreString, 
                       __ZN13PbrLutHelpers50generate_microfacet_reflect_lut_ggx_dielectric_0_1ERK10CoreString, 
                       __ZN13PbrLutHelpers50generate_microfacet_refract_lut_ggx_dielectric_0_1ERK10CoreString, 
                       __ZN13PbrLutHelpers51compute_specific_brdf_beckmann_dielectric_0_1_valueERKjS1_S1_S1_S1_S1_, 
                       __ZN13PbrLutHelpers51compute_specific_btdf_beckmann_dielectric_value_0_1ERKjS1_S1_S1_S1_S1_S1_, 
                       __ZN13PbrLutHelpers51generate_microfacet_refract_slab_lut_beckmann_1_infERK10CoreString, 
                       __ZN13PbrLutHelpers52generate_microfacet_reflect_lut_ggx_dielectric_1_infERK10CoreString, 
                       __ZN13PbrLutHelpers52generate_microfacet_reflect_lut_sheen_correlated_avgERK10CoreString, 
                       __ZN13PbrLutHelpers52generate_microfacet_refract_lut_ggx_dielectric_1_infERK10CoreString, 
                       __ZN13PbrLutHelpers53compute_specific_brdf_beckmann_dielectric_1_inf_valueERKjS1_S1_S1_S1_S1_, 
                       __ZN13PbrLutHelpers53compute_specific_btdf_beckmann_dielectric_value_1_infERKjS1_S1_S1_S1_S1_S1_, 
                       __ZN13PbrLutHelpers54generate_microfacet_refract_lut_ggx_correlated_TIR_0_1ERK10CoreString, 
                       __ZN13PbrLutHelpers55generate_microfacet_reflect_lut_beckmann_dielectric_0_1ERK10CoreString, 
                       __ZN13PbrLutHelpers55generate_microfacet_refract_lut_beckmann_dielectric_0_1ERK10CoreString, 
                       __ZN13PbrLutHelpers56generate_microfacet_refract_lut_ggx_correlated_TIR_1_infERK10CoreString, 
                       __ZN13PbrLutHelpers57compute_specific_brdf_ggx_correlated_dielectric_0_1_valueERKjS1_S1_S1_S1_S1_, 
                       __ZN13PbrLutHelpers57generate_microfacet_reflect_lut_beckmann_dielectric_1_infERK10CoreString, 
                       __ZN13PbrLutHelpers57generate_microfacet_refract_lut_beckmann_dielectric_1_infERK10CoreString, 
                       __ZN13PbrLutHelpers59compute_specific_brdf_ggx_correlated_dielectric_1_inf_valueERKjS1_S1_S1_S1_S1_, 
                       __ZN13PbrLutHelpers61generate_microfacet_reflect_lut_ggx_correlated_dielectric_0_1ERK10CoreString, 
                       __ZN13PbrLutHelpers63generate_microfacet_reflect_lut_ggx_correlated_dielectric_1_infERK10CoreString, 
                       __ZN13PbrLutManager12get_instanceEv, __ZN13PbrLutManager4initER5OfApp, 
                       __ZN13PbrLutManager7get_lutERK10CoreString, __ZN13PbrLutManagerD1Ev, 
                       __ZN13PbrLutManagerD2Ev, __ZN13PbrPathDepths30s_channel_index_to_depth_limitE, 
                       __ZN13PbrPathTracer12sample_bxdfsERK7CtxEvalR9CtxShaderR12CtxPbrShaderRK14CtxPbrSamplingRK10PbrSampler, 
                       __ZN13PbrPathTracer15sample_scattersERK7CtxEvalR9CtxShaderR12CtxPbrShaderRK14CtxPbrSamplingRK10PbrSampler, 
                       __ZN13PbrPathTracer16configure_lightsERK7CtxEvalR9CtxShaderR12CtxPbrShader, 
                       __ZN13PbrPathTracer19initialize_samplingERK7CtxEvalR9CtxShaderR12CtxPbrShader, 
                       __ZN13PbrPathTracer9integrateERK7CtxEvalR9CtxShaderR12CtxPbrShader, 
                       __ZN13PbrSasHelpers13sample_motionERK7CtxEvalR9CtxShaderRK14PbrLightConfigRK12PbrSasConfigR15PbrSasSampleCtx, 
                       __ZN13PbrSasHelpers13sample_staticERK7CtxEvalR9CtxShaderRK14PbrLightConfigRK12PbrSasConfigR15PbrSasSampleCtx, 
                       __ZN13PbrSasHelpers15evaluate_motionERK7CtxEvalRK9CtxShaderRK14PbrLightConfigRK12PbrSasConfigR17PbrSasEvaluateCtx, 
                       __ZN13PbrSasHelpers15evaluate_staticERK7CtxEvalRK9CtxShaderRK14PbrLightConfigRK12PbrSasConfigR17PbrSasEvaluateCtx, 
                       __ZN13PbrSasHelpers16ShadingPointData27s_channel_index_group_rangeE, 
                       __ZN13PbrSasHelpers16ShadingPointData9configureERK9CtxShaderRK9GMathVec3IdES7_PK10PbrScatter, 
                       __ZN13PbrSasHelpers16ray_scatter_initERK7CtxEvalR9CtxShaderR14PbrLightConfigRK12PbrSasConfigR15PbrSasSampleCtx, 
                       __ZN13PbrSasHelpers17get_object_bboxesER9CoreArrayI10CoreVectorIjEERS0_IjES6_S6_, 
                       __ZN13PbrSasHelpers19is_module_supportedEPK17ModuleSceneObject, 
                       __ZN13PbrSasHelpers21is_scene_object_lightEPK17ModuleSceneObjectRK14CoreBasicArrayIP14ModuleMaterialERjRKb, 
                       __ZN13PbrSasHelpers22get_resolved_materialsEPK17ModuleSceneObjectPK9CoreArrayI17ShadingGroupLinksEPK14ModuleMaterialRS3_IPS8_E, 
                       __ZN13PbrSasHelpers23get_is_sub_object_lightEPK17ModuleSceneObjectR9CoreArrayIbERjRKb, 
                       __ZN13PbrSasHelpers23update_sample_directionER9PbrSampleRK14GMathMatrix4x4IdLb1EE, 
                       __ZN13PbrSasHelpers27resolve_ray_switch_materialEP14ModuleMaterial, 
                       __ZN13PbrSasHelpers27resolve_ray_switch_materialEPK14ModuleMaterial, 
                       __ZN13PbrSasHelpers28transform_spherical_harmonicERK20PbrSphericalFunctionILi2EfERK14GMathMatrix4x4IdLb1EERS1_, 
                       __ZN13PbrSasHelpers29set_nodes_parent_bbox_indicesEPK12PbrSasObjectRK14CoreBasicArrayIjER9CoreArrayIjE, 
                       __ZN13PbrSasHelpers39is_emission_importance_sampling_enabledEPK17ModuleSceneObject, 
                       __ZN13PbrSasHelpers4initERK25ModuleIntegratorSceneInfoR12PbrSasGlobalR11PbrSasLocal, 
                       __ZN13PointCloudMap5clearEv, __ZN13PointCloudMap6createERK7CtxEvalRK9CtxShaderRK11ModuleGroup, 
                       __ZN13PointCloudMapC1Ev, __ZN13PointCloudMapC2Ev, __ZN13PointCloudMapD1Ev, 
                       __ZN13PointCloudMapD2Ev, __ZN13SdsBezierMesh10class_infoEv, 
                       __ZN13ShaderHelpers13multi_raycastERK7CtxEvalR9CtxShaderR25ModuleWidgetRaycastOutputRK17ModuleWidgetQueryRKjSB_, 
                       __ZN13ShaderHelpers13shade_opacityER9GMathVec3IfERK7CtxEvalR9CtxShaderRK11CtxRaytraceRKjRKb, 
                       __ZN13ShaderHelpers15decimate_pointsER15OfObjectFactoryR10CoreVectorI9GMathVec3IdEERKdP13ModuleTextureRKj, 
                       __ZN13ShaderHelpers15ray_hit_nearestERK7CtxEvalR9CtxShaderR11CtxRaytraceRKb, 
                       __ZN13ShaderHelpers16raytrace_opacityEP9GMathVec3IfERK7CtxEvalR9CtxShaderR11CtxRaytraceRKbSB_, 
                       __ZN13ShaderHelpers16raytrace_opacityER9GMathVec3IfERK7CtxEvalR9CtxShaderRK8GMathRayIdERKdSD_RKb, 
                       __ZN13ShaderHelpers16resolve_materialERK7CtxEvalR20GeometryIntersectionRK21DefaultMaterialConfig, 
                       __ZN13ShaderHelpers17create_shader_ctxERK7CtxEvalR9CtxShaderRK16ModuleLayerScene, 
                       __ZN13ShaderHelpers17create_shader_ctxERK7CtxEvalR9CtxShaderRK17ModuleRenderScene, 
                       __ZN13ShaderHelpers18cleanup_shader_ctxER9CtxShader, __ZN13ShaderHelpers19compute_bump_normalER9GMathVec3IdERK7CtxEvalR9CtxShaderRK13ModuleTextureRKbRKdSC_, 
                       __ZN13ShaderHelpers22compute_reflection_rayERK7CtxEvalRK9CtxShaderR8GMathRayIdE, 
                       __ZN13ShaderHelpers22compute_refraction_rayERK7CtxEvalRK9CtxShaderRKdR8GMathRayIdE, 
                       __ZN13ShaderHelpers23compute_normal_from_mapER9GMathVec3IdERK7CtxEvalR9CtxShaderRK13ModuleTextureRKbRKdSC_, 
                       __ZN13ShaderHelpers23resolve_material_switchERK7CtxEvalR20GeometryIntersection, 
                       __ZN13ShaderHelpers24evaluate_support_textureERK18GeometryPointCloudRK13ModuleTextureR14CoreBasicArrayI9GMathVec4IfEEP16ModuleLayerSceneP14AppProgressBar, 
                       __ZN13ShaderHelpers24gas_leaf_ray_hit_nearestERK7CtxEvalR9CtxShaderR19GeometryRaytraceCtxPFvP11ModuleLightS2_S6_ERK14GMathMatrix4x4IdLb1EESE_RKjS8_, 
                       __ZN13ShaderHelpers24gas_leaf_ray_hit_nearestERK7CtxEvalR9CtxShaderR19GeometryRaytraceCtxPFvP17ModuleSceneObjectS2_S6_ERK14GMathMatrix4x4IdLb1EESE_RKjS8_P16GeometryOverride, 
                       __ZN13ShaderHelpers25evaluate_support_materialERK18GeometryPointCloudRK17CptModuleMaterialR14CoreBasicArrayI9GMathVec3IfEESA_P16ModuleLayerSceneP14AppProgressBar, 
                       __ZN13ShaderHelpers25evaluate_vertices_textureER14ModuleGeometryRK14CoreBasicArrayIjERK13ModuleTextureRS2_I9GMathVec4IfEEP16ModuleLayerSceneP14AppProgressBar, 
                       __ZN13ShaderHelpers31gas_leaf_ray_hit_nearest_motionERK7CtxEvalR9CtxShaderR19GeometryRaytraceCtxPFvP11ModuleLightS2_S6_ERK14CoreBasicArrayI14GMathMatrix4x4IdLb1EEERKjS8_, 
                       __ZN13ShaderHelpers31gas_leaf_ray_hit_nearest_motionERK7CtxEvalR9CtxShaderR19GeometryRaytraceCtxPFvP17ModuleSceneObjectS2_S6_ERK14CoreBasicArrayI14GMathMatrix4x4IdLb1EEERKjS8_P16GeometryOverride, 
                       __ZN13ShaderHelpers32filter_resolve_material_callbackERK7CtxEvalRK19GeometryRaytraceCtxRKjR20GeometryIntersectionRNS3_10FilterDataE, 
                       __ZN13ShaderHelpers38compute_reflection_and_refraction_raysERK7CtxEvalRK9CtxShaderRKdR8GMathRayIdESA_RdSB_, 
                       __ZN13ShaderHelpers5shadeER9GMathVec3IfES2_RK7CtxEvalR9CtxShaderRK11CtxRaytraceRKjRKb, 
                       __ZN13ShaderHelpers5shadeERK7CtxEvalR9CtxShaderR9GMathVec3IfES7_RKbS9_, 
                       __ZN13ShaderHelpers7ray_hitERK7CtxEvalR9CtxShaderR11CtxRaytraceRKb, 
                       __ZN13ShaderHelpers7ray_hitERK7CtxEvalR9CtxShaderRK8GMathRayIdERKdSA_, 
                       __ZN13ShaderHelpers7raycastER20GeometryIntersectionR8GMathRayIdERK7CtxEvalR9CtxShaderRKdSB_RKjSD_fPK10CoreVectorIP15ModuleSceneItemEbbb, 
                       __ZN13ShaderHelpers8raytraceEP9GMathVec3IfES2_RK7CtxEvalR9CtxShaderR11CtxRaytraceRKbSB_, 
                       __ZN13ShaderHelpers8raytraceER9GMathVec3IfES2_RK7CtxEvalR9CtxShaderRK8GMathRayIdERKdSD_RKb, 
                       __ZN13SysFileBuffer12set_positionERKx, __ZN13SysFileBuffer4skipERKx, 
                       __ZN13SysFileBufferC1ERK10CoreStringRKN7SysFile4ModeERKNS3_4TypeERKx, 
                       __ZN13SysFileBufferC1ERKx, __ZN13SysFileBufferC2ERK10CoreStringRKN7SysFile4ModeERKNS3_4TypeERKx, 
                       __ZN13SysFileBufferC2ERKx, __ZN13SysFileBufferD0Ev, __ZN13SysFileBufferD1Ev, 
                       __ZN13SysFileBufferD2Ev, __ZN13SysFilesystem10get_folderERK15CoreBasicString, 
                       __ZN13SysFilesystem11file_existsERK15CoreBasicString, __ZN13SysFilesystem11files_existERK14CoreBasicArrayI10CoreStringE, 
                       __ZN13SysFilesystem11format_pathER10CoreString, __ZN13SysFilesystem11get_foldersERK15CoreBasicStringbP10CoreVectorINS_16FileInformationsEE, 
                       __ZN13SysFilesystem11get_volumesEv, __ZN13SysFilesystem11is_absoluteERK15CoreBasicString, 
                       __ZN13SysFilesystem11is_relativeERK15CoreBasicString, __ZN13SysFilesystem11remove_fileERK15CoreBasicString, 
                       __ZN13SysFilesystem11rename_fileERK15CoreBasicStringS2_, __ZN13SysFilesystem12get_filenameERK15CoreBasicString, 
                       __ZN13SysFilesystem13create_folderERK15CoreBasicStringb, __ZN13SysFilesystem13folder_existsERK15CoreBasicString, 
                       __ZN13SysFilesystem13get_file_sizeERK15CoreBasicString, __ZN13SysFilesystem13remove_folderERK15CoreBasicStringb, 
                       __ZN13SysFilesystem13rename_folderERK15CoreBasicStringS2_, 
                       __ZN13SysFilesystem14get_file_ownerERK15CoreBasicString, __ZN13SysFilesystem15get_folder_sizeERK15CoreBasicString, 
                       __ZN13SysFilesystem15get_volume_nameERK15CoreBasicStringR10CoreString, 
                       __ZN13SysFilesystem15is_valid_folderERK15CoreBasicString, 
                       __ZN13SysFilesystem16is_file_writableERK15CoreBasicString, 
                       __ZN13SysFilesystem17get_absolute_pathERK15CoreBasicString, 
                       __ZN13SysFilesystem17make_windows_pathER10CoreString, __ZN13SysFilesystem18get_file_extensionERK15CoreBasicString, 
                       __ZN13SysFilesystem18get_full_file_pathERK15CoreBasicString, 
                       __ZN13SysFilesystem18is_folder_writableERK15CoreBasicString, 
                       __ZN13SysFilesystem20check_file_extensionERK15CoreBasicStringRK14CoreBasicArrayI10CoreStringEb, 
                       __ZN13SysFilesystem20check_file_extensionERK15CoreBasicStringS2_b, 
                       __ZN13SysFilesystem20create_unique_folderER10CoreStringRK15CoreBasicStringS4_b, 
                       __ZN13SysFilesystem20get_file_access_timeERK15CoreBasicStringRl, 
                       __ZN13SysFilesystem20get_file_informationERK15CoreBasicStringPNS_16FileInformationsE, 
                       __ZN13SysFilesystem20get_folder_separatorEv, __ZN13SysFilesystem20windows_path_to_unixER10CoreString, 
                       __ZN13SysFilesystem21check_files_extensionERK14CoreBasicArrayI10CoreStringERK15CoreBasicStringb, 
                       __ZN13SysFilesystem21check_files_extensionERK14CoreBasicArrayI10CoreStringES4_b, 
                       __ZN13SysFilesystem22get_file_creation_timeERK15CoreBasicStringRl, 
                       __ZN13SysFilesystem22make_windows_long_pathER10CoreString, 
                       __ZN13SysFilesystem23format_path_to_platformER10CoreString, 
                       __ZN13SysFilesystem26get_file_modification_timeERK15CoreBasicStringRl, 
                       __ZN13SysFilesystem30get_filename_without_extensionERK15CoreBasicString, 
                       __ZN13SysFilesystem9get_filesERK15CoreBasicStringbP10CoreVectorINS_16FileInformationsEE, 
                       __ZN13SysLoggerFile12print_headerERK10CoreString, __ZN13SysLoggerFile12stop_loggingEv, 
                       __ZN13SysLoggerFile13start_loggingEv, __ZN13SysLoggerFile17set_log_file_pathERK10CoreString, 
                       __ZN13SysLoggerFile19set_log_file_policyERKj, __ZN13SysLoggerFile22set_logging_is_enabledERKb, 
                       __ZN13SysLoggerFile22set_specified_log_fileERK10CoreString, 
                       __ZN13SysLoggerFile27get_log_file_policy_ui_nameERKNS_13LogFilePolicyE, 
                       __ZN13SysLoggerFile6outputERK14CoreLogMessage, __ZN13SysLoggerFile8activateEv, 
                       __ZN13SysLoggerFileC1Ev, __ZN13SysLoggerFileC2Ev, __ZN13SysLoggerFileD0Ev, 
                       __ZN13SysLoggerFileD1Ev, __ZN13SysLoggerFileD2Ev, __ZN13SysSocketBase10class_infoEv, 
                       __ZN13SysSocketBase12get_hostnameEv, __ZN13SysSocketBase12set_no_delayERKb, 
                       __ZN13SysSocketBase14get_error_nameERKNS_5ErrorE, __ZN13SysSocketBase20get_hostname_from_ipERK10CoreStringRS0_, 
                       __ZN13SysSocketBase4readEPvRKm, __ZN13SysSocketBase5closeEv, 
                       __ZN13SysSocketBase5writeEPvRKm, __ZN13SysSocketBaseC1ERKS_, 
                       __ZN13SysSocketBaseC1Ev, __ZN13SysSocketBaseC2ERKS_, __ZN13SysSocketBaseC2Ev, 
                       __ZN13SysSocketBaseD0Ev, __ZN13SysSocketBaseD1Ev, __ZN13SysSocketBaseD2Ev, 
                       __ZN13SysThreadImpl11entry_pointEPv, __ZN13SysThreadImplC1Ev, 
                       __ZN13SysThreadImplC2Ev, __ZN13SysThreadImplD1Ev, __ZN13SysThreadImplD2Ev, 
                       __ZN13SysThreadLock4lockERKN17SysThreadLockBase8DurationE, 
                       __ZN13SysThreadLock6unlockEv, __ZN13SysThreadLock8try_lockERKN17SysThreadLockBase8DurationE, 
                       __ZN13SysThreadPool10class_infoEv, __ZN13SysThreadPool20wait_until_completedEv, 
                       __ZN13SysThreadPool3addER17SysThreadPoolTaskRKbS3_, __ZN13SysThreadPool8shutdownEv, 
                       __ZN13SysThreadPoolC1ERKj, __ZN13SysThreadPoolC2ERKj, __ZN13SysThreadPoolD0Ev, 
                       __ZN13SysThreadPoolD1Ev, __ZN13SysThreadPoolD2Ev, __ZN13SysThreadTask10class_infoEv, 
                       __ZN13TubeMeshFixed10class_infoEv, __ZN13TubeMeshFixed3setERK9CurveMeshRK10CoreVectorIjERKdRKj, 
                       __ZN13TubeMeshFixed3setERK9CurveMeshRKdRKj, __ZN13TubeMeshFixedC1ERKS_, 
                       __ZN13TubeMeshFixedC1ERKS_RK9CurveMesh, __ZN13TubeMeshFixedC2ERKS_, 
                       __ZN13TubeMeshFixedC2ERKS_RK9CurveMesh, __ZN13TubeMeshFixedD0Ev, 
                       __ZN13TubeMeshFixedD1Ev, __ZN13TubeMeshFixedD2Ev, __ZN13VolumeOpenvdb11dilate_gridERKjR7AppBase, 
                       __ZN13VolumeOpenvdb13bake_geometryERK10CoreStringRK14GeometryObjectRKdS7_PK14GMathMatrix4x4IdLb1EESB_, 
                       __ZN13VolumeOpenvdb14create_mipmapsERKjR7AppBaseS1_bb, __ZN13VolumeOpenvdb18create_thread_dataEv, 
                       __ZN13VolumeOpenvdb18extract_grid_xformENSt3__110shared_ptrIN7openvdb9v12_1aapl8GridBaseEEE, 
                       __ZN13VolumeOpenvdb19destroy_thread_dataEP23VolumeOpenvdbThreadData, 
                       __ZN13VolumeOpenvdb5clearEv, __ZN13VolumeOpenvdb8load_vdbEPKcRKb, 
                       __ZN13VolumeOpenvdb9get_xformERK14GMathMatrix4x4IdLb1EE, __ZN13VolumeOpenvdbC1ERKbS1_RKj, 
                       __ZN13VolumeOpenvdbC2ERKbS1_RKj, __ZN13VolumeOpenvdbD1Ev, 
                       __ZN13VolumeOpenvdbD2Ev, __ZN13VolumeSurface10class_infoEv, 
                       __ZN13VolumeSurface11set_densityERKd, __ZN13VolumeSurface11set_surfaceEP17ModuleSceneObject, 
                       __ZN13VolumeSurface18create_thread_dataEv, __ZN13VolumeSurface19destroy_thread_dataEPv, 
                       __ZN13VolumeSurface20set_raytrace_qualityERKN8GMathRayIdE4TypeERKd, 
                       __ZN13VolumeSurface20set_raytrace_qualityERKd, __ZN13VolumeSurface21set_min_raytrace_stepERKd, 
                       __ZN13VolumeSurface23set_ray_diff_multiplierERKN8GMathRayIdE4TypeERKd, 
                       __ZN13VolumeSurface23set_ray_diff_multiplierERKd, __ZN13VolumeSurface25set_raytrace_sample_countERKj, 
                       __ZN13VolumeSurfaceC1Ev, __ZN13VolumeSurfaceC2Ev, __ZN13VolumeSurfaceD0Ev, 
                       __ZN13VolumeSurfaceD1Ev, __ZN13VolumeSurfaceD2Ev, __ZN14AnnotationData12getCreatedAtERKN32pxrInternal__aapl__pxrReserved__7UsdPrimE, 
                       __ZN14AnnotationData12setCreatedAtERKN32pxrInternal__aapl__pxrReserved__7UsdPrimEP6NSDate, 
                       __ZN14AnnotationData13getIdentifierERKN32pxrInternal__aapl__pxrReserved__7UsdPrimE, 
                       __ZN14AnnotationData13getModifiedAtERKN32pxrInternal__aapl__pxrReserved__7UsdPrimE, 
                       __ZN14AnnotationData13setIdentifierERKN32pxrInternal__aapl__pxrReserved__7UsdPrimERKNSt3__112basic_stringIcNS4_11char_traitsIcEENS4_9allocatorIcEEEE, 
                       __ZN14AnnotationData13setModifiedAtERKN32pxrInternal__aapl__pxrReserved__7UsdPrimEP6NSDate, 
                       __ZN14AnnotationData16getWorldPositionERKN32pxrInternal__aapl__pxrReserved__7UsdPrimERKNS0_11UsdTimeCodeE, 
                       __ZN14AnnotationData16getWorldPositionERKN32pxrInternal__aapl__pxrReserved__7UsdPrimERNS0_17UsdGeomXformCacheE, 
                       __ZN14AnnotationData16isAnnotationPrimERKN32pxrInternal__aapl__pxrReserved__7UsdPrimEb, 
                       __ZN14AnnotationData16setWorldPositionERKN32pxrInternal__aapl__pxrReserved__7UsdPrimERKNS0_7GfVec3dERKNS0_11UsdTimeCodeE, 
                       __ZN14AnnotationData16setWorldPositionERKN32pxrInternal__aapl__pxrReserved__7UsdPrimERKNS0_7GfVec3dERNS0_17UsdGeomXformCacheE, 
                       __ZN14AnnotationData18getAnnotationPrimsERKN32pxrInternal__aapl__pxrReserved__9TfWeakPtrINS0_8UsdStageEEE, 
                       __ZN14AnnotationData25convertToPastelTonedColorERKN32pxrInternal__aapl__pxrReserved__7GfVec3fE, 
                       __ZN14AnnotationData27createDefaultAnnotationPrimERKN32pxrInternal__aapl__pxrReserved__9TfWeakPtrINS0_8UsdStageEEENS0_7UsdPrimE, 
                       __ZN14AnnotationData7getTextERKN32pxrInternal__aapl__pxrReserved__7UsdPrimE, 
                       __ZN14AnnotationData7setTextERKN32pxrInternal__aapl__pxrReserved__7UsdPrimERKNSt3__112basic_stringIcNS4_11char_traitsIcEENS4_9allocatorIcEEEE, 
                       __ZN14AnnotationData8getColorERKN32pxrInternal__aapl__pxrReserved__7UsdPrimEb, 
                       __ZN14AnnotationData8getTitleERKN32pxrInternal__aapl__pxrReserved__7UsdPrimE, 
                       __ZN14AnnotationData8setColorERKN32pxrInternal__aapl__pxrReserved__7UsdPrimERKNS0_7GfVec3fE, 
                       __ZN14AnnotationData8setTitleERKN32pxrInternal__aapl__pxrReserved__7UsdPrimERKNSt3__112basic_stringIcNS4_11char_traitsIcEENS4_9allocatorIcEEEE, 
                       __ZN14AnnotationData9getAuthorERKN32pxrInternal__aapl__pxrReserved__7UsdPrimE, 
                       __ZN14AnnotationData9getEditorERKN32pxrInternal__aapl__pxrReserved__7UsdPrimE, 
                       __ZN14AnnotationData9setAuthorERKN32pxrInternal__aapl__pxrReserved__7UsdPrimERKNSt3__112basic_stringIcNS4_11char_traitsIcEENS4_9allocatorIcEEEE, 
                       __ZN14AnnotationData9setEditorERKN32pxrInternal__aapl__pxrReserved__7UsdPrimERKNSt3__112basic_stringIcNS4_11char_traitsIcEENS4_9allocatorIcEEEE, 
                       __ZN14AppBasePrivate22get_application_key_idEv, __ZN14AppBasePrivateC1Ev, 
                       __ZN14AppBasePrivateC2Ev, __ZN14AppBasePrivateD1Ev, __ZN14AppBasePrivateD2Ev, 
                       __ZN14AppEvalManager10check_timeEv, __ZN14AppEvalManager10class_infoEv, 
                       __ZN14AppEvalManager13add_evaluatorER12AppEvaluatorRKN7AppBase16EvaluatorAddModeERKNS2_7EvalFpsE, 
                       __ZN14AppEvalManager13add_evaluatorER12AppEvaluatorRKN7AppBase16EvaluatorAddModeERKj, 
                       __ZN14AppEvalManager13add_evaluatorER12AppEvaluatorRKdRKN7AppBase7EvalFpsE, 
                       __ZN14AppEvalManager13add_evaluatorER12AppEvaluatorRKdRKj, 
                       __ZN14AppEvalManager13run_evaluatorER12AppEvaluator, __ZN14AppEvalManager15kill_evaluationEv, 
                       __ZN14AppEvalManager15stop_evaluationEb, __ZN14AppEvalManager16clear_evaluationEv, 
                       __ZN14AppEvalManager16remove_evaluatorER12AppEvaluator, __ZN14AppEvalManager16start_evaluationEv, 
                       __ZN14AppEvalManager17finish_evaluationEv, __ZN14AppEvalManager17run_evaluator_preER12AppEvaluator, 
                       __ZN14AppEvalManager18run_evaluator_postER12AppEvaluator, 
                       __ZN14AppEvalManager18run_evaluator_stopER12AppEvaluator, 
                       __ZN14AppEvalManager19continue_evaluationEv, __ZN14AppEvalManager20m_minimum_eval_timesE, 
                       __ZN14AppEvalManager25call_protection_callbacksEv, __ZN14AppEvalManagerC1ER9AppObject, 
                       __ZN14AppEvalManagerC2ER9AppObject, __ZN14AppEvalManagerD0Ev, 
                       __ZN14AppEvalManagerD1Ev, __ZN14AppEvalManagerD2Ev, __ZN14AppLicenseDesc13get_type_nameERKj, 
                       __ZN14AppPreferences10add_doubleERK10CoreStringS2_RKdS2_PFbR9AppObjectRS_S0_S0_PvESA_S2_S8_, 
                       __ZN14AppPreferences10add_stringERK10CoreStringS2_S2_PFbR9AppObjectRS_S0_S0_PvES8_S2_S6_, 
                       __ZN14AppPreferences10set_hiddenERK10CoreStringS2_RKb, __ZN14AppPreferences10sync_prefsER9AppObjectRKNS_4ModeES4_RK10CoreString, 
                       __ZN14AppPreferences11remove_itemERK10CoreStringS2_, __ZN14AppPreferences12add_categoryERK10CoreString, 
                       __ZN14AppPreferences12enable_rangeERK10CoreStringS2_RKb, __ZN14AppPreferences12get_categoryERK10CoreString, 
                       __ZN14AppPreferences12remove_itemsERK10CoreStringS2_, __ZN14AppPreferences12set_saveableERK10CoreStringS2_RKb, 
                       __ZN14AppPreferences13add_open_fileERK10CoreStringS2_S2_PFbR9AppObjectRS_S0_S0_PvES8_S2_S6_, 
                       __ZN14AppPreferences13add_save_fileERK10CoreStringS2_S2_PFbR9AppObjectRS_S0_S0_PvES8_S2_S6_, 
                       __ZN14AppPreferences13get_mode_nameERKNS_4ModeE, __ZN14AppPreferences13set_read_onlyERK10CoreStringS2_RKb, 
                       __ZN14AppPreferences14set_bool_valueERK10CoreStringS2_RKb, 
                       __ZN14AppPreferences14set_long_valueERK10CoreStringS2_RKl, 
                       __ZN14AppPreferences14set_rgba_valueERK10CoreStringS2_RK9GMathVec4IdE, 
                       __ZN14AppPreferences15add_open_folderERK10CoreStringS2_S2_PFbR9AppObjectRS_S0_S0_PvES8_S2_S6_, 
                       __ZN14AppPreferences15enable_ui_rangeERK10CoreStringS2_RKb, 
                       __ZN14AppPreferences15remove_categoryERK10CoreStringRKb, __ZN14AppPreferences15set_color_valueERK10CoreStringS2_RKdRKj, 
                       __ZN14AppPreferences15set_vec2d_valueERK10CoreStringS2_RK9GMathVec2IdE, 
                       __ZN14AppPreferences16add_preset_valueERK10CoreStringS2_S2_S2_, 
                       __ZN14AppPreferences16set_double_valueERK10CoreStringS2_RKd, 
                       __ZN14AppPreferences16set_preset_valueERK10CoreStringS2_RKj, 
                       __ZN14AppPreferences16set_preset_valueERK10CoreStringS2_S2_, 
                       __ZN14AppPreferences16set_string_valueERK10CoreStringS2_S2_, 
                       __ZN14AppPreferences17set_numeric_rangeERK10CoreStringS2_RKdS4_, 
                       __ZN14AppPreferences18remove_all_presetsERK10CoreStringS2_, 
                       __ZN14AppPreferences19add_value_validatorERK10CoreStringS2_PFvRK6OfAttrRS0_PvES7_, 
                       __ZN14AppPreferences19add_value_validatorERK10CoreStringS2_PFvRK6OfAttrRbPvES7_, 
                       __ZN14AppPreferences19add_value_validatorERK10CoreStringS2_PFvRK6OfAttrRdPvES7_, 
                       __ZN14AppPreferences19add_value_validatorERK10CoreStringS2_PFvRK6OfAttrRlPvES7_, 
                       __ZN14AppPreferences19get_value_type_nameERKNS_9ValueTypeE, 
                       __ZN14AppPreferences19remove_all_categoryERKb, __ZN14AppPreferences20connect_attrs_changeEP8OfObjectPFbR9AppObjectRS_10CoreStringS5_PvES6_, 
                       __ZN14AppPreferences20connect_attrs_changeERK10CoreStringPFbR9AppObjectRS_S0_S0_PvES6_, 
                       __ZN14AppPreferences20get_color_depth_nameERKNS_10ColorDepthE, 
                       __ZN14AppPreferences20set_numeric_ui_rangeERK10CoreStringS2_RKdS4_, 
                       __ZN14AppPreferences23disconnect_attrs_changeEP8OfObjectPFbR9AppObjectRS_10CoreStringS5_PvES6_, 
                       __ZN14AppPreferences23disconnect_attrs_changeERK10CoreStringPFbR9AppObjectRS_S0_S0_PvES6_, 
                       __ZN14AppPreferences23set_filename_extensionsERK10CoreStringS2_RK10CoreVectorIS0_E, 
                       __ZN14AppPreferences25on_prefs_attribute_changeER8OfObjectRKN11EventObject9EventInfoEPv, 
                       __ZN14AppPreferences27call_prefs_attribute_changeE10CoreStringS0_PK6OfAttr, 
                       __ZN14AppPreferences27get_attr_category_from_varsERK10CoreString, 
                       __ZN14AppPreferences29get_object_category_from_varsERK10CoreStringRKb, 
                       __ZN14AppPreferences30update_class_resolution_presetERK10CoreStringS2_S2_S2_S2_, 
                       __ZN14AppPreferences31update_object_resolution_presetER6OfAttrS1_S1_, 
                       __ZN14AppPreferences5awakeEv, __ZN14AppPreferences6asleepEv, 
                       __ZN14AppPreferences7set_docERK10CoreStringS2_S2_, __ZN14AppPreferences8add_boolERK10CoreStringS2_RKbPFbR9AppObjectRS_S0_S0_PvESA_S2_S8_, 
                       __ZN14AppPreferences8add_longERK10CoreStringS2_RKlS2_PFbR9AppObjectRS_S0_S0_PvESA_S2_S8_, 
                       __ZN14AppPreferences8get_itemERK10CoreStringS2_, __ZN14AppPreferences9add_colorERK10CoreStringS2_RKNS_10ColorDepthEPFbR9AppObjectRS_S0_S0_PvESB_S2_S9_, 
                       __ZN14AppPreferences9add_vec2dERK10CoreStringS2_RK9GMathVec2IdES2_PFbR9AppObjectRS_S0_S0_PvESC_S2_SA_, 
                       __ZN14AppPreferencesC1ER9AppObjectRKNS_4ModeE, __ZN14AppPreferencesC2ER9AppObjectRKNS_4ModeE, 
                       __ZN14AppProgressBar10begin_taskERK10CoreStringRKfRKb, __ZN14AppProgressBar10class_infoEv, 
                       __ZN14AppProgressBar13check_contextEv, __ZN14AppProgressBar5abortEv, 
                       __ZN14AppProgressBar5startEv, __ZN14AppProgressBar6finishEv, 
                       __ZN14AppProgressBar8end_taskEv, __ZN14AppProgressBarC1ER7AppBaseRK10CoreStringRKbS6_, 
                       __ZN14AppProgressBarC2ER7AppBaseRK10CoreStringRKbS6_, __ZN14AppProgressBarD1Ev, 
                       __ZN14AppProgressBarD2Ev, __ZN14ColorIOManager10s_instanceE, 
                       __ZN14ColorIOManager11load_configEP11ParserEntry, __ZN14ColorIOManager11save_configEP11ParserEntry, 
                       __ZN14ColorIOManager11static_initEP5OfApp, __ZN14ColorIOManager13get_role_nameERKNS_4RoleE, 
                       __ZN14ColorIOManager16load_ocio_configEv, __ZN14ColorIOManager18set_current_configENSt3__110shared_ptrIKN16OpenColorIO_aapl6ConfigEEE, 
                       __ZN14ColorIOManager19set_clarisse_configERK10CoreVectorINS_13ColorSpaceDefEE, 
                       __ZN14ColorIOManager20validate_ocio_configENSt3__110shared_ptrIKN16OpenColorIO_aapl6ConfigEEE, 
                       __ZN14ColorIOManager21has_role_scene_linearENSt3__110shared_ptrIKN16OpenColorIO_aapl6ConfigEEE, 
                       __ZN14ColorIOManager22update_enums_and_listsEv, __ZN14ColorIOManager24update_role_color_spacesEv, 
                       __ZN14ColorIOManager26s_scene_linear_color_spaceEv, __ZN14ColorIOManager28init_default_clarisse_configEv, 
                       __ZN14ColorIOManager33get_role_scene_linear_color_spaceENSt3__110shared_ptrIKN16OpenColorIO_aapl6ConfigEEE, 
                       __ZN14ColorIOManager34add_custom_luts_to_clarisse_configERK10CoreVectorINS_13ColorSpaceDefEE, 
                       __ZN14ColorIOManager36update_scene_linear_color_space_nameEv, 
                       __ZN14ColorIOManager4initEv, __ZN14ColorIOManager7destroyEv, 
                       __ZN14ColorIOManagerC1EP5OfApp, __ZN14ColorIOManagerC2EP5OfApp, 
                       __ZN14ComponentProxy10class_infoEv, __ZN14CoreBaseObject10class_infoEv, 
                       __ZN14CoreCustomData10class_infoEv, __ZN14CoreCustomData15set_custom_dataEPvPKvm, 
                       __ZN14CoreCustomData18remove_custom_dataEPv, __ZN14CoreCustomData19get_custom_data_keyERK10CoreString, 
                       __ZN14CoreCustomData22remove_all_custom_dataEv, __ZN14CoreCustomDataC1ERKS_, 
                       __ZN14CoreCustomDataC1Ev, __ZN14CoreCustomDataC2ERKS_, __ZN14CoreCustomDataC2Ev, 
                       __ZN14CoreCustomDataD0Ev, __ZN14CoreCustomDataD1Ev, __ZN14CoreCustomDataD2Ev, 
                       __ZN14CoreIndexArray10remove_allEv, __ZN14CoreIndexArray4initERKjS1_, 
                       __ZN14CoreIndexArray6resizeERKj, __ZN14CoreIndexArray9copy_fromEPKjRS0_, 
                       __ZN14CoreIndexArray9copy_fromEPKjRS0_S2_, __ZN14CoreIndexArray9copy_fromERK14CoreBasicArrayIjE, 
                       __ZN14CoreIndexArray9copy_fromERK14CoreBasicArrayIjERKj, __ZN14CoreIndexArray9copy_fromERKS_, 
                       __ZN14CoreIndexArrayC1ERKS_, __ZN14CoreIndexArrayC1ERKjS1_, 
                       __ZN14CoreIndexArrayC2ERKS_, __ZN14CoreIndexArrayC2ERKjS1_, 
                       __ZN14CoreIndexArrayD1Ev, __ZN14CoreIndexArrayD2Ev, __ZN14CoreIndexArrayaSERKS_, 
                       __ZN14CoreLogHandler10add_indentEi, __ZN14CoreLogHandler10class_infoEv, 
                       __ZN14CoreLogHandler10set_indentEi, __ZN14CoreLogHandler10set_loggerER10CoreLogger, 
                       __ZN14CoreLogHandler17register_categoryERK15CoreBasicString, 
                       __ZN14CoreLogHandler3logEiRK13CoreLogStreamRK15CoreBasicString, 
                       __ZN14CoreLogHandlerC1Ev, __ZN14CoreLogHandlerC2Ev, __ZN14CoreLogHandlerD0Ev, 
                       __ZN14CoreLogHandlerD1Ev, __ZN14CoreLogHandlerD2Ev, __ZN14CoreLogMessage10class_infoEv, 
                       __ZN14CoreNameServer10class_infoEv, __ZN14CoreNameServer10split_nameERK10CoreStringRS0_Ri, 
                       __ZN14CoreNameServer11make_uniqueER10CoreString, __ZN14CoreNameServer5clearEv, 
                       __ZN14CtxSceneObject4initERK19GeometryRaytraceCtx, __ZN14CtxSceneObject4initERK19GeometryRaytraceCtxRKiS4_, 
                       __ZN14CtxSceneObjectC1ERKS_, __ZN14CtxSceneObjectC1Ev, __ZN14CtxSceneObjectC2ERKS_, 
                       __ZN14CtxSceneObjectC2Ev, __ZN14CtxSceneObjectD1Ev, __ZN14CtxSceneObjectD2Ev, 
                       __ZN14CtxSceneObjectaSERKS_, __ZN14CurveMeshUvMap4initERK17CurveMeshTopologyRK13GeometryUvMap, 
                       __ZN14GMathMatrix3x3IdLb1EE10class_infoEv, __ZN14GMathMatrix3x3IfLb1EE10class_infoEv, 
                       __ZN14GMathMatrix4x4IdLb0EE10class_infoEv, __ZN14GMathMatrix4x4IdLb1EE10class_infoEv, 
                       __ZN14GMathMatrix4x4IfLb0EE10class_infoEv, __ZN14GMathMatrix4x4IfLb1EE10class_infoEv, 
                       __ZN14GMathTransform10class_infoEv, __ZN14GMathTransform11interpolateER14GMathMatrix4x4IdLb1EERKS_S4_d, 
                       __ZN14GMathTransform11interpolateERS_RKS_S2_d, __ZN14GMathTransform17set_global_matrixERK14GMathMatrix4x4IdLb1EE, 
                       __ZN14GMathTransform19inplace_set_scalingERK9GMathVec3IdE, 
                       __ZN14GMathTransform20inplace_set_rotationERK14GMathMatrix4x4IdLb1EE, 
                       __ZN14GMathTransform20inplace_set_rotationERK9GMathVec3IdE, 
                       __ZN14GMathTransform23inplace_set_translationERK9GMathVec3IdE, 
                       __ZN14GMathTransform25inplace_set_scaling_pivotERK9GMathVec3IdE, 
                       __ZN14GMathTransform26inplace_set_rotation_pivotERK9GMathVec3IdE, 
                       __ZN14GMathTransform26inplace_set_scaling_offsetERK9GMathVec3IdE, 
                       __ZN14GMathTransform27inplace_reset_scaling_pivotEv, __ZN14GMathTransform27inplace_set_rotation_offsetERK14GMathMatrix4x4IdLb1EE, 
                       __ZN14GMathTransform27inplace_set_rotation_offsetERK9GMathVec3IdE, 
                       __ZN14GMathTransform28inplace_reset_rotation_pivotEv, __ZN14GMathTransform30inplace_set_translation_offsetERK9GMathVec3IdE, 
                       __ZN14GMathTransform32inplace_set_global_scaling_pivotERK9GMathVec3IdE, 
                       __ZN14GMathTransform33inplace_set_global_rotation_pivotERK9GMathVec3IdE, 
                       __ZN14GMathTransform42inplace_set_global_scaling_pivot_with_careERK9GMathVec3IdEs, 
                       __ZN14GMathTransform43inplace_set_global_rotation_pivot_with_careERK9GMathVec3IdEs, 
                       __ZN14GasClusterable10class_infoEv, __ZN14GasObjectEmpty7get_gasEv, 
                       __ZN14GasObjectEmptyC1Ev, __ZN14GasObjectEmptyC2Ev, __ZN14GasTreeSampler23compute_projected_areasERK7GasTreeRK9CoreArrayI20PbrSphericalFunctionILi2EfEERS6_RjP14AppProgressBarRKj, 
                       __ZN14GasTreeSampler4drawER8CtxDebugRK7GasTreeRK14GMathMatrix4x4IdLb1EERKjRK9GMathVec3IdESA_, 
                       __ZN14GasTreeSampler9get_pathsERK7GasTreeR9CoreArrayIxEP14AppProgressBar, 
                       __ZN14GeometryObject10class_infoEv, __ZN14GeometryObject15set_point_cloudERK18GeometryPointCloudP14AppProgressBar, 
                       __ZN14GeometryObjectC2ERKS_, __ZN14GeometryObjectC2Ev, __ZN14GeometryObjectD0Ev, 
                       __ZN14GeometryObjectD1Ev, __ZN14GeometryObjectD2Ev, __ZN14GeometrySample10class_infoEv, 
                       __ZN14GeometrySample10init_pointERK9GMathVec3IdE, __ZN14GeometrySample10init_pointERK9GMathVec3IdES3_RKb, 
                       __ZN14GeometrySample10init_pointERK9GMathVec3IdES3_S3_S3_RKb, 
                       __ZN14GeometrySample12init_surfaceERK9GMathVec3IdES3_S3_S3_S3_, 
                       __ZN14GeometrySample12init_surfaceERK9GMathVec3IdES3_S3_S3_S3_S3_, 
                       __ZN14GeometrySample12set_positionERK9GMathVec3IdE, __ZN14GeometrySample13set_smoothingERK9GMathVec3IdES3_S3_S3_, 
                       __ZN14GeometrySample13set_smoothingERK9GMathVec3IdES3_S3_S3_S3_, 
                       __ZN14GeometrySample18init_surface_pointERK9GMathVec3IdES3_S3_S3_S3_S3_, 
                       __ZN14GeometrySample18set_shading_normalERK9GMathVec3IdE, 
                       __ZN14GeometrySample21set_smoothed_positionERK9GMathVec3IdE, 
                       __ZN14GeometrySample21set_sub_differentialsERK9GMathVec3IdES3_, 
                       __ZN14GeometrySample22set_geometric_positionERK9GMathVec3IdE, 
                       __ZN14GeometrySample25set_geometric_position_dtERK9GMathVec3IdE, 
                       __ZN14GeometrySample9normalizeEv, __ZN14GeometrySample9transformERK14GMathMatrix4x4IdLb1EEPS2_, 
                       __ZN14GeometrySample9transformERKS_RK14GMathMatrix4x4IdLb1EEPS4_, 
                       __ZN14GeometrySphere10class_infoEv, __ZN14GeometrySphere10set_radiusERKf, 
                       __ZN14GeometrySphereC1ERKfN17GeometryPrimitive9SideFlagsE, 
                       __ZN14GeometrySphereC2ERKfN17GeometryPrimitive9SideFlagsE, 
                       __ZN14GeometrySquare10class_infoEv, __ZN14GeometrySquare9set_scaleEd, 
                       __ZN14GeometrySquareC1ERKN17GeometryPrimitive9SideFlagsE, 
                       __ZN14GeometrySquareC2ERKN17GeometryPrimitive9SideFlagsE, 
                       __ZN14GeometryUvBake12set_polymeshERK7CtxEvalP17ModuleSceneObjectRKjPK12ResourceDataS6_, 
                       __ZN14GeometryUvBake16set_displacementERK7CtxEvalPK10MeshUvBakeP14AppProgressBar, 
                       __ZN14HdAppleRTField4SyncEPN32pxrInternal__aapl__pxrReserved__15HdSceneDelegateEPNS0_13HdRenderParamEPj, 
                       __ZN14HdAppleRTField8FinalizeEPN32pxrInternal__aapl__pxrReserved__13HdRenderParamE, 
                       __ZN14HdAppleRTFieldC1ERKN32pxrInternal__aapl__pxrReserved__7SdfPathE, 
                       __ZN14HdAppleRTFieldC2ERKN32pxrInternal__aapl__pxrReserved__7SdfPathE, 
                       __ZN14HdAppleRTFieldD0Ev, __ZN14HdAppleRTFieldD1Ev, __ZN14HdAppleRTFieldD2Ev, 
                       __ZN14HdAppleRTLight11sync_portalEP8OfObjectRK15HdAppleRTPortalRK10CoreString, 
                       __ZN14HdAppleRTLight13create_objectERN32pxrInternal__aapl__pxrReserved__13HdRenderIndexE, 
                       __ZN14HdAppleRTLight14register_classER5OfApp, __ZN14HdAppleRTLight14sync_main_implERN32pxrInternal__aapl__pxrReserved__13HdRenderIndexERKjP8OfObjectNS_9LightTypeEb, 
                       __ZN14HdAppleRTLight16bake_sky_textureEv, __ZN14HdAppleRTLight16get_model_matrixEdR14GMathMatrix4x4IdLb1EE, 
                       __ZN14HdAppleRTLight20register_shape_lightER5OfAppNS_9LightTypeE, 
                       __ZN14HdAppleRTLight23register_infinite_lightER5OfAppNS_9LightTypeE, 
                       __ZN14HdAppleRTLight4SyncEPN32pxrInternal__aapl__pxrReserved__15HdSceneDelegateEPNS0_13HdRenderParamEPj, 
                       __ZN14HdAppleRTLight8FinalizeEPN32pxrInternal__aapl__pxrReserved__13HdRenderParamE, 
                       __ZN14HdAppleRTLight9get_lightEP8OfObject, __ZN14HdAppleRTLight9sync_mainERN32pxrInternal__aapl__pxrReserved__13HdRenderIndexERKj, 
                       __ZN14HdAppleRTLightC1EOS_RKN32pxrInternal__aapl__pxrReserved__7SdfPathENS_9LightTypeE, 
                       __ZN14HdAppleRTLightC1ERKN32pxrInternal__aapl__pxrReserved__7SdfPathENS_9LightTypeE, 
                       __ZN14HdAppleRTLightC2EOS_RKN32pxrInternal__aapl__pxrReserved__7SdfPathENS_9LightTypeE, 
                       __ZN14HdAppleRTLightC2ERKN32pxrInternal__aapl__pxrReserved__7SdfPathENS_9LightTypeE, 
                       __ZN14HdAppleRTLightD0Ev, __ZN14HdAppleRTLightD1Ev, __ZN14HdAppleRTLightD2Ev, 
                       __ZN14HdAppleRTUtils11get_prim_idEPK8OfObject, __ZN14HdAppleRTUtils11set_prim_idEP8OfObjectj, 
                       __ZN14HdAppleRTUtils14get_light_primERKN32pxrInternal__aapl__pxrReserved__13HdRenderIndexERKNS0_7SdfPathE, 
                       __ZN14HdAppleRTUtils15assign_materialERKN32pxrInternal__aapl__pxrReserved__13HdRenderIndexERK14CoreBasicArrayINS0_7SdfPathEEP14ModuleGeometryi, 
                       __ZN14HdAppleRTUtils15get_camera_primERKN32pxrInternal__aapl__pxrReserved__13HdRenderIndexERKNS0_7SdfPathE, 
                       __ZN14HdAppleRTUtils16get_prim_objectsERKN32pxrInternal__aapl__pxrReserved__13HdRenderIndexERKNS0_7SdfPathE, 
                       __ZN14HdAppleRTUtils19assign_displacementERKN32pxrInternal__aapl__pxrReserved__13HdRenderIndexERK14CoreBasicArrayINS0_7SdfPathEEP14ModuleGeometryi, 
                       __ZN14HdAppleRTUtils19get_render_var_primERKN32pxrInternal__aapl__pxrReserved__13HdRenderIndexERKNS0_7SdfPathE, 
                       __ZN14HdAppleRTUtils20get_default_materialERKNS_13PrimitiveTypeE, 
                       __ZN14HdAppleRTUtils22get_first_relationshipERKN32pxrInternal__aapl__pxrReserved__15UsdRelationshipERKNS0_7TfTokenE, 
                       __ZN14HdAppleRTUtils24get_render_settings_primERKN32pxrInternal__aapl__pxrReserved__13HdRenderIndexERKNS0_7SdfPathE, 
                       __ZN14HdAppleRTUtils28initialize_default_materialsER5OfApp, 
                       __ZN14HdAppleRTUtils7convertERK14GMathMatrix4x4IdLb1EE, __ZN14HdAppleRTUtils7convertERKN32pxrInternal__aapl__pxrReserved__10GfMatrix4dE, 
                       __ZN14HdAppleRTUtils9get_sprimERKN32pxrInternal__aapl__pxrReserved__13HdRenderIndexERKNS0_7SdfPathERKNSt3__16vectorINS0_7TfTokenENS7_9allocatorIS9_EEEE, 
                       __ZN14HdMeshPropertyC1ERK8PolyMeshRKN16PolyMeshProperty4TypeERKN16ResourceProperty4TypeERKjSC_SC_RK10CoreStringRK17GMathTimeSamplingRKb, 
                       __ZN14HdMeshPropertyC2ERK8PolyMeshRKN16PolyMeshProperty4TypeERKN16ResourceProperty4TypeERKjSC_SC_RK10CoreStringRK17GMathTimeSamplingRKb, 
                       __ZN14HrpCurveHandle5buildEP11objc_objectPK14GeometryObjectbN3hrp10CurveBasisENS_4WrapE, 
                       __ZN14HrpLightHandle14set_ies_handleEP12HrpIesHandle, __ZN14HrpLightHandle16clear_ies_handleEv, 
                       __ZN14HrpLightHandle18set_texture_handleEP12HrpIblHandle, 
                       __ZN14HrpLightHandle20clear_texture_handleEv, __ZN14HrpLightHandle7releaseEv, 
                       __ZN14HrpLightHandle9materialsEPK8OfObjectbPvPPS0_S5_, __ZN14HrpVDBResource22create_property_handleEP11objc_objectPK16GeometryProperty, 
                       __ZN14HrpVDBResource6handleEv, __ZN14HrpVDBResourceC1Ev, __ZN14HrpVDBResourceC2Ev, 
                       __ZN14IlpdFileHelper17extractViewParamsEN4json9JsonValueERNS_4ViewE, 
                       __ZN14IlpdFileHelperC1ENSt3__112basic_stringIcNS0_11char_traitsIcEENS0_9allocatorIcEEEE, 
                       __ZN14IlpdFileHelperC2ENSt3__112basic_stringIcNS0_11char_traitsIcEENS0_9allocatorIcEEEE, 
                       __ZN14ImageIOOutputs12write_regionER16ImageEvalContextRK9GMathVec4IiE, 
                       __ZN14ImageIOTxCache10initializeER5OfApp, __ZN14ImageIOTxCache10is_enabledEv, 
                       __ZN14ImageIOTxCache10lock_filesEv, __ZN14ImageIOTxCache10lock_writeEv, 
                       __ZN14ImageIOTxCache11s_temp_pathEv, __ZN14ImageIOTxCache11s_user_pathEv, 
                       __ZN14ImageIOTxCache11set_enabledEb, __ZN14ImageIOTxCache11wait_for_txEN16OpenImageIO_v2_57ustringES1_, 
                       __ZN14ImageIOTxCache12s_write_listEv, __ZN14ImageIOTxCache12unlock_filesEv, 
                       __ZN14ImageIOTxCache12unlock_writeEv, __ZN14ImageIOTxCache13get_temp_pathEv, 
                       __ZN14ImageIOTxCache13get_user_pathEv, __ZN14ImageIOTxCache13get_verbosityEv, 
                       __ZN14ImageIOTxCache13invalidate_txEN16OpenImageIO_v2_57ustringE, 
                       __ZN14ImageIOTxCache13s_files_cacheEv, __ZN14ImageIOTxCache13set_user_pathERK15CoreBasicString, 
                       __ZN14ImageIOTxCache13set_verbosityENS_9VerbosityE, __ZN14ImageIOTxCache14get_files_lockEv, 
                       __ZN14ImageIOTxCache14get_tx_privateEP8SysAssetN16OpenImageIO_v2_57ustringERK15CoreBasicString, 
                       __ZN14ImageIOTxCache14get_write_lockEv, __ZN14ImageIOTxCache14is_initializedEv, 
                       __ZN14ImageIOTxCache14s_io_tx_streamE, __ZN14ImageIOTxCache15s_folders_cacheEv, 
                       __ZN14ImageIOTxCache5s_appE, __ZN14ImageIOTxCache6get_txEN16OpenImageIO_v2_57ustringE, 
                       __ZN14ImageIOTxCache7cleanupEb, __ZN14ImageIOTxCache8get_pathEv, 
                       __ZN14ImageIOTxCache8write_txEP8SysAssetN16OpenImageIO_v2_57ustringERK15CoreBasicStringS6_S3_RS3_, 
                       __ZN14ImageIOTxCache9GetTxTask15execution_entryERKj, __ZN14ImageIOTxCache9s_enabledE, 
                       __ZN14IxOptixManager11get_samplesEPK18GeometryPointCloudR20IxOptixMotionOptionsR10CoreVectorI21GeometryPositionArrayE, 
                       __ZN14IxOptixManager12execute_taskEP11OptixTask_tPS1_j, __ZN14IxOptixManager12get_instanceEv, 
                       __ZN14IxOptixManager12optix_launchEP15OptixPipeline_tP11CUstream_stymPK23OptixShaderBindingTablejjj, 
                       __ZN14IxOptixManager12use_cuda_p2pEv, __ZN14IxOptixManager13get_time_spanE20IxOptixMotionOptionsRfS1_, 
                       __ZN14IxOptixManager14destroy_moduleERP13OptixModule_t, __ZN14IxOptixManager14supports_optixEv, 
                       __ZN14IxOptixManager15create_denoiserEP20OptixDeviceContext_t22OptixDenoiserModelKindPK20OptixDenoiserOptionsPP15OptixDenoiser_t, 
                       __ZN14IxOptixManager15create_instanceER5OfApp, __ZN14IxOptixManager15create_pipelineERK10CoreVectorIP19OptixProgramGroup_tE, 
                       __ZN14IxOptixManager15get_cuda_streamEv, __ZN14IxOptixManager15invoke_denoiserEP15OptixDenoiser_tP11CUstream_stPK19OptixDenoiserParamsymPK23OptixDenoiserGuideLayerPK18OptixDenoiserLayerjjjym, 
                       __ZN14IxOptixManager16destroy_denoiserERP15OptixDenoiser_t, 
                       __ZN14IxOptixManager16destroy_instanceER11EventObjectRKNS0_9EventInfoEPv, 
                       __ZN14IxOptixManager16destroy_pipelineERP15OptixPipeline_t, 
                       __ZN14IxOptixManager16get_device_countEv, __ZN14IxOptixManager16get_time_samplesERK5OfAppNS_8TimeModeE20IxOptixMotionOptionsR9CoreArrayIdE, 
                       __ZN14IxOptixManager17get_optix_contextEv, __ZN14IxOptixManager19build_gas_from_meshEPP6float3jP5uint3j20IxOptixMotionOptionsRyR12NgCudaBuffer, 
                       __ZN14IxOptixManager20optix_denoiser_setupEP15OptixDenoiser_tP11CUstream_stjjymym, 
                       __ZN14IxOptixManager21destroy_program_groupERP19OptixProgramGroup_t, 
                       __ZN14IxOptixManager21is_denoiser_supportedEv, __ZN14IxOptixManager22create_module_from_ptxERK10CoreString, 
                       __ZN14IxOptixManager23build_gas_from_implicitEPP9OptixAabbjRyR12NgCudaBuffer, 
                       __ZN14IxOptixManager23get_cuda_current_deviceEv, __ZN14IxOptixManager24get_optix_motion_optionsE20IxOptixMotionOptions, 
                       __ZN14IxOptixManager25create_miss_program_groupERKP13OptixModule_tPKc, 
                       __ZN14IxOptixManager26compute_denoiser_intensityEP15OptixDenoiser_tP11CUstream_stPK12OptixImage2Dyym, 
                       __ZN14IxOptixManager27create_module_task_from_ptxERK10CoreStringRP13OptixModule_t, 
                       __ZN14IxOptixManager27create_raygen_program_groupERKP13OptixModule_tPKc, 
                       __ZN14IxOptixManager27triangulate_and_set_buffersEPK14GeometryObjectS2_R11CPUMeshDataR20IxOptixMotionOptionsR10CoreVectorIhERj, 
                       __ZN14IxOptixManager28build_acceleration_structureERK15OptixBuildInputRyR12NgCudaBufferPK20IxOptixMotionOptions, 
                       __ZN14IxOptixManager28optix_sbt_record_pack_headerEP19OptixProgramGroup_tPv, 
                       __ZN14IxOptixManager29create_callable_program_groupERKP13OptixModule_tPKcS5_, 
                       __ZN14IxOptixManager29create_hitgroup_program_groupERKP13OptixModule_tPKcS5_S5_, 
                       __ZN14IxOptixManager29update_acceleration_structureERK15OptixBuildInputRyR12NgCudaBufferPK20IxOptixMotionOptions, 
                       __ZN14IxOptixManager30create_fur_intersection_moduleEv, __ZN14IxOptixManager30create_transform_on_top_of_gasEyPKf20IxOptixMotionOptionsR12NgCudaBufferm, 
                       __ZN14IxOptixManager33compute_denoiser_memory_resourcesEP15OptixDenoiser_tjjP18OptixDenoiserSizes, 
                       __ZN14IxOptixManager33create_fur_hitgroup_program_groupERKP13OptixModule_tS3_PKcS5_, 
                       __ZN14IxOptixManager33get_optix_transform_size_in_bytesE20IxOptixMotionOptions, 
                       __ZN14IxOptixManager36get_cuda_current_device_total_memoryEv, 
                       __ZN14IxOptixManager37create_motion_transform_on_top_of_gasEyPKf20IxOptixMotionOptionsR12NgCudaBufferm, 
                       __ZN14IxOptixManager37create_static_transform_on_top_of_gasEyPKf20IxOptixMotionOptionsR12NgCudaBufferm, 
                       __ZN14IxOptixManager7is_initEv, __ZN14IxOptixManagerC1ER5OfApp, 
                       __ZN14IxOptixManagerC2ER5OfApp, __ZN14IxOptixManagerD0Ev, 
                       __ZN14IxOptixManagerD1Ev, __ZN14IxOptixManagerD2Ev, __ZN14LpeAccumulator10accumulateERK9GMathVec3IfEPK8LpeEventRKj, 
                       __ZN14LpeAccumulator10pop_factorEv, __ZN14LpeAccumulator11push_factorERK9GMathVec3IfE, 
                       __ZN14LpeAccumulator3endER14CoreBasicArrayIfE, __ZN14LpeAccumulator3popEv, 
                       __ZN14LpeAccumulator4moveEPK8LpeEventRKjRK9GMathVec3IfE, __ZN14LpeAccumulator4pushEPK8LpeEventRKjRK9GMathVec3IfE, 
                       __ZN14LpeAccumulator5beginERK12UniqueString, __ZN14LpeAccumulator9configureER11LpeAutomataRKj, 
                       __ZN14LpeAccumulatorC1Ev, __ZN14LpeAccumulatorC2Ev, __ZN14LpeAccumulatorD0Ev, 
                       __ZN14LpeAccumulatorD1Ev, __ZN14LpeAccumulatorD2Ev, __ZN14ModuleAovStore10class_infoEv, 
                       __ZN14ModuleAovStore16scan_global_aovsEPK6OfAttrR10CoreVectorIPS_E, 
                       __ZN14ModuleAovStore18module_constructorER8OfObject, __ZN14ModuleAovStore19on_attribute_changeERK6OfAttrRiRKi, 
                       __ZN14ModuleAovStoreC1Ev, __ZN14ModuleAovStoreC2Ev, __ZN14ModuleDeformer10class_infoEv, 
                       __ZN14ModuleDeformer11on_new_timeERKd, __ZN14ModuleDeformer18module_constructorER8OfObject, 
                       __ZN14ModuleDeformer19on_attribute_changeERK6OfAttrRiRKi, 
                       __ZN14ModuleDeformerC1Ev, __ZN14ModuleDeformerC2Ev, __ZN14ModuleDeformerD0Ev, 
                       __ZN14ModuleDeformerD1Ev, __ZN14ModuleDeformerD2Ev, __ZN14ModuleGeometry10class_infoEv, 
                       __ZN14ModuleGeometry15assign_clip_mapER13ModuleTextureRKj, 
                       __ZN14ModuleGeometry15assign_materialER14ModuleMaterialRKj, 
                       __ZN14ModuleGeometry15stop_evaluationEv, __ZN14ModuleGeometry16dirty_geometriesEv, 
                       __ZN14ModuleGeometry17module_destructorEv, __ZN14ModuleGeometry18module_constructorER8OfObject, 
                       __ZN14ModuleGeometry18on_resource_updateERKiP12ResourceData, 
                       __ZN14ModuleGeometry19assign_displacementER18ModuleDisplacementRKj, 
                       __ZN14ModuleGeometry19on_attribute_changeERK6OfAttrRiRKi, 
                       __ZN14ModuleGeometry28set_shading_group_visibilityERKjRKb, 
                       __ZN14ModuleGeometry29update_displacement_resourcesEv, __ZN14ModuleGeometry33cmd_update_displacement_resourcesEP13OfCommandData, 
                       __ZN14ModuleGeometry35on_displacement_storage_mode_changeEv, 
                       __ZN14ModuleGeometryC1Ev, __ZN14ModuleGeometryC2Ev, __ZN14ModuleGeometryD0Ev, 
                       __ZN14ModuleGeometryD1Ev, __ZN14ModuleGeometryD2Ev, __ZN14ModuleGlObject10class_infoEv, 
                       __ZN14ModuleGlObject18module_constructorER8OfObject, __ZN14ModuleGlObjectC1Ev, 
                       __ZN14ModuleGlObjectC2Ev, __ZN14ModuleGlObjectD0Ev, __ZN14ModuleGlObjectD1Ev, 
                       __ZN14ModuleGlObjectD2Ev, __ZN14ModuleLanguage10class_infoEv, 
                       __ZN14ModuleLanguage12get_languageER5OfAppRK10CoreString, 
                       __ZN14ModuleLanguage14add_completionERK14CoreBasicArrayI10CoreStringE, 
                       __ZN14ModuleLanguage18module_constructorER8OfObject, __ZN14ModuleLanguage22set_rebuild_completionERKb, 
                       __ZN14ModuleLanguageC1Ev, __ZN14ModuleLanguageC2Ev, __ZN14ModuleLanguageD0Ev, 
                       __ZN14ModuleLanguageD1Ev, __ZN14ModuleLanguageD2Ev, __ZN14ModuleMaterial10class_infoEv, 
                       __ZN14ModuleMaterial12reserve_flagEv, __ZN14ModuleMaterial15s_emissive_flagEv, 
                       __ZN14ModuleMaterial16get_object_countER5OfApp, __ZN14ModuleMaterial16s_composite_flagEv, 
                       __ZN14ModuleMaterial18module_constructorER8OfObject, __ZN14ModuleMaterialC1Ev, 
                       __ZN14ModuleMaterialC2Ev, __ZN14ModuleMaterialD0Ev, __ZN14ModuleMaterialD1Ev, 
                       __ZN14ModuleMaterialD2Ev, __ZN14ModuleParticle10class_infoEv, 
                       __ZN14ModuleParticle13set_particlesEP13ParticleCloud, __ZN14ModuleParticle14set_propertiesEP31GeometryPointPropertyCollection, 
                       __ZN14ModuleParticle16share_propertiesER14ModuleGeometry, 
                       __ZN14ModuleParticle8dirty_glEv, __ZN14ModuleParticleC1Ev, 
                       __ZN14ModuleParticleC2Ev, __ZN14ModuleParticleD0Ev, __ZN14ModuleParticleD1Ev, 
                       __ZN14ModuleParticleD2Ev, __ZN14ModulePolymesh10class_infoEv, 
                       __ZN14ModulePolymesh8set_meshEP8PolyMesh, __ZN14ModulePolymeshC1Ev, 
                       __ZN14ModulePolymeshC2Ev, __ZN14ModulePolymeshD0Ev, __ZN14ModulePolymeshD1Ev, 
                       __ZN14ModulePolymeshD2Ev, __ZN14ModuleRenderer10class_infoEv, 
                       __ZN14ModuleRenderer28get_default_supported_lightsEv, __ZN14ModuleRenderer29get_default_supported_camerasEv, 
                       __ZN14ModuleRenderer31get_default_supported_materialsEv, __ZN14ModuleRenderer32get_default_supported_geometriesEv, 
                       __ZN14ModuleRendererC1Ev, __ZN14ModuleRendererC2Ev, __ZN14ModuleRendererD0Ev, 
                       __ZN14ModuleRendererD1Ev, __ZN14ModuleRendererD2Ev, __ZN14NgCpuRaytracer22filter_volume_callbackERK7CtxEvalRK19GeometryRaytraceCtxRNS3_10FilterDataE, 
                       __ZN14NgCpuRaytracer24filter_backface_callbackERK7CtxEvalRK19GeometryRaytraceCtxRKjR20GeometryIntersectionRNS3_10FilterDataE, 
                       __ZN14NgCpuRaytracer24filter_occluder_callbackERK7CtxEvalRK19GeometryRaytraceCtxRKjRNS3_10FilterDataE, 
                       __ZN14NgCpuRaytracer26filter_visibility_callbackERK7CtxEvalRK19GeometryRaytraceCtxRNS3_10FilterDataE, 
                       __ZN14NgCpuRaytracer27filter_shadowlight_callbackERK7CtxEvalRK19GeometryRaytraceCtxRNS3_10FilterDataE, 
                       __ZN14NgCpuRaytracer28filter_transparency_callbackERK7CtxEvalRK19GeometryRaytraceCtxRKjR20GeometryIntersectionRNS3_10FilterDataE, 
                       __ZN14NgCpuRaytracer35filter_transparency_callback_previzERK7CtxEvalRK19GeometryRaytraceCtxRKjR20GeometryIntersectionRNS3_10FilterDataE, 
                       __ZN14NgCpuRaytracer8evaluateER8NgCpuCtxR8NgVertexRKN15NgBSDFComposite11RoughnessesERKN9Imath_3_14Vec3IfEESC_SC_RK10CoreVectorI13NgLightSampleERSD_I19NgLightSampleOutputERKSD_IjE, 
                       __ZN14NgOptixManager10get_moduleENS_17NgOptixModuleTypeE, 
                       __ZN14NgOptixManager12get_instanceEv, __ZN14NgOptixManager16destroy_instanceER11EventObjectRKNS0_9EventInfoEPv, 
                       __ZN14NgOptixManager16error_log_bufferE, __ZN14NgOptixManager17_generate_modulesEP5OfApp, 
                       __ZN14NgOptixManager23sizeof_error_log_bufferE, __ZN14NgOptixManager25get_static_program_groupsEv, 
                       __ZN14NgOptixManager27get_fur_intersection_moduleEv, __ZN14NgOptixManagerC1Ev, 
                       __ZN14NgOptixManagerC2Ev, __ZN14NgShadingTable10initializeE14CoreBasicArrayI18NgShadingGroupSlotEjjj, 
                       __ZN14NgShadingTable14update_shadersER10CoreVectorI14NgMaterialDataERKS0_IyES6_, 
                       __ZN14OfBatchCommand11add_commandERK10CoreString, __ZN14OfBatchCommand11add_commandERK10CoreStringR17OfCommandArgument, 
                       __ZN14OfBatchCommand11add_commandERK10CoreStringR17OfCommandArgumentS4_, 
                       __ZN14OfBatchCommand11add_commandERK10CoreStringR17OfCommandArgumentS4_S4_, 
                       __ZN14OfBatchCommand11add_commandERK10CoreStringR17OfCommandArgumentS4_S4_S4_, 
                       __ZN14OfBatchCommand11add_commandERK10CoreStringR17OfCommandArgumentS4_S4_S4_S4_, 
                       __ZN14OfBatchCommand11add_commandERK10CoreStringR17OfCommandArgumentS4_S4_S4_S4_S4_, 
                       __ZN14OfBatchCommand15set_output_textERK10CoreString, __ZN14OfBatchCommand19remove_all_commandsEv, 
                       __ZN14OfBatchCommand6unexecEv, __ZN14OfBatchCommand7do_execEv, 
                       __ZN14OfBatchCommandC1ER5OfApp, __ZN14OfBatchCommandC2ER5OfApp, 
                       __ZN14OfBatchCommandD0Ev, __ZN14OfBatchCommandD1Ev, __ZN14OfBatchCommandD2Ev, 
                       __ZN14OfClassFactory10add_moduleERK10CoreString, __ZN14OfClassFactory10class_infoEv, 
                       __ZN14OfClassFactory12add_from_cidERK10CoreString, __ZN14OfClassFactory12scan_modulesEv, 
                       __ZN14OfClassFactory14secure_declareERK11ParserEntryRK10CoreString, 
                       __ZN14OfClassFactory15add_class_aliasERK10CoreStringP7OfClass, 
                       __ZN14OfClassFactory16set_library_pathERK10CoreVectorI10CoreStringE, 
                       __ZN14OfClassFactory17get_category_nameERK10CoreString, __ZN14OfClassFactory17get_class_aliasesEPK7OfClassR10CoreVectorI10CoreStringE, 
                       __ZN14OfClassFactory17set_class_aliasesEP7OfClassRK10CoreVectorI10CoreStringE, 
                       __ZN14OfClassFactory18add_category_classERK7OfClass, __ZN14OfClassFactory18category_separatorEv, 
                       __ZN14OfClassFactory20get_category_classesERK10CoreStringR7CoreSetIPK7OfClassE, 
                       __ZN14OfClassFactory21load_class_definitionERK15CoreBasicStringRKb, 
                       __ZN14OfClassFactory21update_category_classERK10CoreStringRK7OfClass, 
                       __ZN14OfClassFactory22get_root_category_nameEv, __ZN14OfClassFactory26initialize_builtin_classesEv, 
                       __ZN14OfClassFactory32get_category_classes_recursivelyERK10CoreStringR7CoreSetIPK7OfClassE, 
                       __ZN14OfClassFactory3addEPKc, __ZN14OfClassFactory3addERK10CoreStringS2_RKi, 
                       __ZN14OfClassFactory3addERK10CoreStringS2_RKiRKb, __ZN14OfClassFactory3addERK11ParserEntryRKb, 
                       __ZN14OfClassFactory6removeE15CoreBasicString, __ZN14OfClassFactory7add_dsoERK10CoreStringRK10CoreVectorIP7OfClassE, 
                       __ZN14OfClassFactory7declareEPKc, __ZN14OfClassFactoryC1ER15OfObjectFactoryRK10CoreVectorI10CoreStringE, 
                       __ZN14OfClassFactoryC2ER15OfObjectFactoryRK10CoreVectorI10CoreStringE, 
                       __ZN14OfClassFactoryD0Ev, __ZN14OfClassFactoryD1Ev, __ZN14OfClassFactoryD2Ev, 
                       __ZN14PbrMediumStack12update_stackERK7CtxEvalRK9CtxShaderPK11PbrMaterialPK11CtxFragment, 
                       __ZN14PbrMediumStack3popEP14ModuleMaterial, __ZN14PbrMediumStack4pushERK9GMathVec3IfES3_RKfP14ModuleMaterialPK17ModuleSceneObject, 
                       __ZN14PbrSasGeometry10create_sasEP17ModuleSceneObjectPK14GeometryObjectS4_S4_S4_14CoreBasicArrayIP14ModuleMaterialES5_IP18ModuleDisplacementE, 
                       __ZN14PbrSasGeometry17get_geometry_typeEPK14GeometryObject, 
                       __ZN14PbrSasGeometry6createERK5OfAppPK14GeometryObjectS5_S5_S5_RK14CoreBasicArrayIjERKS6_IP14ModuleMaterialES9_P14AppProgressBar, 
                       __ZN14PbrSasInstance10class_infoEv, __ZN14PbrSasResource15is_sas_overrideEPK17ModuleSceneObjectP16GeometryOverrideRK14CoreBasicArrayIP14ModuleMaterialERKbRb, 
                       __ZN14PbrSasResource16get_sas_overrideEPK17ModuleSceneObjectP16GeometryOverrideRK14CoreBasicArrayIP14ModuleMaterialERKbSC_, 
                       __ZN14PbrSasResource17init_sas_resourceEP7OfClass, __ZN14PbrSasResource19create_sas_geometryEP14ModuleGeometry14CoreBasicArrayIP14ModuleMaterialE, 
                       __ZN14PbrSasResource19create_sas_geometryER8OfObjectPv, __ZN14PbrSasResource25get_sas_geometry_overrideER8OfObjectP16GeometryOverrideRK14CoreBasicArrayIP14ModuleMaterialERKbSB_, 
                       __ZN14PbrSasResource26create_sas_geometry_bundleEP20ModuleGeometryBundle14CoreBasicArrayIP14ModuleMaterialE, 
                       __ZN14PbrSasResource26create_sas_geometry_bundleER8OfObjectPv, 
                       __ZN14PbrSasResource28create_sas_geometry_overrideER8OfObjectR16GeometryOverridePv, 
                       __ZN14PbrSasResource28create_sas_scene_object_treeEP21ModuleSceneObjectTree14CoreBasicArrayIP14ModuleMaterialEbb, 
                       __ZN14PbrSasResource28create_sas_scene_object_treeER8OfObjectPv, 
                       __ZN14PbrSasResource28create_weighted_sas_geometryER8OfObjectPv, 
                       __ZN14PbrSasResource34get_sas_scene_object_tree_overrideER8OfObjectP16GeometryOverrideRK14CoreBasicArrayIP14ModuleMaterialERKbSB_, 
                       __ZN14PbrSasResource35create_sas_geometry_bundle_overrideER8OfObjectR16GeometryOverridePv, 
                       __ZN14PbrSasResource35create_weighted_sas_geometry_bundleER8OfObjectPv, 
                       __ZN14PbrSasResource37create_sas_scene_object_tree_overrideER8OfObjectR16GeometryOverridePv, 
                       __ZN14PbrSasResource37create_weighted_sas_geometry_overrideER8OfObjectR16GeometryOverridePv, 
                       __ZN14PbrSasResource37create_weighted_sas_scene_object_treeER8OfObjectPv, 
                       __ZN14PbrSasResource44create_weighted_sas_geometry_bundle_overrideER8OfObjectR16GeometryOverridePv, 
                       __ZN14PbrSasResource46create_weighted_sas_scene_object_tree_overrideER8OfObjectR16GeometryOverridePv, 
                       __ZN14ResourceObject10class_infoEv, __ZN14ResourceObject10create_endEP12ResourceData, 
                       __ZN14ResourceObject11change_dataEP12ResourceData, __ZN14ResourceObject12create_beginEPK12ResourceUser, 
                       __ZN14ResourceObject13add_requesterER12ResourceUser, __ZN14ResourceObject15get_connectionsEv, 
                       __ZN14ResourceObject15lock_requestersEv, __ZN14ResourceObject16remove_requesterER18ResourceConnection, 
                       __ZN14ResourceObject17unlock_requestersEv, __ZN14ResourceObject5clearEv, 
                       __ZN14ResourceObject6updateEP12ResourceUserP12ResourceData, 
                       __ZN14ResourceObject7refreshEv, __ZN14ResourceObject7set_keyERK10CoreString, 
                       __ZN14ResourceObject8set_dataEP12ResourceData, __ZN14ResourceObjectC1ER15ResourceManagerRK10CoreString, 
                       __ZN14ResourceObjectC2ER15ResourceManagerRK10CoreString, __ZN14ResourceObjectD1Ev, 
                       __ZN14ResourceObjectD2Ev, __ZN14RibbonMeshFast10class_infoEv, 
                       __ZN14SceneObjectSas13delay_connectEv, __ZN14SceneObjectSas14clear_resourceEi, 
                       __ZN14SceneObjectSas16remove_variationEv, __ZN14SceneObjectSas17connect_on_objectEP13OfCommandData, 
                       __ZN14SceneObjectSas19on_object_dirtinessER8OfObjectRKN11EventObject9EventInfoEPv, 
                       __ZN14SceneObjectSasC1EP17ModuleSceneObject, __ZN14SceneObjectSasC2EP17ModuleSceneObject, 
                       __ZN14SceneObjectSasD0Ev, __ZN14SceneObjectSasD1Ev, __ZN14SceneObjectSasD2Ev, 
                       __ZN14SeExprFunction4evalEN7SeExpr214ExprFuncSimple9ArgHandleE, 
                       __ZN14SeExprFunctionC1EP9IFunction, __ZN14SeExprFunctionC2EP9IFunction, 
                       __ZN14SeExprFunctionD0Ev, __ZN14SeExprFunctionD1Ev, __ZN14SeExprFunctionD2Ev, 
                       __ZN14SeExprVariable4evalEPPKc, __ZN14SeExprVariable4evalEPd, 
                       __ZN14SeExprVariableC1EP9IVariable, __ZN14SeExprVariableC2EP9IVariable, 
                       __ZN14SeExprVariableD0Ev, __ZN14SeExprVariableD1Ev, __ZN14SeExprVariableD2Ev, 
                       __ZN14SobolSamplerNd16sobol_matrices32E, __ZN14SobolSamplerNd18sobol_vdc_matricesE, 
                       __ZN14SobolSamplerNd19look_up_sobol_indexEjjjj, __ZN14SobolSamplerNd20generate_sobol_indexEjjy, 
                       __ZN14SobolSamplerNd22sobol_vdc_matrices_invE, __ZN14SobolSamplerNd7samplefEyjj, 
                       __ZN14SobolSamplerNd7sampleuEyjj, __ZN14SpiralIterator8s_xy_incE, 
                       __ZN14SysIPV4AddressC1ERK10CoreStringS2_RKj, __ZN14SysIPV4AddressC1ERKS_, 
                       __ZN14SysIPV4AddressC1Ev, __ZN14SysIPV4AddressC2ERK10CoreStringS2_RKj, 
                       __ZN14SysIPV4AddressC2ERKS_, __ZN14SysIPV4AddressC2Ev, __ZN14TubeMeshFast3d10class_infoEv, 
                       __ZN14VolumeGeometry10class_infoEv, __ZN14VolumeGeometry17build_motion_treeERK7CtxEval, 
                       __ZN14VolumeGeometry18set_density_offsetERKd, __ZN14VolumeGeometry18set_frame_durationERKf, 
                       __ZN14VolumeGeometry20set_raytrace_qualityERKN8GMathRayIdE4TypeERKd, 
                       __ZN14VolumeGeometry20set_raytrace_qualityERKd, __ZN14VolumeGeometry22set_density_multiplierERKfPK13ModuleTexture, 
                       __ZN14VolumeGeometry23set_ray_diff_multiplierERKN8GMathRayIdE4TypeERKd, 
                       __ZN14VolumeGeometry23set_ray_diff_multiplierERKd, __ZN14VolumeGeometry23set_velocity_multiplierERKf, 
                       __ZN14VolumeGeometry6createER7AppBaseRKjS3_S3_RKbP14AppProgressBar, 
                       __ZN14VolumeGeometryC1ERK18VolumeGeometryData, __ZN14VolumeGeometryC2ERK18VolumeGeometryData, 
                       __ZN14VolumeGeometryD0Ev, __ZN14VolumeGeometryD1Ev, __ZN14VolumeGeometryD2Ev, 
                       __ZN15AppMainMenuItem11set_checkedERKb, __ZN15AppMainMenuItem12exec_commandEv, 
                       __ZN15AppMainMenuItem13set_checkableERKb, __ZN15AppMainMenuItem14enable_commandERKb, 
                       __ZN15AppMainMenuItem14remove_commandEPS_, __ZN15AppMainMenuItem14remove_commandERK10CoreString, 
                       __ZN15AppMainMenuItem15set_descriptionERK10CoreString, __ZN15AppMainMenuItem15set_radio_groupERK10CoreString, 
                       __ZN15AppMainMenuItem16get_all_commandsERKbS1_, __ZN15AppMainMenuItem17exec_command_showEb, 
                       __ZN15AppMainMenuItem19remove_all_commandsEv, __ZN15AppMainMenuItem4initEv, 
                       __ZN15AppMainMenuItem8get_itemERK10CoreStringRKb, __ZN15AppMainMenuItem8set_iconEPK7OfClass, 
                       __ZN15AppMainMenuItem8set_iconEPK8GuiImage, __ZN15AppMainMenuItem8set_iconERK10CoreString, 
                       __ZN15AppMainMenuItemC1ER11AppMainMenuRK10CoreString, __ZN15AppMainMenuItemC2ER11AppMainMenuRK10CoreString, 
                       __ZN15AppMainMenuItemD0Ev, __ZN15AppMainMenuItemD1Ev, __ZN15AppMainMenuItemD2Ev, 
                       __ZN15BlendingPrivate10blend_aovsER21AovBlendingParameters, 
                       __ZN15BlendingPrivate18blend_aovs_defaultER21AovBlendingParameters, 
                       __ZN15BlendingPrivate19get_rgba_blend_funcERKi, __ZN15ComponentSchema10class_infoEv, 
                       __ZN15ComponentSchema18set_implementationERK13CoreClassInfoP23ComponentImplementation, 
                       __ZN15ComponentSchemaC1ERK18ComponentInterfaceRK10CoreStringS5_PKS_, 
                       __ZN15ComponentSchemaC2ERK18ComponentInterfaceRK10CoreStringS5_PKS_, 
                       __ZN15ComponentSchemaD0Ev, __ZN15ComponentSchemaD1Ev, __ZN15ComponentSchemaD2Ev, 
                       __ZN15CoreLogStreamer10class_infoEv, __ZN15CoreLogStreamer12set_capacityEj, 
                       __ZN15CoreLogStreamer6appendEiRK10CoreStringRK15CoreBasicString, 
                       __ZN15CoreLogStreamerC1ER10CoreLogCtx, __ZN15CoreLogStreamerC2ER10CoreLogCtx, 
                       __ZN15CoreMemoryProxy12on_free_dataE, __ZN15CoreMemoryProxy13on_alloc_dataE, 
                       __ZN15CoreMemoryProxy16on_free_callbackE, __ZN15CoreMemoryProxy17on_alloc_callbackE, 
                       __ZN15CoreMemoryProxy17on_bad_alloc_dataE, __ZN15CoreMemoryProxy21on_bad_alloc_callbackE, 
                       __ZN15CtxIllumination5clearEv, __ZN15CtxIlluminationC1ERKS_, 
                       __ZN15CtxIlluminationC1ERKj, __ZN15CtxIlluminationC2ERKS_, 
                       __ZN15CtxIlluminationC2ERKj, __ZN15CtxIlluminationD1Ev, __ZN15CtxIlluminationD2Ev, 
                       __ZN15FCurveEvaluator11is_neighborEdRb, __ZN15FCurveEvaluator13eval_in_rangeEdRKjb, 
                       __ZN15FCurveEvaluator18fast_eval_in_rangeEd, __ZN15FCurveEvaluator18slow_eval_in_rangeEd, 
                       __ZN15FCurveEvaluator4evalEd, __ZN15FCurveEvaluatorC1ERK6FCurve, 
                       __ZN15FCurveEvaluatorC1ERK6FCurveb, __ZN15FCurveEvaluatorC2ERK6FCurve, 
                       __ZN15FCurveEvaluatorC2ERK6FCurveb, __ZN15GasGeometryBase10class_infoEv, 
                       __ZN15GasGeometryBase14compute_bboxesERK7CtxEvalPK14GeometryObjectPKjRS6_S8_P10GMathBbox3IfEPjP14AppProgressBar, 
                       __ZN15GasGeometryBase15init_primitivesERK7CtxEvalPK14GeometryObjectS5_S5_S5_RK14CoreBasicArrayIjER10CoreVectorI10GMathBbox3IfEEP14AppProgressBar, 
                       __ZN15GasGeometryBvh410MotionDataC1ERKjPv, __ZN15GasGeometryBvh410MotionDataC2ERKjPv, 
                       __ZN15GasGeometryBvh410MotionDataD1Ev, __ZN15GasGeometryBvh410MotionDataD2Ev, 
                       __ZN15GasGeometryBvh410class_infoEv, __ZN15GasGeometryBvh420frustum_hit_callbackEPKS_RK7CtxEvalR9CtxShaderR18GeometryFrustumCtx, 
                       __ZN15GasGeometryBvh423ray_hit_motion_callbackEPKS_RK7CtxEvalR9CtxShaderR19GeometryRaytraceCtx, 
                       __ZN15GasGeometryBvh423ray_hit_static_callbackEPKS_RK7CtxEvalR9CtxShaderR19GeometryRaytraceCtx, 
                       __ZN15GasGeometryBvh431ray_hit_nearest_motion_callbackEPKS_RK7CtxEvalR9CtxShaderR19GeometryRaytraceCtx, 
                       __ZN15GasGeometryBvh431ray_hit_nearest_static_callbackEPKS_RK7CtxEvalR9CtxShaderR19GeometryRaytraceCtx, 
                       __ZN15GasGeometryBvh46createERK7CtxEvalPK14GeometryObjectS5_P14AppProgressBar, 
                       __ZN15GasGeometryBvh46createERK7CtxEvalPK14GeometryObjectS5_S5_S5_RK14CoreBasicArrayIjEP14AppProgressBar, 
                       __ZN15GasGeometryBvh4C1Ev, __ZN15GasGeometryBvh4C2Ev, __ZN15GasGeometryBvh4D0Ev, 
                       __ZN15GasGeometryBvh4D1Ev, __ZN15GasGeometryBvh4D2Ev, __ZN15GasParticleTree20frustum_hit_callbackEPK9GasObjectRK7CtxEvalR9CtxShaderR18GeometryFrustumCtx, 
                       __ZN15GasParticleTree24ray_frustum_hit_callbackEPK9GasObjectRK7CtxEvalR9CtxShaderR21GeometryRayFrustumCtx, 
                       __ZN15GasParticleTree25leaf_frustum_hit_callbackEPvRKjRK7CtxEvalR9CtxShaderR18GeometryFrustumCtx, 
                       __ZN15GasParticleTree29leaf_ray_frustum_hit_callbackEPvRKjRK7CtxEvalR9CtxShaderR21GeometryRayFrustumCtx, 
                       __ZN15GasParticleTree6createERK7AppBaseP14AppProgressBar, 
                       __ZN15GasParticleTree6createERK7AppBaseRK10CoreVectorIP17ModuleSceneObjectEP14AppProgressBar, 
                       __ZN15GasParticleTree6createERK7AppBaseRK9CoreArrayIP17ModuleSceneObjectEP14AppProgressBar, 
                       __ZN15GasParticleTreeC1Ev, __ZN15GasParticleTreeC2Ev, __ZN15GasParticleTreeD0Ev, 
                       __ZN15GasParticleTreeD1Ev, __ZN15GasParticleTreeD2Ev, __ZN15GasTreeSimdNode20s_last_index_to_maskE, 
                       __ZN15GasTreeSimdNode20s_mask_to_last_indexE, __ZN15GasTreeSimdNode21s_first_index_to_maskE, 
                       __ZN15GasTreeSimdNode21s_mask_to_first_indexE, __ZN15GasTreeSplitSah10quick_sortEjj, 
                       __ZN15GasTreeSplitSah14compute_splitsERKj, __ZN15GasTreeSplitSah5splitERK19GasTreeSplitContextPjjRj, 
                       __ZN15GasTreeSplitSah8sort_idsERKjPjS1_, __ZN15GeometryCapsule10class_infoEv, 
                       __ZN15GeometryCapsuleC1ERKfS1_RKjS1_, __ZN15GeometryCapsuleC2ERKfS1_RKjS1_, 
                       __ZN15GoldenSampler1d19get_sample_callbackERS_RKjRd, __ZN15GoldenSampler1d24get_all_samples_callbackERS_Pd, 
                       __ZN15GoldenSampler1d4initERKjS1_, __ZN15GoldenSampler1dC1ERKjS1_, 
                       __ZN15GoldenSampler1dC1Ev, __ZN15GoldenSampler1dC2ERKjS1_, 
                       __ZN15GoldenSampler1dC2Ev, __ZN15HaltonSampler2d19get_sample_callbackERS_RKjR9GMathVec2IdE, 
                       __ZN15HaltonSampler2d24get_all_samples_callbackERS_P9GMathVec2IdE, 
                       __ZN15HaltonSampler2d27get_packet_samples_callbackERS_RKjP9GMathVec2IdERS4_S6_, 
                       __ZN15HaltonSampler2d4initERKjS1_S1_S1_, __ZN15HaltonSampler2dC1Ev, 
                       __ZN15HaltonSampler2dC2Ev, __ZN15HaltonSamplerNd10s_instanceE, 
                       __ZN15HaltonSamplerNd11init_tablesERK10CoreVectorIS0_ItEE, 
                       __ZN15HaltonSamplerNd15create_instanceEv, __ZN15HaltonSamplerNd16destroy_instanceEv, 
                       __ZN15HdAppleRTCamera13create_objectERN32pxrInternal__aapl__pxrReserved__13HdRenderIndexE, 
                       __ZN15HdAppleRTCamera14register_classER5OfApp, __ZN15HdAppleRTCamera16get_model_matrixEdR14GMathMatrix4x4IdLb1EE, 
                       __ZN15HdAppleRTCamera4SyncEPN32pxrInternal__aapl__pxrReserved__15HdSceneDelegateEPNS0_13HdRenderParamEPj, 
                       __ZN15HdAppleRTCamera8FinalizeEPN32pxrInternal__aapl__pxrReserved__13HdRenderParamE, 
                       __ZN15HdAppleRTCamera9sync_mainERN32pxrInternal__aapl__pxrReserved__13HdRenderIndexERKj, 
                       __ZN15HdAppleRTCameraC1ERKN32pxrInternal__aapl__pxrReserved__7SdfPathENS_14ProjectionTypeE, 
                       __ZN15HdAppleRTCameraC2ERKN32pxrInternal__aapl__pxrReserved__7SdfPathENS_14ProjectionTypeE, 
                       __ZN15HdAppleRTCameraD0Ev, __ZN15HdAppleRTCameraD1Ev, __ZN15HdAppleRTCameraD2Ev, 
                       __ZN15HdAppleRTCurves13create_objectERN32pxrInternal__aapl__pxrReserved__13HdRenderIndexE, 
                       __ZN15HdAppleRTCurves14register_classER5OfApp, __ZN15HdAppleRTCurves15UpdateRenderTagEPN32pxrInternal__aapl__pxrReserved__15HdSceneDelegateEPNS0_13HdRenderParamE, 
                       __ZN15HdAppleRTCurves15create_resourceER8OfObjectRKiPv, __ZN15HdAppleRTCurves16get_model_matrixER8OfObjectR14GMathMatrix4x4IdLb1EERKd, 
                       __ZN15HdAppleRTCurves4SyncEPN32pxrInternal__aapl__pxrReserved__15HdSceneDelegateEPNS0_13HdRenderParamEPjRKNS0_7TfTokenE, 
                       __ZN15HdAppleRTCurves8FinalizeEPN32pxrInternal__aapl__pxrReserved__13HdRenderParamE, 
                       __ZN15HdAppleRTCurves8pre_syncERKj, __ZN15HdAppleRTCurves9_InitReprERKN32pxrInternal__aapl__pxrReserved__7TfTokenEPj, 
                       __ZN15HdAppleRTCurves9sync_mainERN32pxrInternal__aapl__pxrReserved__13HdRenderIndexERKj, 
                       __ZN15HdAppleRTCurvesC1EOS_RKN32pxrInternal__aapl__pxrReserved__7SdfPathE, 
                       __ZN15HdAppleRTCurvesC1ERKN32pxrInternal__aapl__pxrReserved__7SdfPathE, 
                       __ZN15HdAppleRTCurvesC2EOS_RKN32pxrInternal__aapl__pxrReserved__7SdfPathE, 
                       __ZN15HdAppleRTCurvesC2ERKN32pxrInternal__aapl__pxrReserved__7SdfPathE, 
                       __ZN15HdAppleRTCurvesD0Ev, __ZN15HdAppleRTCurvesD1Ev, __ZN15HdAppleRTCurvesD2Ev, 
                       __ZN15HdAppleRTPlugin20CreateRenderDelegateEv, __ZN15HdAppleRTPlugin20DeleteRenderDelegateEPN32pxrInternal__aapl__pxrReserved__16HdRenderDelegateE, 
                       __ZN15HrpMeshResource22create_property_handleEP11objc_objectPK16GeometryProperty, 
                       __ZN15HrpMeshResource6handleEv, __ZN15HrpMeshResourceC1EPK14GeometryObject, 
                       __ZN15HrpMeshResourceC2EPK14GeometryObject, __ZN15HrpPbrLutBuffer4initEP11objc_object, 
                       __ZN15ImageIOExrUtils20get_compression_typeEi, __ZN15ImageIOExrUtils22add_metadata_to_headerEPN7Imf_3_16HeaderERK9CoreArrayIN16ImageSaveOptions8MetaDataEE, 
                       __ZN15ImageIOExrUtils27get_compression_descriptionEN7Imf_3_111CompressionE, 
                       __ZN15ImageMapChannel10class_infoEv, __ZN15ImageMapChannel10fill_tilesEPKfRK9GMathVec4IiEb, 
                       __ZN15ImageMapChannel10fill_tilesEPKhRK9GMathVec4IiEb, __ZN15ImageMapChannel11clear_tilesEv, 
                       __ZN15ImageMapChannel12clamp_valuesERKfS1_RK9GMathVec4IiE, 
                       __ZN15ImageMapChannel12create_tilesERK9GMathVec4IiEP10CoreVectorI18ImageMapTileHandleERKf, 
                       __ZN15ImageMapChannel12dirty_borderERK9GMathVec4IiE, __ZN15ImageMapChannel13clear_outsideERK9GMathVec4IiEb, 
                       __ZN15ImageMapChannel14convert_bufferEPKfPhRK9GMathVec4IiE, 
                       __ZN15ImageMapChannel15fill_clean_dataERKS_RK9GMathVec4IiE, 
                       __ZN15ImageMapChannel15get_clean_tilesERK9GMathVec4IiER9CoreArrayI18ImageMapTileHandleERKj, 
                       __ZN15ImageMapChannel15get_dirty_tilesERK9GMathVec4IiER9CoreArrayI18ImageMapTileHandleERS4_IbERKj, 
                       __ZN15ImageMapChannel16check_uniformityER16ImageEvalContextR10CoreVectorI18ImageMapTileHandleE, 
                       __ZN15ImageMapChannel16fill_tiles_edgesER16ImageEvalContextR10CoreVectorI18ImageMapTileHandleERKb, 
                       __ZN15ImageMapChannel16get_sorted_tilesERK9GMathVec4IiER9CoreArrayI18ImageMapTileHandleERKjb, 
                       __ZN15ImageMapChannel17fill_region_edgesER16ImageEvalContextR10CoreVectorI18ImageMapTileHandleERK9GMathVec4IiE, 
                       __ZN15ImageMapChannel17fill_region_edgesER16ImageEvalContextRK9GMathVec4IiE, 
                       __ZN15ImageMapChannel17on_update_visibleERK10GMathBbox2IiES3_, 
                       __ZN15ImageMapChannel17set_clean_outsideERK9GMathVec4IiE, 
                       __ZN15ImageMapChannel17set_dirty_outsideERK9GMathVec4IiE, 
                       __ZN15ImageMapChannel18fill_uniform_valueERKfRK9GMathVec4IiE, 
                       __ZN15ImageMapChannel21get_dirty_pixel_countERK9GMathVec4IiE, 
                       __ZN15ImageMapChannel4blitEPcRK9GMathVec4IiERKN10ImagePixel8BlitModeE, 
                       __ZN15ImageMapChannel4blitER11ImageMapCtxPcRK9GMathVec4IiERKN10ImagePixel8BlitModeE, 
                       __ZN15ImageMapChannel4blitER11ImageMapCtxRKS_S1_RK9GMathVec4IiERKN10ImagePixel8BlitModeE, 
                       __ZN15ImageMapChannel4blitERKS_RK9GMathVec4IiERKN10ImagePixel8BlitModeE, 
                       __ZN15ImageMapChannel5clearERK9GMathVec4IiEjbRKb, __ZN15ImageMapChannel5clearERKN10ImagePixel8BitDepthERKNS0_7BitTypeE, 
                       __ZN15ImageMapChannel5clearEv, __ZN15ImageMapChannel5resetEv, 
                       __ZN15ImageMapChannel7processEPFvPfRKjPvES3_, __ZN15ImageMapChannel7processER11ImageMapCtxPFvPfRKjPvES5_PK9GMathVec4IiE, 
                       __ZN15ImageMapChannel8finalizeER16ImageEvalContextRK9GMathVec4IiERKb, 
                       __ZN15ImageMapChannel9copy_fromERKS_PK9GMathVec4IiERKb, __ZN15ImageMapChannel9fill_fromERKS_RK9GMathVec4IiES5_, 
                       __ZN15ImageMapChannel9make_halfER16ImageEvalContextRS_RK9GMathVec4IiE, 
                       __ZN15ImageMapChannel9set_dirtyERK9GMathVec4IiE, __ZN15ImageMapChannelC1ERK8ImageMapRKN10ImagePixel8BitDepthERKNS3_7BitTypeERK10CoreStringRKNS0_13KnownChannelsERKj, 
                       __ZN15ImageMapChannelC1ERK8ImageMapRKS_RKjPK9GMathVec4IiE, 
                       __ZN15ImageMapChannelC2ERK8ImageMapRKN10ImagePixel8BitDepthERKNS3_7BitTypeERK10CoreStringRKNS0_13KnownChannelsERKj, 
                       __ZN15ImageMapChannelC2ERK8ImageMapRKS_RKjPK9GMathVec4IiE, 
                       __ZN15ImageMapChannelD0Ev, __ZN15ImageMapChannelD1Ev, __ZN15ImageMapChannelD2Ev, 
                       __ZN15ImageMapPyramid10class_infoEv, __ZN15ImageMapPyramid11compute_ewaERK10MapEvalCtxRKjffffffR16ImageEvalContextR9GMathVec4IfERKb, 
                       __ZN15ImageMapPyramid13clear_mipmapsEv, __ZN15ImageMapPyramid13create_mipmapER16ImageEvalContextRKj, 
                       __ZN15ImageMapPyramid13get_pixel_ewaERK10MapEvalCtxR16ImageEvalContextR9GMathVec4IfERKdRKi, 
                       __ZN15ImageMapPyramid13update_mipmapER16ImageEvalContextRKj, 
                       __ZN15ImageMapPyramid15set_repeat_modeERKN10ImagePixel10RepeatModeES3_, 
                       __ZN15ImageMapPyramid20get_pixel_mipmap_ewaERK10MapEvalCtxR16ImageEvalContextR9GMathVec4IfERKdRKi, 
                       __ZN15ImageMapPyramid26get_pixel_mipmap_trilinearERK10MapEvalCtxR16ImageEvalContextR9GMathVec4IfERKi, 
                       __ZN15ImageMapPyramid5clearEv, __ZN15ImageMapPyramid7set_mapER8ImageMap, 
                       __ZN15ImageMapPyramid9copy_fromEPKS_, __ZN15ImageMapPyramidC1Ev, 
                       __ZN15ImageMapPyramidC2Ev, __ZN15ImageMapPyramidD0Ev, __ZN15ImageMapPyramidD1Ev, 
                       __ZN15ImageMapPyramidD2Ev, __ZN15MaterialX__aapl13toValueStringERKNS_7MatrixNINS_8Matrix33EdLm3EEE, 
                       __ZN15MaterialX__aapl13toValueStringERKNS_7MatrixNINS_8Matrix44EdLm4EEE, 
                       __ZN15MaterialX__aapl13toValueStringERKNS_7VectorNINS_7Vector2EdLm2EEE, 
                       __ZN15MaterialX__aapl13toValueStringERKNS_7VectorNINS_7Vector3EdLm3EEE, 
                       __ZN15MaterialX__aapl13toValueStringERKNS_7VectorNINS_7Vector4EdLm4EEE, 
                       __ZN15MaterialX__aapl15getUIPropertiesENSt3__110shared_ptrINS_5InputEEERKNS0_12basic_stringIcNS0_11char_traitsIcEENS0_9allocatorIcEEEERNS_12UIPropertiesE, 
                       __ZN15MaterialX__aapl22createUIPropertyGroupsENSt3__110shared_ptrINS_8DocumentEEERKNS_13VariableBlockERNS0_8multimapINS0_12basic_stringIcNS0_11char_traitsIcEENS0_9allocatorIcEEEENS_14UIPropertyItemENS0_4lessISD_EENSB_INS0_4pairIKSD_SE_EEEEEESM_RSI_, 
                       __ZN15ModuleAovItemNg10class_infoEv, __ZN15ModuleAovItemNg19on_attribute_changeERK6OfAttrRiRKi, 
                       __ZN15ModuleIdManager13reshuffle_idsEv, __ZN15ModuleIdManager14on_end_protectEPv, 
                       __ZN15ModuleIdManager16on_reshuffle_idsEPv, __ZN15ModuleIdManager22synchronize_thread_idsEv, 
                       __ZN15ModuleIdManager6new_idER10OfModuleIdR8OfModule, __ZN15ModuleIdManager7free_idER10OfModuleId, 
                       __ZN15ModuleSceneItem10class_infoEv, __ZN15ModuleSceneItem10set_matrixERK14GMathMatrix4x4IdLb1EERKNS_5SpaceE, 
                       __ZN15ModuleSceneItem10set_parentEPS_RKNS_17ParentInPlaceModeE, 
                       __ZN15ModuleSceneItem11set_scalingERK9GMathVec3IdERKNS_5SpaceEPv, 
                       __ZN15ModuleSceneItem12reserve_flagEv, __ZN15ModuleSceneItem12set_rotationERK9GMathVec3IdERKNS_5SpaceEPv, 
                       __ZN15ModuleSceneItem12set_shearingERK9GMathVec3IdERKNS_5SpaceEPv, 
                       __ZN15ModuleSceneItem13set_transformERK14GMathTransform, __ZN15ModuleSceneItem14change_scalingERK9GMathVec3IdERKNS_5SpaceEPv, 
                       __ZN15ModuleSceneItem14get_scene_itemER5OfAppRKj, __ZN15ModuleSceneItem15change_rotationERK9GMathVec3IdERKNS_5SpaceEPv, 
                       __ZN15ModuleSceneItem15change_shearingERK9GMathVec3IdERKNS_5SpaceEPv, 
                       __ZN15ModuleSceneItem15set_translationERK9GMathVec3IdERKNS_5SpaceEPv, 
                       __ZN15ModuleSceneItem16get_object_countER5OfApp, __ZN15ModuleSceneItem16on_object_renameER8OfObjectRKN11EventObject9EventInfoEPv, 
                       __ZN15ModuleSceneItem17set_scaling_pivotERK9GMathVec3IdERKNS_5SpaceE, 
                       __ZN15ModuleSceneItem18change_translationERK9GMathVec3IdERKNS_5SpaceEPv, 
                       __ZN15ModuleSceneItem18enable_motion_blurERKb, __ZN15ModuleSceneItem18module_constructorER8OfObject, 
                       __ZN15ModuleSceneItem18set_rotation_orderERK18GMathRotationOrder, 
                       __ZN15ModuleSceneItem18set_rotation_pivotERK9GMathVec3IdERKNS_5SpaceE, 
                       __ZN15ModuleSceneItem18set_scaling_offsetERK9GMathVec3IdERKNS_5SpaceEPv, 
                       __ZN15ModuleSceneItem19get_all_scene_itemsER5OfAppR10CoreVectorIPS_E, 
                       __ZN15ModuleSceneItem19get_visibility_modeERK8OfObject, __ZN15ModuleSceneItem19in_place_set_parentEPKS_RKb, 
                       __ZN15ModuleSceneItem19inplace_set_scalingERK9GMathVec3IdERKNS_5SpaceEPv, 
                       __ZN15ModuleSceneItem19on_attribute_changeERK6OfAttrRiRKi, 
                       __ZN15ModuleSceneItem19require_motion_blurERKi, __ZN15ModuleSceneItem19reset_scaling_pivotEv, 
                       __ZN15ModuleSceneItem19set_rotation_offsetERK9GMathVec3IdERKNS_5SpaceEPv, 
                       __ZN15ModuleSceneItem20change_scaling_pivotERK9GMathVec3IdERKNS_5SpaceE, 
                       __ZN15ModuleSceneItem20inplace_set_rotationERK9GMathVec3IdERKNS_5SpaceEPv, 
                       __ZN15ModuleSceneItem20reset_rotation_pivotEv, __ZN15ModuleSceneItem21change_rotation_pivotERK9GMathVec3IdERKNS_5SpaceE, 
                       __ZN15ModuleSceneItem21change_scaling_offsetERK9GMathVec3IdERKNS_5SpaceEPv, 
                       __ZN15ModuleSceneItem21is_in_place_parentingER5OfAppRKNS_17ParentInPlaceModeE, 
                       __ZN15ModuleSceneItem21set_matrices_as_dirtyERKN6OfAttr9ValuePageE, 
                       __ZN15ModuleSceneItem22change_rotation_offsetERK9GMathVec3IdERKNS_5SpaceEPv, 
                       __ZN15ModuleSceneItem22inplace_change_scalingERK9GMathVec3IdERKNS_5SpaceEPv, 
                       __ZN15ModuleSceneItem22set_translation_offsetERK9GMathVec3IdERKNS_5SpaceEPv, 
                       __ZN15ModuleSceneItem23inplace_change_rotationERK9GMathVec3IdERKNS_5SpaceEPv, 
                       __ZN15ModuleSceneItem23inplace_set_translationERK9GMathVec3IdERKNS_5SpaceEPv, 
                       __ZN15ModuleSceneItem24on_attribute_flag_changeER8OfObjectRKN11EventObject9EventInfoEPv, 
                       __ZN15ModuleSceneItem25change_translation_offsetERK9GMathVec3IdERKNS_5SpaceEPv, 
                       __ZN15ModuleSceneItem25on_attribute_change_eventER8OfObjectRKN11EventObject9EventInfoEPv, 
                       __ZN15ModuleSceneItem25set_rotation_offset_orderERK18GMathRotationOrder, 
                       __ZN15ModuleSceneItem26inplace_change_translationERK9GMathVec3IdERKNS_5SpaceEPv, 
                       __ZN15ModuleSceneItem26inplace_set_scaling_offsetERK9GMathVec3IdERKNS_5SpaceEPv, 
                       __ZN15ModuleSceneItem27inplace_set_rotation_offsetERK9GMathVec3IdERKNS_5SpaceEPv, 
                       __ZN15ModuleSceneItem28update_animation_motion_blurEb, __ZN15ModuleSceneItem29inplace_change_scaling_offsetERK9GMathVec3IdERKNS_5SpaceEPv, 
                       __ZN15ModuleSceneItem29set_kinematic_full_name_dirtyEv, __ZN15ModuleSceneItem30inplace_change_rotation_offsetERK9GMathVec3IdERKNS_5SpaceEPv, 
                       __ZN15ModuleSceneItem30inplace_set_translation_offsetERK9GMathVec3IdERKNS_5SpaceEPv, 
                       __ZN15ModuleSceneItem32compute_active_constraints_countEv, 
                       __ZN15ModuleSceneItem33inplace_change_translation_offsetERK9GMathVec3IdERKNS_5SpaceEPv, 
                       __ZN15ModuleSceneItem33register_component_implementationEv, 
                       __ZN15ModuleSceneItemC1Ev, __ZN15ModuleSceneItemC2Ev, __ZN15ModuleSceneItemD0Ev, 
                       __ZN15ModuleSceneItemD1Ev, __ZN15ModuleSceneItemD2Ev, __ZN15ModuleScripting10class_infoEv, 
                       __ZN15ModuleScripting12get_languageEv, __ZN15ModuleScripting14execute_scriptERK13ExecutionModeRK10CoreStringRS3_Rb, 
                       __ZN15ModuleScripting18module_constructorER8OfObject, __ZN15ModuleScripting19on_attribute_changeERK6OfAttrRiRKi, 
                       __ZN15ModuleScripting19register_directivesER5OfApp, __ZN15ModuleScripting21execute_single_scriptERK13ExecutionModeRK10CoreStringRS3_Rb, 
                       __ZN15ModuleScripting28is_scripting_command_definedEv, __ZN15ModuleScriptingC1Ev, 
                       __ZN15ModuleScriptingC2Ev, __ZN15ModuleScriptingD0Ev, __ZN15ModuleScriptingD1Ev, 
                       __ZN15ModuleScriptingD2Ev, __ZN15NgCpuIntegrator14simple_shadingER8NgCpuCtxR17NgRenderThreadCtxRK11CtxRaytraceRKjR15NgShadingOutput, 
                       __ZN15NgCpuIntegrator3pbrER8NgCpuCtxR17NgRenderThreadCtxRK11CtxRaytraceRKjR15NgShadingOutput, 
                       __ZN15NgCpuIntegrator6previzER8NgCpuCtxR17NgRenderThreadCtxRK11CtxRaytraceRKjR15NgShadingOutput, 
                       __ZN15NgGoldenSampler4randEv, __ZN15NgGoldenSampler4seedERKf, 
                       __ZN15NgLightResource4syncEPK16R2cSceneDelegateRK7CtxEvalb, 
                       __ZN15NgLightResource5clearEP13NgRenderLight, __ZN15NgLightResourceD1Ev, 
                       __ZN15NgLightResourceD2Ev, __ZN15NgOptixItemLeaf11synchronizeEPK17ModuleSceneObject, 
                       __ZN15NgOptixItemLeaf15init_propertiesE14CoreBasicArrayIyES0_IjE, 
                       __ZN15NgOptixItemLeaf15sync_propertiesEv, __ZN15NgOptixItemLeaf16get_resource_idsEv, 
                       __ZN15NgOptixItemLeaf5buildEb, __ZN15NgOptixItemLeafC1Eyy14CoreBasicArrayIyES0_IjEPf, 
                       __ZN15NgOptixItemLeafC1Eyyy14CoreBasicArrayIyES0_IjEPK14ModuleGeometryPf20IxOptixMotionOptionsj, 
                       __ZN15NgOptixItemLeafC2Eyy14CoreBasicArrayIyES0_IjEPf, __ZN15NgOptixItemLeafC2Eyyy14CoreBasicArrayIyES0_IjEPK14ModuleGeometryPf20IxOptixMotionOptionsj, 
                       __ZN15NgOptixItemLeafD0Ev, __ZN15NgOptixItemLeafD1Ev, __ZN15NgOptixItemLeafD2Ev, 
                       __ZN15NgOptixResourceD0Ev, __ZN15NgOptixResourceD1Ev, __ZN15NgOptixResourceD2Ev, 
                       __ZN15NgShaderManager10initializeER9AppObject, __ZN15NgShaderManager14acquire_shaderERK10CoreString, 
                       __ZN15NgShaderManager14is_initializedEv, __ZN15NgShaderManager14release_shaderEP10NgShaderId, 
                       __ZN15NgShaderManager18get_shading_systemEv, __ZN15NgShaderManager19get_shading_contextERKj, 
                       __ZN15NgShaderManager1mEv, __ZN15NgShaderManager24get_optix_shading_systemEv, 
                       __ZN15NgShaderManager25get_optix_shading_contextERKj, __ZN15OfCommandCaller13add_signatureEPFP9OfCommandPvRK9CoreArrayI17OfCommandArgumentEE, 
                       __ZN15OfCommandCaller13get_signatureERK14CoreBasicArrayI17OfCommandArgumentE, 
                       __ZN15OfCommandCaller14create_commandER9CoreArrayI17OfCommandArgumentE, 
                       __ZN15OfCommandCaller4callEPvRK14CoreBasicArrayI17OfCommandArgumentE, 
                       __ZN15OfCommandCaller4callEPvRK16OfCommandOptionsRK14CoreBasicArrayI17OfCommandArgumentE, 
                       __ZN15OfCommandCaller4callEPvRK16OfCommandOptionsRK17OfCommandArgumentS6_S6_S6_S6_S6_S6_S6_S6_S6_S6_S6_S6_S6_S6_S6_S6_S6_S6_S6_S6_S6_S6_S6_S6_S6_S6_S6_S6_S6_S6_S6_S6_S6_S6_S6_S6_S6_S6_S6_, 
                       __ZN15OfCommandCaller4callEPvRK17OfCommandArgumentS3_S3_S3_S3_S3_S3_S3_S3_S3_S3_S3_S3_S3_S3_S3_S3_S3_S3_S3_S3_S3_S3_S3_S3_S3_S3_S3_S3_S3_S3_S3_S3_S3_S3_S3_S3_S3_S3_S3_, 
                       __ZN15OfCommandCallerC1ER16OfCommandManagerRK10CoreStringPv, 
                       __ZN15OfCommandCallerC2ER16OfCommandManagerRK10CoreStringPv, 
                       __ZN15OfCommandCallerD0Ev, __ZN15OfCommandCallerD1Ev, __ZN15OfCommandCallerD2Ev, 
                       __ZN15OfContextEngine10class_infoEv, __ZN15OfContextEngine10on_add_camERKNS_7CAMInfoE, 
                       __ZN15OfContextEngine12parse_serialER10CoreVectorIP11ParserEntryERK14CoreBasicArrayIS2_E, 
                       __ZN15OfContextEngine12set_attr_docERK13CoreClassInfoRK10CoreStringS5_, 
                       __ZN15OfContextEngine13add_attributeERK10CoreStringRKN10OfPlugType4TypeERKNS3_9ContainerERKNS3_10VisualHintES2_, 
                       __ZN15OfContextEngine13add_attributeERKN6OfItem18AttrCreationParamsE, 
                       __ZN15OfContextEngine13create_engineER9OfContext, __ZN15OfContextEngine13is_shadowableERK6OfItem, 
                       __ZN15OfContextEngine13on_item_eventERKN11EventObject9EventInfoEP6OfItem, 
                       __ZN15OfContextEngine13pre_serializeERK15OfSerialOptions, 
                       __ZN15OfContextEngine14get_descriptorEv, __ZN15OfContextEngine14post_serializeEv, 
                       __ZN15OfContextEngine14set_engine_docERK13CoreClassInfoRK10CoreString, 
                       __ZN15OfContextEngine15ParseSerialData25add_object_serial_to_loadEPK11ParserEntryPNS_12ObjectSerialE, 
                       __ZN15OfContextEngine15ParseSerialDataC1Ev, __ZN15OfContextEngine15ParseSerialDataC2Ev, 
                       __ZN15OfContextEngine15ParseSerialDataD0Ev, __ZN15OfContextEngine15ParseSerialDataD1Ev, 
                       __ZN15OfContextEngine15ParseSerialDataD2Ev, __ZN15OfContextEngine15merge_overridesE14CoreBasicArrayIPS_E, 
                       __ZN15OfContextEngine15set_custom_iconERK13CoreClassInfoiPK7GuiIcon, 
                       __ZN15OfContextEngine15suspend_objectsERK10CoreVectorIP6OfItemE, 
                       __ZN15OfContextEngine16deserialize_attrER11ParserEntryRK15OfSerialOptions, 
                       __ZN15OfContextEngine16on_context_eventEj, __ZN15OfContextEngine16populate_optionsEv, 
                       __ZN15OfContextEngine16remove_attributeER6OfAttr, __ZN15OfContextEngine16remove_attributeERK10CoreString, 
                       __ZN15OfContextEngine17_populate_optionsEv, __ZN15OfContextEngine17deserialize_attrsEPNS_15ParseSerialDataERK15OfSerialOptionsP14AppProgressBar, 
                       __ZN15OfContextEngine17deserialize_attrsER15OfObjectFactoryR10CoreVectorIPNS_12ObjectSerialEERK15OfSerialOptionsP14AppProgressBarb, 
                       __ZN15OfContextEngine17get_build_packageEv, __ZN15OfContextEngine17serialize_optionsERK9OfContextRK15OfSerialOptions, 
                       __ZN15OfContextEngine17set_content_dirtyERKb, __ZN15OfContextEngine18get_item_full_nameERK6OfItem, 
                       __ZN15OfContextEngine18on_options_changedER8OfObject, __ZN15OfContextEngine19_on_options_changedER8OfObject, 
                       __ZN15OfContextEngine19deserialize_objectsEPNS_15ParseSerialDataERK15OfSerialOptionsP14AppProgressBar, 
                       __ZN15OfContextEngine19deserialize_optionsER9OfContextPK11ParserEntryRK15OfSerialOptions, 
                       __ZN15OfContextEngine19prepare_serial_dataERNS_15ParseSerialDataER10CoreVectorIP11ParserEntryERK14CoreBasicArrayIS4_E, 
                       __ZN15OfContextEngine19suspend_all_objectsEv, __ZN15OfContextEngine20add_custom_attributeERK10CoreStringRKN10OfPlugType4TypeERKNS3_9ContainerERKNS3_10VisualHintES2_, 
                       __ZN15OfContextEngine20add_custom_attributeERKN6OfItem18AttrCreationParamsE, 
                       __ZN15OfContextEngine20add_option_attributeERK10CoreStringRKN10OfPlugType4TypeERKNS3_9ContainerERKNS3_10VisualHintES2_, 
                       __ZN15OfContextEngine20add_option_attributeERKN6OfItem18AttrCreationParamsE, 
                       __ZN15OfContextEngine20do_deserialize_attrsEPNS_15ParseSerialDataERK15OfSerialOptionsP14AppProgressBar, 
                       __ZN15OfContextEngine21remove_all_attributesEv, __ZN15OfContextEngine22deserialize_data_attrsERNS_15ParseSerialDataERS_RK15OfSerialOptionsP14AppProgressBar, 
                       __ZN15OfContextEngine22do_deserialize_objectsEPNS_15ParseSerialDataERK15OfSerialOptionsP14AppProgressBar, 
                       __ZN15OfContextEngine24deserialize_data_objectsERNS_15ParseSerialDataERS_RK15OfSerialOptionsP14AppProgressBar, 
                       __ZN15OfContextEngine24deserialize_data_optionsERNS_15ParseSerialDataERS_RK15OfSerialOptions, 
                       __ZN15OfContextEngine27clean_all_suspended_objectsEb, __ZN15OfContextEngine28remove_all_custom_attributesEv, 
                       __ZN15OfContextEngine33register_component_implementationEv, 
                       __ZN15OfContextEngine4initEP11ParserGroup, __ZN15OfContextEngine7CAMInfo10build_ruleERK14CoreBasicArrayI10CoreStringE, 
                       __ZN15OfContextEngine8set_iconERK10CoreStringPK7GuiIcon, __ZN15OfContextEngine8set_iconERK13CoreClassInfoPK7GuiIcon, 
                       __ZN15OfContextEngineC1ER9OfContext, __ZN15OfContextEngineC2ER9OfContext, 
                       __ZN15OfContextEngineD0Ev, __ZN15OfContextEngineD1Ev, __ZN15OfContextEngineD2Ev, 
                       __ZN15OfObjectFactory10add_objectERK10CoreStringS2_PK8OfObjectRKi, 
                       __ZN15OfObjectFactory10add_objectERK10CoreStringS2_RKi, __ZN15OfObjectFactory10class_infoEv, 
                       __ZN15OfObjectFactory10send_eventERKN11EventObject9EventInfoEP9OfContext, 
                       __ZN15OfObjectFactory10send_eventEjP9OfContext, __ZN15OfObjectFactory11add_commandEPFvP13OfCommandDataES1_b, 
                       __ZN15OfObjectFactory11add_commandER6OfAttrPFvP13OfCommandDataES3_RKb, 
                       __ZN15OfObjectFactory11add_commandER8OfObjectPFvP13OfCommandDataES3_, 
                       __ZN15OfObjectFactory11add_commandER9OfContextPFvP13OfCommandDataES3_, 
                       __ZN15OfObjectFactory11add_keyableER6OfAttrRKj, __ZN15OfObjectFactory11get_defaultEv, 
                       __ZN15OfObjectFactory11get_projectEv, __ZN15OfObjectFactory11get_versionEv, 
                       __ZN15OfObjectFactory11remove_enumERK15CoreBasicString, __ZN15OfObjectFactory11remove_enumERKj, 
                       __ZN15OfObjectFactory11remove_itemERK10CoreString, __ZN15OfObjectFactory12add_enum_cmdEP13OfCommandData, 
                       __ZN15OfObjectFactory12add_instanceERK8OfObjectRK10CoreStringRKi, 
                       __ZN15OfObjectFactory12remove_itemsERK14CoreBasicArrayI10CoreStringEP14AppProgressBar, 
                       __ZN15OfObjectFactory12remove_itemsERK14CoreBasicArrayI16OfBaseItemHandleILb0EEEP14AppProgressBar, 
                       __ZN15OfObjectFactory13remove_objectER8OfObject, __ZN15OfObjectFactory13remove_objectERK15CoreBasicString, 
                       __ZN15OfObjectFactory13rename_objectE18OfBaseObjectHandleILb0EERK10CoreString, 
                       __ZN15OfObjectFactory13rename_objectERK10CoreStringS2_, __ZN15OfObjectFactory13wait_for_enumERK10CoreStringP6OfAttr, 
                       __ZN15OfObjectFactory14clear_keyablesEv, __ZN15OfObjectFactory14get_build_nameEv, 
                       __ZN15OfObjectFactory14get_tools_rootEv, __ZN15OfObjectFactory15accept_keyablesERKb, 
                       __ZN15OfObjectFactory15get_copy_bufferER10CoreStringRK14CoreBasicArrayIS0_EP15OfSerialOptionsb, 
                       __ZN15OfObjectFactory15get_items_namesERK14CoreBasicArrayI16OfBaseItemHandleILb0EEER10CoreVectorI10CoreStringE, 
                       __ZN15OfObjectFactory15remove_commandsEPFvP13OfCommandDataES1_, 
                       __ZN15OfObjectFactory15remove_commandsER10CoreVectorIP22OfObjectFactoryCommandEPFvP13OfCommandDataES6_, 
                       __ZN15OfObjectFactory15remove_commandsER10CoreVectorIP22OfObjectFactoryCommandER8OfObject, 
                       __ZN15OfObjectFactory15remove_commandsER8OfObject, __ZN15OfObjectFactory15send_enum_eventEjP6OfEnum, 
                       __ZN15OfObjectFactory16get_copy_entriesER10CoreVectorIP11ParserEntryERK14CoreBasicArrayIP9OfContextERKS5_IP8OfObjectER15OfSerialOptionsb, 
                       __ZN15OfObjectFactory16get_default_nameEv, __ZN15OfObjectFactory16get_project_nameERK10CoreString, 
                       __ZN15OfObjectFactory16get_project_nameEv, __ZN15OfObjectFactory16get_shared_typesERK14CoreBasicArrayI10CoreVectorI10CoreStringEE, 
                       __ZN15OfObjectFactory16get_shared_typesERK14CoreBasicArrayI16OfBaseAttrHandleILb0EEE, 
                       __ZN15OfObjectFactory16get_widgets_rootEv, __ZN15OfObjectFactory16process_commandsERK10CoreVectorIP22OfObjectFactoryCommandE, 
                       __ZN15OfObjectFactory16remove_all_enumsEv, __ZN15OfObjectFactory16set_current_timeERKd, 
                       __ZN15OfObjectFactory17get_external_rootEv, __ZN15OfObjectFactory17init_root_contextEv, 
                       __ZN15OfObjectFactory17paste_copy_bufferERK10CoreStringR10CoreVectorI16OfBaseItemHandleILb0EEEP9OfContext, 
                       __ZN15OfObjectFactory17paste_copy_bufferERK10CoreStringR9OfContextR10CoreVectorI16OfBaseItemHandleILb0EEE, 
                       __ZN15OfObjectFactory18add_generic_objectERK10CoreStringRKi, 
                       __ZN15OfObjectFactory18paste_copy_entriesEP11ParserGroupP9OfContextR10CoreVectorI16OfBaseItemHandleILb0EEERK15OfSerialOptions, 
                       __ZN15OfObjectFactory18register_hierarchyERK10CoreStringPNS_9HierarchyE, 
                       __ZN15OfObjectFactory18remove_all_objectsEv, __ZN15OfObjectFactory19add_attribute_groupERK10CoreString, 
                       __ZN15OfObjectFactory19get_tools_root_nameEv, __ZN15OfObjectFactory19register_directivesER5OfApp, 
                       __ZN15OfObjectFactory20set_resource_managerEP15ResourceManager, 
                       __ZN15OfObjectFactory20unregister_hierarchyERK10CoreString, 
                       __ZN15OfObjectFactory21end_protection_changeEv, __ZN15OfObjectFactory21get_widgets_root_nameEv, 
                       __ZN15OfObjectFactory21paste_create_embeddedER8OfObjectP11ParserGroupR15OfSerialOptions, 
                       __ZN15OfObjectFactory21paste_create_pendingsER13CoreHashTableIP9OfContext10CoreVectorIP11ParserEntryEES2_P11ParserGroupR15OfSerialOptions, 
                       __ZN15OfObjectFactory22get_external_root_nameEv, __ZN15OfObjectFactory23begin_protection_changeEv, 
                       __ZN15OfObjectFactory25on_remove_embedded_objectEP8OfObject, 
                       __ZN15OfObjectFactory28get_scene_assembly_containerEv, __ZN15OfObjectFactory28register_protection_callbackEPFvPvES0_, 
                       __ZN15OfObjectFactory30unregister_protection_callbackEPFvPvES0_, 
                       __ZN15OfObjectFactory33get_scene_assembly_container_nameEv, 
                       __ZN15OfObjectFactory34object_dependencies_with_exclusionEP8OfObject7CoreSetIP9OfContextES2_IS1_ERS2_IP6OfItemE, 
                       __ZN15OfObjectFactory37on_application_evaluation_interruptedER5OfAppRKN11EventObject9EventInfoEPv, 
                       __ZN15OfObjectFactory42get_copy_buffer_with_external_dependenciesER10CoreStringRK14CoreBasicArrayIS0_ER15OfSerialOptionsb, 
                       __ZN15OfObjectFactory4loadER10ParserFileR15OfSerialOptionsRjS4_P14AppProgressBar, 
                       __ZN15OfObjectFactory5flushEv, __ZN15OfObjectFactory5resetEv, 
                       __ZN15OfObjectFactory8add_enumEP6OfEnum, __ZN15OfObjectFactory8add_enumERK15CoreBasicStringRKj, 
                       __ZN15OfObjectFactory8get_rootEv, __ZN15OfObjectFactory9get_buildEv, 
                       __ZN15OfObjectFactory9get_itemsERK14CoreBasicArrayI10CoreStringER10CoreVectorI16OfBaseItemHandleILb0EEE, 
                       __ZN15OfObjectFactory9get_itemsERK14CoreBasicArrayI10CoreStringER9CoreArrayI16OfBaseItemHandleILb0EEE, 
                       __ZN15OfObjectFactory9init_varsEv, __ZN15OfObjectFactory9is_kindofERK15CoreBasicStringS2_, 
                       __ZN15OfObjectFactoryC1ER5OfAppRK10CoreVectorI10CoreStringE, 
                       __ZN15OfObjectFactoryC2ER5OfAppRK10CoreVectorI10CoreStringE, 
                       __ZN15OfObjectFactoryD0Ev, __ZN15OfObjectFactoryD1Ev, __ZN15OfObjectFactoryD2Ev, 
                       __ZN15OfSerialOptions11get_defaultEv, __ZN15OfSerialOptions18initialize_defaultER5OfApp, 
                       __ZN15OfSerialOptions21add_project_resourcesERK11ParserGroup, 
                       __ZN15OfSerialOptions4initERKNS_4ModeERKdS4_, __ZN15OfSerialOptionsC1ER5OfAppRKNS_4ModeEb, 
                       __ZN15OfSerialOptionsC1ERKS_, __ZN15OfSerialOptionsC1Ev, __ZN15OfSerialOptionsC2ER5OfAppRKNS_4ModeEb, 
                       __ZN15OfSerialOptionsC2ERKS_, __ZN15OfSerialOptionsC2Ev, __ZN15OfSerialOptionsD1Ev, 
                       __ZN15OfSerialOptionsD2Ev, __ZN15OfSerialOptionsaSERKS_, __ZN15OsdMeshGeometry10class_infoEv, 
                       __ZN15OsdMeshGeometryC1ERKS_, __ZN15OsdMeshGeometryC1Ev, __ZN15OsdMeshGeometryC2ERKS_, 
                       __ZN15OsdMeshGeometryC2Ev, __ZN15OsdMeshProperty10class_infoEv, 
                       __ZN15OsdMeshProperty12init_indicesEPK16ResourceProperty, 
                       __ZN15OsdMeshProperty4initERKjPK16ResourceProperty, __ZN15OsdMeshPropertyC1ERK7OsdMeshRK16PolyMeshProperty, 
                       __ZN15OsdMeshPropertyC2ERK7OsdMeshRK16PolyMeshProperty, __ZN15OsdMeshPropertyD0Ev, 
                       __ZN15OsdMeshPropertyD1Ev, __ZN15OsdMeshPropertyD2Ev, __ZN15OsdMeshTopology10class_infoEv, 
                       __ZN15OsdMeshTopologyC1ERKS_, __ZN15OsdMeshTopologyC1Ev, __ZN15OsdMeshTopologyC2ERKS_, 
                       __ZN15OsdMeshTopologyC2Ev, __ZN15OslModuleShader10class_infoEv, 
                       __ZN15OslModuleShader17module_destructorEv, __ZN15OslModuleShader18module_constructorER8OfObject, 
                       __ZN15OslModuleShader19on_attribute_changeERK6OfAttrRiRKi, 
                       __ZN15OslModuleShaderC1Ev, __ZN15OslModuleShaderC2Ev, __ZN15PbrSasSampleCtx8finalizeEv, 
                       __ZN15PbrSasSampleCtxC1EP24GeometryObjectDescriptor, __ZN15PbrSasSampleCtxC1ERK9CtxShaderRK9GMathVec3IdERK14CoreBasicArrayIfEPK10PbrScatterR9PbrSampledP24GeometryObjectDescriptor, 
                       __ZN15PbrSasSampleCtxC1ERKS_, __ZN15PbrSasSampleCtxC2EP24GeometryObjectDescriptor, 
                       __ZN15PbrSasSampleCtxC2ERK9CtxShaderRK9GMathVec3IdERK14CoreBasicArrayIfEPK10PbrScatterR9PbrSampledP24GeometryObjectDescriptor, 
                       __ZN15PbrSasSampleCtxC2ERKS_, __ZN15PbrSasSampleCtxD1Ev, __ZN15PbrSasSampleCtxD2Ev, 
                       __ZN15R2cRenderBuffer13create_aov_idERK10CoreString, __ZN15R2cRenderBuffer15gl_buffers_dataE, 
                       __ZN15R2cRenderBuffer16aov_buffers_dataE, __ZN15R2cRenderBuffer20get_builtin_aov_infoENS_5AOVIdE, 
                       __ZN15ResourceManager10class_infoEv, __ZN15ResourceManager14track_resourceEP14ResourceObjectRK14CoreBasicArrayI10CoreStringE, 
                       __ZN15ResourceManager19clear_all_resourcesEv, __ZN15ResourceManager19on_application_idleER7AppBaseRKN11EventObject9EventInfoEPv, 
                       __ZN15ResourceManager20flush_pending_eventsEv, __ZN15ResourceManager20update_external_fileEv, 
                       __ZN15ResourceManager22clear_unused_resourcesEv, __ZN15ResourceManager26on_resource_memory_changedEv, 
                       __ZN15ResourceManager32check_external_file_modificationEv, 
                       __ZN15ResourceManager43check_external_file_modification_and_updateEv, 
                       __ZN15ResourceManager4linkER12ResourceUserRK10CoreStringRK14CoreBasicArrayIS2_E, 
                       __ZN15ResourceManager6unlinkER18ResourceConnectionRKb, __ZN15ResourceManagerC1ER7AppBase, 
                       __ZN15ResourceManagerC2ER7AppBase, __ZN15ResourceManagerD0Ev, 
                       __ZN15ResourceManagerD1Ev, __ZN15ResourceManagerD2Ev, __ZN15Sample2DLutTask15execution_entryERKj, 
                       __ZN15SdsMeshGeometry10class_infoEv, __ZN15SdsMeshGeometry20PolyMeshSampleLoader13get_positionsERK17GMathTimeSamplingRKjP9GMathVec3IfE, 
                       __ZN15SdsMeshGeometry20update_bbox_and_areaEP14AppProgressBar, 
                       __ZN15SdsMeshGeometry20update_bbox_and_areaER20SysThreadTaskManagerP14AppProgressBar, 
                       __ZN15SdsMeshGeometry22set_positions_samplingERK17GMathTimeSampling17CoreSharedPointerINS_12SampleLoaderE17CoreSharedCounterE, 
                       __ZN15SdsMeshGeometry3setERK11SdsMeshBaseRK9CoreArrayI9GMathVec3IfEES8_RKNS_17InterpolationModeEP14AppProgressBar, 
                       __ZN15SdsMeshGeometryC1ERKS_, __ZN15SdsMeshGeometryC1Ev, __ZN15SdsMeshGeometryC2ERKS_, 
                       __ZN15SdsMeshGeometryC2Ev, __ZN15SdsMeshGeometryD0Ev, __ZN15SdsMeshGeometryD1Ev, 
                       __ZN15SdsMeshGeometryD2Ev, __ZN15SdsMeshProperty10class_infoEv, 
                       __ZN15SdsMeshProperty12init_indicesEv, __ZN15SdsMeshProperty4initERKjPK16ResourceProperty, 
                       __ZN15SdsMeshPropertyC1ERK7SdsMeshRK16PolyMeshProperty, __ZN15SdsMeshPropertyC2ERK7SdsMeshRK16PolyMeshProperty, 
                       __ZN15SdsMeshPropertyD0Ev, __ZN15SdsMeshPropertyD1Ev, __ZN15SdsMeshPropertyD2Ev, 
                       __ZN15ShadingVariable10s_no_valueEv, __ZN15ShadingVariable11strip_flagsER10CoreStringRi, 
                       __ZN15ShadingVariable13get_flag_nameERKNS_4FlagERKb, __ZN15ShadingVariable14strip_operatorER10CoreStringRNS_8OperatorE, 
                       __ZN15ShadingVariable17get_operator_nameERKNS_8OperatorERKb, 
                       __ZN15SysSocketClient10class_infoEv, __ZN15SysSocketClient11try_connectERK10CoreStringRKjS4_, 
                       __ZN15SysSocketClient7connectERK10CoreStringRKj, __ZN15SysSocketClientC1Ev, 
                       __ZN15SysSocketClientC2Ev, __ZN15SysSocketClientD0Ev, __ZN15SysSocketClientD1Ev, 
                       __ZN15SysSocketClientD2Ev, __ZN15SysSocketServer10class_infoEv, 
                       __ZN15SysSocketServer6acceptEv, __ZN15SysSocketServerC1ERKj, 
                       __ZN15SysSocketServerC2ERKj, __ZN15SysThreadWorker10class_infoEv, 
                       __ZN15WrappedUserDataC1EP8UserData, __ZN15WrappedUserDataC2EP8UserData, 
                       __ZN15WrappedUserDataD0Ev, __ZN15WrappedUserDataD1Ev, __ZN15WrappedUserDataD2Ev, 
                       __ZN16AppShelfCategory15get_shelf_itemsEv, __ZN16AppShelfCategory15set_always_showEb, 
                       __ZN16AppShelfCategoryC1ERKS_, __ZN16AppShelfCategoryC2ERKS_, 
                       __ZN16AppShelfCategoryaSERKS_, __ZN16AssociationsData10remove_allE10CoreStringRKb, 
                       __ZN16AssociationsData11get_defaultE10CoreString, __ZN16AssociationsData11get_defaultERK6OfItemRKbPK14CoreBasicArrayI10CoreStringE, 
                       __ZN16AssociationsData11get_defaultERK7OfClassRKbPK14CoreBasicArrayI10CoreStringE, 
                       __ZN16AssociationsData11set_defaultE10CoreStringRKS0_RKb, 
                       __ZN16AssociationsData14get_class_nameERKj, __ZN16AssociationsData3addE10CoreStringRK10CoreVectorIS0_ERKb, 
                       __ZN16AssociationsData3addE10CoreStringRKS0_RKbS4_, __ZN16AssociationsData3getE10CoreString, 
                       __ZN16AssociationsData3getE10CoreStringRKNS_4TypeE, __ZN16AssociationsData3getERK6OfItemRKbPK14CoreBasicArrayI10CoreStringE, 
                       __ZN16AssociationsData3getERK7OfClassRKbPK14CoreBasicArrayI10CoreStringE, 
                       __ZN16AssociationsData3getERKj, __ZN16AssociationsData3setE10CoreStringRK10CoreVectorIS0_ERKb, 
                       __ZN16AssociationsData5resetERKb, __ZN16AssociationsData6removeE10CoreStringRK10CoreVectorIS0_ERKb, 
                       __ZN16AssociationsData6removeE10CoreStringRKS0_RKb, __ZN16AssociationsData9copy_fromERKS_, 
                       __ZN16ColorIOConverter20set_lut_3d_edge_sizeEj, __ZN16ColorIOConverter21configure_for_displayE15CoreBasicStringS0_, 
                       __ZN16ColorIOConverter21configure_for_displayERK10CoreStringS2_S2_, 
                       __ZN16ColorIOConverter9configureERK10CoreStringS2_, __ZN16ColorIOConverterC1Ev, 
                       __ZN16ColorIOConverterC2Ev, __ZN16ColorIOConverterD1Ev, __ZN16ColorIOConverterD2Ev, 
                       __ZN16CommandRegistrar11get_commandERK10CoreString, __ZN16CommandRegistrar11get_commandERKj, 
                       __ZN16CommandRegistrar15add_command_docERK19CommandSignatureDoc, 
                       __ZN16CommandRegistrar15call_custom_cmdERK10CoreStringRK14CoreBasicArrayI17OfCommandArgumentERK16OfCommandOptions, 
                       __ZN16CommandRegistrar16register_commandERK10CoreStringPFP9OfCommandPvRK9CoreArrayI17OfCommandArgumentEERKNS7_4TypeES2_S5_RKb, 
                       __ZN16CommandRegistrar16register_commandERK10CoreStringPFP9OfCommandPvRK9CoreArrayI17OfCommandArgumentEERKNS7_4TypeES2_SF_S2_S5_RKb, 
                       __ZN16CommandRegistrar16register_commandERK10CoreStringPFP9OfCommandPvRK9CoreArrayI17OfCommandArgumentEERKNS7_4TypeES2_SF_S2_SF_S2_S5_RKb, 
                       __ZN16CommandRegistrar16register_commandERK10CoreStringPFP9OfCommandPvRK9CoreArrayI17OfCommandArgumentEERKNS7_4TypeES2_SF_S2_SF_S2_SF_S2_S5_RKb, 
                       __ZN16CommandRegistrar16register_commandERK10CoreStringPFP9OfCommandPvRK9CoreArrayI17OfCommandArgumentEERKNS7_4TypeES2_SF_S2_SF_S2_SF_S2_SF_S2_S5_RKb, 
                       __ZN16CommandRegistrar16register_commandERK10CoreStringPFP9OfCommandPvRK9CoreArrayI17OfCommandArgumentEERKNS7_4TypeES2_SF_S2_SF_S2_SF_S2_SF_S2_SF_S2_S5_RKb, 
                       __ZN16CommandRegistrar16register_commandERK10CoreStringPFP9OfCommandPvRK9CoreArrayI17OfCommandArgumentEERKNS7_4TypeES2_SF_S2_SF_S2_SF_S2_SF_S2_SF_S2_SF_S2_S5_RKb, 
                       __ZN16CommandRegistrar16register_commandERK10CoreStringPFP9OfCommandPvRK9CoreArrayI17OfCommandArgumentEERKNS7_4TypeES2_SF_S2_SF_S2_SF_S2_SF_S2_SF_S2_SF_S2_SF_S2_S5_RKb, 
                       __ZN16CommandRegistrar16register_commandERK10CoreStringPFP9OfCommandPvRK9CoreArrayI17OfCommandArgumentEERKNS7_4TypeES2_SF_S2_SF_S2_SF_S2_SF_S2_SF_S2_SF_S2_SF_S2_SF_S2_S5_RKb, 
                       __ZN16CommandRegistrar16register_commandERK10CoreStringPFP9OfCommandPvRK9CoreArrayI17OfCommandArgumentEERKNS7_4TypeES2_SF_S2_SF_S2_SF_S2_SF_S2_SF_S2_SF_S2_SF_S2_SF_S2_SF_S2_S5_RKb, 
                       __ZN16CommandRegistrar16register_commandERK10CoreStringPFP9OfCommandPvRK9CoreArrayI17OfCommandArgumentEERKNS7_4TypeES2_SF_S2_SF_S2_SF_S2_SF_S2_SF_S2_SF_S2_SF_S2_SF_S2_SF_S2_SF_S2_S5_RKb, 
                       __ZN16CommandRegistrar16register_commandERK10CoreStringPFP9OfCommandPvRK9CoreArrayI17OfCommandArgumentEERKNS7_4TypeES2_SF_S2_SF_S2_SF_S2_SF_S2_SF_S2_SF_S2_SF_S2_SF_S2_SF_S2_SF_S2_SF_S2_S5_RKb, 
                       __ZN16CommandRegistrar16register_commandERK10CoreStringPFP9OfCommandPvRK9CoreArrayI17OfCommandArgumentEERKNS7_4TypeES2_SF_S2_SF_S2_SF_S2_SF_S2_SF_S2_SF_S2_SF_S2_SF_S2_SF_S2_SF_S2_SF_S2_SF_S2_S5_RKb, 
                       __ZN16CommandRegistrar16register_commandERK10CoreStringPFP9OfCommandPvRK9CoreArrayI17OfCommandArgumentEERKNS7_4TypeES2_SF_S2_SF_S2_SF_S2_SF_S2_SF_S2_SF_S2_SF_S2_SF_S2_SF_S2_SF_S2_SF_S2_SF_S2_SF_S2_S5_RKb, 
                       __ZN16CommandRegistrar16register_commandERK10CoreStringPFP9OfCommandPvRK9CoreArrayI17OfCommandArgumentEERKNS7_4TypeES2_SF_S2_SF_S2_SF_S2_SF_S2_SF_S2_SF_S2_SF_S2_SF_S2_SF_S2_SF_S2_SF_S2_SF_S2_SF_S2_SF_S2_S5_RKb, 
                       __ZN16CommandRegistrar16register_commandERK10CoreStringPFP9OfCommandPvRK9CoreArrayI17OfCommandArgumentEES5_RKb, 
                       __ZN16CommandRegistrar17get_commands_docsEv, __ZN16CommandRegistrar18get_commands_countEv, 
                       __ZN16CommandRegistrar19get_command_managerEv, __ZN16CommandRegistrar20get_command_instanceERK10CoreStringRK14CoreBasicArrayI17OfCommandArgumentE, 
                       __ZN16CommandRegistrar24has_custom_set_value_cmdERK10CoreStringS2_, 
                       __ZN16CommandRegistrar24has_custom_set_value_cmdERK10CoreStringS2_RS0_, 
                       __ZN16CommandRegistrar25call_custom_set_value_cmdERK10CoreStringRK14CoreBasicArrayI17OfCommandArgumentERK16OfCommandOptions, 
                       __ZN16CommandRegistrar25register_custom_set_valueERK10CoreStringS2_S2_, 
                       __ZN16CommandRegistrar27has_custom_remove_value_cmdERK10CoreStringS2_RS0_, 
                       __ZN16CommandRegistrar28call_custom_remove_value_cmdERK10CoreStringRK14CoreBasicArrayI17OfCommandArgumentERK16OfCommandOptions, 
                       __ZN16CommandRegistrar28register_custom_remove_valueERK10CoreStringS2_S2_, 
                       __ZN16CommandRegistrar4callERK10CoreStringRK14CoreBasicArrayI17OfCommandArgumentE, 
                       __ZN16CommandRegistrar4callERK10CoreStringRK14CoreBasicArrayI17OfCommandArgumentERK16OfCommandOptions, 
                       __ZN16CommandRegistrar4callERK10CoreStringRK14CoreBasicArrayI17OfCommandArgumentERS4_, 
                       __ZN16CommandRegistrar4callERK10CoreStringRK14CoreBasicArrayI17OfCommandArgumentERS4_RK16OfCommandOptions, 
                       __ZN16CommandRegistrar6unexecE17CoreSharedPointerI9OfCommand17CoreSharedCounterE, 
                       __ZN16CommandRegistrar7do_execE17CoreSharedPointerI9OfCommand17CoreSharedCounterE, 
                       __ZN16CommandRegistrar7get_appEv, __ZN16ComponentFactory10add_schemaERK18ComponentInterfaceRK10CoreStringS5_, 
                       __ZN16ComponentFactory10class_infoEv, __ZN16ComponentFactory13add_interfaceERK14CoreBasicArrayIPK18ComponentInterfaceERK10CoreStringS9_, 
                       __ZN16ComponentFactory15get_status_nameERKNS_15ComponentStatusE, 
                       __ZN16ComponentFactory16notify_dirtinessERK13CoreClassInfoPKc, 
                       __ZN16ComponentFactory18get_status_messageERKNS_15ComponentStatusE, 
                       __ZN16ComponentFactory18has_implementationERK18ComponentInterfaceRK13CoreClassInfo, 
                       __ZN16ComponentFactory18set_implementationERK15ComponentSchemaRK13CoreClassInfoP23ComponentImplementation, 
                       __ZN16ComponentFactory18set_implementationERK18ComponentInterfaceRK13CoreClassInfoP23ComponentImplementation, 
                       __ZN16ComponentFactory20get_class_has_schemaERK13CoreClassInfoPK15ComponentSchema, 
                       __ZN16ComponentFactory23get_class_has_interfaceERK13CoreClassInfoPK18ComponentInterface, 
                       __ZN16ComponentFactoryC1Ev, __ZN16ComponentFactoryC2Ev, __ZN16ComponentFactoryD0Ev, 
                       __ZN16ComponentFactoryD1Ev, __ZN16ComponentFactoryD2Ev, __ZN16CoreLoggerStdout10class_infoEv, 
                       __ZN16CoreLoggerStdout6outputERK14CoreLogMessage, __ZN16CoreLoggerStdoutC1Ev, 
                       __ZN16CoreLoggerStdoutC2Ev, __ZN16CtxTransmittance7compileERKdRKjRKf, 
                       __ZN16DisplacementMesh10MotionData6resizeERKjRKb, __ZN16DisplacementMesh10MotionDataC1ERKjPv, 
                       __ZN16DisplacementMesh10MotionDataC2ERKjPv, __ZN16DisplacementMesh10MotionDataD1Ev, 
                       __ZN16DisplacementMesh10MotionDataD2Ev, __ZN16DisplacementMesh10class_infoEv, 
                       __ZN16DisplacementMesh20sub_ray_hit_callbackEP21DisplacedPrimitiveGasRKjRK7CtxEvalR9CtxShaderR19GeometryRaytraceCtx, 
                       __ZN16DisplacementMesh23sub_ray_hit_mb_callbackEP21DisplacedPrimitiveGasRKjRK7CtxEvalR9CtxShaderR19GeometryRaytraceCtx, 
                       __ZN16DisplacementMesh24compute_primitive_splitsERK7CtxEvalRKjR10CoreVectorI9GMathVec2IfEERS5_I9GMathVec3IfEE, 
                       __ZN16DisplacementMesh24compute_primitive_valuesERK7CtxEvalRKjR10CoreVectorI9GMathVec2IfEERS5_I9GMathVec3IfEESD_R9CoreArrayI9GMathVec4IfEE, 
                       __ZN16DisplacementMesh24sub_frustum_hit_callbackEP21DisplacedPrimitiveGasRKjRK7CtxEvalR9CtxShaderR18GeometryFrustumCtx, 
                       __ZN16DisplacementMesh28sub_ray_hit_nearest_callbackEP21DisplacedPrimitiveGasRKjRK7CtxEvalR9CtxShaderR19GeometryRaytraceCtx, 
                       __ZN16DisplacementMesh31sub_ray_hit_nearest_mb_callbackEP21DisplacedPrimitiveGasRKjRK7CtxEvalR9CtxShaderR19GeometryRaytraceCtx, 
                       __ZN16DisplacementMesh3setERK7CtxEvalRK24DisplacementMeshTopologyP17ModuleSceneObjectRK14GeometryObjectSA_RK14CoreBasicArrayIP18ModuleDisplacementERKjjP14AppProgressBarb, 
                       __ZN16DisplacementMesh6stitchEv, __ZN16DisplacementMeshC1ERKS_, 
                       __ZN16DisplacementMeshC1Ev, __ZN16DisplacementMeshC2ERKS_, 
                       __ZN16DisplacementMeshC2Ev, __ZN16DisplacementMeshD0Ev, __ZN16DisplacementMeshD1Ev, 
                       __ZN16DisplacementMeshD2Ev, __ZN16GeometryCylinder10class_infoEv, 
                       __ZN16GeometryCylinderC1ERKfS1_RKjS1_RKb, __ZN16GeometryCylinderC2ERKfS1_RKjS1_RKb, 
                       __ZN16GeometryFragment21compute_differentialsERK14GeometrySamplePK8GMathRayIdER20GeometryDifferential, 
                       __ZN16GeometryFragment21compute_differentialsERK14GeometrySampleRKdR20GeometryDifferential, 
                       __ZN16GeometryFragment30compute_position_differentialsERK9GMathVec3IdES3_RK8GMathRayIdER28GeometryPositionDifferential, 
                       __ZN16GeometryFragment32compute_parametric_differentialsERK9GMathVec3IdES3_S3_S3_S3_R9GMathVec2IdES6_, 
                       __ZN16GeometryFragment36compute_texture_position_derivativesERK9GMathVec3IdES3_S3_S3_RS1_S4_, 
                       __ZN16GeometryOverride15on_object_eventER11EventObjectRKNS0_9EventInfoEPv, 
                       __ZN16GeometryOverrideD0Ev, __ZN16GeometryOverrideD1Ev, __ZN16GeometryOverrideD2Ev, 
                       __ZN16GeometryProperty10class_infoEv, __ZN16GeometryProperty17set_time_samplingERK17GMathTimeSampling, 
                       __ZN16GeometryProperty20set_deferred_loadingEPFvRKjPNS_12LoadDataInfoEES3_, 
                       __ZN16GeometryProperty22set_evaluate_callbacksEPFjRKS_RK7CtxEvalRK16GeometryFragmentRKjPxSA_SA_SA_S9_EPFjS1_S4_S7_S9_PdSD_SD_SD_S9_E, 
                       __ZN16GeometryPropertyC1ERK10CoreStringRK17GMathTimeSamplingRKN16ResourceProperty4TypeERKjSB_SB_, 
                       __ZN16GeometryPropertyC2ERK10CoreStringRK17GMathTimeSamplingRKN16ResourceProperty4TypeERKjSB_SB_, 
                       __ZN16GeometryPropertyD0Ev, __ZN16GeometryPropertyD1Ev, __ZN16GeometryPropertyD2Ev, 
                       __ZN16GlShaderResource17write_header_fileERK10CoreString, 
                       __ZN16GlShaderResource18set_base_file_pathEPKc, __ZN16GlShaderResource4loadERK10CoreString, 
                       __ZN16GlShaderResourceC1EPKc, __ZN16GlShaderResourceC1ERK10CoreStringPKc, 
                       __ZN16GlShaderResourceC2EPKc, __ZN16GlShaderResourceC2ERK10CoreStringPKc, 
                       __ZN16HdCurvesPropertyC1ERK9CurveMeshRKN17CurveMeshProperty4TypeERKN16ResourceProperty4TypeERKjSC_SC_RK10CoreStringRK17GMathTimeSamplingRKb, 
                       __ZN16HdCurvesPropertyC2ERK9CurveMeshRKN17CurveMeshProperty4TypeERKN16ResourceProperty4TypeERKjSC_SC_RK10CoreStringRK17GMathTimeSamplingRKb, 
                       __ZN16HdPropertyLoader9supportedEv, __ZN16HrpCurveResource22create_property_handleEP11objc_objectPK16GeometryProperty, 
                       __ZN16HrpCurveResourceC1EP11objc_objectPK14GeometryObjectbN3hrp10CurveBasisEN14HrpCurveHandle4WrapE, 
                       __ZN16HrpCurveResourceC2EP11objc_objectPK14GeometryObjectbN3hrp10CurveBasisEN14HrpCurveHandle4WrapE, 
                       __ZN16HrpLightResource22create_property_handleEP11objc_objectPK16GeometryProperty, 
                       __ZN16HrpLightResource6handleEv, __ZN16HrpLightResourceC1Ev, 
                       __ZN16HrpLightResourceC2Ev, __ZN16IOHelpersPrivate11is_geometryERK8OfObjectb, 
                       __ZN16IOHelpersPrivate11is_particleERK8OfObjectb, __ZN16IOHelpersPrivate16get_clamp_valuesEN16ResourceProperty4TypeERdS2_, 
                       __ZN16IOHelpersPrivate18fill_property_dataEPKvN16ResourceProperty4TypeEiiRK10CoreVectorI10CoreStringE, 
                       __ZN16IOHelpersPrivate20is_editable_particleERK8OfObjectb, 
                       __ZN16ImageEvalContext22set_last_accessed_tileERKj18ImageMapTileHandle, 
                       __ZN16ImageEvalContext24init_last_accessed_tilesEv, __ZN16ImageEvalContextC1ERK11ImageCanvasRKj, 
                       __ZN16ImageEvalContextC1ERKS_, __ZN16ImageEvalContextC2ERK11ImageCanvasRKj, 
                       __ZN16ImageEvalContextC2ERKS_, __ZN16ImageEvalContextD1Ev, 
                       __ZN16ImageEvalContextD2Ev, __ZN16ImageMapTileTree10sort_itemsEPjRKjRK10CoreVectorI18ImageMapTileHandleES2_RKf, 
                       __ZN16ImageMapTileTree12split_medianERK10CoreVectorI18ImageMapTileHandleEPjjRj, 
                       __ZN16ImageMapTileTree13get_best_axisERK10GMathBbox2IfE, __ZN16ImageMapTileTree13recurse_splitERK10CoreVectorI18ImageMapTileHandleEP16ImageMapTileNodeRS5_jRjS8_PjRKj, 
                       __ZN16ImageMapTileTree5clearEv, __ZN16ImageMapTileTree6createE10CoreVectorI18ImageMapTileHandleEPKj, 
                       __ZN16ImageMapTileTreeC1Ev, __ZN16ImageMapTileTreeC2Ev, __ZN16ImageMapTileTreeD0Ev, 
                       __ZN16ImageMapTileTreeD1Ev, __ZN16ImageMapTileTreeD2Ev, __ZN16ImageSaveOptions13fill_metadataERK10CoreStringS2_b, 
                       __ZN16ImageSaveOptions26add_image_canvas_meta_dataERK11ImageCanvas, 
                       __ZN16ImageSaveOptions29META_DATA_KEYWORD_IX_EXTERNALEv, __ZN16ImageSaveOptions36save_image_canvas_external_meta_dataERK11ImageCanvas, 
                       __ZN16ImageTileFactory12notify_imageEPK8ImageMap, __ZN16ImageTileFactory13allocate_tileEv, 
                       __ZN16ImageTileFactory14denotify_imageEPK8ImageMap, __ZN16ImageTileFactory16shrink_page_listEv, 
                       __ZN16ImageTileFactory17free_unused_tilesEb, __ZN16ImageTileFactory18move_page_contentsER13CoreHashTableIPhP12ImageMapTileEP26MemoryPageImageMapTileDataS7_, 
                       __ZN16ImageTileFactory20allocate_tile_bufferEP12ImageMapTileb, 
                       __ZN16ImageTileFactory22build_lookup_data2tileEjR13CoreHashTableIPhP12ImageMapTileE, 
                       __ZN16ImageTileFactory4initEv, __ZN16ImageTileFactory7compactER14MemoryPageList, 
                       __ZN16ImageTileFactory7destroyEv, __ZN16ImageTileFactory9s_factoryE, 
                       __ZN16ImageTileFactoryC1Ev, __ZN16ImageTileFactoryC2Ev, __ZN16ImageTileFactoryD1Ev, 
                       __ZN16ImageTileFactoryD2Ev, __ZN16InstanceMatrices18decompose_matricesER16SysThreadManagerRK14CoreBasicArrayI14GMathMatrix4x4IdLb1EEER9CoreArrayI9GMathVec3IdEERS8_I14GMathMatrix3x3IfLb1EEERS8_IS9_IfEE, 
                       __ZN16InstanceMatrices21TransformVariableData5clearEv, __ZN16InstanceMatrices21TransformVariableData6resizeERKm, 
                       __ZN16InstanceMatrices21TransformVariableDataC1Ev, __ZN16InstanceMatrices21TransformVariableDataC2Ev, 
                       __ZN16InstanceMatrices21TransformVariableDataD1Ev, __ZN16InstanceMatrices21TransformVariableDataD2Ev, 
                       __ZN16JoinPathFunction17register_functionEv, __ZN16JoinPathFunction4evalEN7SeExpr214ExprFuncSimple9ArgHandleE, 
                       __ZN16JoinPathFunctionC1Ev, __ZN16JoinPathFunctionC2Ev, __ZN16JoinPathFunctionD0Ev, 
                       __ZN16JoinPathFunctionD1Ev, __ZN16JoinPathFunctionD2Ev, __ZN16ModuleConstraint10class_infoEv, 
                       __ZN16ModuleConstraint18module_constructorER8OfObject, __ZN16ModuleConstraintC1Ev, 
                       __ZN16ModuleConstraintC2Ev, __ZN16ModuleConstraintD0Ev, __ZN16ModuleConstraintD1Ev, 
                       __ZN16ModuleConstraintD2Ev, __ZN16ModuleExpression7GetBbox17register_functionEv, 
                       __ZN16ModuleExpression7GetBbox7prepareERK10CoreVectorI7OperandE, 
                       __ZN16ModuleExpression7GetBbox8evaluateER9Arguments, __ZN16ModuleExpression7GetBboxC1EPN12OfExpression10ExpressionEb, 
                       __ZN16ModuleExpression7GetBboxC2EPN12OfExpression10ExpressionEb, 
                       __ZN16ModuleIntegrator10class_infoEv, __ZN16ModuleIntegrator14register_modelERK10CoreStringRK7OfClass, 
                       __ZN16ModuleIntegrator14s_event_objectEv, __ZN16ModuleIntegrator17create_scene_dataERKjRK25ModuleIntegratorSceneInfoP14AppProgressBar, 
                       __ZN16ModuleIntegrator18destroy_scene_dataERKjP20SceneIntegrationData, 
                       __ZN16ModuleIntegrator18module_constructorER8OfObject, __ZN16ModuleIntegrator8s_modelsEv, 
                       __ZN16ModuleIntegratorC1Ev, __ZN16ModuleIntegratorC2Ev, __ZN16ModuleIntegratorD0Ev, 
                       __ZN16ModuleIntegratorD1Ev, __ZN16ModuleIntegratorD2Ev, __ZN16ModuleLayerPaint10class_infoEv, 
                       __ZN16ModuleLayerPaint11dirty_layerERKb, __ZN16ModuleLayerPaint15filter_paintingEPFb11ImageHandlePvES1_, 
                       __ZN16ModuleLayerPaint15update_paintingEPfS0_S0_S0_RK9GMathVec4IiE, 
                       __ZN16ModuleLayerPaint15update_paintingERK11ImageCanvasRK9GMathVec4IiE, 
                       __ZN16ModuleLayerPaint15update_paintingERK15ImageMapChannelS2_S2_S2_RK9GMathVec4IiE, 
                       __ZN16ModuleLayerPaint20clear_update_regionsEv, __ZN16ModuleLayerPaintC1Ev, 
                       __ZN16ModuleLayerPaintC2Ev, __ZN16ModuleLayerPaintD0Ev, __ZN16ModuleLayerPaintD1Ev, 
                       __ZN16ModuleLayerPaintD2Ev, __ZN16ModuleLayerScene10class_infoEv, 
                       __ZN16ModuleLayerScene18module_constructorER8OfObject, __ZN16ModuleLayerScene19on_attribute_changeERK6OfAttrRiRKi, 
                       __ZN16ModuleLayerScene20clear_shading_tablesEv, __ZN16ModuleLayerScene20refresh_lights_groupEv, 
                       __ZN16ModuleLayerScene24on_channel_group_changedER16OfChannelManagerRKN11EventObject9EventInfoE, 
                       __ZN16ModuleLayerScene24on_channel_group_changedER16OfChannelManagerRKN11EventObject9EventInfoEPv, 
                       __ZN16ModuleLayerScene27refresh_scene_objects_groupEv, __ZN16ModuleLayerScene28build_defined_aov_group_listEv, 
                       __ZN16ModuleLayerSceneC1Ev, __ZN16ModuleLayerSceneC2Ev, __ZN16ModuleLayerSceneD0Ev, 
                       __ZN16ModuleLayerSceneD1Ev, __ZN16ModuleLayerSceneD2Ev, __ZN16ModuleR2cAovItem10class_infoEv, 
                       __ZN16ModuleR2cAovItem12get_sub_aovsEv, __ZN16ModuleR2cAovItem17set_from_aov_infoERK10R2cAovInfo, 
                       __ZN16ModuleR2cAovItem19on_attribute_changeERK6OfAttrRiRKi, 
                       __ZN16ModuleR2cAovItemC1Ev, __ZN16ModuleR2cAovItemC2Ev, __ZN16ModuleR2cAovItemD0Ev, 
                       __ZN16ModuleR2cAovItemD1Ev, __ZN16ModuleR2cAovItemD2Ev, __ZN16ModuleRendererNg10class_infoEv, 
                       __ZN16ModuleRendererNg18module_constructorER8OfObject, __ZN16ModuleRendererNg19get_motion_blur_lutEv, 
                       __ZN16ModuleRendererNg19on_attribute_changeERK6OfAttrRiRKi, 
                       __ZN16ModuleSearchPath10class_infoEv, __ZN16ModuleSearchPath13s_empty_pathsEv, 
                       __ZN16ModuleSearchPath16set_search_pathsERK10CoreString, __ZN16ModuleSearchPath19on_attribute_changeERK6OfAttrRiRKi, 
                       __ZN16ModuleSearchPathC1ER8OfObject, __ZN16ModuleSearchPathC2ER8OfObject, 
                       __ZN16ModuleTextureOsl10class_infoEv, __ZN16ModuleTextureOsl12pre_evaluateERK7CtxEval, 
                       __ZN16ModuleTextureOsl14compile_shaderERK10CoreStringRKb10CoreVectorIS0_E, 
                       __ZN16ModuleTextureOsl16dirty_parametersEv, __ZN16ModuleTextureOsl18thread_data_createEv, 
                       __ZN16ModuleTextureOsl18thread_exec_createEv, __ZN16ModuleTextureOsl19thread_data_destroyEP19OSLShaderThreadData, 
                       __ZN16ModuleTextureOsl19thread_exec_destroyEPv, __ZN16ModuleTextureOsl22attrib_access_callbackEPvP19OSLShaderInputStateR9GMathVec4IfE, 
                       __ZN16ModuleTextureOsl24update_osl_shader_paramsERK10CoreStringRKbR8OfObjectR10CoreVectorI13OSLShaderPlugIP6OfAttrEE, 
                       __ZN16ModuleTextureOsl8evaluateERK7CtxEvalRK13TextureOutputR9CtxShaderR11CtxFragmentRK9CtxVolumeRK13CtxMotionBlurRK6CtxGasRKN8GMathRayIdE4TypeEPvP19OSLShaderThreadDataR9GMathVec3IfE, 
                       __ZN16ModuleTextureOslC1Ev, __ZN16ModuleTextureOslC2Ev, __ZN16ModuleTextureOslD0Ev, 
                       __ZN16ModuleTextureOslD1Ev, __ZN16ModuleTextureOslD2Ev, __ZN16MxGenContextData3getERN15MaterialX__aapl10GenContextE, 
                       __ZN16MxGenContextData6createERN15MaterialX__aapl10GenContextE, 
                       __ZN16NgRenderDelegate10class_infoEv, __ZN16NgRenderDelegate10query_execERK12CoreFunctionIFbjEE, 
                       __ZN16NgRenderDelegate10query_raysERK15R2cQueryOptionsRK17NgRenderThreadCtxRK14CoreBasicArrayI9GMathVec2IdEERK12CoreFunctionIFvRK7CtxEvalP20GeometryIntersectionjEE, 
                       __ZN16NgRenderDelegate11dirty_lightE17R2cItemDescriptorRKi, 
                       __ZN16NgRenderDelegate11query_itemsERK15R2cQueryOptionsRK9GMathVec4IdER10CoreVectorI12R2cQueryItemE, 
                       __ZN16NgRenderDelegate11render_implEP15R2cRenderBufferfj12RenderTarget14CoreBasicArrayIP16ModuleR2cAovItemE, 
                       __ZN16NgRenderDelegate12dirty_shaderE17R2cItemDescriptorRKi, 
                       __ZN16NgRenderDelegate12insert_lightE17R2cItemDescriptor, 
                       __ZN16NgRenderDelegate12pre_evaluateER7CtxEvalRK20AngieRendererSettingjjj12RenderTarget, 
                       __ZN16NgRenderDelegate12query_pointsERK15R2cQueryOptionsRK14CoreBasicArrayI9GMathVec2IdEER10CoreVectorI13R2cQueryPointE, 
                       __ZN16NgRenderDelegate12remove_lightE17R2cItemDescriptor, 
                       __ZN16NgRenderDelegate12sync_camerasER11NgGlobalCtxjj, __ZN16NgRenderDelegate12sync_objectsER7CtxEval, 
                       __ZN16NgRenderDelegate13insert_shaderE17R2cItemDescriptor, 
                       __ZN16NgRenderDelegate13remove_shaderE17R2cItemDescriptor, 
                       __ZN16NgRenderDelegate13render_bucketER17NgRenderThreadCtxR15R2cRenderBufferRKNS2_6RegionERKNS_9RenderCtxERiRy, 
                       __ZN16NgRenderDelegate14dirty_geometryE17R2cItemDescriptorRKi, 
                       __ZN16NgRenderDelegate14pre_render_cpuER7CtxEvalRK20AngieRendererSetting, 
                       __ZN16NgRenderDelegate14query_verticesERK15R2cQueryOptionsRK9GMathVec4IdER10CoreVectorI9GMathVec3IdEE, 
                       __ZN16NgRenderDelegate14s_ng_aovs_infoEv, __ZN16NgRenderDelegate15dirty_instancerE17R2cItemDescriptorRKi, 
                       __ZN16NgRenderDelegate15insert_geometryE17R2cItemDescriptor, 
                       __ZN16NgRenderDelegate15remove_geometryE17R2cItemDescriptor, 
                       __ZN16NgRenderDelegate16insert_instancerE17R2cItemDescriptor, 
                       __ZN16NgRenderDelegate16remove_instancerE17R2cItemDescriptor, 
                       __ZN16NgRenderDelegate17render_cpu_regionEP15R2cRenderBufferRKNS0_6RegionERK20AngieRendererSettingRNS_9RenderCtxEjjR7CtxEval, 
                       __ZN16NgRenderDelegate17render_gpu_bucketERK14NgRenderBucketP15R2cRenderBufferRKNS_9RenderCtxEj, 
                       __ZN16NgRenderDelegate17render_gpu_regionEP15R2cRenderBufferRKNS0_6RegionERK20AngieRendererSettingRNS_9RenderCtxEjj, 
                       __ZN16NgRenderDelegate19dirty_shading_tableEv, __ZN16NgRenderDelegate20sync_render_settingsERKf, 
                       __ZN16NgRenderDelegate22create_render_delegateEP5OfApp, __ZN16NgRenderDelegate24register_render_delegateEP5OfApp, 
                       __ZN16NgRenderDelegate25compute_region_refinementER15R2cRenderBufferRKNS0_6RegionERKNS_9RenderCtxERiRy, 
                       __ZN16NgRenderDelegate25create_display_attributesER8OfObject, 
                       __ZN16NgRenderDelegate30compute_static_region_varianceER17NgRenderThreadCtxR15R2cRenderBufferRKNS2_6RegionERKNS_9RenderCtxEijRj, 
                       __ZN16NgRenderDelegate5clearEv, __ZN16NgRenderDelegate6renderEP15R2cRenderBufferRKfRKj12RenderTarget14CoreBasicArrayIP16ModuleR2cAovItemE, 
                       __ZN16NgRenderDelegate9dirty_aovEv, __ZN16NgRenderDelegateC1EP5OfApp, 
                       __ZN16NgRenderDelegateC2EP5OfApp, __ZN16NgRenderDelegateD0Ev, 
                       __ZN16NgRenderDelegateD1Ev, __ZN16NgRenderDelegateD2Ev, __ZN16NgShaderResource18build_shader_groupE10OslBackendP8OfModuleP14ModuleMaterial, 
                       __ZN16NgShaderResource18build_shader_groupEbPvP14ModuleMaterial, 
                       __ZN16NgShaderResource5dirtyEv, __ZN16NgShaderResource7destroyEv, 
                       __ZN16NgVolumeGeometry10class_infoEv, __ZN16OfAttrTableStateC1EOS_, 
                       __ZN16OfAttrTableStateC1ERK11OfAttrTable, __ZN16OfAttrTableStateC1ERKS_, 
                       __ZN16OfAttrTableStateC2EOS_, __ZN16OfAttrTableStateC2ERK11OfAttrTable, 
                       __ZN16OfAttrTableStateC2ERKS_, __ZN16OfAttrTableStateD1Ev, 
                       __ZN16OfAttrTableStateD2Ev, __ZN16OfAttrTableStateaSEOS_, 
                       __ZN16OfAttrTableStateaSERKS_, __ZN16OfChannelManager10class_infoEv, 
                       __ZN16OfChannelManager11add_channelERK10CoreString, __ZN16OfChannelManager11load_configERK11ParserGroup, 
                       __ZN16OfChannelManager11order_layerERKi, __ZN16OfChannelManager11save_configER11ParserGroup, 
                       __ZN16OfChannelManager11start_batchEv, __ZN16OfChannelManager12CHANNEL_NONEE, 
                       __ZN16OfChannelManager12remove_layerERK10CoreString, __ZN16OfChannelManager12remove_layerERKs, 
                       __ZN16OfChannelManager13INVALID_INDEXE, __ZN16OfChannelManager14GROUP_NAME_ALLEv, 
                       __ZN16OfChannelManager14GROUP_NAME_REDEv, __ZN16OfChannelManager14GROUP_NAME_RGBEv, 
                       __ZN16OfChannelManager14remove_channelERK10CoreString, __ZN16OfChannelManager14remove_channelERKs, 
                       __ZN16OfChannelManager15GROUP_INDEX_ALLE, __ZN16OfChannelManager15GROUP_INDEX_REDE, 
                       __ZN16OfChannelManager15GROUP_INDEX_RGBE, __ZN16OfChannelManager15GROUP_NAME_BLUEEv, 
                       __ZN16OfChannelManager15GROUP_NAME_RGBAEv, __ZN16OfChannelManager15add_batch_eventERNS_16ChannelEventInfoE, 
                       __ZN16OfChannelManager16GROUP_INDEX_BLUEE, __ZN16OfChannelManager16GROUP_INDEX_RGBAE, 
                       __ZN16OfChannelManager16GROUP_NAME_ALPHAEv, __ZN16OfChannelManager16GROUP_NAME_GREENEv, 
                       __ZN16OfChannelManager17GROUP_INDEX_ALPHAE, __ZN16OfChannelManager17GROUP_INDEX_GREENE, 
                       __ZN16OfChannelManager17add_factory_layerERK10CoreStringRK14CoreBasicArrayIS0_ERK17ImageBlendingModeRK18ImageFilteringModeRK16ImageDisplayModeS2_RKcRKsSJ_RKb, 
                       __ZN16OfChannelManager19init_factory_layersEv, __ZN16OfChannelManager20convert_channel_nameEPKc, 
                       __ZN16OfChannelManager20set_layer_parametersERKsRKNS_15LayerParametersERKb, 
                       __ZN16OfChannelManager21clear_custom_channelsEv, __ZN16OfChannelManager25update_channels_from_listERK9CoreArrayI10CoreStringE, 
                       __ZN16OfChannelManager33get_channel_name_conversion_tableEv, 
                       __ZN16OfChannelManager5LayerC1ERK10CoreString, __ZN16OfChannelManager5LayerC2ERK10CoreString, 
                       __ZN16OfChannelManager9add_layerERK10CoreStringRK14CoreBasicArrayIS0_ERK17ImageBlendingModeRK18ImageFilteringModeRK16ImageDisplayModeS2_RKcRKsSJ_RKb, 
                       __ZN16OfChannelManager9end_batchEv, __ZN16OfChannelManagerC1ER5OfApp, 
                       __ZN16OfChannelManagerC2ER5OfApp, __ZN16OfChannelManagerD0Ev, 
                       __ZN16OfChannelManagerD1Ev, __ZN16OfChannelManagerD2Ev, __ZN16OfClassCallbacks14init_callbacksERS_, 
                       __ZN16OfClassCallbacksC1Ev, __ZN16OfClassCallbacksC2Ev, __ZN16OfClassCallbacksD0Ev, 
                       __ZN16OfClassCallbacksD1Ev, __ZN16OfClassCallbacksD2Ev, __ZN16OfCommandManager10class_infoEv, 
                       __ZN16OfCommandManager11begin_batchERK10CoreString, __ZN16OfCommandManager12cancel_batchEv, 
                       __ZN16OfCommandManager12echo_commandEb, __ZN16OfCommandManager13clear_historyEv, 
                       __ZN16OfCommandManager14add_to_historyER17CoreSharedPointerI9OfCommand17CoreSharedCounterE, 
                       __ZN16OfCommandManager14enable_historyEv, __ZN16OfCommandManager15disable_historyEv, 
                       __ZN16OfCommandManager15is_echo_commandEv, __ZN16OfCommandManager16register_commandERK10CoreStringPv, 
                       __ZN16OfCommandManager19add_to_active_batchER17CoreSharedPointerI9OfCommand17CoreSharedCounterE, 
                       __ZN16OfCommandManager19set_current_commandER17CoreSharedPointerI9OfCommand17CoreSharedCounterE, 
                       __ZN16OfCommandManager19set_current_commandERKj, __ZN16OfCommandManager22delete_current_commandEv, 
                       __ZN16OfCommandManager4redoEv, __ZN16OfCommandManager4undoEv, 
                       __ZN16OfCommandManager9end_batchEv, __ZN16OfCommandManagerC1EP5OfApp, 
                       __ZN16OfCommandManagerC2EP5OfApp, __ZN16OfCommandManagerD0Ev, 
                       __ZN16OfCommandManagerD1Ev, __ZN16OfCommandManagerD2Ev, __ZN16OfCommandOptions10add_optionERK10CoreStringRK11CoreVariant, 
                       __ZN16OfCommandOptions13remove_optionERK10CoreString, __ZN16OptiXStringTable12reallocTableEv, 
                       __ZN16OptiXStringTable4initEv, __ZN16OptiXStringTable9addStringEN16OpenImageIO_v2_57ustringES1_, 
                       __ZN16OptiXStringTable9freetableEv, __ZN16OptiXStringTableC1Ev, 
                       __ZN16OptiXStringTableC2Ev, __ZN16OptiXStringTableD1Ev, __ZN16OptiXStringTableD2Ev, 
                       __ZN16OslShaderManager10initializeER9AppObject, __ZN16OslShaderManager11get_osl_dirEv, 
                       __ZN16OslShaderManager14is_initializedEv, __ZN16OslShaderManager14register_layerEPKcP8OfObject, 
                       __ZN16OslShaderManager16unregister_layerEPKc, __ZN16OslShaderManager17OSL_INCLUDE_PATHSEv, 
                       __ZN16OslShaderManager17OSL_MATERIAL_TYPEEv, __ZN16OslShaderManager17get_error_handlerEv, 
                       __ZN16OslShaderManager18check_for_closuresEPN3OSL13ShadingSystemEPNS0_11ShaderGroupERK14CoreBasicArrayI12UniqueStringE, 
                       __ZN16OslShaderManager18get_shading_systemE10OslBackend, __ZN16OslShaderManager19get_shading_contextE10OslBackendj, 
                       __ZN16OslShaderManager19register_tag_filterERK10CoreStringPFvRK8OfObjectRK6OfAttrR10CoreVectorIS0_ER9CoreArrayIbEE, 
                       __ZN16OslShaderManager20create_error_handlerERK15CoreBasicString, 
                       __ZN16OslShaderManager20enable_material_aovsE10OslBackendNSt3__110shared_ptrIN3OSL11ShaderGroupEEEj, 
                       __ZN16OslShaderManager22check_for_dependenciesEPN3OSL13ShadingSystemEPNS0_11ShaderGroupE, 
                       __ZN16OslShaderManager22register_custom_shaderERK15CoreBasicStringS2_, 
                       __ZN16OslShaderManager23OSL_SHADER_CLASS_PREFIXEv, __ZN16OslShaderManager23register_shading_systemE10OslBackendPN3OSL13ShadingSystemE, 
                       __ZN16OslShaderManager24generate_color_transformERN3OSL13ShadingSystemERK15CoreBasicStringS5_S5_RKN9Imath_3_16Color3IfEERPK13OSLShaderPlugIjE, 
                       __ZN16OslShaderManager24generate_color_transformERN3OSL13ShadingSystemERK15CoreBasicStringS5_S5_RPK13OSLShaderPlugIjESA_, 
                       __ZN16OslShaderManager25OSL_MATERIAL_CLASS_PREFIXEv, __ZN16OslShaderManager25unregister_shading_systemE10OslBackend, 
                       __ZN16OslShaderManager26get_shader_raytype_queriesE10OslBackendPN3OSL11ShaderGroupE, 
                       __ZN16OslShaderManager26get_tag_candidate_callbackERK10CoreString, 
                       __ZN16OslShaderManager26register_extension_shadersERK10CoreString, 
                       __ZN16OslShaderManager28create_material_shader_groupE10OslBackendRK8OfObjectRK13OslShaderInfoRK10CoreStringb20OslMaterialComponent, 
                       __ZN16OslShaderManager29OSL_MATERIAL_COMPONENT_SHADERE, __ZN16OslShaderManager35OSL_MATERIAL_COMPONENT_SHADER_INPUTE, 
                       __ZN16OslShaderManager9get_layerEPKc, __ZN16PbrShaderHelpers14raytrace_lightERK7CtxEvalR9CtxShaderP11CtxRaytracePK9GasObjectRKj, 
                       __ZN16PbrShaderHelpers20get_normal_directionEPK22ModuleMaterialPhysical, 
                       __ZN16PbrShaderHelpers20raytrace_black_holesERK7CtxEvalR9CtxShaderR11CtxRaytraceRd, 
                       __ZN16PbrShaderHelpers21evaluate_ranged_lightERK7CtxEvalR9CtxShaderR12CtxPbrShaderRKbRK14CoreBasicArrayIP19ModuleLightPhysicalEPK20GeometryIntersectionR13ShadingOutput, 
                       __ZN16PbrShaderHelpers22raytrace_transmittanceERK7CtxEvalR9CtxShaderR11CtxRaytraceR9GMathVec3IfEPdSA_, 
                       __ZN16PbrShaderHelpers23evaluate_distant_lightsERK7CtxEvalR9CtxShaderR12CtxPbrShaderRKbRK14CoreBasicArrayIP19ModuleLightPhysicalERK8GMathRayIdER13ShadingOutput, 
                       __ZN16PbrShaderHelpers28gather_deferred_shading_dataERK7CtxEvalR9CtxShaderR12CtxPbrShaderRK11CtxRaytraceRKjRKbRNS_17PbrRaytraceResultE, 
                       __ZN16PbrShaderHelpers29gather_transmittance_callbackERK7CtxEvalRK19GeometryRaytraceCtxRKjR20GeometryIntersectionRNS3_10FilterDataE, 
                       __ZN16PbrShaderHelpers31filter_deferred_object_callbackERK7CtxEvalRK19GeometryRaytraceCtxRNS3_10FilterDataE, 
                       __ZN16PbrShaderHelpers33filter_black_hole_object_callbackERK7CtxEvalRK19GeometryRaytraceCtxRNS3_10FilterDataE, 
                       __ZN16PbrShaderHelpers34filter_deferred_primitive_callbackERK7CtxEvalRK19GeometryRaytraceCtxRKjRNS3_10FilterDataE, 
                       __ZN16PbrShaderHelpers35filter_disable_self_shadow_callbackERK7CtxEvalRK19GeometryRaytraceCtxRKjR20GeometryIntersectionRNS3_10FilterDataE, 
                       __ZN16PbrShaderHelpers35filter_shadow_light_object_callbackERK7CtxEvalRK19GeometryRaytraceCtxRNS3_10FilterDataE, 
                       __ZN16PbrShaderHelpers36filter_black_hole_primitive_callbackERK7CtxEvalRK19GeometryRaytraceCtxRKjRNS3_10FilterDataE, 
                       __ZN16PbrShaderHelpers37filter_deferred_intersection_callbackERK7CtxEvalRK19GeometryRaytraceCtxRKjR20GeometryIntersectionRNS3_10FilterDataE, 
                       __ZN16PbrShaderHelpers39filter_black_hole_intersection_callbackERK7CtxEvalRK19GeometryRaytraceCtxRKjR20GeometryIntersectionRNS3_10FilterDataE, 
                       __ZN16PbrShaderHelpers39gather_object_deferred_shading_callbackERK7CtxEvalRK19GeometryRaytraceCtxRNS3_10FilterDataE, 
                       __ZN16PbrShaderHelpers41filter_shadow_light_intersection_callbackERK7CtxEvalRK19GeometryRaytraceCtxRKjR20GeometryIntersectionRNS3_10FilterDataE, 
                       __ZN16PbrShaderHelpers45gather_intersection_deferred_shading_callbackERK7CtxEvalRK19GeometryRaytraceCtxRKjR20GeometryIntersectionRNS3_10FilterDataE, 
                       __ZN16PbrShaderHelpers47filter_light_unseen_by_ray_type_object_callbackERK7CtxEvalRK19GeometryRaytraceCtxRNS3_10FilterDataE, 
                       __ZN16PbrShaderHelpers5shadeERK7CtxEvalR9CtxShaderRK11CtxRaytraceRKjRKNS_21DeferredShadingConfigERKbSE_RNS_17PbrRaytraceResultE, 
                       __ZN16PbrShaderHelpers8raytraceERK7CtxEvalR9CtxShaderR11CtxRaytraceRKjRKbRNS_17PbrRaytraceResultE, 
                       __ZN16PolyMeshProperty10class_infoEv, __ZN16PolyMeshProperty4initERKjP16ResourceProperty, 
                       __ZN16PolyMeshPropertyC1ERK8PolyMeshRKNS_4TypeERKN16ResourceProperty4TypeERKjSB_SB_RK10CoreStringRK17GMathTimeSamplingRKb, 
                       __ZN16PolyMeshPropertyC2ERK8PolyMeshRKNS_4TypeERKN16ResourceProperty4TypeERKjSB_SB_RK10CoreStringRK17GMathTimeSamplingRKb, 
                       __ZN16PolyMeshPropertyD0Ev, __ZN16PolyMeshPropertyD1Ev, __ZN16PolyMeshPropertyD2Ev, 
                       __ZN16PolyMeshSmoothed10class_infoEv, __ZN16PolyMeshSmoothed3setERK8PolyMeshRKdRKjP14AppProgressBar, 
                       __ZN16PolyMeshSmoothedC1ERKS_, __ZN16PolyMeshSmoothedC1Ev, 
                       __ZN16PolyMeshSmoothedC2ERKS_, __ZN16PolyMeshSmoothedC2Ev, 
                       __ZN16PolyMeshSmoothedD0Ev, __ZN16PolyMeshSmoothedD1Ev, __ZN16PolyMeshSmoothedD2Ev, 
                       __ZN16R2cSceneDelegate10class_infoEv, __ZN16R2cSceneDelegate10dirty_aovsEv, 
                       __ZN16R2cSceneDelegate10initializeER5OfApp, __ZN16R2cSceneDelegate10set_inputsER9CoreArrayIP8OfObjectE14CoreBasicArrayIS2_ERK10CoreString, 
                       __ZN16R2cSceneDelegate11sync_lightsEv, __ZN16R2cSceneDelegate12dirty_cameraEv, 
                       __ZN16R2cSceneDelegate13insert_objectEPv, __ZN16R2cSceneDelegate13remove_objectEPv, 
                       __ZN16R2cSceneDelegate14is_initializedEv, __ZN16R2cSceneDelegate14sync_materialsEv, 
                       __ZN16R2cSceneDelegate15sync_geometriesEv, __ZN16R2cSceneDelegate15sync_visibilityEv, 
                       __ZN16R2cSceneDelegate16on_camera_updateER8OfObjectRKN11EventObject9EventInfoEPv, 
                       __ZN16R2cSceneDelegate17dirty_light_indexEv, __ZN16R2cSceneDelegate17update_connectionER17R2cItemDescriptorb, 
                       __ZN16R2cSceneDelegate18on_input_destroyedER11EventObjectRKNS0_9EventInfoEPv, 
                       __ZN16R2cSceneDelegate19dirty_shading_tableEv, __ZN16R2cSceneDelegate19set_render_delegateEP17R2cRenderDelegate, 
                       __ZN16R2cSceneDelegate19set_render_settingsEP8OfObject, __ZN16R2cSceneDelegate20dirty_geometry_indexEv, 
                       __ZN16R2cSceneDelegate21dirty_render_settingsEv, __ZN16R2cSceneDelegate22dirty_visibility_indexEv, 
                       __ZN16R2cSceneDelegate22dispatch_aov_dirtinessER11EventObjectRKNS0_9EventInfoEPv, 
                       __ZN16R2cSceneDelegate22on_lights_group_updateER11EventObjectRKNS0_9EventInfoEPv, 
                       __ZN16R2cSceneDelegate23on_dependency_destroyedER11EventObjectRKNS0_9EventInfoEPv, 
                       __ZN16R2cSceneDelegate24dispatch_light_dirtinessER11EventObjectRKNS0_9EventInfoEPv, 
                       __ZN16R2cSceneDelegate24update_bundle_prototypesEPv, __ZN16R2cSceneDelegate25dispatch_shader_dirtinessER11EventObjectRKNS0_9EventInfoEPv, 
                       __ZN16R2cSceneDelegate25on_render_settings_updateER8OfObjectRKN11EventObject9EventInfoEPv, 
                       __ZN16R2cSceneDelegate26on_geometries_group_updateER11EventObjectRKNS0_9EventInfoEPv, 
                       __ZN16R2cSceneDelegate26on_previz_lighting_changedER9AppObjectRKN11EventObject9EventInfoEPv, 
                       __ZN16R2cSceneDelegate26on_visibility_group_updateER11EventObjectRKNS0_9EventInfoEPv, 
                       __ZN16R2cSceneDelegate28on_root_shading_layer_updateER8OfObjectRKN11EventObject9EventInfoEPv, 
                       __ZN16R2cSceneDelegate28reset_get_unique_id_callbackEv, __ZN16R2cSceneDelegate29disconnect_all_shading_layersEv, 
                       __ZN16R2cSceneDelegate31dispatch_scene_object_dirtinessER11EventObjectRKNS0_9EventInfoEPv, 
                       __ZN16R2cSceneDelegate32dispatch_shading_layer_dirtinessER11EventObjectRKNS0_9EventInfoEPv, 
                       __ZN16R2cSceneDelegate33update_shading_layers_connectionsEv, 
                       __ZN16R2cSceneDelegate4syncEv, __ZN16R2cSceneDelegate5clearEv, 
                       __ZN16R2cSceneDelegate6createEv, __ZN16R2cSceneDelegate7destroyEPS_, 
                       __ZN16R2cSceneDelegate8get_nullEv, __ZN16R2cSceneDelegate9dirty_allEv, 
                       __ZN16R2cSceneDelegate9set_inputEPP8OfObjectS1_RK10CoreString, 
                       __ZN16R2cSceneDelegateC1Ev, __ZN16R2cSceneDelegateC2Ev, __ZN16R2cSceneDelegateD0Ev, 
                       __ZN16R2cSceneDelegateD1Ev, __ZN16R2cSceneDelegateD2Ev, __ZN16RayGeneratorCone24get_rays_cosine_callbackERKS_PK9GMathVec2IdERKjP8GMathRayIdEPjPd, 
                       __ZN16RayGeneratorCone25get_rays_uniform_callbackERKS_PK9GMathVec2IdERKjP8GMathRayIdEPjPd, 
                       __ZN16RayGeneratorConeC1ERKN8GMathRayIdE4TypeERKd, __ZN16RayGeneratorConeC2ERKN8GMathRayIdE4TypeERKd, 
                       __ZN16RayGeneratorDisk16disable_clippingEv, __ZN16RayGeneratorDisk17get_rays_callbackERKS_PK9GMathVec2IdERKjP8GMathRayIdEPjPd, 
                       __ZN16RayGeneratorDisk20get_frustum_callbackERKS_RK9GMathVec2IdES5_R12GMathFrustum, 
                       __ZN16RayGeneratorDisk22get_rays_line_callbackERKS_PK9GMathVec2IdERKjP8GMathRayIdEPjPd, 
                       __ZN16RayGeneratorDisk23discard_clipped_samplesERK9GMathVec3IdE, 
                       __ZN16RayGeneratorDisk25get_rays_discard_callbackERKS_PK9GMathVec2IdERKjP8GMathRayIdEPjPd, 
                       __ZN16RayGeneratorDisk30get_rays_line_discard_callbackERKS_PK9GMathVec2IdERKjP8GMathRayIdEPjPd, 
                       __ZN16RayGeneratorDisk4initERK8GMathRayIdERK14CoreBasicArrayIdERK14GMathMatrix4x4IdLb1EERKdSD_SD_, 
                       __ZN16RayGeneratorDisk4initERK9GMathVec3IdERK14GMathMatrix4x4IdLb1EERKdS9_S9_, 
                       __ZN16RayGeneratorDiskC1ERKN8GMathRayIdE4TypeERKd, __ZN16RayGeneratorDiskC2ERKN8GMathRayIdE4TypeERKd, 
                       __ZN16RayGeneratorLine16disable_clippingEv, __ZN16RayGeneratorLine17get_rays_callbackERKS_PK9GMathVec2IdERKjP8GMathRayIdEPjPd, 
                       __ZN16RayGeneratorLine20get_frustum_callbackERKS_RK9GMathVec2IdES5_R12GMathFrustum, 
                       __ZN16RayGeneratorLine22get_rays_line_callbackERKS_PK9GMathVec2IdERKjP8GMathRayIdEPjPd, 
                       __ZN16RayGeneratorLine23discard_clipped_samplesERK9GMathVec3IdE, 
                       __ZN16RayGeneratorLine25get_rays_discard_callbackERKS_PK9GMathVec2IdERKjP8GMathRayIdEPjPd, 
                       __ZN16RayGeneratorLine4initERK8GMathRayIdERK14CoreBasicArrayIdERK14GMathMatrix4x4IdLb1EERKd, 
                       __ZN16RayGeneratorLine4initERK9GMathVec3IdERK14GMathMatrix4x4IdLb1EERKd, 
                       __ZN16RayGeneratorLineC1ERKN8GMathRayIdE4TypeERKd, __ZN16RayGeneratorLineC2ERKN8GMathRayIdE4TypeERKd, 
                       __ZN16ResourceProperty10class_infoEv, __ZN16ResourceProperty10set_doubleERKjRK14CoreBasicArrayIdE, 
                       __ZN16ResourceProperty10set_doubleERKjRKdS1_, __ZN16ResourceProperty10set_stringERKjPKc, 
                       __ZN16ResourceProperty10set_valuesEPKv, __ZN16ResourceProperty10set_valuesEPKvS1_RKd, 
                       __ZN16ResourceProperty11deserializeER10CoreSerial, __ZN16ResourceProperty11set_wstringERKjPKw, 
                       __ZN16ResourceProperty13get_type_nameENS_4TypeE, __ZN16ResourceProperty15set_item_valuesERKjPKvj, 
                       __ZN16ResourceProperty4initERKNS_4TypeEPKjRS3_, __ZN16ResourceProperty4initERKNS_4TypeERKjS4_, 
                       __ZN16ResourceProperty5remapERKjS1_, __ZN16ResourceProperty7set_intERKjRK14CoreBasicArrayIiE, 
                       __ZN16ResourceProperty7set_intERKjRKiS1_, __ZN16ResourceProperty8set_byteERKjRK14CoreBasicArrayIcE, 
                       __ZN16ResourceProperty8set_byteERKjRKcS1_, __ZN16ResourceProperty8set_halfERKjRK14CoreBasicArrayI14GMathHalfFloatE, 
                       __ZN16ResourceProperty8set_halfERKjRK14GMathHalfFloatS1_, 
                       __ZN16ResourceProperty8set_longERKjRK14CoreBasicArrayIxE, 
                       __ZN16ResourceProperty8set_longERKjRKxS1_, __ZN16ResourceProperty9set_floatERKjRK14CoreBasicArrayIfE, 
                       __ZN16ResourceProperty9set_floatERKjRKfS1_, __ZN16ResourceProperty9set_shortERKjRK14CoreBasicArrayIsE, 
                       __ZN16ResourceProperty9set_shortERKjRKsS1_, __ZN16ResourcePropertyC1ERK10CoreString, 
                       __ZN16ResourcePropertyC1ERKS_, __ZN16ResourcePropertyC2ERK10CoreString, 
                       __ZN16ResourcePropertyC2ERKS_, __ZN16ResourcePropertyD0Ev, 
                       __ZN16ResourcePropertyD1Ev, __ZN16ResourcePropertyD2Ev, __ZN16SasResourceCache12set_resourceEjP12ResourceData, 
                       __ZN16SceneShadingData4initERK14CoreBasicArrayIP17ModuleSceneObjectERK17SceneShadingTableb, 
                       __ZN16SceneShadingData5clearEv, __ZN16SeExprExpression5clearEv, 
                       __ZN16SeExprExpression7prepareEv, __ZN16SeExprExpressionC1EP11IExpression, 
                       __ZN16SeExprExpressionC2EP11IExpression, __ZN16SeExprExpressionD0Ev, 
                       __ZN16SeExprExpressionD1Ev, __ZN16SeExprExpressionD2Ev, __ZN16ShaderAovHelpers20get_rasterize_layersERK16OfChannelManagerRK9CtxShaderRjR10CoreVectorINS_5LayerEE, 
                       __ZN16ShaderAovHelpers20store_rasterize_aovsERK7CtxEvalR9CtxShaderRK11CtxRaytraceRKjRK20GeometryIntersectionS9_RK10CoreVectorINS_5LayerEEPf, 
                       __ZN16ShaderAovHelpers22get_rasterize_aov_listERK8OfObjectR10CoreVectorIsE, 
                       __ZN16ShaderAovHelpers23register_rasterize_aovsER16OfChannelManager, 
                       __ZN16ShaderAovHelpers27s_rasterize_integrator_aovsEv, __ZN16ShadingLayerRule13remove_valuesEv, 
                       __ZN16ShadingLayerRule16get_column_valueERKj, __ZN16ShadingLayerRule19init_default_valuesEv, 
                       __ZN16ShadingLayerRule20make_object_relativeEv, __ZN16ShadingLayerRule25init_default_column_valueEP22ShadingLayerColumnItem, 
                       __ZN16ShadingLayerRuleC1EP18ModuleShadingLayerRKbRK10CoreStringRKi, 
                       __ZN16ShadingLayerRuleC2EP18ModuleShadingLayerRKbRK10CoreStringRKi, 
                       __ZN16ShadingLayerRuleD1Ev, __ZN16ShadingLayerRuleD2Ev, __ZN16SysAssetResolver13is_registeredERK15CoreBasicString, 
                       __ZN16SysAssetResolver13register_typeERK15CoreBasicStringPFP8SysAssetS2_E, 
                       __ZN16SysAssetResolver7resolveERK15CoreBasicString, __ZN16SysThreadManager10class_infoEv, 
                       __ZN16SysThreadManager14create_workersEv, __ZN16SysThreadManager14dec_task_countERKj, 
                       __ZN16SysThreadManager14inc_task_countERKj, __ZN16SysThreadManager15destroy_workersEv, 
                       __ZN16SysThreadManager16add_task_managerEP20SysThreadTaskManager, 
                       __ZN16SysThreadManager16set_thread_countERKj, __ZN16SysThreadManager17s_lock_sleep_timeE, 
                       __ZN16SysThreadManager18process_first_taskEP20SysThreadTaskManagerb, 
                       __ZN16SysThreadManager19remove_task_managerEP20SysThreadTaskManager, 
                       __ZN16SysThreadManager21s_lock_is_preemptibleE, __ZN16SysThreadManager23reference_task_managersER10CoreVectorIP20SysThreadTaskManagerE, 
                       __ZN16SysThreadManager23reference_task_managersER10CoreVectorIP20SysThreadTaskManagerERK13CoreHashTableIS2_jE, 
                       __ZN16SysThreadManager24get_current_thread_indexEv, __ZN16SysThreadManager26get_current_thread_managerEv, 
                       __ZN16SysThreadManager28reference_first_task_managerEv, __ZN16SysThreadManager4lockER13SysThreadLockRKN17SysThreadLockBase8DurationE, 
                       __ZN16SysThreadManager4lockER22SysThreadLockRecursiveRKN17SysThreadLockBase8DurationE, 
                       __ZN16SysThreadManager5yieldERKjRKb, __ZN16SysThreadManager6unlockER13SysThreadLock, 
                       __ZN16SysThreadManager6unlockER22SysThreadLockRecursive, __ZN16SysThreadManager8try_lockER13SysThreadLockRKN17SysThreadLockBase8DurationE, 
                       __ZN16SysThreadManager8try_lockER22SysThreadLockRecursiveRKN17SysThreadLockBase8DurationE, 
                       __ZN16SysThreadManagerC1ERKj, __ZN16SysThreadManagerC2ERKj, 
                       __ZN16SysThreadManagerD0Ev, __ZN16SysThreadManagerD1Ev, __ZN16SysThreadManagerD2Ev, 
                       __ZN16TessellationMesh10class_infoEv, __ZN16TessellationMesh3setERK24TessellationMeshGeometryRK20TessellationMeshMapsP14AppProgressBar, 
                       __ZN16TessellationMeshC1ERKS_, __ZN16TessellationMeshC1Ev, 
                       __ZN16TessellationMeshC2ERKS_, __ZN16TessellationMeshC2Ev, 
                       __ZN16TessellationMeshD0Ev, __ZN16TessellationMeshD1Ev, __ZN16TessellationMeshD2Ev, 
                       __ZN16TextureEvaluator12pre_evaluateEv, __ZN16TextureEvaluator13evaluate_implEv, 
                       __ZN16TextureEvaluator13post_evaluateEv, __ZN16TextureEvaluator13stop_evaluateEv, 
                       __ZN16TextureEvaluator4killEv, __ZN16TextureEvaluator7protectEv, 
                       __ZN16TextureEvaluator8evaluateEv, __ZN16TextureEvaluator9unprotectEv, 
                       __ZN16TextureEvaluatorC1ER23TextureEvaluationConfigN18ModuleImageQuality5LevelE, 
                       __ZN16TextureEvaluatorC2ER23TextureEvaluationConfigN18ModuleImageQuality5LevelE, 
                       __ZN16TextureEvaluatorD0Ev, __ZN16TextureEvaluatorD1Ev, __ZN16TextureEvaluatorD2Ev, 
                       __ZN16TextureMapObject11get_tile_uvERKdS1_RdS2_, __ZN16TextureMapObject12set_filenameERK10CoreString, 
                       __ZN16TextureMapObject12set_filepathERK10CoreString, __ZN16TextureMapObject28check_filename_for_tile_tagsEv, 
                       __ZN16ToStringFunction17register_functionEv, __ZN16ToStringFunction4evalEN7SeExpr214ExprFuncSimple9ArgHandleE, 
                       __ZN16ToStringFunctionC1Ev, __ZN16ToStringFunctionC2Ev, __ZN16ToStringFunctionD0Ev, 
                       __ZN16ToStringFunctionD1Ev, __ZN16ToStringFunctionD2Ev, __ZN16TubeMeshNakamaru10class_infoEv, 
                       __ZN16TubeMeshNakamaru16geometry_pre_hitERK7CtxEvalR19GeometryRaytraceCtxPv, 
                       __ZN16TubeMeshNakamaru18create_thread_dataEv, __ZN16TubeMeshNakamaru19destroy_thread_dataEP26TubeMeshNakamaruThreadData, 
                       __ZN16TubeMeshNakamaru3setERK9CurveMeshRK10CoreVectorIjERKdS8_, 
                       __ZN16TubeMeshNakamaruC1ERKS_, __ZN16TubeMeshNakamaruC1ERKS_RK9CurveMesh, 
                       __ZN16TubeMeshNakamaruC1Ev, __ZN16TubeMeshNakamaruC2ERKS_, 
                       __ZN16TubeMeshNakamaruC2ERKS_RK9CurveMesh, __ZN16TubeMeshNakamaruC2Ev, 
                       __ZN16TubeMeshProperty10class_infoEv, __ZN16TubeMeshProperty4initERKjPK16ResourceProperty, 
                       __ZN16TubeMeshPropertyC1ERK8TubeMeshRK17CurveMeshProperty, 
                       __ZN16TubeMeshPropertyC2ERK8TubeMeshRK17CurveMeshProperty, 
                       __ZN16TubeMeshPropertyD0Ev, __ZN16TubeMeshPropertyD1Ev, __ZN16TubeMeshPropertyD2Ev, 
                       __ZN16UsdObjectManager10check_pathERKN32pxrInternal__aapl__pxrReserved__7SdfPathE, 
                       __ZN16UsdObjectManager11add_objectsERKNSt3__16vectorIN32pxrInternal__aapl__pxrReserved__7SdfPathENS0_9allocatorIS3_EEEE, 
                       __ZN16UsdObjectManager11delete_pathERKN32pxrInternal__aapl__pxrReserved__7SdfPathE, 
                       __ZN16UsdObjectManager11rename_pathERKN32pxrInternal__aapl__pxrReserved__7SdfPathES3_, 
                       __ZN16UsdObjectManager14delete_objectsERKNSt3__16vectorIN32pxrInternal__aapl__pxrReserved__7SdfPathENS0_9allocatorIS3_EEEE, 
                       __ZN16UsdObjectManager14rename_objectsERKNSt3__16vectorIN32pxrInternal__aapl__pxrReserved__7SdfPathENS0_9allocatorIS3_EEEES8_, 
                       __ZN16UsdObjectManager17add_path_childrenERKN32pxrInternal__aapl__pxrReserved__7SdfPathE, 
                       __ZN16UsdObjectManager20delete_path_childrenERKN32pxrInternal__aapl__pxrReserved__7SdfPathE, 
                       __ZN16UsdObjectManager5clearEv, __ZN16UsdObjectManager6get_idEN32pxrInternal__aapl__pxrReserved__7SdfPathEb, 
                       __ZN16UsdObjectManager8add_pathERKN32pxrInternal__aapl__pxrReserved__7SdfPathE, 
                       __ZN16UsdStageListener14stop_listeningEv, __ZN16UsdStageListener18on_objects_changedERKN32pxrInternal__aapl__pxrReserved__9UsdNotice14ObjectsChangedE, 
                       __ZN16UsdStageListener28on_stage_edit_target_changedERKN32pxrInternal__aapl__pxrReserved__9UsdNotice22StageEditTargetChangedE, 
                       __ZN16UsdStageListener6listenEN32pxrInternal__aapl__pxrReserved__9TfWeakPtrINS0_8UsdStageEEE, 
                       __ZN16UsdStageListenerC1Ev, __ZN16UsdStageListenerC2Ev, __ZN16UsdStageListenerD1Ev, 
                       __ZN16UsdStageListenerD2Ev, __ZN16VolumeSparseData11fill_regionERK10GMathBbox3IfERKjPFvS5_R16VolumeSparseTileS3_PvES8_, 
                       __ZN16VolumeSparseData9fill_nodeER19VolumeSparseFillCtxR21VolumeSparsePrimitiveR16VolumeSparseNodeRK10GMathBbox3IfERKj, 
                       __ZN17ComponentProperty10class_infoEv, __ZN17ComponentProperty13get_type_nameERKNS_4TypeE, 
                       __ZN17ComponentPropertyC1ERK10CoreStringRKNS_4TypeES2_, __ZN17ComponentPropertyC2ERK10CoreStringRKNS_4TypeES2_, 
                       __ZN17CoreMetadataEntry3setENS_4TypeEPKvjj, __ZN17CoreMetadataEntry4initENS_4TypeEjj, 
                       __ZN17CoreMetadataEntry5clearEv, __ZN17CoreMetadataEntry9set_valueEjPKv, 
                       __ZN17CoreMetadataEntryD1Ev, __ZN17CoreMetadataEntryD2Ev, 
                       __ZN17CptModuleMaterial10class_infoEv, __ZN17CptModuleMaterial10s_cpt_flagEv, 
                       __ZN17CptModuleMaterial19on_attribute_changeERK6OfAttrRiRKi, 
                       __ZN17CptModuleMaterialC1Ev, __ZN17CptModuleMaterialC2Ev, 
                       __ZN17CptModuleMaterialD0Ev, __ZN17CptModuleMaterialD1Ev, 
                       __ZN17CptModuleMaterialD2Ev, __ZN17CurveMeshColorMap4initERK17CurveMeshTopologyRK16GeometryColorMap, 
                       __ZN17CurveMeshColorMap9s_inv_255E, __ZN17CurveMeshProperty10class_infoEv, 
                       __ZN17CurveMeshProperty4initERKjP16ResourceProperty, __ZN17CurveMeshPropertyC1ERK9CurveMeshRKNS_4TypeERKN16ResourceProperty4TypeERKjSB_SB_RK10CoreStringRK17GMathTimeSamplingRKb, 
                       __ZN17CurveMeshPropertyC2ERK9CurveMeshRKNS_4TypeERKN16ResourceProperty4TypeERKjSB_SB_RK10CoreStringRK17GMathTimeSamplingRKb, 
                       __ZN17CurveMeshPropertyD0Ev, __ZN17CurveMeshPropertyD1Ev, 
                       __ZN17CurveMeshPropertyD2Ev, __ZN17CurveMeshTopology11s_one_sixthE, 
                       __ZN17CurveMeshTopology11s_one_thirdE, __ZN17GMathTimeSampling10class_infoEv, 
                       __ZN17GMathTimeSampling11deserializeER10CoreSerial, __ZN17GMathTimeSampling12copy_samplesERK14CoreBasicArrayIdE, 
                       __ZN17GMathTimeSampling4initERK14CoreBasicArrayIdE, __ZN17GMathTimeSampling4initEd, 
                       __ZN17GMathTimeSampling4initEjdd, __ZN17GMathTimeSampling5clearEv, 
                       __ZN17GMathTimeSampling6resizeEj, __ZN17GMathTimeSampling9copy_fromERKS_d, 
                       __ZN17GMathTimeSamplingC1EOS_, __ZN17GMathTimeSamplingC1ERK14CoreBasicArrayIdE, 
                       __ZN17GMathTimeSamplingC1ERKS_, __ZN17GMathTimeSamplingC1ERKS_d, 
                       __ZN17GMathTimeSamplingC1Ed, __ZN17GMathTimeSamplingC1Ejdd, 
                       __ZN17GMathTimeSamplingC1Ev, __ZN17GMathTimeSamplingC2EOS_, 
                       __ZN17GMathTimeSamplingC2ERK14CoreBasicArrayIdE, __ZN17GMathTimeSamplingC2ERKS_, 
                       __ZN17GMathTimeSamplingC2ERKS_d, __ZN17GMathTimeSamplingC2Ed, 
                       __ZN17GMathTimeSamplingC2Ejdd, __ZN17GMathTimeSamplingC2Ev, 
                       __ZN17GMathTimeSamplingaSEOS_, __ZN17GMathTimeSamplingaSERKS_, 
                       __ZN17GasCompressedTree12create_nodesER21GasTreeSplitAlgorithmPK10GMathBbox3IfEPKjP14AppProgressBar, 
                       __ZN17GasCompressedTree13recurse_splitER21GasTreeSplitAlgorithmR19GasTreeSplitContextRKjjPjS5_, 
                       __ZN17GasCompressedTree16set_leaf_indicesEPKj, __ZN17GasCompressedTree5clearEv, 
                       __ZN17GasCompressedTree6createEPK10GMathBbox3IfEPKjRS4_P14AppProgressBar, 
                       __ZN17GasCompressedTree6createEPK10GMathBbox3IfEPKjRS4_R21GasTreeSplitAlgorithmP14AppProgressBar, 
                       __ZN17GasCompressedTree6createEPK10GMathBbox3IfERKjP14AppProgressBar, 
                       __ZN17GasCompressedTree6createEPK10GMathBbox3IfERKjR21GasTreeSplitAlgorithmP14AppProgressBar, 
                       __ZN17GasCompressedTree6createERK14CoreBasicArrayI10GMathBbox3IdEEP14AppProgressBar, 
                       __ZN17GasCompressedTree6createERK14CoreBasicArrayI10GMathBbox3IdEER21GasTreeSplitAlgorithmP14AppProgressBar, 
                       __ZN17GasCompressedTree6createERK14CoreBasicArrayI10GMathBbox3IdEERKS0_IjEP14AppProgressBar, 
                       __ZN17GasCompressedTree6createERK14CoreBasicArrayI10GMathBbox3IdEERKS0_IjER21GasTreeSplitAlgorithmP14AppProgressBar, 
                       __ZN17GasCompressedTree6createERK14CoreBasicArrayI10GMathBbox3IfEEP14AppProgressBar, 
                       __ZN17GasCompressedTree6createERK14CoreBasicArrayI10GMathBbox3IfEER21GasTreeSplitAlgorithmP14AppProgressBar, 
                       __ZN17GasCompressedTree6createERK14CoreBasicArrayI10GMathBbox3IfEERKS0_IjEP14AppProgressBar, 
                       __ZN17GasCompressedTree6createERK14CoreBasicArrayI10GMathBbox3IfEERKS0_IjER21GasTreeSplitAlgorithmP14AppProgressBar, 
                       __ZN17GasCompressedTreeC1Ev, __ZN17GasCompressedTreeC2Ev, 
                       __ZN17GasCompressedTreeD0Ev, __ZN17GasCompressedTreeD1Ev, 
                       __ZN17GasCompressedTreeD2Ev, __ZN17GasGeometryBundle10MotionDataC1ERKjPv, 
                       __ZN17GasGeometryBundle10MotionDataC2ERKjPv, __ZN17GasGeometryBundle20frustum_hit_callbackEPKS_RK7CtxEvalR9CtxShaderR18GeometryFrustumCtx, 
                       __ZN17GasGeometryBundle23ray_hit_motion_callbackEPKS_RK7CtxEvalR9CtxShaderR19GeometryRaytraceCtx, 
                       __ZN17GasGeometryBundle23ray_hit_static_callbackEPKS_RK7CtxEvalR9CtxShaderR19GeometryRaytraceCtx, 
                       __ZN17GasGeometryBundle25leaf_frustum_hit_callbackERK7CtxEvalR9CtxShaderR18GeometryFrustumCtxRK14CoreBasicArrayIjEPKS_, 
                       __ZN17GasGeometryBundle28leaf_ray_hit_motion_callbackERK7CtxEvalR9CtxShaderR19GeometryRaytraceCtxRK14CoreBasicArrayIjEPKNS_10MotionDataE, 
                       __ZN17GasGeometryBundle28leaf_ray_hit_static_callbackERK7CtxEvalR9CtxShaderR19GeometryRaytraceCtxRK14CoreBasicArrayIjEPKS_, 
                       __ZN17GasGeometryBundle31ray_hit_nearest_motion_callbackEPKS_RK7CtxEvalR9CtxShaderR19GeometryRaytraceCtx, 
                       __ZN17GasGeometryBundle31ray_hit_nearest_static_callbackEPKS_RK7CtxEvalR9CtxShaderR19GeometryRaytraceCtx, 
                       __ZN17GasGeometryBundle36leaf_ray_hit_nearest_motion_callbackERK7CtxEvalR9CtxShaderR19GeometryRaytraceCtxRK14CoreBasicArrayIjEPKNS_10MotionDataE, 
                       __ZN17GasGeometryBundle36leaf_ray_hit_nearest_static_callbackERK7CtxEvalR9CtxShaderR19GeometryRaytraceCtxRK14CoreBasicArrayIjEPKS_, 
                       __ZN17GasGeometryBundle44leaf_ray_hit_nearest_motion_vectors_callbackERK7CtxEvalR9CtxShaderR19GeometryRaytraceCtxRK14CoreBasicArrayIjEPKNS_10MotionDataE, 
                       __ZN17GasGeometryBundle6createERK5OfApp14CoreBasicArrayIP14GeometryObjectES6_RKS3_IjES9_S9_RKS3_I14GMathMatrix4x4IdLb1EEESE_RKS3_IbERKS3_IPFvRK7CtxEvalR19GeometryRaytraceCtxPvEERKbP14AppProgressBar, 
                       __ZN17GasGeometryBundle6createERK5OfApp14CoreBasicArrayIP14GeometryObjectES6_S6_S6_RKS3_IjES9_S9_RKS3_I14GMathMatrix4x4IdLb1EEESE_RKS3_IbERKS3_IPFvRK7CtxEvalR19GeometryRaytraceCtxPvEES3_I10CoreVectorIjEERKS3_IP18ModuleDisplacementERKbP14AppProgressBar, 
                       __ZN17GasGeometryBundleC1Ev, __ZN17GasGeometryBundleC2Ev, 
                       __ZN17GasGeometryBundleD0Ev, __ZN17GasGeometryBundleD1Ev, 
                       __ZN17GasGeometryBundleD2Ev, __ZN17GasGridTreeMotion14update_samplesERK7CtxEvalRK13CtxMotionBlur, 
                       __ZN17GasGridTreeMotion26grid_cell_ray_hit_callbackEPvRKjRK7CtxEvalR9CtxShaderR19GeometryRaytraceCtx, 
                       __ZN17GasGridTreeMotion34grid_cell_ray_hit_nearest_callbackEPvRKjRK7CtxEvalR9CtxShaderR19GeometryRaytraceCtx, 
                       __ZN17GasGridTreeMotion5clearEv, __ZN17GasGridTreeMotion9configureEPK11GasGridTree, 
                       __ZN17GasGridTreeMotionC1Ev, __ZN17GasGridTreeMotionC2Ev, 
                       __ZN17GasGridTreeMotionD0Ev, __ZN17GasGridTreeMotionD1Ev, 
                       __ZN17GasGridTreeMotionD2Ev, __ZN17GasTreeMotionData28destroy_gas_tree_motion_dataERS_, 
                       __ZN17GeometrySceneInfo10class_infoEv, __ZN17GeometrySceneInfo12set_geometryEP18ResourceBundleItemRK10CoreStringRKiRKbRKj, 
                       __ZN17GeometrySceneInfo13update_matrixERKjRK14GMathMatrix4x4IdLb1EE, 
                       __ZN17GeometrySceneInfo20build_bounding_boxesEv, __ZN17GeometrySceneInfo20build_shading_groupsEv, 
                       __ZN17GeometrySceneInfo4initERKjS1_RKiS3_, __ZN17GeometrySceneInfo5clearEv, 
                       __ZN17GeometrySceneInfo8set_itemERKjS1_RK14GMathMatrix4x4IdLb1EERK10CoreStringS8_RKb, 
                       __ZN17GeometrySceneInfo9copy_fromERKS_, __ZN17GeometrySceneInfoC1EP21ResourceBundleManager, 
                       __ZN17GeometrySceneInfoC1ERKS_, __ZN17GeometrySceneInfoC2EP21ResourceBundleManager, 
                       __ZN17GeometrySceneInfoC2ERKS_, __ZN17GeometrySceneInfoD0Ev, 
                       __ZN17GeometrySceneInfoD1Ev, __ZN17GeometrySceneInfoD2Ev, 
                       __ZN17GeometryUvMapData13invalid_indexE, __ZN17GeometryUvMapData4loadEv, 
                       __ZN17GeometryUvMapDataC1EPK14ModuleGeometryj, __ZN17GeometryUvMapDataC1Ev, 
                       __ZN17GeometryUvMapDataC2EPK14ModuleGeometryj, __ZN17GeometryUvMapDataC2Ev, 
                       __ZN17HdAppleRTDenoiser20_progress_monitor_cbEPvd, __ZN17HdAppleRTDenoiser24_check_convergence_metalEjjPKv, 
                       __ZN17HdAppleRTDenoiser7denoiseERKNSt3__110shared_ptrIN32pxrInternal__aapl__pxrReserved__17HdRenderPassStateEEEPK24HdAppleRTR2cRenderBufferbbb, 
                       __ZN17HdAppleRTDenoiser8_denoiseEjjjP9GMathVec4IfES2_S2_P9GMathVec3IfERK24HdAppleRTR2cRenderBufferbb, 
                       __ZN17HdAppleRTDenoiserC1Ev, __ZN17HdAppleRTDenoiserC2Ev, 
                       __ZN17HdAppleRTDenoiserD1Ev, __ZN17HdAppleRTDenoiserD2Ev, 
                       __ZN17HdAppleRTMaterial13create_objectERN32pxrInternal__aapl__pxrReserved__13HdRenderIndexE, 
                       __ZN17HdAppleRTMaterial4SyncEPN32pxrInternal__aapl__pxrReserved__15HdSceneDelegateEPNS0_13HdRenderParamEPj, 
                       __ZN17HdAppleRTMaterial8FinalizeEPN32pxrInternal__aapl__pxrReserved__13HdRenderParamE, 
                       __ZN17HdAppleRTMaterial9sync_mainERN32pxrInternal__aapl__pxrReserved__13HdRenderIndexERKj, 
                       __ZN17HdAppleRTMaterialC1ERKN32pxrInternal__aapl__pxrReserved__7SdfPathE, 
                       __ZN17HdAppleRTMaterialC2ERKN32pxrInternal__aapl__pxrReserved__7SdfPathE, 
                       __ZN17HdAppleRTMaterialD0Ev, __ZN17HdAppleRTMaterialD1Ev, 
                       __ZN17HdAppleRTMaterialD2Ev, __ZN17HrpFunctionHandleC1EP11objc_objectj, 
                       __ZN17HrpFunctionHandleC2EP11objc_objectj, __ZN17HrpGeometryHandle12extract_typeE17R2cItemDescriptor, 
                       __ZN17HrpGeometryHandle31sync_property_remapping_buffersEP11objc_object, 
                       __ZN17HrpGeometryHandle3setE17R2cItemDescriptor, __ZN17HrpGeometryHandle3setEPK13HrpMeshHandle, 
                       __ZN17HrpGeometryHandle3setEPK17HrpImplicitHandle, __ZN17HrpGeometryHandle7releaseEv, 
                       __ZN17HrpImplicitHandle5buildEPK14GeometryObjectP11objc_objectRK5OfApp, 
                       __ZN17HrpMaterialHandleC1EP17HrpUniformsHandleP17HrpFunctionHandlejj, 
                       __ZN17HrpMaterialHandleC2EP17HrpUniformsHandleP17HrpFunctionHandlejj, 
                       __ZN17HrpPropertyHandleC1EP11objc_objectPK16GeometryPropertyRK13HrpMeshHandlePK14GeometryObjectj, 
                       __ZN17HrpPropertyHandleC1EP11objc_objectPK17CurveMeshPropertyRK14HrpCurveHandlePK14GeometryObjectj, 
                       __ZN17HrpPropertyHandleC1EP11objc_objectPK21GeometryPointPropertyj, 
                       __ZN17HrpPropertyHandleC1EP11objc_objectPK23GeometryUniformPropertyj, 
                       __ZN17HrpPropertyHandleC2EP11objc_objectPK16GeometryPropertyRK13HrpMeshHandlePK14GeometryObjectj, 
                       __ZN17HrpPropertyHandleC2EP11objc_objectPK17CurveMeshPropertyRK14HrpCurveHandlePK14GeometryObjectj, 
                       __ZN17HrpPropertyHandleC2EP11objc_objectPK21GeometryPointPropertyj, 
                       __ZN17HrpPropertyHandleC2EP11objc_objectPK23GeometryUniformPropertyj, 
                       __ZN17HrpSourceCodeNode17resolveSourceCodeERKN15MaterialX__aapl16InterfaceElementERNS0_10GenContextE, 
                       __ZN17HrpSourceCodeNode6createEv, __ZN17HrpUniformsHandleC1EP11objc_objectRK15HrpUniformsListj, 
                       __ZN17HrpUniformsHandleC2EP11objc_objectRK15HrpUniformsListj, 
                       __ZN17HrpUniformsHandleD1Ev, __ZN17HrpUniformsHandleD2Ev, 
                       __ZN17ImageHelperBitmap10class_infoEv, __ZN17ImageHelperBitmap5clearEv, 
                       __ZN17ImageHelperBitmap6createERKjS1_S1_, __ZN17ImageHelperBitmapC1ERKS_, 
                       __ZN17ImageHelperBitmapC1ERKjS1_S1_, __ZN17ImageHelperBitmapC1Ev, 
                       __ZN17ImageHelperBitmapC2ERKS_, __ZN17ImageHelperBitmapC2ERKjS1_S1_, 
                       __ZN17ImageHelperBitmapC2Ev, __ZN17ImageHelperBitmapD0Ev, 
                       __ZN17ImageHelperBitmapD1Ev, __ZN17ImageHelperBitmapD2Ev, 
                       __ZN17ImageIOFileFormat10class_infoEv, __ZN17ImageIOFileFormat13get_load_nameERKNS_4LoadE, 
                       __ZN17ImageIOFileFormat13get_save_nameERKNS_4SaveE, __ZN17ImageIOFileFormat14get_short_nameERKNS_24OpenExrCompressionMethodE, 
                       __ZN17ImageIOFileFormat14get_short_nameERKNS_4SaveE, __ZN17ImageIOFileFormat18is_extension_validERK10CoreString, 
                       __ZN17ImageIOFileFormat19get_load_extensionsERKNS_4LoadE, 
                       __ZN17ImageIOFileFormat19get_save_extensionsERKNS_4SaveE, 
                       __ZN17ImageIOFileFormat20get_compression_nameERKNS_24OpenExrCompressionMethodE, 
                       __ZN17ImageIOFileFormat21get_bytes_per_channelERKNS_4SaveE, 
                       __ZN17ImageIOFileFormat23get_save_from_extensionERK10CoreString, 
                       __ZN17ImageIOFileFormat24construct_tile_file_nameERK10CoreStringii, 
                       __ZN17ImageIOFileFormat24get_save_from_short_nameERK10CoreString, 
                       __ZN17ImageIOFileFormat24get_supported_extensionsEv, __ZN17ImageIOFileFormat25construct_layer_file_nameERK10CoreStringS2_PKc, 
                       __ZN17ImageIOFileFormat31get_compression_from_short_nameERK10CoreString, 
                       __ZN17ImageIOFileFormat40get_extension_file_filters_for_open_fileEv, 
                       __ZN17ImageIOFileFormat40get_extension_file_filters_for_save_fileEv, 
                       __ZN17LayerRenderBuffer11fill_regionERKjPKvS1_RKN15R2cRenderBuffer6RegionERKb, 
                       __ZN17LayerRenderBuffer12fill_qualityEPKfRKjRKN15R2cRenderBuffer6RegionERKb, 
                       __ZN17LayerRenderBuffer13set_meta_dataERK10CoreStringRK10CoreVectorI11CoreVariantE, 
                       __ZN17LayerRenderBuffer14create_buffersE14CoreBasicArrayI10R2cAovInfoE, 
                       __ZN17LayerRenderBuffer16set_cuda_buffersEPyS0_j, __ZN17LayerRenderBuffer24notify_end_render_regionERKN15R2cRenderBuffer6RegionEibj, 
                       __ZN17LayerRenderBuffer26notify_start_render_regionERKN15R2cRenderBuffer6RegionEibj, 
                       __ZN17LayerRenderBuffer8finalizeEv, __ZN17LayerRenderBufferC1ER19ModuleLayerR2cSceneR11ImageCanvasRKN15R2cRenderBuffer6RegionERKfS9_b, 
                       __ZN17LayerRenderBufferC2ER19ModuleLayerR2cSceneR11ImageCanvasRKN15R2cRenderBuffer6RegionERKfS9_b, 
                       __ZN17LayerRenderBufferD0Ev, __ZN17LayerRenderBufferD1Ev, 
                       __ZN17LayerRenderBufferD2Ev, __ZN17LicenseNodeLocked15request_licenseEPKcS1_RKdRKjS5_R11LicenseInfo, 
                       __ZN17LicenseNodeLocked16generate_licenseEPcPKcS2_S2_RKdS2_iiijj, 
                       __ZN17LicenseNodeLocked16is_valid_licenseEPKc, __ZN17LicenseNodeLocked19get_encryption_seedEPKc, 
                       __ZN17LicenseNodeLocked20display_license_infoEPKcS1_RKb, __ZN17LicenseServerInfo6updateEv, 
                       __ZN17LicenseServerInfoC1ERKS_, __ZN17LicenseServerInfoC1Ev, 
                       __ZN17LicenseServerInfoC2ERKS_, __ZN17LicenseServerInfoC2Ev, 
                       __ZN17LicenseServerInfoD1Ev, __ZN17LicenseServerInfoD2Ev, 
                       __ZN17LicenseServerInfoaSERKS_, __ZN17ModuleImageFilter10class_infoEv, 
                       __ZN17ModuleLpeConstant10class_infoEv, __ZN17ModuleLpeConstant18module_constructorER8OfObject, 
                       __ZN17ModuleLpeConstant19on_attribute_changeERK6OfAttrRiRKi, 
                       __ZN17ModuleLpeConstantC1Ev, __ZN17ModuleLpeConstantC2Ev, 
                       __ZN17ModulePixelFilter10class_infoEv, __ZN17ModulePixelFilter18module_constructorER8OfObject, 
                       __ZN17ModulePixelFilter5applyER9CtxFilter, __ZN17ModulePixelFilterC1Ev, 
                       __ZN17ModulePixelFilterC2Ev, __ZN17ModulePixelFilterD0Ev, 
                       __ZN17ModulePixelFilterD1Ev, __ZN17ModulePixelFilterD2Ev, 
                       __ZN17ModuleProjectItem10class_infoEv, __ZN17ModuleProjectItem18module_constructorER8OfObject, 
                       __ZN17ModuleProjectItemC1Ev, __ZN17ModuleProjectItemC2Ev, 
                       __ZN17ModuleProjectItemD0Ev, __ZN17ModuleProjectItemD1Ev, 
                       __ZN17ModuleProjectItemD2Ev, __ZN17ModuleRenderScene10class_infoEv, 
                       __ZN17ModuleRenderScene10sync_inputERK6OfAttr, __ZN17ModuleRenderScene11reset_inputEv, 
                       __ZN17ModuleRenderScene11sync_lightsERK6OfAttr, __ZN17ModuleRenderScene12reset_lightsEv, 
                       __ZN17ModuleRenderScene12sync_objectsERK6OfAttrRKNS_10ObjectTypeE, 
                       __ZN17ModuleRenderScene13reset_objectsERKNS_10ObjectTypeE, 
                       __ZN17ModuleRenderScene15update_overscanEv, __ZN17ModuleRenderScene16on_camera_changeER8OfObjectRKN11EventObject9EventInfoEPv, 
                       __ZN17ModuleRenderScene18get_embedded_groupEPKc, __ZN17ModuleRenderScene18module_constructorER8OfObject, 
                       __ZN17ModuleRenderScene18on_renderer_changeER8OfObjectRKN11EventObject9EventInfoEPv, 
                       __ZN17ModuleRenderScene19on_attribute_changeERK6OfAttrRiRKi, 
                       __ZN17ModuleRenderScene20reset_embedded_groupEPKc, __ZN17ModuleRenderScene21remove_embedded_groupEPKc, 
                       __ZN17ModuleRenderScene22s_input_attribute_nameE, __ZN17ModuleRenderScene22s_light_attribute_nameE, 
                       __ZN17ModuleRenderScene23s_input_connection_nameE, __ZN17ModuleRenderScene23s_light_connection_nameE, 
                       __ZN17ModuleRenderScene23sync_visibility_objectsEv, __ZN17ModuleRenderScene24s_object_attribute_namesE, 
                       __ZN17ModuleRenderScene24s_resolution_multipliersE, __ZN17ModuleRenderScene25s_object_connection_namesE, 
                       __ZN17ModuleRenderScene33register_component_implementationEv, 
                       __ZN17ModuleRenderSceneC1Ev, __ZN17ModuleRenderSceneC2Ev, 
                       __ZN17ModuleRenderSceneD0Ev, __ZN17ModuleRenderSceneD1Ev, 
                       __ZN17ModuleRenderSceneD2Ev, __ZN17ModuleSceneObject10class_infoEv, 
                       __ZN17ModuleSceneObject15on_light_changeER11ModuleGroupjPv, 
                       __ZN17ModuleSceneObject15s_compound_flagEv, __ZN17ModuleSceneObject15s_geometry_flagEv, 
                       __ZN17ModuleSceneObject16merge_geometriesERK10CoreVectorIPS_ER9CoreArrayI9GMathVec3IdEERS5_IjESB_SB_RS5_I10CoreStringERS5_I13GeometryUvMapERS5_I17GeometryNormalMapERS5_I16GeometryColorMapEP14AppProgressBar, 
                       __ZN17ModuleSceneObject17module_destructorEv, __ZN17ModuleSceneObject18module_constructorER8OfObject, 
                       __ZN17ModuleSceneObject19on_attribute_changeERK6OfAttrRiRKi, 
                       __ZN17ModuleSceneObject20update_emission_modeEv, __ZN17ModuleSceneObject21set_shading_variablesERK10CoreString, 
                       __ZN17ModuleSceneObject25update_geometry_overridesER8OfObjectRKN11EventObject9EventInfoEPv, 
                       __ZN17ModuleSceneObject26update_ray_type_visibilityEv, __ZN17ModuleSceneObject28remove_all_shading_variablesEv, 
                       __ZN17ModuleSceneObject32set_override_children_visibilityERKb, 
                       __ZN17ModuleSceneObject33register_component_implementationEv, 
                       __ZN17ModuleSceneObject9Structure20default_get_clustersERKS_P16GeometryOverrideR10CoreVectorIPvERKjRKf, 
                       __ZN17ModuleSceneObject9Structure27default_get_clusters_bboxesERKS_P16GeometryOverrideRK14CoreBasicArrayIPvEP10GMathBbox3IfE, 
                       __ZN17ModuleSceneObject9Structure28default_get_clusters_weightsERKS_P16GeometryOverrideRK14CoreBasicArrayIPvEPf, 
                       __ZN17ModuleSceneObject9Structure30default_get_clusters_bboxes_atERKS_P16GeometryOverrideRK7CtxEvalRKdRK14CoreBasicArrayIPvEP10GMathBbox3IfE, 
                       __ZN17ModuleSceneObjectC1Ev, __ZN17ModuleSceneObjectC2Ev, 
                       __ZN17ModuleSceneObjectD0Ev, __ZN17ModuleSceneObjectD1Ev, 
                       __ZN17ModuleSceneObjectD2Ev, __ZN17NgLightVisibility10initializeEv, 
                       __ZN17NgLightVisibility11get_defaultEv, __ZN17NgLightVisibility19on_attribute_changeERK8OfObjectRK6OfAttrRiRKi, 
                       __ZN17NgLightVisibilityC1Ev, __ZN17NgLightVisibilityC2Ev, 
                       __ZN17NgOcioLutsManager3getEv, __ZN17NgOcioLutsManager4initER5OfApp, 
                       __ZN17NgOcioLutsManagerC1Ev, __ZN17NgOcioLutsManagerC2Ev, 
                       __ZN17NgOcioLutsManagerD1Ev, __ZN17NgOcioLutsManagerD2Ev, 
                       __ZN17NgRenderThreadCtx11init_bakingEP11ModuleGroupRK6CtxGas, 
                       __ZN17NgRenderThreadCtx8pre_evalERK7CtxEvalP12ModuleCamerajjP11ModuleGroupRK6CtxGasP18ModuleShadingLayerRK13CtxMotionBlurPK10CoreVectorIPK20NgVolumeResourceDataERK14CoreBasicArrayIjE, 
                       __ZN17NgRenderThreadCtxC1Ev, __ZN17NgRenderThreadCtxC2Ev, 
                       __ZN17NgRenderThreadCtxD1Ev, __ZN17NgRenderThreadCtxD2Ev, 
                       __ZN17NgResourceManager10add_lightsEPK16R2cSceneDelegate14CoreBasicArrayIPvE, 
                       __ZN17NgResourceManager11add_objectsEPK16R2cSceneDelegate14CoreBasicArrayIPvE, 
                       __ZN17NgResourceManager11add_shadersE14CoreBasicArrayIPvE, 
                       __ZN17NgResourceManager13remove_lightsE14CoreBasicArrayIyE, 
                       __ZN17NgResourceManager14build_pipelineEv, __ZN17NgResourceManager14get_ng_item_idEPK16R2cSceneDelegatePv, 
                       __ZN17NgResourceManager14remove_objectsE14CoreBasicArrayIyE, 
                       __ZN17NgResourceManager14remove_shadersE14CoreBasicArrayIPvE, 
                       __ZN17NgResourceManager15compile_modulesEP5OfApp, __ZN17NgResourceManager18synchronize_lightsEPK16R2cSceneDelegateR7CtxEvalb14CoreBasicArrayIyEP14AppProgressBar, 
                       __ZN17NgResourceManager19synchronize_objectsEPK16R2cSceneDelegateR7CtxEval14CoreBasicArrayIyES6_, 
                       __ZN17NgResourceManager19synchronize_shadersEPK16R2cSceneDelegateb14CoreBasicArrayIPvEP14AppProgressBar, 
                       __ZN17NgResourceManager21get_sas_resource_dataEy, __ZN17NgResourceManager23build_cc_program_groupsEv, 
                       __ZN17NgResourceManager24get_resource_property_idEyj, __ZN17NgResourceManager3getEv, 
                       __ZN17NgResourceManager9build_sbtEv, __ZN17NgResourceManager9s_managerE, 
                       __ZN17NgResourceManagerC1Ev, __ZN17NgResourceManagerC2Ev, 
                       __ZN17NgResourceManagerD1Ev, __ZN17NgResourceManagerD2Ev, 
                       __ZN17NgSasResourceData14clear_if_dirtyEv, __ZN17NgSasResourceData18weighted_sas_dirtyEv, 
                       __ZN17NgSasResourceData5clearEb, __ZN17NgSasResourceData9sas_dirtyEv, 
                       __ZN17NodeLockedLicense11set_licenseEPKc, __ZN17NodeLockedLicense20compute_license_hashEv, 
                       __ZN17NodeLockedLicense3logEPKcb, __ZN17NodeLockedLicense4initEPKcS1_S1_RKdS1_iiijj, 
                       __ZN17NodeLockedLicense6failedEv, __ZN17NodeLockedLicense7decryptERS_RKj, 
                       __ZN17NodeLockedLicense7encryptERS_RKj, __ZN17NodeLockedLicense8is_validEPKc, 
                       __ZN17NodeLockedLicense8is_validEv, __ZN17NodeLockedLicenseC1Ev, 
                       __ZN17NodeLockedLicenseC2Ev, __ZN17NodeLockedLicenseD1Ev, 
                       __ZN17NodeLockedLicenseD2Ev, __ZN17OfCommandArgument13get_type_nameERKNS_4TypeE, 
                       __ZN17OfCommandArgumentC1EP6OfItem, __ZN17OfCommandArgumentC1EP8OfObject, 
                       __ZN17OfCommandArgumentC1EP9OfContext, __ZN17OfCommandArgumentC1EPKc, 
                       __ZN17OfCommandArgumentC1ERK10CoreString, __ZN17OfCommandArgumentC1ERK11CoreVariant, 
                       __ZN17OfCommandArgumentC1ERK14CoreBasicArrayI10CoreStringE, 
                       __ZN17OfCommandArgumentC1ERK14CoreBasicArrayI11CoreVariantE, 
                       __ZN17OfCommandArgumentC1ERK14CoreBasicArrayI14GMathMatrix4x4IdLb1EEE, 
                       __ZN17OfCommandArgumentC1ERK14CoreBasicArrayI16OfBaseItemHandleILb0EEE, 
                       __ZN17OfCommandArgumentC1ERK14CoreBasicArrayI18OfBaseObjectHandleILb0EEE, 
                       __ZN17OfCommandArgumentC1ERK14CoreBasicArrayI19OfBaseContextHandleILb0EEE, 
                       __ZN17OfCommandArgumentC1ERK14CoreBasicArrayI9GMathVec2IdEE, 
                       __ZN17OfCommandArgumentC1ERK14CoreBasicArrayI9GMathVec2IiEE, 
                       __ZN17OfCommandArgumentC1ERK14CoreBasicArrayI9GMathVec3IdEE, 
                       __ZN17OfCommandArgumentC1ERK14CoreBasicArrayIP6OfItemE, __ZN17OfCommandArgumentC1ERK14CoreBasicArrayIP8OfObjectE, 
                       __ZN17OfCommandArgumentC1ERK14CoreBasicArrayIP9OfContextE, 
                       __ZN17OfCommandArgumentC1ERK14CoreBasicArrayIPcE, __ZN17OfCommandArgumentC1ERK14CoreBasicArrayIbE, 
                       __ZN17OfCommandArgumentC1ERK14CoreBasicArrayIcE, __ZN17OfCommandArgumentC1ERK14CoreBasicArrayIdE, 
                       __ZN17OfCommandArgumentC1ERK14CoreBasicArrayIfE, __ZN17OfCommandArgumentC1ERK14CoreBasicArrayIhE, 
                       __ZN17OfCommandArgumentC1ERK14CoreBasicArrayIiE, __ZN17OfCommandArgumentC1ERK14CoreBasicArrayIjE, 
                       __ZN17OfCommandArgumentC1ERK14CoreBasicArrayIsE, __ZN17OfCommandArgumentC1ERK14CoreBasicArrayItE, 
                       __ZN17OfCommandArgumentC1ERK14GMathMatrix4x4IdLb1EE, __ZN17OfCommandArgumentC1ERK16OfBaseItemHandleILb0EE, 
                       __ZN17OfCommandArgumentC1ERK18OfBaseObjectHandleILb0EE, __ZN17OfCommandArgumentC1ERK19OfBaseContextHandleILb0EE, 
                       __ZN17OfCommandArgumentC1ERK9GMathVec2IdE, __ZN17OfCommandArgumentC1ERK9GMathVec2IiE, 
                       __ZN17OfCommandArgumentC1ERK9GMathVec3IdE, __ZN17OfCommandArgumentC1ERKS_, 
                       __ZN17OfCommandArgumentC1ERKb, __ZN17OfCommandArgumentC1ERKc, 
                       __ZN17OfCommandArgumentC1ERKd, __ZN17OfCommandArgumentC1ERKf, 
                       __ZN17OfCommandArgumentC1ERKh, __ZN17OfCommandArgumentC1ERKi, 
                       __ZN17OfCommandArgumentC1ERKj, __ZN17OfCommandArgumentC1ERKs, 
                       __ZN17OfCommandArgumentC1ERKt, __ZN17OfCommandArgumentC1Ev, 
                       __ZN17OfCommandArgumentC2EP6OfItem, __ZN17OfCommandArgumentC2EP8OfObject, 
                       __ZN17OfCommandArgumentC2EP9OfContext, __ZN17OfCommandArgumentC2EPKc, 
                       __ZN17OfCommandArgumentC2ERK10CoreString, __ZN17OfCommandArgumentC2ERK11CoreVariant, 
                       __ZN17OfCommandArgumentC2ERK14CoreBasicArrayI10CoreStringE, 
                       __ZN17OfCommandArgumentC2ERK14CoreBasicArrayI11CoreVariantE, 
                       __ZN17OfCommandArgumentC2ERK14CoreBasicArrayI14GMathMatrix4x4IdLb1EEE, 
                       __ZN17OfCommandArgumentC2ERK14CoreBasicArrayI16OfBaseItemHandleILb0EEE, 
                       __ZN17OfCommandArgumentC2ERK14CoreBasicArrayI18OfBaseObjectHandleILb0EEE, 
                       __ZN17OfCommandArgumentC2ERK14CoreBasicArrayI19OfBaseContextHandleILb0EEE, 
                       __ZN17OfCommandArgumentC2ERK14CoreBasicArrayI9GMathVec2IdEE, 
                       __ZN17OfCommandArgumentC2ERK14CoreBasicArrayI9GMathVec2IiEE, 
                       __ZN17OfCommandArgumentC2ERK14CoreBasicArrayI9GMathVec3IdEE, 
                       __ZN17OfCommandArgumentC2ERK14CoreBasicArrayIP6OfItemE, __ZN17OfCommandArgumentC2ERK14CoreBasicArrayIP8OfObjectE, 
                       __ZN17OfCommandArgumentC2ERK14CoreBasicArrayIP9OfContextE, 
                       __ZN17OfCommandArgumentC2ERK14CoreBasicArrayIPcE, __ZN17OfCommandArgumentC2ERK14CoreBasicArrayIbE, 
                       __ZN17OfCommandArgumentC2ERK14CoreBasicArrayIcE, __ZN17OfCommandArgumentC2ERK14CoreBasicArrayIdE, 
                       __ZN17OfCommandArgumentC2ERK14CoreBasicArrayIfE, __ZN17OfCommandArgumentC2ERK14CoreBasicArrayIhE, 
                       __ZN17OfCommandArgumentC2ERK14CoreBasicArrayIiE, __ZN17OfCommandArgumentC2ERK14CoreBasicArrayIjE, 
                       __ZN17OfCommandArgumentC2ERK14CoreBasicArrayIsE, __ZN17OfCommandArgumentC2ERK14CoreBasicArrayItE, 
                       __ZN17OfCommandArgumentC2ERK14GMathMatrix4x4IdLb1EE, __ZN17OfCommandArgumentC2ERK16OfBaseItemHandleILb0EE, 
                       __ZN17OfCommandArgumentC2ERK18OfBaseObjectHandleILb0EE, __ZN17OfCommandArgumentC2ERK19OfBaseContextHandleILb0EE, 
                       __ZN17OfCommandArgumentC2ERK9GMathVec2IdE, __ZN17OfCommandArgumentC2ERK9GMathVec2IiE, 
                       __ZN17OfCommandArgumentC2ERK9GMathVec3IdE, __ZN17OfCommandArgumentC2ERKS_, 
                       __ZN17OfCommandArgumentC2ERKb, __ZN17OfCommandArgumentC2ERKc, 
                       __ZN17OfCommandArgumentC2ERKd, __ZN17OfCommandArgumentC2ERKf, 
                       __ZN17OfCommandArgumentC2ERKh, __ZN17OfCommandArgumentC2ERKi, 
                       __ZN17OfCommandArgumentC2ERKj, __ZN17OfCommandArgumentC2ERKs, 
                       __ZN17OfCommandArgumentC2ERKt, __ZN17OfCommandArgumentC2Ev, 
                       __ZN17OfCommandArgumentD1Ev, __ZN17OfCommandArgumentD2Ev, 
                       __ZN17OfCommandArgumentaSERKS_, __ZN17OslModuleMaterial10class_infoEv, 
                       __ZN17OslModuleMaterial15clear_osl_cacheEv, __ZN17OslModuleMaterial16get_shader_groupE10OslBackend20OslMaterialComponent, 
                       __ZN17OslModuleMaterial17module_destructorEv, __ZN17OslModuleMaterial18module_constructorER8OfObject, 
                       __ZN17OslModuleMaterial19on_attribute_changeERK6OfAttrRiRKi, 
                       __ZN17OslModuleMaterial19s_osl_material_flagEv, __ZN17OslModuleMaterial22on_color_space_changedER8OfObjectRKN11EventObject9EventInfoEPv, 
                       __ZN17OslModuleMaterialC1Ev, __ZN17OslModuleMaterialC2Ev, 
                       __ZN17OslScriptedObject6updateER8OfObjectRK10CoreString, __ZN17OslScriptedObject7make_idERK8OfObject, 
                       __ZN17PbrFresnelHelpers30compute_dielectric_reflectanceERK9GMathVec3IdES3_RKd, 
                       __ZN17PbrSasEvaluateCtxC1ERK9CtxShaderRK9GMathVec3IdEPK10PbrScatterRK9PbrSampleR7PbrEvaldP24GeometryObjectDescriptor, 
                       __ZN17PbrSasEvaluateCtxC1ERKS_, __ZN17PbrSasEvaluateCtxC2ERK9CtxShaderRK9GMathVec3IdEPK10PbrScatterRK9PbrSampleR7PbrEvaldP24GeometryObjectDescriptor, 
                       __ZN17PbrSasEvaluateCtxC2ERKS_, __ZN17PbrSasEvaluateCtxD1Ev, 
                       __ZN17PbrSasEvaluateCtxD2Ev, __ZN17PlateImageManager10s_instanceE, 
                       __ZN17PlateImageManager25get_or_create_plate_imageERK10CoreString, 
                       __ZN17PlateImageManager3getEv, __ZN17PlateImageManager5clearENS_9ClearModeE, 
                       __ZN17PlateImageManager6createER5OfApp, __ZN17PlateImageManager7destroyEv, 
                       __ZN17PlateImageManagerC1ER5OfApp, __ZN17PlateImageManagerC2ER5OfApp, 
                       __ZN17PlateImageManagerD0Ev, __ZN17PlateImageManagerD1Ev, 
                       __ZN17PlateImageManagerD2Ev, __ZN17PointCloudSamples22get_sampling_mode_nameERKNS_12SamplingModeE, 
                       __ZN17PointCloudSamples5clearEv, __ZN17PointCloudSamples6createERK14GeometryObjectRK9CoreArrayI33GeometryPrimitiveSampleDescriptorERKS3_I9GMathVec3IdEESC_SC_RKd, 
                       __ZN17PointCloudSamples6createERK7CtxEvalRK14GeometryObjectRKdRKNS_12SamplingModeE, 
                       __ZN17PointCloudSamples6createERK7CtxEvalRK14GeometryObjectRKdRKjRKNS_12SamplingModeE, 
                       __ZN17PointCloudSamplesC1Ev, __ZN17PointCloudSamplesC2Ev, 
                       __ZN17PointCloudSamplesD1Ev, __ZN17PointCloudSamplesD2Ev, 
                       __ZN17R2cRenderDelegate10class_infoEv, __ZN17R2cRenderDelegate18create_aov_buffersEP15R2cRenderBuffer14CoreBasicArrayI10R2cAovInfoE, 
                       __ZN17R2cRenderDelegate18create_aov_buffersEP15R2cRenderBuffer14CoreBasicArrayIP16ModuleR2cAovItemE, 
                       __ZN17R2cRenderDelegate21add_display_attributeERK19R2cDisplayAttribute, 
                       __ZN17R2cRenderDelegate21get_display_attributeERK10CoreString, 
                       __ZN17R2cRenderDelegate22get_display_attributesER8OfObject, 
                       __ZN17R2cRenderDelegate22set_previz_light_groupEP11ModuleGroup, 
                       __ZN17R2cRenderDelegate25create_display_attributesER8OfObject, 
                       __ZN17R2cRenderDelegate27on_display_attribute_changeERK6OfAttr, 
                       __ZN17R2cRenderDelegateC2EP5OfApp, __ZN17RayGeneratorPoint16disable_clippingEv, 
                       __ZN17RayGeneratorPoint17get_rays_callbackERKS_PK9GMathVec2IdERKjP8GMathRayIdEPjPd, 
                       __ZN17RayGeneratorPoint20get_frustum_callbackERKS_RK9GMathVec2IdES5_R12GMathFrustum, 
                       __ZN17RayGeneratorPoint22get_rays_line_callbackERKS_PK9GMathVec2IdERKjP8GMathRayIdEPjPd, 
                       __ZN17RayGeneratorPoint23discard_clipped_samplesERK9GMathVec3IdE, 
                       __ZN17RayGeneratorPoint25get_rays_discard_callbackERKS_PK9GMathVec2IdERKjP8GMathRayIdEPjPd, 
                       __ZN17RayGeneratorPoint4initERK8GMathRayIdERK14CoreBasicArrayIdERK9GMathVec3IdERKdSD_SD_, 
                       __ZN17RayGeneratorPoint4initERK9GMathVec3IdERK28GeometryPositionDifferentialS3_RKdS8_S8_, 
                       __ZN17RayGeneratorPoint4initERK9GMathVec3IdERKdS3_S5_S5_S5_, 
                       __ZN17RayGeneratorPointC1ERKN8GMathRayIdE4TypeERKd, __ZN17RayGeneratorPointC2ERKN8GMathRayIdE4TypeERKd, 
                       __ZN17SceneShadingTable22get_resolved_materialsEPK17ModuleSceneObjectPK9CoreArrayI17ShadingGroupLinksEPK14ModuleMaterialRS3_IPS8_E, 
                       __ZN17SceneShadingTable5clearEv, __ZN17ShadingGroupLinks14clip_map_emptyE, 
                       __ZN17ShadingGroupLinks14material_emptyE, __ZN17ShadingGroupLinks16clip_map_invalidE, 
                       __ZN17ShadingGroupLinks16material_invalidE, __ZN17ShadingGroupLinks18displacement_emptyE, 
                       __ZN17ShadingGroupLinks20displacement_invalidE, __ZN17ShadingGroupLinks23shading_variables_emptyE, 
                       __ZN17ShadingGroupLinks25shading_variables_invalidE, __ZN17SphericalFunctionILi0EE7s_basisE, 
                       __ZN17SphericalFunctionILi1EE7s_basisE, __ZN17SphericalFunctionILi2EE7s_basisE, 
                       __ZN17SphericalFunctionILi3EE7s_basisE, __ZN17SysThreadPoolTask10class_infoEv, 
                       __ZN17SysThreadPoolTask4initERKb, __ZN17SysThreadPoolTaskC2Ev, 
                       __ZN17UxdPropertySchemaC1ERKN32pxrInternal__aapl__pxrReserved__11UsdPropertyEb, 
                       __ZN17UxdPropertySchemaC2ERKN32pxrInternal__aapl__pxrReserved__11UsdPropertyEb, 
                       __ZN17VolumeOpenvdbGrid4initENSt3__110shared_ptrIN7openvdb9v12_1aapl8GridBaseEEE, 
                       __ZN17VolumeRayIterator23log_infinite_loop_errorER9CtxShaderRK19GeometryRaytraceCtxRKiRKdS8_S8_, 
                       __ZN17VolumeSparseConst10VOXEL_SIZEE, __ZN17VolumeSparseConst12UVW_TO_VOXELE, 
                       __ZN17VolumeSparseConst14VALUE_OFFSET_XE, __ZN17VolumeSparseConst14VALUE_OFFSET_YE, 
                       __ZN17VolumeSparseConst14VALUE_OFFSET_ZE, __ZN17VolumeSparseConst14VOXEL_OFFSET_YE, 
                       __ZN17VolumeSparseConst14VOXEL_OFFSET_ZE, __ZN18AppCallbackManager11reset_timerEv, 
                       __ZN18AppCallbackManager12remove_timerEPFvPvEbS0_, __ZN18AppCallbackManager12repeat_timerERKjPFvPvES2_, 
                       __ZN18AppCallbackManager17add_to_event_loopEPFvPvES0_, __ZN18AppCallbackManager22remove_from_event_loopEPFvPvES0_, 
                       __ZN18AppCallbackManager4execEv, __ZN18AppCallbackManager9add_timerERKjPFvPvES2_RKb, 
                       __ZN18AppCallbackManagerC1Ev, __ZN18AppCallbackManagerC2Ev, 
                       __ZN18AppCallbackManagerD1Ev, __ZN18AppCallbackManagerD2Ev, 
                       __ZN18AppItemPreferences10set_hiddenERKb, __ZN18AppItemPreferences12enable_rangeERKb, 
                       __ZN18AppItemPreferences12get_categoryEv, __ZN18AppItemPreferences12set_saveableERKb, 
                       __ZN18AppItemPreferences13set_read_onlyERKb, __ZN18AppItemPreferences14set_bool_valueERKb, 
                       __ZN18AppItemPreferences14set_long_valueERKl, __ZN18AppItemPreferences14set_rgba_valueERK9GMathVec4IdE, 
                       __ZN18AppItemPreferences15enable_ui_rangeERKb, __ZN18AppItemPreferences15set_color_valueERKdRKj, 
                       __ZN18AppItemPreferences15set_vec2d_valueERK9GMathVec2IdE, 
                       __ZN18AppItemPreferences16add_preset_valueERK10CoreStringS2_, 
                       __ZN18AppItemPreferences16set_double_valueERKd, __ZN18AppItemPreferences16set_preset_valueERK10CoreString, 
                       __ZN18AppItemPreferences16set_string_valueERK10CoreString, 
                       __ZN18AppItemPreferences17set_numeric_rangeERKdS1_, __ZN18AppItemPreferences18remove_all_presetsEv, 
                       __ZN18AppItemPreferences19add_value_validatorEPFvRK6OfAttrR10CoreStringPvES5_, 
                       __ZN18AppItemPreferences19add_value_validatorEPFvRK6OfAttrRbPvES4_, 
                       __ZN18AppItemPreferences19add_value_validatorEPFvRK6OfAttrRdPvES4_, 
                       __ZN18AppItemPreferences19add_value_validatorEPFvRK6OfAttrRlPvES4_, 
                       __ZN18AppItemPreferences20set_numeric_ui_rangeERKdS1_, __ZN18AppItemPreferences23set_filename_extensionsERK10CoreVectorI10CoreStringE, 
                       __ZN18AppItemPreferences28get_item_attribute_from_varsEv, 
                       __ZN18AppItemPreferences7set_docERK10CoreString, __ZN18AppItemPreferencesC1EP14AppPreferencesRK10CoreStringS4_, 
                       __ZN18AppItemPreferencesC1ERKS_, __ZN18AppItemPreferencesC2EP14AppPreferencesRK10CoreStringS4_, 
                       __ZN18AppItemPreferencesC2ERKS_, __ZN18AppItemPreferencesaSERKS_, 
                       __ZN18AppResourceManagerC1ER9AppObject, __ZN18AppResourceManagerC2ER9AppObject, 
                       __ZN18ColorIOConvertImpl21configure_for_displayERK10CoreStringS2_S2_, 
                       __ZN18ColorIOConvertImpl9configureERK10CoreStringS2_, __ZN18ColorIOConvertImplC1EP14ColorIOManager, 
                       __ZN18ColorIOConvertImplC2EP14ColorIOManager, __ZN18ComponentInterface10class_infoEv, 
                       __ZN18ComponentInterface12add_propertyERK10CoreStringRKN17ComponentProperty4TypeES2_, 
                       __ZN18ComponentInterface18set_implementationERK13CoreClassInfoP23ComponentImplementation, 
                       __ZN18ComponentInterface4initERK14CoreBasicArrayIPKS_ERK10CoreStringS8_, 
                       __ZN18ComponentInterfaceC1ER16ComponentFactory, __ZN18ComponentInterfaceC2ER16ComponentFactory, 
                       __ZN18ContinuousSpectrum16integrate_to_XYZE12CoreFunctionIFddEEjjj, 
                       __ZN18ContinuousSpectrum17wavelength_to_XYZEd, __ZN18CoreBitFieldHelperC1ERKbRKiRKNS_8TestModeE, 
                       __ZN18CoreBitFieldHelperC1ERKiRKNS_8TestModeE, __ZN18CoreBitFieldHelperC1ERKiS1_RKNS_8TestModeES4_, 
                       __ZN18CoreBitFieldHelperC1Ev, __ZN18CoreBitFieldHelperC2ERKbRKiRKNS_8TestModeE, 
                       __ZN18CoreBitFieldHelperC2ERKiRKNS_8TestModeE, __ZN18CoreBitFieldHelperC2ERKiS1_RKNS_8TestModeES4_, 
                       __ZN18CoreBitFieldHelperC2Ev, __ZN18CoreBitFieldHelperD1Ev, 
                       __ZN18CoreBitFieldHelperD2Ev, __ZN18CtxDeferredShadingC1ER15CtxRaytracePool, 
                       __ZN18CtxDeferredShadingC2ER15CtxRaytracePool, __ZN18CtxDeferredShadingD1Ev, 
                       __ZN18CtxDeferredShadingD2Ev, __ZN18CurveMeshNormalMap4initERK17CurveMeshTopologyRK17GeometryNormalMap, 
                       __ZN18CurveMeshRadiusMap4initERK17CurveMeshTopologyRK14CoreBasicArrayI9GMathVec2IfEE, 
                       __ZN18CurveMeshRadiusMap4initERK17CurveMeshTopologyRK14CoreBasicArrayIfERKS3_IjE, 
                       __ZN18DFATransitionTable22no_op_transition_tableERS_, __ZN18GasBvhSplitAligned5splitER14GasBvhSplitCtxRK18GasBvhSplitSetGeomRS2_S5_RbP16SysThreadManager, 
                       __ZN18GasBvhSplitAligned7ItemSet4sortERKj, __ZN18GasBvhSplitAligned7ItemSet4sortERKjRKf, 
                       __ZN18GasBvhSplitAlignedC1Ev, __ZN18GasBvhSplitAlignedC2Ev, 
                       __ZN18GasBvhSplitAlignedD1Ev, __ZN18GasBvhSplitAlignedD2Ev, 
                       __ZN18GasBvhSplitSahFast14compute_splitsERKj, __ZN18GasTreeSplitHybrid5splitERK19GasTreeSplitContextPjjRj, 
                       __ZN18GasTreeSplitMedian5splitERK19GasTreeSplitContextPjjRj, 
                       __ZN18GeometryCylinder_X10class_infoEv, __ZN18GeometryCylinder_XC1ERKfS1_N17GeometryPrimitive9SideFlagsE, 
                       __ZN18GeometryCylinder_XC2ERKfS1_N17GeometryPrimitive9SideFlagsE, 
                       __ZN18GeometryFrustumCtx10push_pointERK9GMathVec3IdE, __ZN18GeometryFrustumCtx23push_point_cloud_vertexERK9GMathVec3IdEP14GeometryObjectRKj, 
                       __ZN18GeometryObjectNull10class_infoEv, __ZN18GeometryPointCloud10class_infoEv, 
                       __ZN18GeometryPointCloud10set_normalERK9GMathVec3IfERKj, __ZN18GeometryPointCloud11set_normalsEPK9GMathVec3IfE, 
                       __ZN18GeometryPointCloud11set_normalsEPK9GMathVec3IfERKjS5_, 
                       __ZN18GeometryPointCloud12init_normalsEPK9GMathVec3IdERKb, 
                       __ZN18GeometryPointCloud12init_normalsEPK9GMathVec3IfERKb, 
                       __ZN18GeometryPointCloud12init_normalsERK9GMathVec3IfE, __ZN18GeometryPointCloud12init_supportE18GeometryDescriptorPK33GeometryPrimitiveSampleDescriptor, 
                       __ZN18GeometryPointCloud12init_supportE18GeometryDescriptorPKjPK9GMathVec2IfE, 
                       __ZN18GeometryPointCloud12init_supportERK9CoreArrayI18GeometryDescriptorEPKjS6_PK9GMathVec2IfE, 
                       __ZN18GeometryPointCloud12set_positionERK9GMathVec3IfERKj, 
                       __ZN18GeometryPointCloud12set_velocityERK9GMathVec3IfERKj, 
                       __ZN18GeometryPointCloud13init_geometryEPK9GMathVec3IdES3_S3_, 
                       __ZN18GeometryPointCloud13init_geometryEPK9GMathVec3IdES3_S3_RK9CoreArrayI18GeometryDescriptorE, 
                       __ZN18GeometryPointCloud13init_geometryEPK9GMathVec3IdES3_S3_RK9CoreArrayINS_25SupportDeformedDescriptorEE, 
                       __ZN18GeometryPointCloud13init_geometryEPK9GMathVec3IfES3_S3_, 
                       __ZN18GeometryPointCloud13init_geometryEPK9GMathVec3IfES3_S3_RK9CoreArrayI18GeometryDescriptorE, 
                       __ZN18GeometryPointCloud13init_geometryEPK9GMathVec3IfES3_S3_RK9CoreArrayINS_25SupportDeformedDescriptorEE, 
                       __ZN18GeometryPointCloud13init_geometryERKbS1_S1_, __ZN18GeometryPointCloud13init_samplingERK17GMathTimeSampling17CoreSharedPointerINS_12SampleLoaderE17CoreSharedCounterEb, 
                       __ZN18GeometryPointCloud13set_positionsEPK9GMathVec3IfE, __ZN18GeometryPointCloud13set_positionsEPK9GMathVec3IfERKjS5_, 
                       __ZN18GeometryPointCloud13set_positionsERK14CoreBasicArrayI9GMathVec3IfEE, 
                       __ZN18GeometryPointCloud13set_positionsERK14CoreBasicArrayI9GMathVec3IfEERKjS7_, 
                       __ZN18GeometryPointCloud14init_positionsEPK9GMathVec3IdE, 
                       __ZN18GeometryPointCloud14init_positionsEPK9GMathVec3IfE, 
                       __ZN18GeometryPointCloud14init_positionsERK9GMathVec3IfE, 
                       __ZN18GeometryPointCloud14set_velocitiesEPK9GMathVec3IfE, 
                       __ZN18GeometryPointCloud14set_velocitiesEPK9GMathVec3IfERKjS5_, 
                       __ZN18GeometryPointCloud15init_velocitiesEPK9GMathVec3IdE, 
                       __ZN18GeometryPointCloud15init_velocitiesEPK9GMathVec3IfE, 
                       __ZN18GeometryPointCloud15init_velocitiesERK9GMathVec3IfE, 
                       __ZN18GeometryPointCloud4initERKjPK9GMathVec3IfES5_S5_, __ZN18GeometryPointCloud4initERKjRK18GeometryDescriptorPK33GeometryPrimitiveSampleDescriptorPK9GMathVec3IfESB_SB_, 
                       __ZN18GeometryPointCloud4initERKjRK18GeometryDescriptorPS0_PK9GMathVec2IfEPK9GMathVec3IfESD_SD_, 
                       __ZN18GeometryPointCloud4initERKjRK9CoreArrayI18GeometryDescriptorEPS0_S7_PK9GMathVec2IfEPK9GMathVec3IfESF_SF_, 
                       __ZN18GeometryPointCloud4initERKjRKbS3_S3_, __ZN18GeometryPointCloudC1ERKS_RKb, 
                       __ZN18GeometryPointCloudC1ERKj, __ZN18GeometryPointCloudC2ERKS_RKb, 
                       __ZN18GeometryPointCloudC2ERKj, __ZN18GeometryPointCloudD1Ev, 
                       __ZN18GeometryPointCloudD2Ev, __ZN18GeometryPointCloudaSERKS_, 
                       __ZN18HdAppleRTInstancer13create_objectERN32pxrInternal__aapl__pxrReserved__13HdRenderIndexE, 
                       __ZN18HdAppleRTInstancer13get_instancerEP8OfObject, __ZN18HdAppleRTInstancer13get_instancesER9CoreArrayIjE, 
                       __ZN18HdAppleRTInstancer14register_classER5OfApp, __ZN18HdAppleRTInstancer15get_sub_objectsER9CoreArrayIP17ModuleSceneObjectE, 
                       __ZN18HdAppleRTInstancer16get_model_matrixEdR14GMathMatrix4x4IdLb1EE, 
                       __ZN18HdAppleRTInstancer20get_support_geometryEv, __ZN18HdAppleRTInstancer22get_instances_matricesER9CoreArrayI14GMathMatrix4x4IdLb1EEE, 
                       __ZN18HdAppleRTInstancer22register_support_classER5OfApp, 
                       __ZN18HdAppleRTInstancer24build_instances_matricesERKN32pxrInternal__aapl__pxrReserved__7VtArrayINS0_7GfVec3fEEERKNS1_INS0_7GfQuathEEES5_RKNS1_INS0_10GfMatrix4dEEEP14GMathMatrix4x4IdLb1EE, 
                       __ZN18HdAppleRTInstancer24register_instancer_classER5OfApp, 
                       __ZN18HdAppleRTInstancer25get_instances_matrices_atEdP14GMathMatrix4x4IdLb1EE, 
                       __ZN18HdAppleRTInstancer32support_geometry_create_resourceEi, 
                       __ZN18HdAppleRTInstancer4SyncEPN32pxrInternal__aapl__pxrReserved__15HdSceneDelegateEPNS0_13HdRenderParamEPj, 
                       __ZN18HdAppleRTInstancer8FinalizeEPN32pxrInternal__aapl__pxrReserved__13HdRenderParamE, 
                       __ZN18HdAppleRTInstancer8pre_syncERKj, __ZN18HdAppleRTInstancer9sync_mainERN32pxrInternal__aapl__pxrReserved__13HdRenderIndexERKj, 
                       __ZN18HdAppleRTInstancerC1EPN32pxrInternal__aapl__pxrReserved__15HdSceneDelegateEOS_, 
                       __ZN18HdAppleRTInstancerC1EPN32pxrInternal__aapl__pxrReserved__15HdSceneDelegateERKNS0_7SdfPathE, 
                       __ZN18HdAppleRTInstancerC2EPN32pxrInternal__aapl__pxrReserved__15HdSceneDelegateEOS_, 
                       __ZN18HdAppleRTInstancerC2EPN32pxrInternal__aapl__pxrReserved__15HdSceneDelegateERKNS0_7SdfPathE, 
                       __ZN18HdAppleRTInstancerD0Ev, __ZN18HdAppleRTInstancerD1Ev, 
                       __ZN18HdAppleRTInstancerD2Ev, __ZN18HdAppleRTRenderVar13create_objectERN32pxrInternal__aapl__pxrReserved__13HdRenderIndexE, 
                       __ZN18HdAppleRTRenderVar4SyncEPN32pxrInternal__aapl__pxrReserved__15HdSceneDelegateEPNS0_13HdRenderParamEPj, 
                       __ZN18HdAppleRTRenderVar8FinalizeEPN32pxrInternal__aapl__pxrReserved__13HdRenderParamE, 
                       __ZN18HdAppleRTRenderVar9sync_mainERN32pxrInternal__aapl__pxrReserved__13HdRenderIndexERKj, 
                       __ZN18HdAppleRTRenderVarC1ERKN32pxrInternal__aapl__pxrReserved__7SdfPathE16HdAppleRTAovMode, 
                       __ZN18HdAppleRTRenderVarC2ERKN32pxrInternal__aapl__pxrReserved__7SdfPathE16HdAppleRTAovMode, 
                       __ZN18HdAppleRTRenderVarD0Ev, __ZN18HdAppleRTRenderVarD1Ev, 
                       __ZN18HdAppleRTRenderVarD2Ev, __ZN18HdAppleRTVolumeBox13create_objectERN32pxrInternal__aapl__pxrReserved__13HdRenderIndexE, 
                       __ZN18HdAppleRTVolumeBox15UpdateRenderTagEPN32pxrInternal__aapl__pxrReserved__15HdSceneDelegateEPNS0_13HdRenderParamE, 
                       __ZN18HdAppleRTVolumeBox4SyncEPN32pxrInternal__aapl__pxrReserved__15HdSceneDelegateEPNS0_13HdRenderParamEPjRKNS0_7TfTokenE, 
                       __ZN18HdAppleRTVolumeBox8FinalizeEPN32pxrInternal__aapl__pxrReserved__13HdRenderParamE, 
                       __ZN18HdAppleRTVolumeBox9_InitReprERKN32pxrInternal__aapl__pxrReserved__7TfTokenEPj, 
                       __ZN18HdAppleRTVolumeBox9sync_mainERN32pxrInternal__aapl__pxrReserved__13HdRenderIndexERKj, 
                       __ZN18HdAppleRTVolumeBoxC1EOS_RKN32pxrInternal__aapl__pxrReserved__7SdfPathE, 
                       __ZN18HdAppleRTVolumeBoxC1ERKN32pxrInternal__aapl__pxrReserved__7SdfPathE, 
                       __ZN18HdAppleRTVolumeBoxC2EOS_RKN32pxrInternal__aapl__pxrReserved__7SdfPathE, 
                       __ZN18HdAppleRTVolumeBoxC2ERKN32pxrInternal__aapl__pxrReserved__7SdfPathE, 
                       __ZN18HdAppleRTVolumeBoxD0Ev, __ZN18HdAppleRTVolumeBoxD1Ev, 
                       __ZN18HdAppleRTVolumeBoxD2Ev, __ZN18HrpInstancerHandle40createPrototypeAccelerationStructureListERK8OfObjectb, 
                       __ZN18HrpInstancerHandle5buildERK8OfObjectP11objc_object, 
                       __ZN18HrpResourceManager11cache_clearEv, __ZN18HrpResourceManager12cache_resizeEy, 
                       __ZN18HrpResourceManager17evaluator_libraryEv, __ZN18HrpResourceManager17load_mtlx_libraryEi, 
                       __ZN18HrpResourceManager18init_lut_resourcesER5OfApp, __ZN18HrpResourceManager18integrator_libraryEv, 
                       __ZN18HrpResourceManager19get_texture_handlesERK14CoreBasicArrayI10CoreStringERKS0_I9GMathVec2IiEERKS0_IN16OpenImageIO_v2_57ustringEE, 
                       __ZN18HrpResourceManager19new_prototype_indexEP8OfObject, 
                       __ZN18HrpResourceManager20get_material_handlesERK14CoreBasicArrayIPK8MxModuleEN3hrp10ShaderTypeEbP14AppProgressBar, 
                       __ZN18HrpResourceManager20init_cache_resourcesEv, __ZN18HrpResourceManager20init_metal_resourcesEv, 
                       __ZN18HrpResourceManager22intersection_functionsEv, __ZN18HrpResourceManager22load_mtlx_base_libraryEv, 
                       __ZN18HrpResourceManager23mtlx_libraries_for_maskEjR10CoreVectorIU8__strongP11objc_objectE, 
                       __ZN18HrpResourceManager23release_material_handleEP17HrpMaterialHandle, 
                       __ZN18HrpResourceManager23release_texture_handlesERK14CoreBasicArrayIP21HrpTiledTextureHandleE, 
                       __ZN18HrpResourceManager25cache_load_detected_tilesERK12CoreFunctionIFbvEER10CoreAtomicIbE, 
                       __ZN18HrpResourceManager26cache_set_max_tile_streamsEj, __ZN18HrpResourceManager26release_material_resourcesEv, 
                       __ZN18HrpResourceManager28cache_detect_requested_tilesEv, 
                       __ZN18HrpResourceManager28get_fallback_material_handleEN3hrp10ShaderTypeE, 
                       __ZN18HrpResourceManager34get_shadow_catcher_material_handleEv, 
                       __ZN18HrpResourceManager35create_displacement_material_handleEPK8MxModule, 
                       __ZN18HrpResourceManager3getEv, __ZN18HrpResourceManager4initER5OfApp, 
                       __ZN18HrpResourceManager9s_managerE, __ZN18HrpResourceManagerD1Ev, 
                       __ZN18HrpResourceManagerD2Ev, __ZN18HrpShaderGenerator13getTargetNameEv, 
                       __ZN18HrpShaderGenerator15oslTypeUndefStrEv, __ZN18HrpShaderGenerator16oslTypeDefineStrEv, 
                       __ZN18HrpShaderGenerator18pre_process_shaderERN15MaterialX__aapl10GenContextEPv18MxMaterialTypeFlag, 
                       __ZN18HrpShaderGenerator19post_process_shaderERN15MaterialX__aapl10GenContextENSt3__110shared_ptrINS0_6ShaderEEEPv, 
                       __ZN18HrpShaderGenerator23metalizeGeneratedShaderERN15MaterialX__aapl11ShaderStageE, 
                       __ZN18HrpShaderGenerator25disableStochasticSamplingERN15MaterialX__aapl11ShaderGraphE, 
                       __ZN18HrpShaderGenerator32propagateCanSampleStochasticallyEPN15MaterialX__aapl10ShaderNodeE, 
                       __ZN18HrpShaderGenerator33getTextureNodeImplementationNamesEv, 
                       __ZN18HrpShaderGenerator35getImplementationNamesNeedingDerivsEv, 
                       __ZN18HrpShaderGenerator40nodeNeedsClosureDataClassificationStaticERKN15MaterialX__aapl10ShaderNodeERKNS0_7NodeDefE, 
                       __ZN18HrpShaderGeneratorC1ENSt3__110shared_ptrIN15MaterialX__aapl10TypeSystemEEE, 
                       __ZN18HrpShaderGeneratorC2ENSt3__110shared_ptrIN15MaterialX__aapl10TypeSystemEEE, 
                       __ZN18HrpVolumeBoxHandle5buildEPK8OfObjectP11objc_object, 
                       __ZN18ImageIOSavePrivate12save_privateERK10CoreStringR16ImageSaveOptionsRK11ImageCanvasP5OfAppP14AppProgressBarPK9GMathVec4IfE, 
                       __ZN18ImageMapTileHandle10class_infoEv, __ZN18LicenseStringUtils10lower_caseEPc, 
                       __ZN18LicenseStringUtils10make_titleEPc, __ZN18LicenseStringUtils10upper_caseEPc, 
                       __ZN18LicenseStringUtils23get_decrypt_buffer_sizeEPKhRKj, 
                       __ZN18LicenseStringUtils23get_encrypt_buffer_sizeERKm, __ZN18LicenseStringUtils7decryptEPhPKhRKmRKj, 
                       __ZN18LicenseStringUtils7encryptEPhPKhRKmRKj, __ZN18ModuleDisplacement10class_infoEv, 
                       __ZN18ModuleDisplacement18module_constructorER8OfObject, __ZN18ModuleDisplacement19on_attribute_changeERK6OfAttrRiRKi, 
                       __ZN18ModuleDisplacement21add_geometry_overrideEP24GeometryResourceOverride, 
                       __ZN18ModuleDisplacement24remove_geometry_overrideEP24GeometryResourceOverride, 
                       __ZN18ModuleDisplacement25update_geometry_overridesER8OfObjectRKN11EventObject9EventInfoEPv, 
                       __ZN18ModuleDisplacementC1Ev, __ZN18ModuleDisplacementC2Ev, 
                       __ZN18ModuleDisplacementD0Ev, __ZN18ModuleDisplacementD1Ev, 
                       __ZN18ModuleDisplacementD2Ev, __ZN18ModuleImageQuality16get_quality_nameEj, 
                       __ZN18ModuleImageQuality17get_quality_levelEj, __ZN18ModuleImageQuality19get_quality_ui_nameEj, 
                       __ZN18ModuleKernelFilter10class_infoEv, __ZN18ModuleKernelFilter18module_constructorER8OfObject, 
                       __ZN18ModuleKernelFilter5applyER9CtxFilter, __ZN18ModuleKernelFilterC1Ev, 
                       __ZN18ModuleKernelFilterC2Ev, __ZN18ModuleKernelFilterD0Ev, 
                       __ZN18ModuleKernelFilterD1Ev, __ZN18ModuleKernelFilterD2Ev, 
                       __ZN18ModuleLpeCallbacksC1Ev, __ZN18ModuleLpeCallbacksC2Ev, 
                       __ZN18ModuleShadingLayer10class_infoEv, __ZN18ModuleShadingLayer11fill_objectER8OfObject, 
                       __ZN18ModuleShadingLayer12remove_childERK8OfObject, __ZN18ModuleShadingLayer12remove_childERKj, 
                       __ZN18ModuleShadingLayer12set_childrenERK10CoreVectorIPS_E, 
                       __ZN18ModuleShadingLayer12set_is_dirtyEv, __ZN18ModuleShadingLayer13m_group_classE, 
                       __ZN18ModuleShadingLayer13m_image_classE, __ZN18ModuleShadingLayer13select_columnERK10CoreString, 
                       __ZN18ModuleShadingLayer13set_sl_filterERKjRK10CoreString, 
                       __ZN18ModuleShadingLayer14apply_overrideERK10CoreString, __ZN18ModuleShadingLayer14get_rule_valueERKj10CoreString, 
                       __ZN18ModuleShadingLayer14on_vars_changeER6OfVarsRKN11EventObject9EventInfoEPv, 
                       __ZN18ModuleShadingLayer14set_rule_stateERKjRK10CoreStringRKb, 
                       __ZN18ModuleShadingLayer14set_rule_valueERKjRK10CoreStringS4_, 
                       __ZN18ModuleShadingLayer15color_to_stringERK9GMathVec3IdE, 
                       __ZN18ModuleShadingLayer15set_rules_valueERK10CoreVectorIjERK10CoreStringS6_, 
                       __ZN18ModuleShadingLayer15string_to_colorERK10CoreString, 
                       __ZN18ModuleShadingLayer15unselect_columnERK10CoreString, 
                       __ZN18ModuleShadingLayer15update_childrenEv, __ZN18ModuleShadingLayer16m_geometry_classE, 
                       __ZN18ModuleShadingLayer16on_value_changedERKjS1_, __ZN18ModuleShadingLayer16on_value_removedERKjS1_, 
                       __ZN18ModuleShadingLayer16set_sl_is_activeERKjRKb, __ZN18ModuleShadingLayer17get_override_infoERK10CoreString, 
                       __ZN18ModuleShadingLayer17on_context_updateER15OfObjectFactoryRKN11EventObject9EventInfoEPv, 
                       __ZN18ModuleShadingLayer17on_destroy_objectER15OfObjectFactoryRKN11EventObject9EventInfoEPv, 
                       __ZN18ModuleShadingLayer17update_rules_typeEv, __ZN18ModuleShadingLayer18add_override_entryERK24ShadingLayerOverrideInfoRK10CoreVectorIjERKS3_I10CoreStringESA_, 
                       __ZN18ModuleShadingLayer18get_children_countEv, __ZN18ModuleShadingLayer18get_override_entryERK24ShadingLayerOverrideInfoRK10CoreVectorIjERKS3_I10CoreStringESA_, 
                       __ZN18ModuleShadingLayer18on_object_localizeER8OfObjectRKN11EventObject9EventInfoEPv, 
                       __ZN18ModuleShadingLayer18remove_static_ruleERKiRK10CoreString, 
                       __ZN18ModuleShadingLayer18rule_invalid_indexEv, __ZN18ModuleShadingLayer19on_attribute_changeERK6OfAttrRiRKi, 
                       __ZN18ModuleShadingLayer19on_pending_promotedER15OfObjectFactoryRKN11EventObject9EventInfoEPv, 
                       __ZN18ModuleShadingLayer20get_matching_objectsERK5OfAppRK10CoreStringR10CoreVectorIP8OfObjectE, 
                       __ZN18ModuleShadingLayer20m_project_item_classE, __ZN18ModuleShadingLayer20m_scene_object_classE, 
                       __ZN18ModuleShadingLayer20rule_invisible_indexEv, __ZN18ModuleShadingLayer20update_root_contextsEv, 
                       __ZN18ModuleShadingLayer21get_project_full_nameEP8OfObjectRK9OfContext, 
                       __ZN18ModuleShadingLayer21m_shading_layer_classE, __ZN18ModuleShadingLayer22add_shading_layer_ruleERKbRK10CoreString, 
                       __ZN18ModuleShadingLayer22clear_selected_columnsEv, __ZN18ModuleShadingLayer22get_column_value_indexERK10CoreString, 
                       __ZN18ModuleShadingLayer22init_available_columnsER5OfApp, 
                       __ZN18ModuleShadingLayer22m_geometry_array_classE, __ZN18ModuleShadingLayer22set_internal_referenceEP16ShadingLayerRuleR8OfObject, 
                       __ZN18ModuleShadingLayer23add_shading_layer_rulesERK10CoreVectorIP16ShadingLayerRuleE, 
                       __ZN18ModuleShadingLayer23create_rules_from_itemsERK10CoreVectorI10CoreStringERK28ShadingLayerRuleCreationModeRKi, 
                       __ZN18ModuleShadingLayer23get_override_info_labelERK24ShadingLayerOverrideInfo, 
                       __ZN18ModuleShadingLayer23get_static_column_namesER10CoreVectorI10CoreStringE, 
                       __ZN18ModuleShadingLayer23move_shading_layer_ruleERKjS1_, 
                       __ZN18ModuleShadingLayer23resolve_objects_shadingERK14CoreBasicArrayIP8OfObjectER17SceneShadingTablePK9OfContext, 
                       __ZN18ModuleShadingLayer24set_default_root_contextEv, __ZN18ModuleShadingLayer25clear_shading_layer_rulesEv, 
                       __ZN18ModuleShadingLayer25create_scene_object_rulesE18OfBaseObjectHandleILb1EER10CoreVectorIP16ShadingLayerRuleERK28ShadingLayerRuleCreationModeRKiR7CoreSetI10CoreStringE, 
                       __ZN18ModuleShadingLayer25get_available_column_itemERK10CoreString, 
                       __ZN18ModuleShadingLayer25insert_shading_layer_ruleERKjRKbRK10CoreString, 
                       __ZN18ModuleShadingLayer25m_scene_object_tree_classE, __ZN18ModuleShadingLayer25on_object_context_changedE18OfBaseObjectHandleILb0EEP9OfContext, 
                       __ZN18ModuleShadingLayer25remove_internal_referenceER8OfObject, 
                       __ZN18ModuleShadingLayer25remove_shading_layer_ruleERKj, __ZN18ModuleShadingLayer25set_rules_object_relativeERK10CoreVectorIP16ShadingLayerRuleE, 
                       __ZN18ModuleShadingLayer26_insert_shading_layer_ruleERKjP16ShadingLayerRule, 
                       __ZN18ModuleShadingLayer26get_available_column_itemsEv, __ZN18ModuleShadingLayer26remove_shading_layer_rulesERK10CoreVectorIjE, 
                       __ZN18ModuleShadingLayer27register_shading_layer_ruleER16ShadingLayerRule, 
                       __ZN18ModuleShadingLayer29unregister_shading_layer_ruleER16ShadingLayerRule, 
                       __ZN18ModuleShadingLayer4initERK8OfObject, __ZN18ModuleShadingLayer9add_childERK8OfObject, 
                       __ZN18ModuleShadingLayerC1ER8OfObject, __ZN18ModuleShadingLayerC2ER8OfObject, 
                       __ZN18ModuleShadingLayerD0Ev, __ZN18ModuleShadingLayerD1Ev, 
                       __ZN18ModuleShadingLayerD2Ev, __ZN18NgAttributeManager10initializeEv, 
                       __ZN18NgAttributeManager12s_attributesEv, __ZN18NgAttributeManager13add_attributeERK10CoreStringPFbPN3OSL13ShaderGlobalsEbN16OpenImageIO_v2_57ustringEiiRKNS6_8TypeDescEPvE, 
                       __ZN18NgAttributeManager26s_global_attribute_indicesEv, __ZN18NgAttributeManager5EntryC1EPKcPFbPN3OSL13ShaderGlobalsEbN16OpenImageIO_v2_57ustringEiiRKNS6_8TypeDescEPvEi, 
                       __ZN18NgAttributeManager5EntryC2EPKcPFbPN3OSL13ShaderGlobalsEbN16OpenImageIO_v2_57ustringEiiRKNS6_8TypeDescEPvEi, 
                       __ZN18NgLPELabelsManager11s_label_idsEv, __ZN18NgLPELabelsManager14register_labelERK10CoreString, 
                       __ZN18NgLPELabelsManager15get_label_indexERK10CoreString, 
                       __ZN18NgLPELabelsManager9get_labelEj, __ZN18NgModuleLightShape10class_infoEv, 
                       __ZN18NgModuleLightShape11get_objectsER9CoreArrayIP17ModuleSceneObjectE, 
                       __ZN18NgModuleLightShape16create_harpe_gasER8OfObject, __ZN18NgModuleLightShape16create_harpe_geoER8OfObject, 
                       __ZN18NgModuleLightShape16dirty_geometriesEv, __ZN18NgModuleLightShape18module_constructorER8OfObject, 
                       __ZN18NgModuleLightShape19RESOURCE_ID_TEXTUREEv, __ZN18NgModuleLightShape19create_ies_resourceER8OfObject, 
                       __ZN18NgModuleLightShape19on_attribute_changeERK6OfAttrRiRKi, 
                       __ZN18NgModuleLightShape23RESOURCE_ID_IES_PROFILEEv, __ZN18NgModuleLightShapeC1Ev, 
                       __ZN18NgModuleLightShapeC2Ev, __ZN18NgModuleLightShapeD0Ev, 
                       __ZN18NgModuleLightShapeD1Ev, __ZN18NgModuleLightShapeD2Ev, 
                       __ZN18NgOptixResourceFur4syncEPK16R2cSceneDelegateR7CtxEval, 
                       __ZN18NgOptixResourceFurC1EPK8TubeMesh20IxOptixMotionOptionsb, 
                       __ZN18NgOptixResourceFurC2EPK8TubeMesh20IxOptixMotionOptionsb, 
                       __ZN18OfAttrDynEvaluator11eval_tx_outERKS_RK7CtxEvalR9CtxShaderR13TextureOutput, 
                       __ZN18OfAttrDynEvaluator11eval_tx_vecERKS_RK7CtxEvalR9CtxShaderR9GMathVec4IfE, 
                       __ZN18OfAttrDynEvaluator13sample_tx_outERKS_RK7CtxEvalR9CtxShaderR13TextureOutput, 
                       __ZN18OfAttrDynEvaluator13sample_tx_vecERKS_RK7CtxEvalR9CtxShaderR9GMathVec4IfE, 
                       __ZN18OfAttrDynEvaluator16resync_attributeEv, __ZN18OfAttrDynEvaluator8eval_outERKS_RK7CtxEvalR9CtxShaderR13TextureOutput, 
                       __ZN18OfAttrDynEvaluator8eval_vecERKS_RK7CtxEvalR9CtxShaderR9GMathVec4IfE, 
                       __ZN18OfAttrValueManager10add_stringER6OfAttrRK10CoreStringPv, 
                       __ZN18OfAttrValueManager10add_stringER6OfAttrRK10CoreStringS4_Pv, 
                       __ZN18OfAttrValueManager10add_stringER6OfAttrRK10CoreStringS4_S4_Pv, 
                       __ZN18OfAttrValueManager11remove_itemER6OfAttrRK14CoreBasicArrayIjEPv, 
                       __ZN18OfAttrValueManager11remove_itemER6OfAttrRK8CoreListIjEPv, 
                       __ZN18OfAttrValueManager11remove_itemER6OfAttrRKjPv, __ZN18OfAttrValueManager12change_valueER6OfAttrRK10CoreStringRKjPv, 
                       __ZN18OfAttrValueManager12change_valueER6OfAttrRK14CoreBasicArrayI10CoreStringEPv, 
                       __ZN18OfAttrValueManager12change_valueER6OfAttrRK14CoreBasicArrayIbEPv, 
                       __ZN18OfAttrValueManager12change_valueER6OfAttrRK14CoreBasicArrayIdEPv, 
                       __ZN18OfAttrValueManager12change_valueER6OfAttrRK14CoreBasicArrayIlEPv, 
                       __ZN18OfAttrValueManager12change_valueER6OfAttrRKbRKjPv, __ZN18OfAttrValueManager12change_valueER6OfAttrRKdRKjPv, 
                       __ZN18OfAttrValueManager12change_valueER6OfAttrRKlRKjPv, __ZN18OfAttrValueManager12change_valueERK14CoreBasicArrayIP6OfAttrERK10CoreStringRKjPv, 
                       __ZN18OfAttrValueManager12change_valueERK14CoreBasicArrayIP6OfAttrERK9GMathVec3IdEPv, 
                       __ZN18OfAttrValueManager12change_valueERK14CoreBasicArrayIP6OfAttrERKS0_I10CoreStringEPv, 
                       __ZN18OfAttrValueManager12change_valueERK14CoreBasicArrayIP6OfAttrERKS0_IbEPv, 
                       __ZN18OfAttrValueManager12change_valueERK14CoreBasicArrayIP6OfAttrERKS0_IdEPv, 
                       __ZN18OfAttrValueManager12change_valueERK14CoreBasicArrayIP6OfAttrERKS0_IlEPv, 
                       __ZN18OfAttrValueManager12change_valueERK14CoreBasicArrayIP6OfAttrERKbRKjPv, 
                       __ZN18OfAttrValueManager12change_valueERK14CoreBasicArrayIP6OfAttrERKdRKjPv, 
                       __ZN18OfAttrValueManager12change_valueERK14CoreBasicArrayIP6OfAttrERKlRKjPv, 
                       __ZN18OfAttrValueManager15end_attr_changeEv, __ZN18OfAttrValueManager17begin_attr_changeERK14CoreBasicArrayIP6OfAttrE, 
                       __ZN18OfAttrValueManager18cancel_attr_changeEv, __ZN18OfAttrValueManager9set_valueER6OfAttrP8OfObjectRKjPv, 
                       __ZN18OfAttrValueManager9set_valueER6OfAttrRK10CoreStringRKjPv, 
                       __ZN18OfAttrValueManager9set_valueER6OfAttrRK14CoreBasicArrayI10CoreStringEPv, 
                       __ZN18OfAttrValueManager9set_valueER6OfAttrRK14CoreBasicArrayI10CoreStringERKS2_IjEPv, 
                       __ZN18OfAttrValueManager9set_valueER6OfAttrRK14CoreBasicArrayIbEPv, 
                       __ZN18OfAttrValueManager9set_valueER6OfAttrRK14CoreBasicArrayIbERKS2_IjEPv, 
                       __ZN18OfAttrValueManager9set_valueER6OfAttrRK14CoreBasicArrayIdEPv, 
                       __ZN18OfAttrValueManager9set_valueER6OfAttrRK14CoreBasicArrayIdERKS2_IjEPv, 
                       __ZN18OfAttrValueManager9set_valueER6OfAttrRK14CoreBasicArrayIlEPv, 
                       __ZN18OfAttrValueManager9set_valueER6OfAttrRK14CoreBasicArrayIlERKS2_IjEPv, 
                       __ZN18OfAttrValueManager9set_valueER6OfAttrRKbRKjPv, __ZN18OfAttrValueManager9set_valueER6OfAttrRKdRKjPv, 
                       __ZN18OfAttrValueManager9set_valueER6OfAttrRKlRKjPv, __ZN18OfAttrValueManager9set_valueERK14CoreBasicArrayIP6OfAttrERK10CoreStringRKjPv, 
                       __ZN18OfAttrValueManager9set_valueERK14CoreBasicArrayIP6OfAttrERK9GMathVec3IdEPv, 
                       __ZN18OfAttrValueManager9set_valueERK14CoreBasicArrayIP6OfAttrERKS0_I10CoreStringEPv, 
                       __ZN18OfAttrValueManager9set_valueERK14CoreBasicArrayIP6OfAttrERKS0_IbEPv, 
                       __ZN18OfAttrValueManager9set_valueERK14CoreBasicArrayIP6OfAttrERKS0_IdEPv, 
                       __ZN18OfAttrValueManager9set_valueERK14CoreBasicArrayIP6OfAttrERKS0_IlEPv, 
                       __ZN18OfAttrValueManager9set_valueERK14CoreBasicArrayIP6OfAttrERKbRKjPv, 
                       __ZN18OfAttrValueManager9set_valueERK14CoreBasicArrayIP6OfAttrERKdRKjPv, 
                       __ZN18OfAttrValueManager9set_valueERK14CoreBasicArrayIP6OfAttrERKlRKjPv, 
                       __ZN18OfCommandSignature12add_argumentERKN17OfCommandArgument4TypeERK10CoreString, 
                       __ZN18OfCommandSignatureC1EP15OfCommandCallerPFP9OfCommandPvRK9CoreArrayI17OfCommandArgumentEE, 
                       __ZN18OfCommandSignatureC2EP15OfCommandCallerPFP9OfCommandPvRK9CoreArrayI17OfCommandArgumentEE, 
                       __ZN18OfCommandSignatureD0Ev, __ZN18OfCommandSignatureD1Ev, 
                       __ZN18OfCommandSignatureD2Ev, __ZN18OfContextCallBacks10_get_itemsEPK9OfContextR10CoreVectorI16OfBaseItemHandleILb0EEERK18CoreBitFieldHelperRKji, 
                       __ZN18OfContextCallBacks12_get_contextEPK9OfContextRKjRK18CoreBitFieldHelper, 
                       __ZN18OfContextCallBacks12_get_objectsEPK9OfContextR7CoreSetI18OfBaseObjectHandleILb0EEERK18CoreBitFieldHelperRKji, 
                       __ZN18OfContextCallBacks12_get_objectsEPK9OfContextR9CoreArrayI18OfBaseObjectHandleILb0EEERK18CoreBitFieldHelperRKji, 
                       __ZN18OfContextCallBacks13_get_contextsEPK9OfContextR7CoreSetIPS0_ERK18CoreBitFieldHelperRKj, 
                       __ZN18OfContextCallBacks13_get_contextsEPK9OfContextR9CoreArrayIPS0_ERK18CoreBitFieldHelperRKj, 
                       __ZN18OfContextCallBacks13_get_instanceEPK9OfContextRKjRK18CoreBitFieldHelper, 
                       __ZN18OfContextCallBacks14_get_all_itemsEPK9OfContextR10CoreVectorI16OfBaseItemHandleILb0EEERK18CoreBitFieldHelperRKji, 
                       __ZN18OfContextCallBacks16_get_all_objectsEPK9OfContextR7CoreSetI18OfBaseObjectHandleILb0EEERK18CoreBitFieldHelperRKji, 
                       __ZN18OfContextCallBacks17_get_all_contextsEPK9OfContextR7CoreSetIPS0_ERK18CoreBitFieldHelperRKj, 
                       __ZN18OfContextCallBacks18_get_all_instancesEPK9OfContextR10CoreVectorIPS0_ERK18CoreBitFieldHelperRKji, 
                       __ZN18OfContextCallBacks22get_registered_enginesEv, __ZN18OfContextCallBacks27_get_objects_class_filteredEPK9OfContextR7CoreSetI18OfBaseObjectHandleILb0EEERK14CoreBasicArrayI10CoreStringERK18CoreBitFieldHelperRKji, 
                       __ZN18OfContextCallBacks27_get_objects_class_filteredEPK9OfContextR9CoreArrayI18OfBaseObjectHandleILb0EEERK14CoreBasicArrayI10CoreStringERK18CoreBitFieldHelperRKji, 
                       __ZN18OfContextCallBacks27get_registered_serial_namesEv, __ZN18OfContextCallBacks31_get_all_objects_class_filteredEPK9OfContextR7CoreSetI18OfBaseObjectHandleILb0EEERK14CoreBasicArrayI10CoreStringERK18CoreBitFieldHelperRKji, 
                       __ZN18OfContextCallBacks31get_registered_identifier_namesEv, 
                       __ZN18OfSceneDescription10remove_allEv, __ZN18OfSceneDescription11add_of_itemER6OfItemPvS2_, 
                       __ZN18OfSceneDescription11remove_itemEPv, __ZN18OfSceneDescription12add_overrideEPvPK28OfSceneAssemblyContextEngine, 
                       __ZN18OfSceneDescription12add_overrideERNS_4ItemEPK28OfSceneAssemblyContextEngine, 
                       __ZN18OfSceneDescription12create_itemsEv, __ZN18OfSceneDescription23is_force_update_contentERKNS_4ItemE, 
                       __ZN18OfSceneDescription4Item8get_itemEv, __ZN18OfSceneDescription4ItemC1EPK15OfContextEnginePvRK10CoreStringP7OfClassS4_S4_, 
                       __ZN18OfSceneDescription4ItemC1Ev, __ZN18OfSceneDescription4ItemC2EPK15OfContextEnginePvRK10CoreStringP7OfClassS4_S4_, 
                       __ZN18OfSceneDescription4ItemC2Ev, __ZN18OfSceneDescription4ItemD1Ev, 
                       __ZN18OfSceneDescription4ItemD2Ev, __ZN18OfSceneDescription7NULL_IDE, 
                       __ZN18OfSceneDescription8add_itemEPvRNS_4ItemE, __ZN18OfSceneDescription9NULL_DESCEv, 
                       __ZN18OfSceneDescription9add_itemsEPK15OfContextEngineRK14CoreBasicArrayIPvES7_S7_RKS3_I10CoreStringERKS3_IP7OfClassERKS3_IiE, 
                       __ZN18OfSceneDescriptionC1Ev, __ZN18OfSceneDescriptionC2Ev, 
                       __ZN18OfSceneDescriptionD1Ev, __ZN18OfSceneDescriptionD2Ev, 
                       __ZN18OriginalLicenseKey7decryptEv, __ZN18OriginalLicenseKey7encryptEv, 
                       __ZN18OriginalLicenseKey7set_keyEPKc, __ZN18OriginalLicenseKey8is_validEPKc, 
                       __ZN18PbrEmissionHelpers17evaluate_emissionEPK27ModuleLightPhysicalGeometryRK7CtxEvalR9CtxShaderR9GMathVec3IfEPKf, 
                       __ZN18PbrEmissionHelpers17evaluate_emissionERK7CtxEvalR9CtxShaderR9GMathVec3IfEPKf, 
                       __ZN18PbrFresnelCombiner9add_layerEPK10PbrFresnelRK9GMathVec3IdES6_, 
                       __ZN18PbrHaltonSamplerNd10s_instanceE, __ZN18PbrHaltonSamplerNd11init_tablesERK10CoreVectorIS0_ItEE, 
                       __ZN18PbrHaltonSamplerNd15create_instanceEv, __ZN18PbrHaltonSamplerNd16destroy_instanceEv, 
                       __ZN18PbrHaltonSamplerNd19get_sys_thread_lockEv, __ZN18PbrSasParentConfig22s_default_bbox_indicesEv, 
                       __ZN18PbrWeightedSasTree10class_infoEv, __ZN18RayGeneratorCamera10set_cameraERK14GMathMatrix4x4IdLb1EE, 
                       __ZN18RayGeneratorCamera10set_cameraERK14GMathMatrix4x4IdLb1EES3_PK13CtxMotionBlurPS2_, 
                       __ZN18RayGeneratorCameraC1EPFvRS_RKdS2_S2_EPFjRKS_PK11ImageSampleIdERKjP8GMathRayIdEPjEPFbS6_RK9GMathVec2IdESM_R12GMathFrustumE, 
                       __ZN18RayGeneratorCameraC2EPFvRS_RKdS2_S2_EPFjRKS_PK11ImageSampleIdERKjP8GMathRayIdEPjEPFbS6_RK9GMathVec2IdESM_R12GMathFrustumE, 
                       __ZN18RayGeneratorCameraD0Ev, __ZN18RayGeneratorCameraD1Ev, 
                       __ZN18RayGeneratorCameraD2Ev, __ZN18RayGeneratorSphere24get_rays_cosine_callbackERKS_PK9GMathVec2IdERKjP8GMathRayIdEPjPd, 
                       __ZN18RayGeneratorSphere25get_rays_uniform_callbackERKS_PK9GMathVec2IdERKjP8GMathRayIdEPjPd, 
                       __ZN18RayGeneratorSphere29get_rays_line_cosine_callbackERKS_PK9GMathVec2IdERKjP8GMathRayIdEPjPd, 
                       __ZN18RayGeneratorSphere30get_rays_line_uniform_callbackERKS_PK9GMathVec2IdERKjP8GMathRayIdEPjPd, 
                       __ZN18RayGeneratorSphere32get_position_ray_cosine_callbackERKS_RK9GMathVec2IdERK9GMathVec3IdERKdR8GMathRayIdE, 
                       __ZN18RayGeneratorSphere33get_position_ray_uniform_callbackERKS_RK9GMathVec2IdERK9GMathVec3IdERKdR8GMathRayIdE, 
                       __ZN18RayGeneratorSphere4initERK8GMathRayIdERK14CoreBasicArrayIdERKdS9_, 
                       __ZN18RayGeneratorSphere4initERK9GMathVec3IdERK14GMathMatrix3x3IdLb1EERK28GeometryPositionDifferentialRKdSC_, 
                       __ZN18RayGeneratorSphere4initERK9GMathVec3IdERK14GMathMatrix3x3IdLb1EERKdS9_S9_, 
                       __ZN18RayGeneratorSphere4initERK9GMathVec3IdERK28GeometryPositionDifferentialRKdS8_, 
                       __ZN18RayGeneratorSphere4initERK9GMathVec3IdERKdS5_S5_, __ZN18RayGeneratorSphere4initERK9GMathVec3IdES3_RK28GeometryPositionDifferentialRKdS8_, 
                       __ZN18RayGeneratorSphere4initERK9GMathVec3IdES3_RKdS5_S5_, 
                       __ZN18RayGeneratorSphereC1ERKNS_12SamplingModeERKN8GMathRayIdE4TypeERKd, 
                       __ZN18RayGeneratorSphereC2ERKNS_12SamplingModeERKN8GMathRayIdE4TypeERKd, 
                       __ZN18RayGeneratorSquare16disable_clippingEv, __ZN18RayGeneratorSquare17get_rays_callbackERKS_PK9GMathVec2IdERKjP8GMathRayIdEPjPd, 
                       __ZN18RayGeneratorSquare20get_frustum_callbackERKS_RK9GMathVec2IdES5_R12GMathFrustum, 
                       __ZN18RayGeneratorSquare22get_rays_line_callbackERKS_PK9GMathVec2IdERKjP8GMathRayIdEPjPd, 
                       __ZN18RayGeneratorSquare23discard_clipped_samplesERK9GMathVec3IdE, 
                       __ZN18RayGeneratorSquare25get_rays_discard_callbackERKS_PK9GMathVec2IdERKjP8GMathRayIdEPjPd, 
                       __ZN18RayGeneratorSquare30get_rays_line_discard_callbackERKS_PK9GMathVec2IdERKjP8GMathRayIdEPjPd, 
                       __ZN18RayGeneratorSquare4initERK8GMathRayIdERK14CoreBasicArrayIdERK14GMathMatrix4x4IdLb1EERKdSD_SD_, 
                       __ZN18RayGeneratorSquare4initERK9GMathVec3IdERK14GMathMatrix4x4IdLb1EERKdS9_S9_, 
                       __ZN18RayGeneratorSquareC1ERKN8GMathRayIdE4TypeERKd, __ZN18RayGeneratorSquareC2ERKN8GMathRayIdE4TypeERKd, 
                       __ZN18ResourceBundleItem8set_dataEP12ResourceData, __ZN18ResourceBundleItemC1ER21ResourceBundleManagerRK10CoreStringP12ResourceData, 
                       __ZN18ResourceBundleItemC2ER21ResourceBundleManagerRK10CoreStringP12ResourceData, 
                       __ZN18ResourceBundleItemD0Ev, __ZN18ResourceBundleItemD1Ev, 
                       __ZN18ResourceBundleItemD2Ev, __ZN18ResourceImportData10class_infoEv, 
                       __ZN18ResourceImportDataC1Ev, __ZN18ResourceImportDataC2Ev, 
                       __ZN18ResourceImportDataD0Ev, __ZN18ResourceImportDataD1Ev, 
                       __ZN18ResourceImportDataD2Ev, __ZN18RibbonMeshNakamaru10class_infoEv, 
                       __ZN18VolumeGeometryBase10class_infoEv, __ZN18VolumeGeometryData10class_infoEv, 
                       __ZN18VolumeGeometryData13bake_geometryERK10CoreStringRK14GeometryObjectRKdS7_PK14GMathMatrix4x4IdLb1EESB_, 
                       __ZN18VolumeGeometryData4initEPKcRKb, __ZN18VolumeGeometryDataC1ERKbS1_RKj, 
                       __ZN18VolumeGeometryDataC2ERKbS1_RKj, __ZN18VolumeGeometryDataD0Ev, 
                       __ZN18VolumeGeometryDataD1Ev, __ZN18VolumeGeometryDataD2Ev, 
                       __ZN18VolumeOpenvdbTools14create_mipmapsERKNSt3__110shared_ptrIN7openvdb9v12_1aapl8GridBaseEEERKNS3_4math4Mat4IdEER7AppBaseRKjbb, 
                       __ZN18VolumeOpenvdbTools6dilateERNSt3__110shared_ptrIN7openvdb9v12_1aapl8GridBaseEEER7AppBasej, 
                       __ZN19CommandSignatureDoc11add_arg_docERK10CoreStringS2_, 
                       __ZN19CommandSignatureDocC1EPKcS1_O13CoreHashTableI10CoreStringS3_E, 
                       __ZN19CommandSignatureDocC1ERK10CoreStringS2_, __ZN19CommandSignatureDocC2EPKcS1_O13CoreHashTableI10CoreStringS3_E, 
                       __ZN19CommandSignatureDocC2ERK10CoreStringS2_, __ZN19ComponentCollection10class_infoEv, 
                       __ZN19ComponentCollection10remove_allEv, __ZN19ComponentCollection13set_interfaceERK18ComponentInterface, 
                       __ZN19ComponentCollection18set_implementationERKjR14CoreBaseObjectRK15ComponentSchema, 
                       __ZN19ComponentCollection18set_implementationERKjR14CoreBaseObjectRK18ComponentInterface, 
                       __ZN19ComponentCollection5clearERKj, __ZN19ComponentCollection9set_countERKj, 
                       __ZN19ComponentCollectionC1ERK16ComponentFactory, __ZN19ComponentCollectionC1ERK18ComponentInterfaceRKj, 
                       __ZN19ComponentCollectionC1ERKS_, __ZN19ComponentCollectionC2ERK16ComponentFactory, 
                       __ZN19ComponentCollectionC2ERK18ComponentInterfaceRKj, __ZN19ComponentCollectionC2ERKS_, 
                       __ZN19ComponentCollectionD0Ev, __ZN19ComponentCollectionD1Ev, 
                       __ZN19ComponentCollectionD2Ev, __ZN19GasTreeSplitSahFast5splitERK19GasTreeSplitContextPjjRj, 
                       __ZN19GeomPropertyManager10s_instanceE, __ZN19GeometryFrustumDataC1ERKS_, 
                       __ZN19GeometryFrustumDataC1Ev, __ZN19GeometryFrustumDataC2ERKS_, 
                       __ZN19GeometryFrustumDataC2Ev, __ZN19GeometryRaytraceCtx17push_intersectionERK7CtxEvalRKjS4_RKdS6_S6_S4_S6_S6_S6_S6_S6_RK24GeometryMediumDescriptorP18GeometryCustomData, 
                       __ZN19GeometryRaytraceCtx19set_local_transformERKjRK13GMathBasicRayIdERK14GMathMatrix4x4IdLb1EES9_, 
                       __ZN19HammersleySampler2d19get_sample_callbackERS_RKjR9GMathVec2IdE, 
                       __ZN19HammersleySampler2d23get_sub_sample_callbackERS_RKjR9GMathVec2IdE, 
                       __ZN19HammersleySampler2d24get_all_samples_callbackERS_P9GMathVec2IdE, 
                       __ZN19HammersleySampler2d27get_packet_samples_callbackERS_RKjP9GMathVec2IdERS4_S6_, 
                       __ZN19HammersleySampler2d28get_all_sub_samples_callbackERS_P9GMathVec2IdE, 
                       __ZN19HammersleySampler2d31get_sub_packet_samples_callbackERS_RKjP9GMathVec2IdERS4_S6_, 
                       __ZN19HammersleySampler2d34get_single_packet_samples_callbackERS_RKjP9GMathVec2IdERS4_S6_, 
                       __ZN19HammersleySampler2d4initER9GRandomMtRKjS3_S3_S3_, __ZN19HammersleySampler2d4initERKjS1_S1_, 
                       __ZN19HammersleySampler2d4initERKjS1_S1_S1_S1_, __ZN19HammersleySampler2d8init_subERKjS1_S1_S1_, 
                       __ZN19HammersleySampler2dC1Ev, __ZN19HammersleySampler2dC2Ev, 
                       __ZN19HdAppleRTCollection11get_versionEv, __ZN19HdAppleRTCollection13create_objectERN32pxrInternal__aapl__pxrReserved__13HdRenderIndexE, 
                       __ZN19HdAppleRTCollection4SyncEPN32pxrInternal__aapl__pxrReserved__15HdSceneDelegateEPNS0_13HdRenderParamEPj, 
                       __ZN19HdAppleRTCollection8FinalizeEPN32pxrInternal__aapl__pxrReserved__13HdRenderParamE, 
                       __ZN19HdAppleRTCollection9sync_mainERN32pxrInternal__aapl__pxrReserved__13HdRenderIndexERKj, 
                       __ZN19HdAppleRTCollectionC1ERKN32pxrInternal__aapl__pxrReserved__7SdfPathE, 
                       __ZN19HdAppleRTCollectionC2ERKN32pxrInternal__aapl__pxrReserved__7SdfPathE, 
                       __ZN19HdAppleRTCollectionD0Ev, __ZN19HdAppleRTCollectionD1Ev, 
                       __ZN19HdAppleRTCollectionD2Ev, __ZN19HdAppleRTRenderPass11query_primsERK21HdAppleRTQueryOptionsRKN32pxrInternal__aapl__pxrReserved__7GfVec4dERNSt3__16vectorI18HdAppleRTQueryPrimNS7_9allocatorIS9_EEEE, 
                       __ZN19HdAppleRTRenderPass11set_qualityEf, __ZN19HdAppleRTRenderPass12pre_evaluateERKNSt3__110shared_ptrIN32pxrInternal__aapl__pxrReserved__17HdRenderPassStateEEE, 
                       __ZN19HdAppleRTRenderPass12query_pointsERK21HdAppleRTQueryOptionsRKNSt3__16vectorIN32pxrInternal__aapl__pxrReserved__7GfVec2dENS3_9allocatorIS6_EEEERNS4_I19HdAppleRTQueryPointNS7_ISC_EEEE, 
                       __ZN19HdAppleRTRenderPass12set_denoiserEb, __ZN19HdAppleRTRenderPass12set_rendererE17HdAppleRTRenderer, 
                       __ZN19HdAppleRTRenderPass14query_verticesERK21HdAppleRTQueryOptionsRKN32pxrInternal__aapl__pxrReserved__7GfVec4dERNSt3__16vectorINS3_7GfVec3dENS7_9allocatorIS9_EEEE, 
                       __ZN19HdAppleRTRenderPass15kill_evaluationEPN32pxrInternal__aapl__pxrReserved__13HdRenderIndexE, 
                       __ZN19HdAppleRTRenderPass15kill_evaluationEb, __ZN19HdAppleRTRenderPass15set_motion_blurEb, 
                       __ZN19HdAppleRTRenderPass16set_shading_modeE20HdAppleRTShadingMode, 
                       __ZN19HdAppleRTRenderPass17dirty_render_tagsEv, __ZN19HdAppleRTRenderPass17on_option_changedER8OfObjectRKN11EventObject9EventInfoEPS_, 
                       __ZN19HdAppleRTRenderPass18SetRendererSettingERKN32pxrInternal__aapl__pxrReserved__7TfTokenERKNS0_7VtValueE, 
                       __ZN19HdAppleRTRenderPass19set_evaluator_stateENS_15EvaluationStateE, 
                       __ZN19HdAppleRTRenderPass19set_min_render_timeEi, __ZN19HdAppleRTRenderPass20set_environment_typeEi, 
                       __ZN19HdAppleRTRenderPass20update_undersamplingEv, __ZN19HdAppleRTRenderPass21set_ambient_occlusionEb, 
                       __ZN19HdAppleRTRenderPass22sync_render_tags_groupEP20HdAppleRTRenderParam, 
                       __ZN19HdAppleRTRenderPass24compute_auto_convergenceERdS0_, 
                       __ZN19HdAppleRTRenderPass24set_environment_exposureEf, __ZN19HdAppleRTRenderPass24set_environment_rotationEf, 
                       __ZN19HdAppleRTRenderPass30set_ambient_occlusion_distanceEf, 
                       __ZN19HdAppleRTRenderPass4StopEb, __ZN19HdAppleRTRenderPass5PauseEv, 
                       __ZN19HdAppleRTRenderPass5_SyncEv, __ZN19HdAppleRTRenderPass6ResumeEv, 
                       __ZN19HdAppleRTRenderPass7RestartEv, __ZN19HdAppleRTRenderPass7denoiseERKNSt3__110shared_ptrIN32pxrInternal__aapl__pxrReserved__17HdRenderPassStateEEEbbb, 
                       __ZN19HdAppleRTRenderPass8_ExecuteERKNSt3__110shared_ptrIN32pxrInternal__aapl__pxrReserved__17HdRenderPassStateEEERKNS0_6vectorINS2_7TfTokenENS0_9allocatorIS8_EEEE, 
                       __ZN19HdAppleRTRenderPass8init_r2cE17HdAppleRTRenderer, __ZN19HdAppleRTRenderPassC1EPN32pxrInternal__aapl__pxrReserved__13HdRenderIndexERKNS0_17HdRprimCollectionE, 
                       __ZN19HdAppleRTRenderPassC2EPN32pxrInternal__aapl__pxrReserved__13HdRenderIndexERKNS0_17HdRprimCollectionE, 
                       __ZN19HdAppleRTRenderPassD0Ev, __ZN19HdAppleRTRenderPassD1Ev, 
                       __ZN19HdAppleRTRenderPassD2Ev, __ZN19HrpGeometryResource15property_handleEP11objc_objectPK16GeometryProperty, 
                       __ZN19HrpGeometryResourceC2ENS_4TypeE, __ZN19HrpGeometryResourceD0Ev, 
                       __ZN19HrpGeometryResourceD1Ev, __ZN19HrpGeometryResourceD2Ev, 
                       __ZN19HrpImplicitResource22create_property_handleEP11objc_objectPK16GeometryProperty, 
                       __ZN19HrpImplicitResource6handleEv, __ZN19HrpImplicitResourceC1Ev, 
                       __ZN19HrpImplicitResourceC2Ev, __ZN19HrpSamplerLutBuffer4initEP11objc_object, 
                       __ZN19ImportanceSampler2d19compute_inverse_cdfERNS_7LutDataERK14CoreBasicArrayIfE, 
                       __ZN19ImportanceSampler2d4initEPKfjj, __ZN19ImportanceSampler2d4initER16SysThreadManagerPKfjj, 
                       __ZN19ModuleLayerR2cScene10class_infoEv, __ZN19ModuleLayerR2cScene18module_constructorER8OfObject, 
                       __ZN19ModuleLayerR2cScene19on_attribute_changeERK6OfAttrRiRKi, 
                       __ZN19ModuleLayerR2cSceneC1Ev, __ZN19ModuleLayerR2cSceneC2Ev, 
                       __ZN19ModuleLayerR2cSceneD0Ev, __ZN19ModuleLayerR2cSceneD1Ev, 
                       __ZN19ModuleLayerR2cSceneD2Ev, __ZN19ModuleLightPhysical10class_infoEv, 
                       __ZN19ModuleLightPhysical18module_constructorER8OfObject, 
                       __ZN19ModuleLightPhysical19on_attribute_changeERK6OfAttrRiRKi, 
                       __ZN19ModuleLightPhysicalC1Ev, __ZN19ModuleLightPhysicalC2Ev, 
                       __ZN19ModuleLightPhysicalD0Ev, __ZN19ModuleLightPhysicalD1Ev, 
                       __ZN19ModuleLightPhysicalD2Ev, __ZN19ModuleProcessScript10class_infoEv, 
                       __ZN19ModuleProcessScript19on_attribute_changeERK6OfAttrRiRKi, 
                       __ZN19ModuleProcessScript25register_scripted_processER5OfAppRK10CoreStringP25ModuleProcessScriptEngineS4_, 
                       __ZN19ModuleProcessScript3runER14AppProgressBar, __ZN19ModuleProcessScriptC1Ev, 
                       __ZN19ModuleProcessScriptC2Ev, __ZN19ModuleProcessScriptD0Ev, 
                       __ZN19ModuleProcessScriptD1Ev, __ZN19ModuleProcessScriptD2Ev, 
                       __ZN19ModuleSceneItemInfo10get_parentEv, __ZN19ModuleSceneItemInfoC1ERK15ModuleSceneItem, 
                       __ZN19ModuleSceneItemInfoC2ERK15ModuleSceneItem, __ZN19ModuleSceneItemInfoD0Ev, 
                       __ZN19ModuleSceneItemInfoD1Ev, __ZN19ModuleSceneItemInfoD2Ev, 
                       __ZN19ModuleScriptedClass10class_infoEv, __ZN19ModuleScriptedClass19on_attribute_changeERK6OfAttrRiRKi, 
                       __ZN19ModuleScriptedClass23register_scripted_classER5OfAppRK10CoreStringP25ModuleScriptedClassEngineS4_b, 
                       __ZN19ModuleScriptedClassC1Ev, __ZN19ModuleScriptedClassC2Ev, 
                       __ZN19ModuleScriptedClassD0Ev, __ZN19ModuleScriptedClassD1Ev, 
                       __ZN19ModuleScriptedClassD2Ev, __ZN19ModuleUvSlotManager10s_instanceEv, 
                       __ZN19ModuleUvSlotManager4syncER15OfObjectFactoryRKj, __ZN19ModuleUvSlotManagerC1Ev, 
                       __ZN19ModuleUvSlotManagerC2Ev, __ZN19ModuleUvSlotManagerD1Ev, 
                       __ZN19ModuleUvSlotManagerD2Ev, __ZN19NgOptixResourceBase21lock_if_uninitializedEv, 
                       __ZN19NgOptixResourceBase6unlockEv, __ZN19NgVolumeBoxGeometry10class_infoEv, 
                       __ZN19OslAttributeManager12s_attributesEv, __ZN19OslAttributeManager18register_attributeERK15CoreBasicStringPFbPN3OSL13ShaderGlobalsEbN16OpenImageIO_v2_57ustringEiiRKNS6_8TypeDescEPvE, 
                       __ZN19OslAttributeManager19s_attribute_indicesEv, __ZN19OslAttributeManager26get_tag_candidate_callbackERK8OfObjectRK6OfAttrR10CoreVectorI10CoreStringER9CoreArrayIbE, 
                       __ZN19OslGeometryFragment11compute_refEv, __ZN19OslGeometryFragment16compute_uv_spaceERKj, 
                       __ZN19OslGeometryFragment18compute_prim_paramEv, __ZN19OslGeometryFragment4initERK13OslGeomSampleRK12OslGeomDerivPK16GeometryFragmentb, 
                       __ZN19OslGeometryFragment4initERK13OslGeomSampleRK12OslGeomDerivRK12OslGeomParamPK16GeometryFragmentb, 
                       __ZN19OslGeometryFragment4initERKN9Imath_3_14Vec3IfEES4_S4_S4_S4_S4_PK16GeometryFragment, 
                       __ZN19PbrEmissionModifier27s_default_emission_modifierEv, 
                       __ZN19PbrFresnelConductor9configureERK9GMathVec3IdES3_b, __ZN19PbrWeightedSasScene10class_infoEv, 
                       __ZN19PbrWeightedSasScene6createEP11PbrSasSceneP14AppProgressBar, 
                       __ZN19ShadingVariablesCtx12add_variableERK10CoreStringRK11CoreVariant, 
                       __ZN19ShadingVariablesCtx12add_variableERK10CoreStringRK14CoreBasicArrayI11CoreVariantE, 
                       __ZN19ShadingVariablesCtx12set_variableERK10CoreStringRK11CoreVariant, 
                       __ZN19ShadingVariablesCtx12set_variableERK10CoreStringRK14CoreBasicArrayI11CoreVariantE, 
                       __ZN19ShadingVariablesCtx13add_variablesERK10CoreString, __ZN19ShadingVariablesCtx14get_global_ctxEv, 
                       __ZN19ShadingVariablesCtx15get_builtin_ctxEv, __ZN19ShadingVariablesCtx15get_default_ctxEv, 
                       __ZN19ShadingVariablesCtx15remove_variableERK10CoreString, 
                       __ZN19ShadingVariablesCtx17get_variable_nameERKj, __ZN19ShadingVariablesCtx20remove_all_variablesEv, 
                       __ZN19ShadingVariablesCtx22sync_with_dependenciesEv, __ZN19ShadingVariablesCtx25get_variable_global_indexERK10CoreString, 
                       __ZN19ShadingVariablesCtx25get_variable_global_indexERK10CoreStringRN15ShadingVariable8OperatorERi, 
                       __ZN19ShadingVariablesCtxC1ERKS_, __ZN19ShadingVariablesCtxC1ERKbS1_, 
                       __ZN19ShadingVariablesCtxC2ERKS_, __ZN19ShadingVariablesCtxC2ERKbS1_, 
                       __ZN19ShadingVariablesCtxD1Ev, __ZN19ShadingVariablesCtxD2Ev, 
                       __ZN19StratifiedSampler2d19get_sample_callbackERS_RKjR9GMathVec2IdE, 
                       __ZN19StratifiedSampler2d24get_all_samples_callbackERS_P9GMathVec2IdE, 
                       __ZN19StratifiedSampler2d27get_packet_samples_callbackERS_RKjP9GMathVec2IdERS4_S6_, 
                       __ZN19StratifiedSampler2d4initER9GRandomMtRKjS3_S3_S3_RKdS5_, 
                       __ZN19StratifiedSampler2dC1Ev, __ZN19StratifiedSampler2dC2Ev, 
                       __ZN19SysThreadPoolWorker10class_infoEv, __ZN20AppCommandPortThread27get_command_port_state_nameERKj, 
                       __ZN20AppCommandPortThread5entryEv, __ZN20AppCommandPortThread8clean_upEv, 
                       __ZN20AppCommandPortThread8shutdownEv, __ZN20AppCommandPortThreadC1ER13AppObjectImpl, 
                       __ZN20AppCommandPortThreadC2ER13AppObjectImpl, __ZN20AppleRTImagingEngine13SetCameraPathERKN32pxrInternal__aapl__pxrReserved__7SdfPathE, 
                       __ZN20AppleRTImagingEngine14SetCameraStateERKN32pxrInternal__aapl__pxrReserved__10GfMatrix4dES3_, 
                       __ZN20AppleRTImagingEngine19SetCameraStereoModeENS_10StereoModeE, 
                       __ZN20AppleRTImagingEngine19_PrepareCameraFrameERKN32pxrInternal__aapl__pxrReserved__9TfWeakPtrINS0_8UsdStageEEEP23HdAppleRTFreeViewEngineNS0_11UsdTimeCodeEi, 
                       __ZN20AppleRTImagingEngine22SetCameraClippingRangeEff, __ZN20AppleRTImagingEngine22SetCameraImmersiveModeENS_13ImmersiveModeE, 
                       __ZN20AppleRTImagingEngine24ResetCameraClippingRangeEv, __ZN20AppleRTImagingEngine25SetCameraParallaxDistanceEf, 
                       __ZN20AppleRTImagingEngine26GetCameraSpatialPropertiesERKN32pxrInternal__aapl__pxrReserved__7UsdPrimENS0_11UsdTimeCodeERNS_13ImmersiveModeERNS_10StereoModeERdS9_, 
                       __ZN20AppleRTImagingEngine30SetCameraEyeSeparationDistanceEf, 
                       __ZN20ColorIOAutoDetection10s_instanceE, __ZN20ColorIOAutoDetection11load_configEP11ParserEntry, 
                       __ZN20ColorIOAutoDetection11save_configEP11ParserEntry, __ZN20ColorIOAutoDetection11static_initEP5OfApp, 
                       __ZN20ColorIOAutoDetection15add_file_formatERK10CoreStringS2_S2_, 
                       __ZN20ColorIOAutoDetection15build_from_fileERK10CoreString, 
                       __ZN20ColorIOAutoDetection15set_file_formatEjRK10CoreString, 
                       __ZN20ColorIOAutoDetection15use_file_configEb, __ZN20ColorIOAutoDetection18remove_file_formatEj, 
                       __ZN20ColorIOAutoDetection25init_default_color_spacesEv, __ZN20ColorIOAutoDetection30set_extension_from_file_formatEjRK10CoreString, 
                       __ZN20ColorIOAutoDetection40set_default_color_space_from_file_formatEjRK10CoreString, 
                       __ZN20ColorIOAutoDetection7destroyEv, __ZN20ColorIOAutoDetectionC1EP5OfApp, 
                       __ZN20ColorIOAutoDetectionC2EP5OfApp, __ZN20CoreScratchpadMemory5resetEv, 
                       __ZN20CoreScratchpadMemory8new_pageERKm, __ZN20CtxIlluminationCache12get_iteratorERKdS1_, 
                       __ZN20CtxIlluminationCache4cookEv, __ZN20CtxIlluminationCache4dumpEv, 
                       __ZN20CtxIlluminationCache5clearEv, __ZN20CtxIlluminationCacheC1Ev, 
                       __ZN20CtxIlluminationCacheC2Ev, __ZN20EvaluatorMeshBuilder5buildEP11objc_objectR22HrpEvaluatorDataHandlePK14ModuleGeometryPK16DisplacementMeshjR9CoreArrayIjE, 
                       __ZN20GasBvhSplitUnaligned10find_spaceERK14GasBvhSplitCtxRK14CoreBasicArrayIjE, 
                       __ZN20GasBvhSplitUnaligned18compute_items_bboxERK14CoreBasicArrayI10GMathBbox3IfEEP16SysThreadManager, 
                       __ZN20GasBvhSplitUnaligned21find_orthogonal_spaceERK14GasBvhSplitCtxRK14CoreBasicArrayIjERK17GMathLinearSpace3IfE, 
                       __ZN20GasBvhSplitUnaligned22compute_centroids_bboxERK14CoreBasicArrayI10GMathBbox3IfEEP16SysThreadManager, 
                       __ZN20GasBvhSplitUnaligned34compute_items_and_centroids_bboxesERK14CoreBasicArrayI10GMathBbox3IfEERS2_S6_P16SysThreadManager, 
                       __ZN20GasBvhSplitUnaligned5splitER14GasBvhSplitCtxRK18GasBvhSplitSetGeomRS2_S5_RbP16SysThreadManager, 
                       __ZN20GasBvhSplitUnaligned7ItemSet4sortERKj, __ZN20GasBvhSplitUnaligned7ItemSet4sortERKjRKf, 
                       __ZN20GasBvhSplitUnalignedC1Ev, __ZN20GasBvhSplitUnalignedC2Ev, 
                       __ZN20GasBvhSplitUnalignedD1Ev, __ZN20GasBvhSplitUnalignedD2Ev, 
                       __ZN20GeometryBundleUvBake12set_polymeshERK7CtxEvalP17ModuleSceneObjectRKjPK12ResourceDataS6_, 
                       __ZN20GeometryBundleUvBake16set_displacementERK7CtxEvalPK10MeshUvBakeP14AppProgressBar, 
                       __ZN20GeometryObjectBundle10class_infoEv, __ZN20GeometryObjectBundle11init_arraysERKj, 
                       __ZN20GeometryObjectBundle12set_geometryEP18ResourceBundleItemRKj, 
                       __ZN20GeometryObjectBundle5clearEv, __ZN20GeometryObjectBundle9copy_fromERKS_, 
                       __ZN20GeometryObjectBundleC1EP21ResourceBundleManager, __ZN20GeometryObjectBundleC2EP21ResourceBundleManager, 
                       __ZN20GeometryObjectBundleD0Ev, __ZN20GeometryObjectBundleD1Ev, 
                       __ZN20GeometryObjectBundleD2Ev, __ZN20HdAppleRTPhysicalSky10sun_weightEf, 
                       __ZN20HdAppleRTPhysicalSky12evaluate_skyE9GMathVec3IfES1_f, 
                       __ZN20HdAppleRTPhysicalSky12sun_rotationENS_14SunCoordinatesE, 
                       __ZN20HdAppleRTPhysicalSky15sun_coordinatesENS_4TimeENS_8LocationE, 
                       __ZN20HdAppleRTPhysicalSky19export_fallback_skyERK5OfAppPKc9GMathVec3IfEj, 
                       __ZN20HdAppleRTPhysicalSky23handle_fallback_textureEPK20HdAppleRTSceneEngineN32pxrInternal__aapl__pxrReserved__9TfWeakPtrINS3_8UsdStageEEERKNSt3__112basic_stringIcNS7_11char_traitsIcEENS7_9allocatorIcEEEE, 
                       __ZN20HdAppleRTPhysicalSky8bake_skyERK5OfAppfjP9GMathVec3IfE, 
                       __ZN20HdAppleRTRenderLayer11get_versionEv, __ZN20HdAppleRTRenderLayer13create_objectERN32pxrInternal__aapl__pxrReserved__13HdRenderIndexE, 
                       __ZN20HdAppleRTRenderLayer4SyncEPN32pxrInternal__aapl__pxrReserved__15HdSceneDelegateEPNS0_13HdRenderParamEPj, 
                       __ZN20HdAppleRTRenderLayer8FinalizeEPN32pxrInternal__aapl__pxrReserved__13HdRenderParamE, 
                       __ZN20HdAppleRTRenderLayer9sync_mainERN32pxrInternal__aapl__pxrReserved__13HdRenderIndexERKj, 
                       __ZN20HdAppleRTRenderLayerC1ERKN32pxrInternal__aapl__pxrReserved__7SdfPathE, 
                       __ZN20HdAppleRTRenderLayerC2ERKN32pxrInternal__aapl__pxrReserved__7SdfPathE, 
                       __ZN20HdAppleRTRenderLayerD0Ev, __ZN20HdAppleRTRenderLayerD1Ev, 
                       __ZN20HdAppleRTRenderLayerD2Ev, __ZN20HdAppleRTRenderParam10dirty_primEP13HdAppleRTPrimj, 
                       __ZN20HdAppleRTRenderParam11clear_sceneEv, __ZN20HdAppleRTRenderParam11remove_primEP13HdAppleRTPrimRKN32pxrInternal__aapl__pxrReserved__7SdfPathE, 
                       __ZN20HdAppleRTRenderParam12_clear_sceneEP9OfContext, __ZN20HdAppleRTRenderParam12set_denoiserEb, 
                       __ZN20HdAppleRTRenderParam12set_rendererE17HdAppleRTRenderer, 
                       __ZN20HdAppleRTRenderParam13s_applicationE, __ZN20HdAppleRTRenderParam15get_applicationEv, 
                       __ZN20HdAppleRTRenderParam16set_shading_modeE20HdAppleRTShadingMode, 
                       __ZN20HdAppleRTRenderParam19init_render_contextEP9OfContext, 
                       __ZN20HdAppleRTRenderParam19process_dirty_primsEPN32pxrInternal__aapl__pxrReserved__13HdRenderIndexE, 
                       __ZN20HdAppleRTRenderParam19set_min_render_timeEi, __ZN20HdAppleRTRenderParam19set_working_contextEP9OfContext, 
                       __ZN20HdAppleRTRenderParam21set_ambient_occlusionEb, __ZN20HdAppleRTRenderParam24s_global_display_optionsE, 
                       __ZN20HdAppleRTRenderParam24s_global_render_settingsE, __ZN20HdAppleRTRenderParam25set_rendering_color_spaceEN12MxColorSpace2IdE, 
                       __ZN20HdAppleRTRenderParam30set_ambient_occlusion_distanceEf, 
                       __ZN20HdAppleRTRenderParamC1Ev, __ZN20HdAppleRTRenderParamC2Ev, 
                       __ZN20HdAppleRTRenderParamD0Ev, __ZN20HdAppleRTRenderParamD1Ev, 
                       __ZN20HdAppleRTRenderParamD2Ev, __ZN20HdAppleRTSceneEngine10query_bboxERKN32pxrInternal__aapl__pxrReserved__7UsdPrimERNS0_9GfRange3dE, 
                       __ZN20HdAppleRTSceneEngine12get_prim_obbERKN32pxrInternal__aapl__pxrReserved__7UsdPrimE, 
                       __ZN20HdAppleRTSceneEngine15render_to_imageERKN32pxrInternal__aapl__pxrReserved__7SdfPathERKNSt3__16vectorI14GMathMatrix4x4IdLb1EENS4_9allocatorIS7_EEEERKNS5_IfNS8_IfEEEEibRK10CoreString, 
                       __ZN20HdAppleRTSceneEngine19get_prim_local_aabbERKN32pxrInternal__aapl__pxrReserved__7UsdPrimE, 
                       __ZN20HdAppleRTSceneEngine19get_prim_world_aabbERKN32pxrInternal__aapl__pxrReserved__7UsdPrimE, 
                       __ZN20HdAppleRTSceneEngine4initERKN32pxrInternal__aapl__pxrReserved__9TfWeakPtrINS0_8UsdStageEEE, 
                       __ZN20HdAppleRTSceneEngine4syncEb, __ZN20HdAppleRTSceneEngine5clearEv, 
                       __ZN20HdAppleRTSceneEngine6createERKN32pxrInternal__aapl__pxrReserved__7TfTokenEPNS0_3HgiEb, 
                       __ZN20HdAppleRTSceneEngine6createEv, __ZN20HdAppleRTSceneEngine7destroyEv, 
                       __ZN20HdAppleRTSceneEngine8Delegate3GetERKN32pxrInternal__aapl__pxrReserved__7SdfPathERKNS1_7TfTokenE, 
                       __ZN20HdAppleRTSceneEngine8set_timeEN32pxrInternal__aapl__pxrReserved__11UsdTimeCodeE, 
                       __ZN20HdAppleRTSceneEngineC1ERN32pxrInternal__aapl__pxrReserved__34HdPluginRenderDelegateUniqueHandleEPNS0_3HgiEb, 
                       __ZN20HdAppleRTSceneEngineC2ERN32pxrInternal__aapl__pxrReserved__34HdPluginRenderDelegateUniqueHandleEPNS0_3HgiEb, 
                       __ZN20HdAppleRTSceneEngineD1Ev, __ZN20HdAppleRTSceneEngineD2Ev, 
                       __ZN20HrpInstancerResource22create_property_handleEP11objc_objectPK16GeometryProperty, 
                       __ZN20HrpInstancerResource6handleEv, __ZN20HrpInstancerResourceC1Ev, 
                       __ZN20HrpInstancerResourceC2Ev, __ZN20HrpVolumeBoxResource22create_property_handleEP11objc_objectPK16GeometryProperty, 
                       __ZN20HrpVolumeBoxResource6handleEv, __ZN20HrpVolumeBoxResourceC1Ev, 
                       __ZN20HrpVolumeBoxResourceC2Ev, __ZN20ImageIOTextureStream10close_fileERK15CoreBasicString, 
                       __ZN20ImageIOTextureStream10invalidateERK12UniqueString, __ZN20ImageIOTextureStream12m_cache_sizeE, 
                       __ZN20ImageIOTextureStream14get_cache_sizeEv, __ZN20ImageIOTextureStream14invalidate_allEb, 
                       __ZN20ImageIOTextureStream14set_cache_sizeERKd, __ZN20ImageIOTextureStream15add_custom_fileERK15CoreBasicStringbRKjS4_S4_S4_PPKcNS_8TypeDescEPKv, 
                       __ZN20ImageIOTextureStream15is_udim_patternERK15CoreBasicString, 
                       __ZN20ImageIOTextureStream18get_texture_streamEv, __ZN20ImageIOTextureStream18get_udim_inventoryERK15CoreBasicString, 
                       __ZN20ImageIOTextureStream19get_cache_used_sizeEv, __ZN20ImageIOTextureStream19m_texture_singletonE, 
                       __ZN20ImageIOTextureStream21get_peak_cache_memoryEv, __ZN20ImageIOTextureStream5clearEv, 
                       __ZN20ImageIOTextureStream7destroyEv, __ZN20ImageIOTextureStream8evaluateERK12UniqueStringR10MapEvalCtxRKiS6_S6_S6_Pf, 
                       __ZN20ImageIOTextureStream9get_statsEi, __ZN20ImageIOTextureStreamC1Ev, 
                       __ZN20ImageIOTextureStreamC2Ev, __ZN20ImageIOTextureStreamD1Ev, 
                       __ZN20ImageIOTextureStreamD2Ev, __ZN20LightLegacyIdManager12get_id_countER5OfApp, 
                       __ZN20LightLegacyIdManager12s_id_managerE, __ZN20LightLegacyIdManager14get_id_managerER5OfApp, 
                       __ZN20LightPhysicalHelpers23compute_light_intensityERK8OfObjectj15PhotometricModeddd, 
                       __ZN20LightPhysicalHelpers8saturateERK9GMathVec3IfEd, __ZN20ModuleGeometryBundle10class_infoEv, 
                       __ZN20ModuleGeometryBundle15assign_clip_mapER13ModuleTextureRKj, 
                       __ZN20ModuleGeometryBundle15assign_materialER14ModuleMaterialRKj, 
                       __ZN20ModuleGeometryBundle17module_destructorEv, __ZN20ModuleGeometryBundle18module_constructorER8OfObject, 
                       __ZN20ModuleGeometryBundle18on_resource_updateERKiP12ResourceData, 
                       __ZN20ModuleGeometryBundle19assign_displacementER18ModuleDisplacementRKj, 
                       __ZN20ModuleGeometryBundle19on_attribute_changeERK6OfAttrRiRKi, 
                       __ZN20ModuleGeometryBundle23update_deformation_typeENS_15DeformationTypeE, 
                       __ZN20ModuleGeometryBundle28set_shading_group_visibilityERKjRKb, 
                       __ZN20ModuleGeometryBundle29update_displacement_resourcesEv, 
                       __ZN20ModuleGeometryBundle33cmd_update_displacement_resourcesEP13OfCommandData, 
                       __ZN20ModuleGeometryBundle35on_displacement_storage_mode_changeEv, 
                       __ZN20ModuleGeometryBundleC1Ev, __ZN20ModuleGeometryBundleC2Ev, 
                       __ZN20ModuleGeometryBundleD0Ev, __ZN20ModuleGeometryBundleD1Ev, 
                       __ZN20ModuleGeometryBundleD2Ev, __ZN20ModuleGroupCallbacksC1Ev, 
                       __ZN20ModuleGroupCallbacksC2Ev, __ZN20ModuleLayerCallbacksC1Ev, 
                       __ZN20ModuleLayerCallbacksC2Ev, __ZN20ModuleMaterialSwitch10class_infoEv, 
                       __ZN20ModuleMaterialSwitch13s_switch_flagEv, __ZN20ModuleMaterialSwitch18module_constructorER8OfObject, 
                       __ZN20ModuleMaterialSwitchC1Ev, __ZN20ModuleMaterialSwitchC2Ev, 
                       __ZN20ModuleMaterialSwitchD0Ev, __ZN20ModuleMaterialSwitchD1Ev, 
                       __ZN20ModuleMaterialSwitchD2Ev, __ZN20ModuleSubPixelFilter10class_infoEv, 
                       __ZN20ModuleSubPixelFilter15get_active_aovsER10CoreVectorI10CoreStringE, 
                       __ZN20ModuleSubPixelFilter17get_selected_aovsER10CoreVectorI10CoreStringE, 
                       __ZN20ModuleSubPixelFilterC1Ev, __ZN20ModuleSubPixelFilterC2Ev, 
                       __ZN20ModuleSubPixelFilterD0Ev, __ZN20ModuleSubPixelFilterD1Ev, 
                       __ZN20ModuleSubPixelFilterD2Ev, __ZN20ModuleTextureSpatial10class_infoEv, 
                       __ZN20ModuleTextureSpatial10set_cameraEP12ModuleCamera, __ZN20ModuleTextureSpatial13get_axis_nameERKNS_4AxisE, 
                       __ZN20ModuleTextureSpatial13project_cubicERK7CtxEvalR9CtxShaderRKS_R13TextureOutput, 
                       __ZN20ModuleTextureSpatial13transform_uvwERK7CtxEvalR9CtxShaderRKS_R13TextureOutput, 
                       __ZN20ModuleTextureSpatial14project_cameraERK7CtxEvalR9CtxShaderRKS_R13TextureOutput, 
                       __ZN20ModuleTextureSpatial14project_planarERK7CtxEvalR9CtxShaderRKS_R13TextureOutput, 
                       __ZN20ModuleTextureSpatial16set_aspect_ratioERKd, __ZN20ModuleTextureSpatial17module_destructorEv, 
                       __ZN20ModuleTextureSpatial17project_sphericalERK7CtxEvalR9CtxShaderRKS_R13TextureOutput, 
                       __ZN20ModuleTextureSpatial17set_texture_spaceERK7CtxEvalRK20GeometryIntersectionRK9GMathVec3IdES9_S9_R12TextureSpace, 
                       __ZN20ModuleTextureSpatial18module_constructorER8OfObject, 
                       __ZN20ModuleTextureSpatial18on_time_fps_changeER6OfTimeRKN11EventObject9EventInfoEPv, 
                       __ZN20ModuleTextureSpatial18project_uv_map_uvwERK7CtxEvalR9CtxShaderRKS_RK14GeometryObjectRKjR13TextureOutput, 
                       __ZN20ModuleTextureSpatial19get_projection_nameERKNS_10ProjectionE, 
                       __ZN20ModuleTextureSpatial19get_property_sampleERK7CtxEvalRK20GeometryIntersectionRK16GeometryPropertyRKNS_11ObjectSpaceER9GMathVec3IdESE_SE_, 
                       __ZN20ModuleTextureSpatial19on_attribute_changeERK6OfAttrRiRKi, 
                       __ZN20ModuleTextureSpatial19project_cylindricalERK7CtxEvalR9CtxShaderRKS_R13TextureOutput, 
                       __ZN20ModuleTextureSpatial19project_environmentERK7CtxEvalR9CtxShaderRKS_R13TextureOutput, 
                       __ZN20ModuleTextureSpatial20apply_texture_matrixER8OfObjectRK7CtxEvalR9CtxShaderRK13ModuleTextureR13TextureOutput, 
                       __ZN20ModuleTextureSpatial20set_projection_spaceERK7CtxEvalRK20GeometryIntersectionRK9GMathVec3IdES9_S9_S9_S9_S9_R12TextureSpace, 
                       __ZN20ModuleTextureSpatial22project_parametric_uvwERK7CtxEvalR9CtxShaderRKS_R13TextureOutput, 
                       __ZN20ModuleTextureSpatial23get_intersection_sampleERK7CtxEvalRK20GeometryIntersectionRKNS_11ObjectSpaceER9GMathVec3IdESB_SB_, 
                       __ZN20ModuleTextureSpatial23project_uv_property_uvwERK7CtxEvalR9CtxShaderRKS_RK14GeometryObjectR13TextureOutput, 
                       __ZN20ModuleTextureSpatial29get_max_reference_frame_countEv, 
                       __ZN20ModuleTextureSpatialC1Ev, __ZN20ModuleTextureSpatialC2Ev, 
                       __ZN20ModuleTextureSpatialD0Ev, __ZN20ModuleTextureSpatialD1Ev, 
                       __ZN20ModuleTextureSpatialD2Ev, __ZN20MxOslShaderGeneratorC1ENSt3__110shared_ptrIN15MaterialX__aapl10TypeSystemEEE, 
                       __ZN20MxOslShaderGeneratorC2ENSt3__110shared_ptrIN15MaterialX__aapl10TypeSystemEEE, 
                       __ZN20NgLightPlaneGeometry10class_infoEv, __ZN20NgSasResourceManager12release_itemEP13NgSasResource, 
                       __ZN20NgSasResourceManager28cleanup_unused_sas_resourcesEv, 
                       __ZN20NgSasResourceManager8add_itemERK10CoreString, __ZN20NgSasResourceManager8get_itemERK10CoreString, 
                       __ZN20NgSasResourceManagerC1Ev, __ZN20NgSasResourceManagerC2Ev, 
                       __ZN20NgSasResourceManagerD0Ev, __ZN20NgSasResourceManagerD1Ev, 
                       __ZN20NgSasResourceManagerD2Ev, __ZN20NgVolumeResourceData29create_ng_volume_box_resourceER8OfObjectPv, 
                       __ZN20NgVolumeResourceData30RESOURCE_ID_NG_VOLUME_OVERRIDEEv, 
                       __ZN20NgVolumeResourceData30create_ng_volume_file_resourceER8OfObjectPv, 
                       __ZN20NgVolumeResourceDataD0Ev, __ZN20NgVolumeResourceDataD1Ev, 
                       __ZN20NgVolumeResourceDataD2Ev, __ZN20OfDirtinessEventInfo10class_infoEv, 
                       __ZN20OfSceneAssemblyRules12s_world_nameEv, __ZN20OfSceneAssemblyRules13has_path_ruleERK14CoreBasicArrayI10CoreStringE, 
                       __ZN20OfSceneAssemblyRules13resolve_itemsER5OfAppRK18OfSceneDescriptionRK10CoreStringR11FilterRulesbbR10CoreVectorIPvESD_, 
                       __ZN20OfSceneAssemblyRules13resolve_itemsER5OfAppRK18OfSceneDescriptionRK10CoreStringRK14CoreBasicArrayI11FilterRulesEbbR10CoreVectorIPvESG_, 
                       __ZN20OfSceneAssemblyRules14get_local_ruleERK10CoreString, 
                       __ZN20OfSceneAssemblyRules14has_world_ruleERK14CoreBasicArrayI10CoreStringE, 
                       __ZN20OfSceneAssemblyRules14s_project_nameEv, __ZN20OfSceneAssemblyRules19get_item_match_ruleER5OfAppRK10CoreStringS4_S4_RKb, 
                       __ZN20OfSceneAssemblyRules20get_item_match_rulesER5OfAppRK10CoreStringS4_P7OfClassRK14CoreBasicArrayI11FilterRulesERKb, 
                       __ZN20OfSceneAssemblyRules22is_class_filters_validEP7OfClassRK7CoreSetI10CoreStringE, 
                       __ZN20OpenexrChannelConfig4initERN7Imf_3_16HeaderERK14CoreBasicArrayIP15ImageMapChannelERKmRKb, 
                       __ZN20OpenexrChannelConfig7premultEi, __ZN20OpenexrChannelConfig9unpremultEi, 
                       __ZN20OslMaterialCallbacks14init_callbacksER16OfClassCallbacks, 
                       __ZN20PbrBrdfNormalisation9configureERK9GMathVec3IdES3_S3_, 
                       __ZN20PbrBsdfNormalisation9configureERK9GMathVec3IdE, __ZN20PbrBtdfNormalisation9configureERK9GMathVec3IdES3_S3_, 
                       __ZN20PbrDeepTransmittance7compileERKdRKjRKf, __ZN20PbrSasGeometryBundle10create_sasEP20ModuleGeometryBundleP21ResourceBundleManagerPK17GeometrySceneInfoPK20GeometryObjectBundleS9_S9_S9_RK14CoreBasicArrayIP14ModuleMaterialERKSA_IP18ModuleDisplacementE, 
                       __ZN20PbrSasGeometryBundle16set_geometry_sasEP20ModuleGeometryBundleRKjRK20PbrSasGeometryConfig, 
                       __ZN20PbrSasGeometryBundle6createEP20ModuleGeometryBundleP21ResourceBundleManagerPK17GeometrySceneInfoRK14CoreBasicArrayI20PbrSasGeometryConfigERKS7_IjESE_P14AppProgressBar, 
                       __ZN20PbrSasGeometryBundleD0Ev, __ZN20PbrSasGeometryBundleD1Ev, 
                       __ZN20PbrSasGeometryBundleD2Ev, __ZN20PbrWeightedSasObject10class_infoEv, 
                       __ZN20PbrWeightedSasObject20s_cuts_material_modeE, __ZN20PbrWeightedSasObject22s_sample_material_modeE, 
                       __ZN20ShadingLayerListener16on_factory_eventER15OfObjectFactoryRKN11EventObject9EventInfoEPv, 
                       __ZN20ShadingLayerListenerC1ER18ModuleShadingLayerRK9OfContext, 
                       __ZN20ShadingLayerListenerC2ER18ModuleShadingLayerRK9OfContext, 
                       __ZN20SysThreadTaskManager10class_infoEv, __ZN20SysThreadTaskManager12destroy_taskEP13SysThreadTask, 
                       __ZN20SysThreadTaskManager12process_taskEP13SysThreadTaskRKj, 
                       __ZN20SysThreadTaskManager12remove_childEPS_, __ZN20SysThreadTaskManager16add_generic_taskEO12CoreFunctionIFvjEEb, 
                       __ZN20SysThreadTaskManager17destroy_all_tasksEv, __ZN20SysThreadTaskManager17process_task_implEP13SysThreadTaskRKj, 
                       __ZN20SysThreadTaskManager18reference_childrenER10CoreVectorIPS_ERK13CoreHashTableIS1_jE, 
                       __ZN20SysThreadTaskManager18set_thread_managerEP16SysThreadManager, 
                       __ZN20SysThreadTaskManager20wait_until_completedEb, __ZN20SysThreadTaskManager21reference_first_childERK13CoreHashTableIPS_jE, 
                       __ZN20SysThreadTaskManager5yieldEb, __ZN20SysThreadTaskManager8add_taskER13SysThreadTaskRKbS3_, 
                       __ZN20SysThreadTaskManager8get_taskERP13SysThreadTask, __ZN20SysThreadTaskManager8shutdownEv, 
                       __ZN20SysThreadTaskManager9add_childEPS_, __ZN20SysThreadTaskManagerC1EP16SysThreadManager, 
                       __ZN20SysThreadTaskManagerC2EP16SysThreadManager, __ZN20SysThreadTaskManagerD0Ev, 
                       __ZN20SysThreadTaskManagerD1Ev, __ZN20SysThreadTaskManagerD2Ev, 
                       __ZN20TessellationMeshBase10class_infoEv, __ZN20TessellationMeshBase17compute_positionsERK15PatchesTopologyRK13SdsBezierMeshRKjP9GMathVec3IfEP14AppProgressBar, 
                       __ZN20TessellationMeshBase20compute_edge_mappingERK14CoreBasicArrayIjES3_RjP14AppProgressBar, 
                       __ZN20TessellationMeshBase21compute_patch_mappingERK14CoreBasicArrayIjES3_RjS4_P14AppProgressBar, 
                       __ZN20TessellationMeshBase28compute_patch_vertex_mappingEv, 
                       __ZN20TessellationMeshBase3setERK11SdsMeshBaseRKjP14AppProgressBar, 
                       __ZN20TessellationMeshBaseC1ERKS_, __ZN20TessellationMeshBaseC1Ev, 
                       __ZN20TessellationMeshBaseC2ERKS_, __ZN20TessellationMeshBaseC2Ev, 
                       __ZN20TessellationMeshBaseD0Ev, __ZN20TessellationMeshBaseD1Ev, 
                       __ZN20TessellationMeshBaseD2Ev, __ZN20TessellationMeshMaps10class_infoEv, 
                       __ZN20TessellationMeshMaps14compute_colorsERK15PatchesTopologyRK14CoreBasicArrayIjERKS3_I9GMathVec4IhEERKjRS9_P14AppProgressBar, 
                       __ZN20TessellationMeshMaps3setERK20TessellationMeshBaseRK11SdsMeshMapsP14AppProgressBar, 
                       __ZN20TessellationMeshMapsC1ERKS_, __ZN20TessellationMeshMapsC1Ev, 
                       __ZN20TessellationMeshMapsC2ERKS_, __ZN20TessellationMeshMapsC2Ev, 
                       __ZN20TessellationMeshMapsD0Ev, __ZN20TessellationMeshMapsD1Ev, 
                       __ZN20TessellationMeshMapsD2Ev, __ZN20VolumeOpenVdbHelpers22init_volume_from_gridsEPNSt3__110shared_ptrIvEERKjRKbR13VolumeOpenvdb, 
                       __ZN21AovDirtinessEventInfo10class_infoEv, __ZN21GMathShortNormalArray9copy_fromERK14CoreBasicArrayI16GMathShortNormalE, 
                       __ZN21GMathShortNormalArray9copy_fromERK14CoreBasicArrayI9GMathVec3IfEE, 
                       __ZN21GasTreeSplitAlgorithm10sort_itemsEPjRKjPK9GMathVec3IfES2_RKf, 
                       __ZN21GasTreeSplitAlgorithm18compute_items_bboxEPKjRS0_PK9GMathVec3IfE, 
                       __ZN21GeometryPointProperty10class_infoEv, __ZN21GeometryPointProperty11deserializeER10CoreSerial, 
                       __ZN21GeometryPointProperty14init_callbacksEv, __ZN21GeometryPointProperty16compute_hash_keyEv, 
                       __ZN21GeometryPointProperty4initERKjP16ResourceProperty, __ZN21GeometryPointPropertyC1ERK10CoreStringRK17GMathTimeSamplingRKN16ResourceProperty4TypeERKjSB_SB_, 
                       __ZN21GeometryPointPropertyC2ERK10CoreStringRK17GMathTimeSamplingRKN16ResourceProperty4TypeERKjSB_SB_, 
                       __ZN21GeometryPointPropertyD0Ev, __ZN21GeometryPointPropertyD1Ev, 
                       __ZN21GeometryPointPropertyD2Ev, __ZN21GeometryPositionArray10class_infoEv, 
                       __ZN21GeometryRayFrustumCtxC1ERK22GeometryRayFrustumData, 
                       __ZN21GeometryRayFrustumCtxC2ERK22GeometryRayFrustumData, 
                       __ZN21HdAppleRTRenderBuffer11_DeallocateEv, __ZN21HdAppleRTRenderBuffer4SyncEPN32pxrInternal__aapl__pxrReserved__15HdSceneDelegateEPNS0_13HdRenderParamEPj, 
                       __ZN21HdAppleRTRenderBuffer8AllocateERKN32pxrInternal__aapl__pxrReserved__7GfVec3iENS0_8HdFormatEb, 
                       __ZN21HdAppleRTRenderBufferC1ERKN32pxrInternal__aapl__pxrReserved__7SdfPathE, 
                       __ZN21HdAppleRTRenderBufferC2ERKN32pxrInternal__aapl__pxrReserved__7SdfPathE, 
                       __ZN21HdAppleRTRenderEngine10SetFramingERKN32pxrInternal__aapl__pxrReserved__17CameraUtilFramingE, 
                       __ZN21HdAppleRTRenderEngine11query_primsERK21HdAppleRTQueryOptionsRKN32pxrInternal__aapl__pxrReserved__7GfVec4dER7UsdTree, 
                       __ZN21HdAppleRTRenderEngine12SetAovsDirtyEv, __ZN21HdAppleRTRenderEngine12query_pointsERK21HdAppleRTQueryOptionsRKNSt3__16vectorIN32pxrInternal__aapl__pxrReserved__7GfVec2dENS3_9allocatorIS6_EEEERNS4_I19HdAppleRTQueryPointNS7_ISC_EEEE, 
                       __ZN21HdAppleRTRenderEngine13SetCameraPathERKN32pxrInternal__aapl__pxrReserved__7SdfPathE, 
                       __ZN21HdAppleRTRenderEngine14query_verticesERK21HdAppleRTQueryOptionsRKN32pxrInternal__aapl__pxrReserved__7GfVec4dERNSt3__16vectorINS3_7GfVec3dENS7_9allocatorIS9_EEEE, 
                       __ZN21HdAppleRTRenderEngine15SetRenderOutputERKN32pxrInternal__aapl__pxrReserved__7UsdPrimE, 
                       __ZN21HdAppleRTRenderEngine16TestIntersectionERKN32pxrInternal__aapl__pxrReserved__10GfMatrix4dES3_RKNS0_7UsdPrimERKNS0_24UsdImagingGLRenderParamsEPNS0_7GfVec3dESB_PNS0_7SdfPathESD_PiPNSt3__16vectorINSF_4pairISC_iEENSF_9allocatorISI_EEEE, 
                       __ZN21HdAppleRTRenderEngine18SetRendererSettingERKN32pxrInternal__aapl__pxrReserved__7TfTokenERKNS0_7VtValueE, 
                       __ZN21HdAppleRTRenderEngine19SetRenderBufferSizeERKN32pxrInternal__aapl__pxrReserved__7GfVec2iE, 
                       __ZN21HdAppleRTRenderEngine24compute_auto_convergenceERdS0_, 
                       __ZN21HdAppleRTRenderEngine4StopEb, __ZN21HdAppleRTRenderEngine5PauseEv, 
                       __ZN21HdAppleRTRenderEngine6RenderEbbb, __ZN21HdAppleRTRenderEngine6ResumeEv, 
                       __ZN21HdAppleRTRenderEngine7RestartEv, __ZN21HdAppleRTRenderEngine7SetAovsERKNSt3__16vectorIN32pxrInternal__aapl__pxrReserved__7TfTokenENS0_9allocatorIS3_EEEE, 
                       __ZN21HdAppleRTRenderEngineC1ER20HdAppleRTSceneEngine, __ZN21HdAppleRTRenderEngineC2ER20HdAppleRTSceneEngine, 
                       __ZN21HdAppleRTRenderEngineD1Ev, __ZN21HdAppleRTRenderEngineD2Ev, 
                       __ZN21HdAppleRTRenderOutput11get_versionEv, __ZN21HdAppleRTRenderOutput13create_objectERN32pxrInternal__aapl__pxrReserved__13HdRenderIndexE, 
                       __ZN21HdAppleRTRenderOutput4SyncEPN32pxrInternal__aapl__pxrReserved__15HdSceneDelegateEPNS0_13HdRenderParamEPj, 
                       __ZN21HdAppleRTRenderOutput8FinalizeEPN32pxrInternal__aapl__pxrReserved__13HdRenderParamE, 
                       __ZN21HdAppleRTRenderOutput9sync_mainERN32pxrInternal__aapl__pxrReserved__13HdRenderIndexERKj, 
                       __ZN21HdAppleRTRenderOutputC1ERKN32pxrInternal__aapl__pxrReserved__7SdfPathE, 
                       __ZN21HdAppleRTRenderOutputC2ERKN32pxrInternal__aapl__pxrReserved__7SdfPathE, 
                       __ZN21HdAppleRTRenderOutputD0Ev, __ZN21HdAppleRTRenderOutputD1Ev, 
                       __ZN21HdAppleRTRenderOutputD2Ev, __ZN21HierarchicalSampler2d11get_indicesERKj, 
                       __ZN21HierarchicalSampler2d12m_table_sizeE, __ZN21HierarchicalSampler2d14set_dimensionsERKjS1_, 
                       __ZN21HierarchicalSampler2d25get_sample_sobol_callbackERS_RKjR9GMathVec2IdE, 
                       __ZN21HierarchicalSampler2d26get_sample_halton_callbackERS_RKjR9GMathVec2IdE, 
                       __ZN21HierarchicalSampler2d26get_sample_random_callbackERS_RKjR9GMathVec2IdE, 
                       __ZN21HierarchicalSampler2d30get_all_samples_sobol_callbackERS_P9GMathVec2IdE, 
                       __ZN21HierarchicalSampler2d30get_sample_hammersley_callbackERS_RKjR9GMathVec2IdE, 
                       __ZN21HierarchicalSampler2d31get_all_samples_halton_callbackERS_P9GMathVec2IdE, 
                       __ZN21HierarchicalSampler2d31get_all_samples_random_callbackERS_P9GMathVec2IdE, 
                       __ZN21HierarchicalSampler2d33get_packet_samples_sobol_callbackERS_RKjP9GMathVec2IdERS4_S6_, 
                       __ZN21HierarchicalSampler2d34get_packet_samples_halton_callbackERS_RKjP9GMathVec2IdERS4_S6_, 
                       __ZN21HierarchicalSampler2d34get_packet_samples_random_callbackERS_RKjP9GMathVec2IdERS4_S6_, 
                       __ZN21HierarchicalSampler2d35get_all_samples_hammersley_callbackERS_P9GMathVec2IdE, 
                       __ZN21HierarchicalSampler2d38get_packet_samples_hammersley_callbackERS_RKjP9GMathVec2IdERS4_S6_, 
                       __ZN21HierarchicalSampler2d4initERKjS1_S1_S1_, __ZN21HierarchicalSampler2d4initEv, 
                       __ZN21HierarchicalSampler2d7destroyEv, __ZN21HierarchicalSampler2d7m_tableE, 
                       __ZN21HrpSparseTextureCache11unmap_tilesEb, __ZN21HrpSparseTextureCache18map_and_blit_tilesER16SysThreadManagerRK12CoreFunctionIFbvEES2_IFvvEE, 
                       __ZN21HrpSparseTextureCache20load_requested_tilesER16SysThreadManagerRK12CoreFunctionIFbvEER10CoreAtomicIbE, 
                       __ZN21HrpSparseTextureCache20new_map_tile_requestENS_11TileRequestE, 
                       __ZN21HrpSparseTextureCache21register_texture_pathERKN16OpenImageIO_v2_57ustringEPb, 
                       __ZN21HrpSparseTextureCache22detect_requested_tilesEv, __ZN21HrpSparseTextureCache22discard_tiles_from_lruEv, 
                       __ZN21HrpSparseTextureCache22new_unmap_tile_requestENS_11TileRequestE, 
                       __ZN21HrpSparseTextureCache22process_access_counterEPNS_17SparseTextureDataE, 
                       __ZN21HrpSparseTextureCache23unregister_texture_pathERKN16OpenImageIO_v2_57ustringE, 
                       __ZN21HrpSparseTextureCache25release_texture_resourcesEPNS_17SparseTextureDataE, 
                       __ZN21HrpSparseTextureCache31set_max_tile_streams_per_updateEj, 
                       __ZN21HrpSparseTextureCache4initEP11objc_objectS1_jPN16OpenImageIO_v2_513TextureSystemE, 
                       __ZN21HrpSparseTextureCache5clearEv, __ZN21HrpSparseTextureCache6resizeEy, 
                       __ZN21HrpSparseTextureCacheC1Ev, __ZN21HrpSparseTextureCacheC2Ev, 
                       __ZN21HrpSparseTextureCacheD1Ev, __ZN21HrpSparseTextureCacheD2Ev, 
                       __ZN21ImageIOTextureManager10load_imageER12ResourceUserRK10CoreStringRK16ImageLoadOptionsP5OfAppP14AppProgressBarN10ImagePixel10RepeatModeESD_, 
                       __ZN21ImageIOTextureManager16remove_requesterEP11EventObject, 
                       __ZN21ImageIOTextureManager19get_texture_managerEv, __ZN21ImageIOTextureManager32check_external_file_modificationEv, 
                       __ZN21ImageIOTextureManager4initEv, __ZN21ImageIOTextureManager7destroyEv, 
                       __ZN21ImageIOTextureManager9s_managerE, __ZN21ImageIOTextureManagerC1Ev, 
                       __ZN21ImageIOTextureManagerC2Ev, __ZN21ImageIOTextureManagerD1Ev, 
                       __ZN21ImageIOTextureManagerD2Ev, __ZN21LayerRenderBufferImpl17add_aovs_to_imageE14CoreBasicArrayI10R2cAovInfoE, 
                       __ZN21LicenseServerInfoData7decryptERS_RKj, __ZN21LicenseServerInfoData7encryptERS_RKj, 
                       __ZN21LicenseServerInfoDataC1Ev, __ZN21LicenseServerInfoDataC2Ev, 
                       __ZN21LicenseServerInfoDataD1Ev, __ZN21LicenseServerInfoDataD2Ev, 
                       __ZN21ModuleCameraCallbacksC1Ev, __ZN21ModuleCameraCallbacksC2Ev, 
                       __ZN21ModuleMaterialDefault10class_infoEv, __ZN21ModuleMaterialDefault14s_default_flagEv, 
                       __ZN21ModuleMaterialDefault18module_constructorER8OfObject, 
                       __ZN21ModuleMaterialDefaultC1Ev, __ZN21ModuleMaterialDefaultC2Ev, 
                       __ZN21ModuleMaterialDefaultD0Ev, __ZN21ModuleMaterialDefaultD1Ev, 
                       __ZN21ModuleMaterialDefaultD2Ev, __ZN21ModuleObjectCallbacks21init_parent_callbacksER7OfClass, 
                       __ZN21ModuleObjectCallbacksC1Ev, __ZN21ModuleObjectCallbacksC2Ev, 
                       __ZN21ModuleSceneObjectTree10MotionData15synchronize_gasEPNS_12ResourceTreeE, 
                       __ZN21ModuleSceneObjectTree10MotionDataC1ERKjPv, __ZN21ModuleSceneObjectTree10MotionDataC2ERKjPv, 
                       __ZN21ModuleSceneObjectTree10class_infoEv, __ZN21ModuleSceneObjectTree10clear_treeEv, 
                       __ZN21ModuleSceneObjectTree11get_objectsER9CoreArrayIP17ModuleSceneObjectE, 
                       __ZN21ModuleSceneObjectTree12OverrideData12on_dirtinessER8OfObject, 
                       __ZN21ModuleSceneObjectTree12OverrideData15on_object_eventER11EventObjectRKNS1_9EventInfoEPv, 
                       __ZN21ModuleSceneObjectTree12OverrideData17clear_motion_blurEv, 
                       __ZN21ModuleSceneObjectTree12OverrideData5clearEv, __ZN21ModuleSceneObjectTree12OverrideDataC1EPKS_RK22GeometryOverrideConfig, 
                       __ZN21ModuleSceneObjectTree12OverrideDataC1Ev, __ZN21ModuleSceneObjectTree12OverrideDataC2EPKS_RK22GeometryOverrideConfig, 
                       __ZN21ModuleSceneObjectTree12OverrideDataC2Ev, __ZN21ModuleSceneObjectTree12OverrideDataD0Ev, 
                       __ZN21ModuleSceneObjectTree12OverrideDataD1Ev, __ZN21ModuleSceneObjectTree12OverrideDataD2Ev, 
                       __ZN21ModuleSceneObjectTree14clear_matricesEv, __ZN21ModuleSceneObjectTree14clear_topologyEv, 
                       __ZN21ModuleSceneObjectTree14module_ray_hitER8OfObjectRK7CtxEvalR9CtxShaderR19GeometryRaytraceCtx, 
                       __ZN21ModuleSceneObjectTree16RESOURCE_ID_TREEEv, __ZN21ModuleSceneObjectTree16get_sub_overrideEP16GeometryOverridej, 
                       __ZN21ModuleSceneObjectTree17module_destructorEv, __ZN21ModuleSceneObjectTree18clear_base_objectsEv, 
                       __ZN21ModuleSceneObjectTree18dirty_base_objectsEv, __ZN21ModuleSceneObjectTree18module_constructorER8OfObject, 
                       __ZN21ModuleSceneObjectTree18module_frustum_hitER8OfObjectRK7CtxEvalR9CtxShaderR18GeometryFrustumCtx, 
                       __ZN21ModuleSceneObjectTree18object_frustum_hitERK7CtxEvalR9CtxShaderR18GeometryFrustumCtxRK14CoreBasicArrayIjEPNS_3GasE, 
                       __ZN21ModuleSceneObjectTree18on_resource_updateERKiP12ResourceData, 
                       __ZN21ModuleSceneObjectTree19get_override_configEP16GeometryOverride, 
                       __ZN21ModuleSceneObjectTree19on_attribute_changeERK6OfAttrRiRKi, 
