--- !tapi-tbd-v3
archs:                 [ armv7, armv7s, arm64, arm64e ]
platform:              ios
flags:                 [ flat_namespace ]
install-name:          /usr/lib/libBasebandServicesRestResources.dylib
current-version:       1
compatibility-version: 1
exports:
  - archs:                [ armv7, armv7s, arm64, arm64e ]
    symbols:              [ __ZN13ABMRestServer10debugFlushEv,
                            __ZN13ABMRestServer10sendNotifyERKN3ctu22RestResourceConnectionERKN3xpc6objectES7_S7_,
                            __ZN13ABMRestServer10start_syncEv,
                            __ZN13ABMRestServer17handleRestMessageERKNSt3__110shared_ptrIN3ctu22RestResourceConnectionEEEN3xpc4dictE,
                            __ZN13ABMRestServer18sendReplyWithValueERKN3xpc4dictERKNS0_6objectE,
                            __ZN13ABMRestServer18takeAutoReplyValueERKN3xpc4dictE,
                            __ZN13ABMRestServer21performManualGetQueryENSt3__112basic_stringIcNS0_11char_traitsIcEENS0_9allocatorIcEEEEN3xpc6objectEU13block_pointerFvS8_E,
                            __ZN13ABMRestServer21performManualSetQueryENSt3__112basic_stringIcNS0_11char_traitsIcEENS0_9allocatorIcEEEEN3xpc6objectEU13block_pointerFvS8_E,
                            __ZN13ABMRestServer23handleDroppedConnectionERKNSt3__110shared_ptrIN3ctu22RestResourceConnectionEEEN3xpc6objectE,
                            __ZN13ABMRestServer26handleRestMessageWithReplyERKNSt3__110shared_ptrIN3ctu22RestResourceConnectionEEEN3xpc4dictENS0_8functionIFvNS7_6objectEEEE,
                            __ZN13ABMRestServer4initEv,
                            __ZN13ABMRestServer4stopEv,
                            __ZN13ABMRestServer5startEv,
                            __ZN13ABMRestServer6createEv,
                            __ZN13ABMRestServer7getNameEv,
                            __ZN13ABMRestServer7sendGetERKN3ctu22RestResourceConnectionERKN3xpc6objectES7_S7_NSt3__110shared_ptrIS5_EE,
                            __ZN13ABMRestServer8redirectERN3ctu19RestResourceContextERKNSt3__112basic_stringIcNS3_11char_traitsIcEENS3_9allocatorIcEEEE,
                            __ZN13ABMRestServer8shutdownEv,
                            __ZN13ABMRestServer9stop_syncEv,
                            __ZN13ABMRestServerC1Ev, __ZN13ABMRestServerC2Ev,
                            __ZN13ABMRestServerD1Ev, __ZN13ABMRestServerD2Ev,
                            __ZN3abm4rest13indeterminateENS0_15BoolWithUnknownE,
                            __ZN3abm4rest15read_rest_valueERNS0_20BasebandHardwareInfoERKN3xpc6objectE,
                            __ZN3abm4rest16write_rest_valueERKNS0_20BasebandHardwareInfoE,
                            __ZN3abm4rest8asStringENS0_15BoolWithUnknownE,
                            __ZN3abm4rest8asStringENS0_7SimSlotE,
                            __ZN3ctu4rest15read_rest_valueIN3abm4rest15NetworkCellInfoEEEvRT_RKN3xpc6objectE,
                            __ZN3ctu4rest16write_rest_valueIN3abm4rest15NetworkCellInfoEEEN3xpc6objectERKT_,
                            __ZNK13ABMRestServer17getAuthorResourceEP17_xpc_connection_s,
                            __ZNK13ABMRestServer28getOneTimeUseLocalConnectionEv ]
...
