--- !tapi-tbd
tbd-version:     4
targets:         [ arm64e-macos ]
install-name:    '/System/Library/PrivateFrameworks/CoreUSDEdit.framework/Versions/A/module/cameras.dylib'
current-version: 0
compatibility-version: 0
exports:
  - targets:         [ arm64e-macos ]
    symbols:         [ __ZN12CameraSprite18on_register_moduleER5OfAppR10CoreVectorIP7OfClassE, 
                       __ZN12SpriteTarget18on_register_moduleER5OfAppR10CoreVectorIP7OfClassE, 
                       __ZN13CameraFisheye18on_register_moduleER5OfAppR10CoreVectorIP7OfClassE, 
                       __ZN14CameraMeiRives18on_register_moduleER5OfAppR10CoreVectorIP7OfClassE, 
                       __ZN15CameraPanoramic18on_register_moduleER5OfAppR10CoreVectorIP7OfClassE, 
                       __ZN17CameraPerspective18on_register_moduleER5OfAppR10CoreVectorIP7OfClassE, 
                       __ZN18CameraOrthographic18on_register_moduleER5OfAppR10CoreVectorIP7OfClassE, 
                       __ZN25CameraPerspectiveAdvanced10ModuleData14set_lens_ratioERKd, 
                       __ZN25CameraPerspectiveAdvanced10ModuleData16set_focal_lengthERKd, 
                       __ZN25CameraPerspectiveAdvanced10ModuleData16set_vertical_fovERKd, 
                       __ZN25CameraPerspectiveAdvanced10ModuleData17dirty_motion_blurEv, 
                       __ZN25CameraPerspectiveAdvanced10ModuleData18set_horizontal_fovERKd, 
                       __ZN25CameraPerspectiveAdvanced10ModuleData19set_vertical_offsetERKd, 
                       __ZN25CameraPerspectiveAdvanced10ModuleData21change_animation_flagERKjRKb, 
                       __ZN25CameraPerspectiveAdvanced10ModuleData21set_horizontal_offsetERKd, 
                       __ZN25CameraPerspectiveAdvanced10ModuleData21set_vertical_apertureERKd, 
                       __ZN25CameraPerspectiveAdvanced10ModuleData23set_horizontal_apertureERKd, 
                       __ZN25CameraPerspectiveAdvanced10ModuleData9set_shapeERKdS2_S2_S2_S2_S2_, 
                       __ZN25CameraPerspectiveAdvanced10ModuleDataC1ERK8OfObject, 
                       __ZN25CameraPerspectiveAdvanced10ModuleDataC2ERK8OfObject, 
                       __ZN25CameraPerspectiveAdvanced10get_configEPNS_10ModuleDataER12CameraConfig, 
                       __ZN25CameraPerspectiveAdvanced10init_classER7OfClass, __ZN25CameraPerspectiveAdvanced11get_offsetsEPNS_10ModuleDataERdS2_, 
                       __ZN25CameraPerspectiveAdvanced12get_metadataER8OfObjectP11ModuleLayerR13CoreHashTableI10CoreString17CoreMetadataEntryE, 
                       __ZN25CameraPerspectiveAdvanced13project_pointEPNS_10ModuleDataER8OfObjectRK7CtxEvalRK9GMathVec3IdERS8_RKdSD_, 
                       __ZN25CameraPerspectiveAdvanced14project_sampleEPNS_10ModuleDataER8OfObjectRK7CtxEvalRK9GMathVec3IdESA_SA_RS8_SB_SB_RKdSD_, 
                       __ZN25CameraPerspectiveAdvanced15unproject_pointEPNS_10ModuleDataER8OfObjectRK7CtxEvalRK9GMathVec3IdERS8_RKdSD_, 
                       __ZN25CameraPerspectiveAdvanced16unproject_sampleEPNS_10ModuleDataER8OfObjectRK7CtxEvalRK9GMathVec3IdESA_SA_RS8_SB_SB_RKdSD_, 
                       __ZN25CameraPerspectiveAdvanced18module_constructorER8OfObject, 
                       __ZN25CameraPerspectiveAdvanced18on_register_moduleER5OfAppR10CoreVectorIP7OfClassE, 
                       __ZN25CameraPerspectiveAdvanced19on_attribute_changeEPNS_10ModuleDataER8OfObjectRK6OfAttrRiRKi, 
                       __ZN25CameraPerspectiveAdvanced20create_ray_generatorEPNS_10ModuleDataER8OfObjectPK13CtxMotionBlur, 
                       __ZN25CameraPerspectiveAdvanced8get_fovsEPNS_10ModuleDataERKdRdS4_, 
                       __ZN25CameraPerspectiveAdvanced8paint_glEP12ModuleCameraPNS_10ModuleDataER10GlUtilsCtx, 
                       __ZN29_ModuleCameraSpriteCallbacks_18create_module_dataERK8OfObject, 
                       __ZN29_ModuleCameraSpriteCallbacks_19destroy_module_dataERK8OfObjectPv, 
                       __ZN29_ModuleCameraSpriteCallbacks_19on_attribute_changeER8OfObjectRK6OfAttrRiRKi, 
                       __ZN29_ModuleCameraSpriteCallbacks_20create_ray_generatorER8OfObjectPK13CtxMotionBlur, 
                       __ZN29_ModuleCameraSpriteCallbacks_8paint_glER8OfObjectR10GlUtilsCtx, 
                       __ZN29_ModuleSpriteTargetCallbacks_8paint_glER8OfObjectR10GlUtilsCtx, 
                       __ZN30_ModuleCameraFisheyeCallbacks_11get_offsetsER8OfObjectRdS2_, 
                       __ZN30_ModuleCameraFisheyeCallbacks_13project_pointER8OfObjectRK7CtxEvalRK9GMathVec3IdERS6_RKdSB_, 
                       __ZN30_ModuleCameraFisheyeCallbacks_14project_sampleER8OfObjectRK7CtxEvalRK9GMathVec3IdES8_S8_RS6_S9_S9_RKdSB_, 
                       __ZN30_ModuleCameraFisheyeCallbacks_15unproject_pointER8OfObjectRK7CtxEvalRK9GMathVec3IdERS6_RKdSB_, 
                       __ZN30_ModuleCameraFisheyeCallbacks_16unproject_sampleER8OfObjectRK7CtxEvalRK9GMathVec3IdES8_S8_RS6_S9_S9_RKdSB_, 
                       __ZN30_ModuleCameraFisheyeCallbacks_18create_module_dataERK8OfObject, 
                       __ZN30_ModuleCameraFisheyeCallbacks_19destroy_module_dataERK8OfObjectPv, 
                       __ZN30_ModuleCameraFisheyeCallbacks_19on_attribute_changeER8OfObjectRK6OfAttrRiRKi, 
                       __ZN30_ModuleCameraFisheyeCallbacks_20create_ray_generatorER8OfObjectPK13CtxMotionBlur, 
                       __ZN30_ModuleCameraFisheyeCallbacks_30get_ray_generator_fisheye_dataER8OfObject, 
                       __ZN30_ModuleCameraFisheyeCallbacks_8get_fovsER8OfObjectRKdRdS4_, 
                       __ZN30_ModuleCameraFisheyeCallbacks_8paint_glER8OfObjectR10GlUtilsCtx, 
                       __ZN31_ModuleCameraMeiRivesCallbacks_18create_module_dataERK8OfObject, 
                       __ZN31_ModuleCameraMeiRivesCallbacks_19destroy_module_dataERK8OfObjectPv, 
                       __ZN31_ModuleCameraMeiRivesCallbacks_19on_attribute_changeER8OfObjectRK6OfAttrRiRKi, 
                       __ZN31_ModuleCameraMeiRivesCallbacks_20create_ray_generatorER8OfObjectPK13CtxMotionBlur, 
                       __ZN32_ModuleCameraPanoramicCallbacks_12get_metadataER8OfObjectP11ModuleLayerR13CoreHashTableI10CoreString17CoreMetadataEntryE, 
                       __ZN32_ModuleCameraPanoramicCallbacks_13project_pointER8OfObjectRK7CtxEvalRK9GMathVec3IdERS6_RKdSB_, 
                       __ZN32_ModuleCameraPanoramicCallbacks_14project_sampleER8OfObjectRK7CtxEvalRK9GMathVec3IdES8_S8_RS6_S9_S9_RKdSB_, 
                       __ZN32_ModuleCameraPanoramicCallbacks_15unproject_pointER8OfObjectRK7CtxEvalRK9GMathVec3IdERS6_RKdSB_, 
                       __ZN32_ModuleCameraPanoramicCallbacks_16unproject_sampleER8OfObjectRK7CtxEvalRK9GMathVec3IdES8_S8_RS6_S9_S9_RKdSB_, 
                       __ZN32_ModuleCameraPanoramicCallbacks_17module_destructorER8OfObjectP8OfModule, 
                       __ZN32_ModuleCameraPanoramicCallbacks_18create_module_dataERK8OfObject, 
                       __ZN32_ModuleCameraPanoramicCallbacks_18module_constructorER8OfObjectP8OfModule, 
                       __ZN32_ModuleCameraPanoramicCallbacks_19destroy_module_dataERK8OfObjectPv, 
                       __ZN32_ModuleCameraPanoramicCallbacks_19on_attribute_changeER8OfObjectRK6OfAttrRiRKi, 
                       __ZN32_ModuleCameraPanoramicCallbacks_20create_ray_generatorER8OfObjectPK13CtxMotionBlur, 
                       __ZN32_ModuleCameraPanoramicCallbacks_21get_parallax_distanceERK8OfObject, 
                       __ZN32_ModuleCameraPanoramicCallbacks_25get_projection_master_eyeERK8OfObject, 
                       __ZN32_ModuleCameraPanoramicCallbacks_32get_ray_generator_panoramic_dataER8OfObjectR25RayGeneratorPanoramicDataIdE, 
                       __ZN32_ModuleCameraPanoramicCallbacks_40on_project_projection_master_eye_changedER7AppBaseRKN11EventObject9EventInfoEPv, 
                       __ZN32_ModuleCameraPanoramicCallbacks_8paint_glER8OfObjectR10GlUtilsCtx, 
                       __ZN34_ModuleCameraPerspectiveCallbacks_10get_configER8OfObjectR12CameraConfig, 
                       __ZN34_ModuleCameraPerspectiveCallbacks_11get_offsetsER8OfObjectRdS2_, 
                       __ZN34_ModuleCameraPerspectiveCallbacks_12get_metadataER8OfObjectP11ModuleLayerR13CoreHashTableI10CoreString17CoreMetadataEntryE, 
                       __ZN34_ModuleCameraPerspectiveCallbacks_13project_pointER8OfObjectRK7CtxEvalRK9GMathVec3IdERS6_RKdSB_, 
                       __ZN34_ModuleCameraPerspectiveCallbacks_14project_sampleER8OfObjectRK7CtxEvalRK9GMathVec3IdES8_S8_RS6_S9_S9_RKdSB_, 
                       __ZN34_ModuleCameraPerspectiveCallbacks_15unproject_pointER8OfObjectRK7CtxEvalRK9GMathVec3IdERS6_RKdSB_, 
                       __ZN34_ModuleCameraPerspectiveCallbacks_16unproject_sampleER8OfObjectRK7CtxEvalRK9GMathVec3IdES8_S8_RS6_S9_S9_RKdSB_, 
                       __ZN34_ModuleCameraPerspectiveCallbacks_18create_module_dataERK8OfObject, 
                       __ZN34_ModuleCameraPerspectiveCallbacks_19destroy_module_dataERK8OfObjectPv, 
                       __ZN34_ModuleCameraPerspectiveCallbacks_19on_attribute_changeER8OfObjectRK6OfAttrRiRKi, 
                       __ZN34_ModuleCameraPerspectiveCallbacks_20create_ray_generatorER8OfObjectPK13CtxMotionBlur, 
                       __ZN34_ModuleCameraPerspectiveCallbacks_34get_ray_generator_perspective_dataER8OfObjectR27RayGeneratorPerspectiveDataIdE, 
                       __ZN34_ModuleCameraPerspectiveCallbacks_8get_fovsER8OfObjectRKdRdS4_, 
                       __ZN34_ModuleCameraPerspectiveCallbacks_8paint_glER8OfObjectR10GlUtilsCtx, 
                       __ZN35_ModuleCameraOrthographicCallbacks_10get_configER8OfObjectR12CameraConfig, 
                       __ZN35_ModuleCameraOrthographicCallbacks_11get_offsetsER8OfObjectRdS2_, 
                       __ZN35_ModuleCameraOrthographicCallbacks_13project_pointER8OfObjectRK7CtxEvalRK9GMathVec3IdERS6_RKdSB_, 
                       __ZN35_ModuleCameraOrthographicCallbacks_14project_sampleER8OfObjectRK7CtxEvalRK9GMathVec3IdES8_S8_RS6_S9_S9_RKdSB_, 
                       __ZN35_ModuleCameraOrthographicCallbacks_15unproject_pointER8OfObjectRK7CtxEvalRK9GMathVec3IdERS6_RKdSB_, 
                       __ZN35_ModuleCameraOrthographicCallbacks_16unproject_sampleER8OfObjectRK7CtxEvalRK9GMathVec3IdES8_S8_RS6_S9_S9_RKdSB_, 
                       __ZN35_ModuleCameraOrthographicCallbacks_18create_module_dataERK8OfObject, 
                       __ZN35_ModuleCameraOrthographicCallbacks_19destroy_module_dataERK8OfObjectPv, 
                       __ZN35_ModuleCameraOrthographicCallbacks_19on_attribute_changeER8OfObjectRK6OfAttrRiRKi, 
                       __ZN35_ModuleCameraOrthographicCallbacks_20create_ray_generatorER8OfObjectPK13CtxMotionBlur, 
                       __ZN35_ModuleCameraOrthographicCallbacks_35get_ray_generator_orthographic_dataER8OfObjectR28RayGeneratorOrthographicDataIdE, 
                       __ZN35_ModuleCameraOrthographicCallbacks_8get_fovsER8OfObjectRKdRdS4_, 
                       __ZN35_ModuleCameraOrthographicCallbacks_8paint_glER8OfObjectR10GlUtilsCtx, 
                       __ZNK25CameraPerspectiveAdvanced10ModuleData14get_image_fovsERKdRdS3_, 
                       __ZNK25CameraPerspectiveAdvanced10ModuleData15get_motion_dataER8OfObjectRK13CtxMotionBlur, 
                       __ZNK25CameraPerspectiveAdvanced10ModuleData34get_ray_generator_perspective_dataER27RayGeneratorPerspectiveDataIdE, 
                       __ZNK25CameraPerspectiveAdvanced10ModuleData34get_ray_generator_perspective_dataER8OfObjectRK7CtxEvalR27RayGeneratorPerspectiveDataIdE, 
                       _on_register_module ]
    weak-symbols:    [ __ZGVZN14CoreLogHandler12main_handlerEvE18s_main_log_handler, 
                       __ZGVZN14GMathMatrix4x4IdLb1EE12get_identityEvE8idendity, 
                       __ZN11ImageSampleIdEC1ERKjS2_RKdS4_S4_S4_, __ZN11ImageSampleIdEC1Ev, 
                       __ZN11ImageSampleIdEC2ERKjS2_RKdS4_S4_S4_, __ZN11ImageSampleIdEC2Ev, 
                       __ZN11ImageSampleIfEC1ERKjS2_RKfS4_S4_S4_, __ZN11ImageSampleIfEC1Ev, 
                       __ZN11ImageSampleIfEC2ERKjS2_RKfS4_S4_S4_, __ZN11ImageSampleIfEC2Ev, 
                       __ZN42_ModuleCameraPerspectiveAdvancedCallbacks_10get_configER8OfObjectR12CameraConfig, 
                       __ZN42_ModuleCameraPerspectiveAdvancedCallbacks_11get_offsetsER8OfObjectRdS2_, 
                       __ZN42_ModuleCameraPerspectiveAdvancedCallbacks_12get_metadataER8OfObjectP11ModuleLayerR13CoreHashTableI10CoreString17CoreMetadataEntryE, 
                       __ZN42_ModuleCameraPerspectiveAdvancedCallbacks_13project_pointER8OfObjectRK7CtxEvalRK9GMathVec3IdERS6_RKdSB_, 
                       __ZN42_ModuleCameraPerspectiveAdvancedCallbacks_14project_sampleER8OfObjectRK7CtxEvalRK9GMathVec3IdES8_S8_RS6_S9_S9_RKdSB_, 
                       __ZN42_ModuleCameraPerspectiveAdvancedCallbacks_15unproject_pointER8OfObjectRK7CtxEvalRK9GMathVec3IdERS6_RKdSB_, 
                       __ZN42_ModuleCameraPerspectiveAdvancedCallbacks_16unproject_sampleER8OfObjectRK7CtxEvalRK9GMathVec3IdES8_S8_RS6_S9_S9_RKdSB_, 
                       __ZN42_ModuleCameraPerspectiveAdvancedCallbacks_18create_module_dataERK8OfObject, 
                       __ZN42_ModuleCameraPerspectiveAdvancedCallbacks_18module_constructorER8OfObjectP8OfModule, 
                       __ZN42_ModuleCameraPerspectiveAdvancedCallbacks_18on_pre_deserializeER8OfObjectRK11CoreVersionR11ParserGroup, 
                       __ZN42_ModuleCameraPerspectiveAdvancedCallbacks_19destroy_module_dataERK8OfObjectPv, 
                       __ZN42_ModuleCameraPerspectiveAdvancedCallbacks_19on_attribute_changeER8OfObjectRK6OfAttrRiRKi, 
                       __ZN42_ModuleCameraPerspectiveAdvancedCallbacks_20create_ray_generatorER8OfObjectPK13CtxMotionBlur, 
                       __ZN42_ModuleCameraPerspectiveAdvancedCallbacks_25on_attribute_change_eventER15OfObjectFactoryRKN11EventObject9EventInfoEPv, 
                       __ZN42_ModuleCameraPerspectiveAdvancedCallbacks_8get_fovsER8OfObjectRKdRdS4_, 
                       __ZN42_ModuleCameraPerspectiveAdvancedCallbacks_8paint_glER8OfObjectR10GlUtilsCtx, 
                       __ZZN14CoreLogHandler12main_handlerEvE18s_main_log_handler, 
                       __ZZN14GMathMatrix4x4IdLb1EE12get_identityEvE8idendity ]
...
