--- !tapi-tbd
tbd-version:     4
targets:         [ arm64e-macos ]
install-name:    '/System/Library/PrivateFrameworks/CoreUSDEdit.framework/Versions/A/module/geometry_bundle.dylib'
current-version: 0
compatibility-version: 0
exports:
  - targets:         [ arm64e-macos ]
    symbols:         [ __Z11set_surfaceR21ResourceBundleManagerRKjS2_P20GeometryObjectBundlePKS3_S6_S6_S2_jRK10CoreStringS9_S9_R20SysThreadTaskManagerP14AppProgressBar, 
                       __Z15create_osd_taskR21ResourceBundleManagerRKjS2_P14GeometryObjectP20GeometryObjectBundleR10CoreStringPKS5_SA_SA_S2_R20SysThreadTaskManagerP14AppProgressBar, 
                       __Z15create_sds_taskR21ResourceBundleManagerRKjS2_P14GeometryObjectP20GeometryObjectBundleR10CoreStringPKS5_S2_R20SysThreadTaskManagerP14AppProgressBar, 
                       __Z24setup_deformed_resourcesR8OfObjectRKj, __ZN31_ModuleGeometryBundleCallbacks_10create_gasER24GeometryResourceOverride, 
                       __ZN31_ModuleGeometryBundleCallbacks_10create_gasER8OfObjectPK17GeometrySceneInfoS4_PK20GeometryObjectBundleS7_S7_S7_P24GeometryResourceOverride, 
                       __ZN31_ModuleGeometryBundleCallbacks_10init_classER7OfClass, 
                       __ZN31_ModuleGeometryBundleCallbacks_11frustum_hitER8OfObjectRK7CtxEvalR9CtxShaderR18GeometryFrustumCtx, 
                       __ZN31_ModuleGeometryBundleCallbacks_12get_clustersERK17ModuleSceneObjectP16GeometryOverrideR10CoreVectorIPvERKjRKf, 
                       __ZN31_ModuleGeometryBundleCallbacks_14create_surfaceER8OfObjectPK20GeometryObjectBundleS4_S4_S4_PK17GeometrySceneInfo, 
                       __ZN31_ModuleGeometryBundleCallbacks_14declare_moduleER8OfObjectR15OfObjectFactory, 
                       __ZN31_ModuleGeometryBundleCallbacks_14destroy_moduleER8OfObjectR15OfObjectFactoryP8OfModule, 
                       __ZN31_ModuleGeometryBundleCallbacks_15create_resourceER8OfObjectRKiPv, 
                       __ZN31_ModuleGeometryBundleCallbacks_15ray_hit_nearestER8OfObjectRK7CtxEvalR9CtxShaderR19GeometryRaytraceCtx, 
                       __ZN31_ModuleGeometryBundleCallbacks_17module_destructorER8OfObjectP8OfModule, 
                       __ZN31_ModuleGeometryBundleCallbacks_18create_thread_dataERK8OfObjectRK7CtxEval, 
                       __ZN31_ModuleGeometryBundleCallbacks_18module_constructorER8OfObjectP8OfModule, 
                       __ZN31_ModuleGeometryBundleCallbacks_19create_surface_mapsER8OfObjectPK20GeometryObjectBundleS4_PK17GeometrySceneInfo, 
                       __ZN31_ModuleGeometryBundleCallbacks_19create_tessellationER8OfObjectPK20GeometryObjectBundleS4_S4_, 
                       __ZN31_ModuleGeometryBundleCallbacks_19destroy_thread_dataERK8OfObjectRK7CtxEvalPv, 
                       __ZN31_ModuleGeometryBundleCallbacks_19get_clusters_bboxesERK17ModuleSceneObjectP16GeometryOverrideRK14CoreBasicArrayIPvEP10GMathBbox3IfE, 
                       __ZN31_ModuleGeometryBundleCallbacks_19on_attribute_changeER8OfObjectRK6OfAttrRiRKi, 
                       __ZN31_ModuleGeometryBundleCallbacks_20get_subdivision_modeERK8OfObject, 
                       __ZN31_ModuleGeometryBundleCallbacks_21get_geometry_overrideER8OfObjectRK22GeometryOverrideConfig, 
                       __ZN31_ModuleGeometryBundleCallbacks_21on_deserialize_objectER8OfObjectRK11CoreVersionRK11ParserGroupRK15OfSerialOptions, 
                       __ZN31_ModuleGeometryBundleCallbacks_22get_clusters_bboxes_atERK17ModuleSceneObjectP16GeometryOverrideRK7CtxEvalRKdRK14CoreBasicArrayIPvEP10GMathBbox3IfE, 
                       __ZN31_ModuleGeometryBundleCallbacks_23create_surface_deformedER8OfObjectPK20GeometryObjectBundleS4_S4_S4_S4_PK17GeometrySceneInfoS7_, 
                       __ZN31_ModuleGeometryBundleCallbacks_23create_surface_geometryER8OfObjectPK20GeometryObjectBundleS4_PK17GeometrySceneInfo, 
                       __ZN31_ModuleGeometryBundleCallbacks_23create_surface_topologyER8OfObjectPK20GeometryObjectBundlePK17GeometrySceneInfo, 
                       __ZN31_ModuleGeometryBundleCallbacks_24create_displacement_backER8OfObjectPK17GeometrySceneInfoS4_PK20GeometryObjectBundleS7_S7_RK14CoreBasicArrayIP18ModuleDisplacementE, 
                       __ZN31_ModuleGeometryBundleCallbacks_24create_resource_overrideER8OfObjectRKiR16GeometryOverridePv, 
                       __ZN31_ModuleGeometryBundleCallbacks_24create_tessellation_mapsER8OfObjectPK20GeometryObjectBundleS4_, 
                       __ZN31_ModuleGeometryBundleCallbacks_25create_displacement_frontER8OfObjectPK17GeometrySceneInfoS4_PK20GeometryObjectBundleS7_S7_RK14CoreBasicArrayIP18ModuleDisplacementE, 
                       __ZN31_ModuleGeometryBundleCallbacks_25create_geometry_with_tubeER8OfObjectPK20GeometryObjectBundlePK24GeometryResourceOverride, 
                       __ZN31_ModuleGeometryBundleCallbacks_25create_surface_propertiesER8OfObjectPK22GeometryPropertyBundlePK17GeometrySceneInfoS7_PK20GeometryObjectBundle, 
                       __ZN31_ModuleGeometryBundleCallbacks_28create_displacement_topologyER8OfObjectPK20GeometryObjectBundle, 
                       __ZN31_ModuleGeometryBundleCallbacks_28create_tessellation_deformedER8OfObjectPK20GeometryObjectBundleS4_S4_S4_PK17GeometrySceneInfoS7_, 
                       __ZN31_ModuleGeometryBundleCallbacks_28create_tessellation_geometryER8OfObjectPK20GeometryObjectBundleS4_, 
                       __ZN31_ModuleGeometryBundleCallbacks_28create_tessellation_topologyER8OfObjectPK17GeometrySceneInfoPK20GeometryObjectBundle, 
                       __ZN31_ModuleGeometryBundleCallbacks_30create_tessellation_propertiesER8OfObjectPK22GeometryPropertyBundlePK17GeometrySceneInfoS7_PK20GeometryObjectBundle, 
                       __ZN31_ModuleGeometryBundleCallbacks_32create_surface_geometry_deformedER8OfObjectPK20GeometryObjectBundleS4_S4_PK17GeometrySceneInfoS7_, 
                       __ZN31_ModuleGeometryBundleCallbacks_34create_geometry_with_tube_deformedER8OfObjectPK20GeometryObjectBundleS4_PK24GeometryResourceOverridePK17GeometrySceneInfoSA_, 
                       __ZN31_ModuleGeometryBundleCallbacks_36on_geometry_subdivision_mode_changedER5OfAppRKN11EventObject9EventInfoEPv, 
                       __ZN31_ModuleGeometryBundleCallbacks_37create_tessellation_geometry_deformedER8OfObjectPK20GeometryObjectBundleS4_S4_PK17GeometrySceneInfoS7_, 
                       __ZN31_ModuleGeometryBundleCallbacks_45get_subdivision_level_property_tag_candidatesERK8OfObjectRK6OfAttrR10CoreVectorI10CoreStringER9CoreArrayIbE, 
                       __ZN31_ModuleGeometryBundleCallbacks_7ray_hitER8OfObjectRK7CtxEvalR9CtxShaderR19GeometryRaytraceCtx, 
                       _on_register_module ]
    weak-symbols:    [ __ZGVZN14CoreLogHandler12main_handlerEvE18s_main_log_handler, 
                       __ZGVZN14ModuleGeometry19RESOURCE_ID_SURFACEEvE20_RESOURCE_ID_SURFACE, 
                       __ZGVZN14ModuleGeometry20RESOURCE_ID_GEOMETRYEvE21_RESOURCE_ID_GEOMETRY, 
                       __ZGVZN16OfBaseItemHandleILb0EE10class_infoEvE10class_info, 
                       __ZGVZN18OfBaseObjectHandleILb0EE10class_infoEvE10class_info, 
                       __ZGVZN20ModuleGeometryBundle15RESOURCE_ID_FUREvE16_RESOURCE_ID_FUR, 
                       __ZGVZN20ModuleGeometryBundle15RESOURCE_ID_GASEvE16_RESOURCE_ID_GAS, 
                       __ZGVZN20ModuleGeometryBundle19RESOURCE_ID_SURFACEEvE20_RESOURCE_ID_SURFACE, 
                       __ZGVZN20ModuleGeometryBundle20RESOURCE_ID_GEOMETRYEvE21_RESOURCE_ID_GEOMETRY, 
                       __ZGVZN20ModuleGeometryBundle24RESOURCE_ID_FUR_DEFORMEDEvE25_RESOURCE_ID_FUR_DEFORMED, 
                       __ZGVZN20ModuleGeometryBundle24RESOURCE_ID_LITE_MANAGEREvE25_RESOURCE_ID_LITE_MANAGER, 
                       __ZGVZN20ModuleGeometryBundle24RESOURCE_ID_SURFACE_MAPSEvE25_RESOURCE_ID_SURFACE_MAPS, 
                       __ZGVZN20ModuleGeometryBundle24RESOURCE_ID_TESSELLATIONEvE25_RESOURCE_ID_TESSELLATION, 
                       __ZGVZN20ModuleGeometryBundle28RESOURCE_ID_SURFACE_DEFORMEDEvE29_RESOURCE_ID_SURFACE_DEFORMED, 
                       __ZGVZN20ModuleGeometryBundle28RESOURCE_ID_SURFACE_GEOMETRYEvE29_RESOURCE_ID_SURFACE_GEOMETRY, 
                       __ZGVZN20ModuleGeometryBundle28RESOURCE_ID_SURFACE_TOPOLOGYEvE29_RESOURCE_ID_SURFACE_TOPOLOGY, 
                       __ZGVZN20ModuleGeometryBundle29RESOURCE_ID_GEOMETRY_ANIMATEDEvE30_RESOURCE_ID_GEOMETRY_ANIMATED, 
                       __ZGVZN20ModuleGeometryBundle29RESOURCE_ID_GEOMETRY_DEFORMEDEvE30_RESOURCE_ID_GEOMETRY_DEFORMED, 
                       __ZGVZN20ModuleGeometryBundle29RESOURCE_ID_TESSELLATION_MAPSEvE30_RESOURCE_ID_TESSELLATION_MAPS, 
                       __ZGVZN20ModuleGeometryBundle30RESOURCE_ID_SURFACE_PROPERTIESEvE31_RESOURCE_ID_SURFACE_PROPERTIES, 
                       __ZGVZN20ModuleGeometryBundle31RESOURCE_ID_GEOMETRY_PROPERTIESEvE32_RESOURCE_ID_GEOMETRY_PROPERTIES, 
                       __ZGVZN20ModuleGeometryBundle33RESOURCE_ID_DISPLACEMENT_TOPOLOGYEvE34_RESOURCE_ID_DISPLACEMENT_TOPOLOGY, 
                       __ZGVZN20ModuleGeometryBundle33RESOURCE_ID_TESSELLATION_DEFORMEDEvE34_RESOURCE_ID_TESSELLATION_DEFORMED, 
                       __ZGVZN20ModuleGeometryBundle33RESOURCE_ID_TESSELLATION_GEOMETRYEvE34_RESOURCE_ID_TESSELLATION_GEOMETRY, 
                       __ZGVZN20ModuleGeometryBundle33RESOURCE_ID_TESSELLATION_TOPOLOGYEvE34_RESOURCE_ID_TESSELLATION_TOPOLOGY, 
                       __ZGVZN20ModuleGeometryBundle35RESOURCE_ID_TESSELLATION_PROPERTIESEvE36_RESOURCE_ID_TESSELLATION_PROPERTIES, 
                       __ZGVZN20ModuleGeometryBundle37RESOURCE_ID_SURFACE_GEOMETRY_DEFORMEDEvE38_RESOURCE_ID_SURFACE_GEOMETRY_DEFORMED, 
                       __ZGVZN20ModuleGeometryBundle38RESOURCE_ID_DISPLACEMENT_GEOMETRY_BACKEvE39_RESOURCE_ID_DISPLACEMENT_GEOMETRY_BACK, 
                       __ZGVZN20ModuleGeometryBundle39RESOURCE_ID_DISPLACEMENT_GEOMETRY_FRONTEvE40_RESOURCE_ID_DISPLACEMENT_GEOMETRY_FRONT, 
                       __ZGVZN20ModuleGeometryBundle42RESOURCE_ID_TESSELLATION_GEOMETRY_DEFORMEDEvE43_RESOURCE_ID_TESSELLATION_GEOMETRY_DEFORMED, 
                       __ZN17GasGeometryBundle15default_pre_hitERK7CtxEvalR19GeometryRaytraceCtxPv, 
                       __ZZN14CoreLogHandler12main_handlerEvE18s_main_log_handler, 
                       __ZZN14ModuleGeometry19RESOURCE_ID_SURFACEEvE20_RESOURCE_ID_SURFACE, 
                       __ZZN14ModuleGeometry20RESOURCE_ID_GEOMETRYEvE21_RESOURCE_ID_GEOMETRY, 
                       __ZZN16OfBaseItemHandleILb0EE10class_infoEvE10class_info, 
                       __ZZN18OfBaseObjectHandleILb0EE10class_infoEvE10class_info, 
                       __ZZN20ModuleGeometryBundle15RESOURCE_ID_FUREvE16_RESOURCE_ID_FUR, 
                       __ZZN20ModuleGeometryBundle15RESOURCE_ID_GASEvE16_RESOURCE_ID_GAS, 
                       __ZZN20ModuleGeometryBundle19RESOURCE_ID_SURFACEEvE20_RESOURCE_ID_SURFACE, 
                       __ZZN20ModuleGeometryBundle20RESOURCE_ID_GEOMETRYEvE21_RESOURCE_ID_GEOMETRY, 
                       __ZZN20ModuleGeometryBundle24RESOURCE_ID_FUR_DEFORMEDEvE25_RESOURCE_ID_FUR_DEFORMED, 
                       __ZZN20ModuleGeometryBundle24RESOURCE_ID_LITE_MANAGEREvE25_RESOURCE_ID_LITE_MANAGER, 
                       __ZZN20ModuleGeometryBundle24RESOURCE_ID_SURFACE_MAPSEvE25_RESOURCE_ID_SURFACE_MAPS, 
                       __ZZN20ModuleGeometryBundle24RESOURCE_ID_TESSELLATIONEvE25_RESOURCE_ID_TESSELLATION, 
                       __ZZN20ModuleGeometryBundle28RESOURCE_ID_SURFACE_DEFORMEDEvE29_RESOURCE_ID_SURFACE_DEFORMED, 
                       __ZZN20ModuleGeometryBundle28RESOURCE_ID_SURFACE_GEOMETRYEvE29_RESOURCE_ID_SURFACE_GEOMETRY, 
                       __ZZN20ModuleGeometryBundle28RESOURCE_ID_SURFACE_TOPOLOGYEvE29_RESOURCE_ID_SURFACE_TOPOLOGY, 
                       __ZZN20ModuleGeometryBundle29RESOURCE_ID_GEOMETRY_ANIMATEDEvE30_RESOURCE_ID_GEOMETRY_ANIMATED, 
                       __ZZN20ModuleGeometryBundle29RESOURCE_ID_GEOMETRY_DEFORMEDEvE30_RESOURCE_ID_GEOMETRY_DEFORMED, 
                       __ZZN20ModuleGeometryBundle29RESOURCE_ID_TESSELLATION_MAPSEvE30_RESOURCE_ID_TESSELLATION_MAPS, 
                       __ZZN20ModuleGeometryBundle30RESOURCE_ID_SURFACE_PROPERTIESEvE31_RESOURCE_ID_SURFACE_PROPERTIES, 
                       __ZZN20ModuleGeometryBundle31RESOURCE_ID_GEOMETRY_PROPERTIESEvE32_RESOURCE_ID_GEOMETRY_PROPERTIES, 
                       __ZZN20ModuleGeometryBundle33RESOURCE_ID_DISPLACEMENT_TOPOLOGYEvE34_RESOURCE_ID_DISPLACEMENT_TOPOLOGY, 
                       __ZZN20ModuleGeometryBundle33RESOURCE_ID_TESSELLATION_DEFORMEDEvE34_RESOURCE_ID_TESSELLATION_DEFORMED, 
                       __ZZN20ModuleGeometryBundle33RESOURCE_ID_TESSELLATION_GEOMETRYEvE34_RESOURCE_ID_TESSELLATION_GEOMETRY, 
                       __ZZN20ModuleGeometryBundle33RESOURCE_ID_TESSELLATION_TOPOLOGYEvE34_RESOURCE_ID_TESSELLATION_TOPOLOGY, 
                       __ZZN20ModuleGeometryBundle35RESOURCE_ID_TESSELLATION_PROPERTIESEvE36_RESOURCE_ID_TESSELLATION_PROPERTIES, 
                       __ZZN20ModuleGeometryBundle37RESOURCE_ID_SURFACE_GEOMETRY_DEFORMEDEvE38_RESOURCE_ID_SURFACE_GEOMETRY_DEFORMED, 
                       __ZZN20ModuleGeometryBundle38RESOURCE_ID_DISPLACEMENT_GEOMETRY_BACKEvE39_RESOURCE_ID_DISPLACEMENT_GEOMETRY_BACK, 
                       __ZZN20ModuleGeometryBundle39RESOURCE_ID_DISPLACEMENT_GEOMETRY_FRONTEvE40_RESOURCE_ID_DISPLACEMENT_GEOMETRY_FRONT, 
                       __ZZN20ModuleGeometryBundle42RESOURCE_ID_TESSELLATION_GEOMETRY_DEFORMEDEvE43_RESOURCE_ID_TESSELLATION_GEOMETRY_DEFORMED ]
...
