--- !tapi-tbd
tbd-version:     4
targets:         [ arm64e-macos ]
install-name:    '/System/Library/PrivateFrameworks/CoreUSDEdit.framework/Versions/A/module/geometry_builtin.dylib'
current-version: 0
compatibility-version: 0
exports:
  - targets:         [ arm64e-macos ]
    symbols:         [ __Z24build_point_cloud_bboxesR10CoreVectorI10GMathBbox3IdEERK9CoreArrayI9GMathVec3IdEERKj, 
                       __ZN12FileSequence13init_filenameERK10CoreStringS2_, __ZN12FileSequence15detect_sequenceER8OfObject, 
                       __ZN12FileSequence22compute_new_image_pathER8OfObject, __ZN12FileSequence23get_min_max_frame_indexERiS0_, 
                       __ZN12FileSequence26detect_numbers_in_filenameEv, __ZN12FileSequence29convert_filename_sequence_tagER8OfObject, 
                       __ZN12FileSequenceC1Ev, __ZN12FileSequenceC2Ev, __ZN15GeometryPolybox18on_register_moduleER5OfAppR10CoreVectorIP7OfClassE, 
                       __ZN16GeometryPolyfile18on_register_moduleER5OfAppR10CoreVectorIP7OfClassE, 
                       __ZN16GeometryPolygrid18on_register_moduleER5OfAppR10CoreVectorIP7OfClassE, 
                       __ZN17GeometryVolumeBox18on_register_moduleER5OfAppR10CoreVectorIP7OfClassE, 
                       __ZN17UVSamplerResource10class_infoEv, __ZN17UVSamplerResource4initERK8OfObjectPS0_RKjS5_P11ModuleGroupR12UvBakeConfigR9GMathVec4IdE, 
                       __ZN18GeometryBoxBuiltin18on_register_moduleER5OfAppR10CoreVectorIP7OfClassE, 
                       __ZN18GeometryPointArray18on_register_moduleER5OfAppR10CoreVectorIP7OfClassE, 
                       __ZN18GeometryPolysphere18on_register_moduleER5OfAppR10CoreVectorIP7OfClassE, 
                       __ZN18GeometryVolumeFile18on_register_moduleER5OfAppR10CoreVectorIP7OfClassE, 
                       __ZN19GeometryConeBuiltin18on_register_moduleER5OfAppR10CoreVectorIP7OfClassE, 
                       __ZN19GeometryPointVolume18on_register_moduleER5OfAppR10CoreVectorIP7OfClassE, 
                       __ZN20GeometryPolycylinder18on_register_moduleER5OfAppR10CoreVectorIP7OfClassE, 
                       __ZN21GeometrySphereBuiltin18on_register_moduleER5OfAppR10CoreVectorIP7OfClassE, 
                       __ZN22GeometryCapsuleBuiltin18on_register_moduleER5OfAppR10CoreVectorIP7OfClassE, 
                       __ZN22GeometryPointUvSampler18on_register_moduleER5OfAppR10CoreVectorIP7OfClassE, 
                       __ZN22GeometrySceneItemCloud18on_register_moduleER5OfAppR10CoreVectorIP7OfClassE, 
                       __ZN23GeometryCylinderBuiltin18on_register_moduleER5OfAppR10CoreVectorIP7OfClassE, 
                       __ZN25GeometryParticleContainer18on_register_moduleER5OfAppR10CoreVectorIP7OfClassE, 
                       __ZN25GeometryPointCloudBuiltin18on_register_moduleER5OfAppR10CoreVectorIP7OfClassE, 
                       __ZN28_ModuleGeometryBoxCallbacks_10init_classER7OfClass, 
                       __ZN28_ModuleGeometryBoxCallbacks_12pre_paint_glER8OfObjectR10GlUtilsCtx, 
                       __ZN28_ModuleGeometryBoxCallbacks_15create_resourceER8OfObjectRKiPv, 
                       __ZN28_ModuleGeometryBoxCallbacks_15destroy_gl_dataER8OfObjectR12GlUtilsGlCtx, 
                       __ZN28_ModuleGeometryBoxCallbacks_18create_module_dataERK8OfObject, 
                       __ZN28_ModuleGeometryBoxCallbacks_19destroy_module_dataERK8OfObjectPv, 
                       __ZN28_ModuleGeometryBoxCallbacks_19on_attribute_changeER8OfObjectRK6OfAttrRiRKi, 
                       __ZN28_ModuleGeometryBoxCallbacks_8paint_glER8OfObjectR10GlUtilsCtx, 
                       __ZN29_ModuleGeometryConeCallbacks_10init_classER7OfClass, 
                       __ZN29_ModuleGeometryConeCallbacks_15create_resourceER8OfObjectRKiPv, 
                       __ZN31_ModuleGeometrySphereCallbacks_10init_classER7OfClass, 
                       __ZN31_ModuleGeometrySphereCallbacks_12pre_paint_glER8OfObjectR10GlUtilsCtx, 
                       __ZN31_ModuleGeometrySphereCallbacks_15create_resourceER8OfObjectRKiPv, 
                       __ZN31_ModuleGeometrySphereCallbacks_15destroy_gl_dataER8OfObjectR12GlUtilsGlCtx, 
                       __ZN31_ModuleGeometrySphereCallbacks_18create_module_dataERK8OfObject, 
                       __ZN31_ModuleGeometrySphereCallbacks_19destroy_module_dataERK8OfObjectPv, 
                       __ZN31_ModuleGeometrySphereCallbacks_19on_attribute_changeER8OfObjectRK6OfAttrRiRKi, 
                       __ZN31_ModuleGeometrySphereCallbacks_8paint_glER8OfObjectR10GlUtilsCtx, 
                       __ZN32_ModuleGeometryCapsuleCallbacks_10init_classER7OfClass, 
                       __ZN32_ModuleGeometryCapsuleCallbacks_15create_resourceER8OfObjectRKiPv, 
                       __ZN32_ModuleGeometryPolyboxCallbacks_10init_classER7OfClass, 
                       __ZN32_ModuleGeometryPolyboxCallbacks_15create_resourceER8OfObjectRKiPv, 
                       __ZN32_ModuleGeometryPolyboxCallbacks_18on_pre_deserializeER8OfObjectRK11CoreVersionR11ParserGroup, 
                       __ZN33_ModuleGeometryCylinderCallbacks_10init_classER7OfClass, 
                       __ZN33_ModuleGeometryCylinderCallbacks_15create_resourceER8OfObjectRKiPv, 
                       __ZN33_ModuleGeometryPolyfileCallbacks_10init_classER7OfClass, 
                       __ZN33_ModuleGeometryPolyfileCallbacks_15create_resourceER8OfObjectRKiPv, 
                       __ZN33_ModuleGeometryPolyfileCallbacks_18create_module_dataERK8OfObject, 
                       __ZN33_ModuleGeometryPolyfileCallbacks_19destroy_module_dataERK8OfObjectPv, 
                       __ZN33_ModuleGeometryPolyfileCallbacks_19on_attribute_changeER8OfObjectRK6OfAttrRiRKi, 
                       __ZN33_ModuleGeometryPolygridCallbacks_10init_classER7OfClass, 
                       __ZN33_ModuleGeometryPolygridCallbacks_15create_resourceER8OfObjectRKiPv, 
                       __ZN34_ModuleGeometryVolumeBoxCallbacks_10init_classER7OfClass, 
                       __ZN34_ModuleGeometryVolumeBoxCallbacks_15create_resourceER8OfObjectRKiPv, 
                       __ZN34_ModuleGeometryVolumeBoxCallbacks_19on_attribute_changeER8OfObjectRK6OfAttrRiRKi, 
                       __ZN34_ModuleGeometryVolumeBoxCallbacks_21on_deserialize_objectER8OfObjectRK11CoreVersionRK11ParserGroupRK15OfSerialOptions, 
                       __ZN35_ModuleGeometryPointArrayCallbacks_10init_classER7OfClass, 
                       __ZN35_ModuleGeometryPointArrayCallbacks_15create_resourceER8OfObjectRKiPv, 
                       __ZN35_ModuleGeometryPointArrayCallbacks_19on_attribute_changeER8OfObjectRK6OfAttrRiRKi, 
                       __ZN35_ModuleGeometryPointCloudCallbacks_10init_classER7OfClass, 
                       __ZN35_ModuleGeometryPointCloudCallbacks_15PtcSampleLoader13get_positionsERK17GMathTimeSamplingRKjP9GMathVec3IfE, 
                       __ZN35_ModuleGeometryPointCloudCallbacks_15create_resourceER8OfObjectRKiPv, 
                       __ZN35_ModuleGeometryPointCloudCallbacks_18ComputeSamplesTask15execution_entryERKj, 
                       __ZN35_ModuleGeometryPointCloudCallbacks_18create_module_dataERK8OfObject, 
                       __ZN35_ModuleGeometryPointCloudCallbacks_19DecimateSamplesTask15execution_entryERKj, 
                       __ZN35_ModuleGeometryPointCloudCallbacks_19destroy_module_dataERK8OfObjectPv, 
                       __ZN35_ModuleGeometryPointCloudCallbacks_19on_attribute_changeER8OfObjectRK6OfAttrRiRKi, 
                       __ZN35_ModuleGeometryPointCloudCallbacks_20ParticleSampleLoader4loadERK7CtxEvalRK17GMathTimeSamplingRKjP9GMathVec3IfEP14GMathMatrix4x4IdLb1EE, 
                       __ZN35_ModuleGeometryPointCloudCallbacks_20compute_positions_atERK7CtxEvalP14ModuleGeometryP17ModuleSceneObjectRK14CoreBasicArrayI25ModuleSceneObjectGeometryERKdP9GMathVec3IfE, 
                       __ZN35_ModuleGeometryPointCloudCallbacks_21get_geometry_overrideER8OfObjectRK22GeometryOverrideConfig, 
                       __ZN35_ModuleGeometryPointCloudCallbacks_21on_deserialize_objectER8OfObjectRK11CoreVersionRK11ParserGroupRK15OfSerialOptions, 
                       __ZN35_ModuleGeometryPointCloudCallbacks_24create_animated_geometryER8OfObjectP13ParticleCloudP24GeometryResourceOverride, 
                       __ZN35_ModuleGeometryPointCloudCallbacks_24create_resource_overrideER8OfObjectRKiR16GeometryOverridePv, 
                       __ZN35_ModuleGeometryPointCloudCallbacks_25create_reference_geometryER8OfObjectP24GeometryResourceOverride, 
                       __ZN35_ModuleGeometryPointCloudCallbacks_26ComputeDeformedSamplesTask15execution_entryERKj, 
                       __ZN35_ModuleGeometryPointCloudCallbacks_32get_geometry_attributes_overrideER8OfObjectRK22GeometryOverrideConfigR26GeometryAttributesOverride, 
                       __ZN35_ModuleGeometryPolysphereCallbacks_10init_classER7OfClass, 
                       __ZN35_ModuleGeometryPolysphereCallbacks_15create_resourceER8OfObjectRKiPv, 
                       __ZN35_ModuleGeometryPolysphereCallbacks_21on_deserialize_objectER8OfObjectRK11CoreVersionRK11ParserGroupRK15OfSerialOptions, 
                       __ZN35_ModuleGeometryVolumeFileCallbacks_10init_classER7OfClass, 
                       __ZN35_ModuleGeometryVolumeFileCallbacks_11on_new_timeER8OfObjectRKd, 
                       __ZN35_ModuleGeometryVolumeFileCallbacks_15create_resourceER8OfObjectRKiPv, 
                       __ZN35_ModuleGeometryVolumeFileCallbacks_16get_model_matrixER8OfObjectR14GMathMatrix4x4IdLb1EERKd, 
                       __ZN35_ModuleGeometryVolumeFileCallbacks_18create_module_dataERK8OfObject, 
                       __ZN35_ModuleGeometryVolumeFileCallbacks_18create_thread_dataERK8OfObjectRK7CtxEval, 
                       __ZN35_ModuleGeometryVolumeFileCallbacks_18module_constructorER8OfObjectP8OfModule, 
                       __ZN35_ModuleGeometryVolumeFileCallbacks_18on_openvdb_changedER5OfAppRKN11EventObject9EventInfoEPv, 
                       __ZN35_ModuleGeometryVolumeFileCallbacks_19destroy_module_dataERK8OfObjectPv, 
                       __ZN35_ModuleGeometryVolumeFileCallbacks_19destroy_thread_dataERK8OfObjectRK7CtxEvalPv, 
                       __ZN35_ModuleGeometryVolumeFileCallbacks_19on_attribute_changeER8OfObjectRK6OfAttrRiRKi, 
                       __ZN35_ModuleGeometryVolumeFileCallbacks_19on_exiting_clarisseER5OfAppRKN11EventObject9EventInfoEPv, 
                       __ZN35_ModuleGeometryVolumeFileCallbacks_23RESOURCE_ID_VOLUME_DATAEv, 
                       __ZN35_ModuleGeometryVolumeFileCallbacks_25on_pre_deserialize_objectERK11CoreVersionR11ParserGroup, 
                       __ZN35_ModuleGeometryVolumeFileCallbacks_35get_density_property_tag_candidatesERK8OfObjectRK6OfAttrR10CoreVectorI10CoreStringE, 
                       __ZN35_ModuleGeometryVolumeFileCallbacks_36get_velocity_property_tag_candidatesERK8OfObjectRK6OfAttrR10CoreVectorI10CoreStringE, 
                       __ZN36_ModuleGeometryPointVolumeCallbacks_10init_classER7OfClass, 
                       __ZN36_ModuleGeometryPointVolumeCallbacks_15create_resourceER8OfObjectRKiPv, 
                       __ZN36_ModuleGeometryPointVolumeCallbacks_19on_attribute_changeER8OfObjectRK6OfAttrRiRKi, 
                       __ZN37_ModuleGeometryPolycylinderCallbacks_10init_classER7OfClass, 
                       __ZN37_ModuleGeometryPolycylinderCallbacks_15create_resourceER8OfObjectRKiPv, 
                       __ZN39_ModuleGeometryPointUvSamplerCallbacks_10init_classER7OfClass, 
                       __ZN39_ModuleGeometryPointUvSamplerCallbacks_15create_resourceER8OfObjectRKiPv, 
                       __ZN39_ModuleGeometryPointUvSamplerCallbacks_18create_module_dataERK8OfObject, 
                       __ZN39_ModuleGeometryPointUvSamplerCallbacks_18module_constructorER8OfObjectP8OfModule, 
                       __ZN39_ModuleGeometryPointUvSamplerCallbacks_19destroy_module_dataERK8OfObjectPv, 
                       __ZN39_ModuleGeometryPointUvSamplerCallbacks_19on_attribute_changeER8OfObjectRK6OfAttrRiRKi, 
                       __ZN39_ModuleGeometryPointUvSamplerCallbacks_22RESOURCE_ID_UV_SAMPLEREv, 
                       __ZN39_ModuleGeometrySceneItemCloudCallbacks_10init_classER7OfClass, 
                       __ZN39_ModuleGeometrySceneItemCloudCallbacks_12pre_paint_glER8OfObjectR10GlUtilsCtx, 
                       __ZN39_ModuleGeometrySceneItemCloudCallbacks_15create_resourceER8OfObjectRKiPv, 
                       __ZN39_ModuleGeometrySceneItemCloudCallbacks_15destroy_gl_dataER8OfObjectR12GlUtilsGlCtx, 
                       __ZN39_ModuleGeometrySceneItemCloudCallbacks_18create_module_dataERK8OfObject, 
                       __ZN39_ModuleGeometrySceneItemCloudCallbacks_18on_resource_updateER8OfObjectRKiPK12ResourceData, 
                       __ZN39_ModuleGeometrySceneItemCloudCallbacks_19destroy_module_dataERK8OfObjectPv, 
                       __ZN39_ModuleGeometrySceneItemCloudCallbacks_19on_attribute_changeER8OfObjectRK6OfAttrRiRKi, 
                       __ZN39_ModuleGeometrySceneItemCloudCallbacks_8paint_glER8OfObjectR10GlUtilsCtx, 
                       __ZNK17UVSamplerResource11get_samplesER14CoreBasicArrayI9GMathVec2IdEE, 
                       __ZNK17UVSamplerResource15get_memory_sizeEv, __ZTI17UVSamplerResource, 
                       __ZTIN35_ModuleGeometryPointCloudCallbacks_15PtcSampleLoaderE, 
                       __ZTIN35_ModuleGeometryPointCloudCallbacks_18ComputeSamplesTaskE, 
                       __ZTIN35_ModuleGeometryPointCloudCallbacks_19DecimateSamplesTaskE, 
                       __ZTIN35_ModuleGeometryPointCloudCallbacks_20ParticleSampleLoaderE, 
                       __ZTIN35_ModuleGeometryPointCloudCallbacks_26ComputeDeformedSamplesTaskE, 
                       __ZTS17UVSamplerResource, __ZTSN35_ModuleGeometryPointCloudCallbacks_15PtcSampleLoaderE, 
                       __ZTSN35_ModuleGeometryPointCloudCallbacks_18ComputeSamplesTaskE, 
                       __ZTSN35_ModuleGeometryPointCloudCallbacks_19DecimateSamplesTaskE, 
                       __ZTSN35_ModuleGeometryPointCloudCallbacks_20ParticleSampleLoaderE, 
                       __ZTSN35_ModuleGeometryPointCloudCallbacks_26ComputeDeformedSamplesTaskE, 
                       __ZTV17UVSamplerResource, __ZTVN35_ModuleGeometryPointCloudCallbacks_15PtcSampleLoaderE, 
                       __ZTVN35_ModuleGeometryPointCloudCallbacks_18ComputeSamplesTaskE, 
                       __ZTVN35_ModuleGeometryPointCloudCallbacks_19DecimateSamplesTaskE, 
                       __ZTVN35_ModuleGeometryPointCloudCallbacks_20ParticleSampleLoaderE, 
                       __ZTVN35_ModuleGeometryPointCloudCallbacks_26ComputeDeformedSamplesTaskE, 
                       _on_register_module ]
    weak-symbols:    [ __ZGVZN14CoreLogHandler12main_handlerEvE18s_main_log_handler, 
                       __ZGVZN14ModuleGeometry19RESOURCE_ID_SURFACEEvE20_RESOURCE_ID_SURFACE, 
                       __ZGVZN14ModuleGeometry20RESOURCE_ID_GEOMETRYEvE21_RESOURCE_ID_GEOMETRY, 
                       __ZGVZN14ModuleGeometry24RESOURCE_ID_TESSELLATIONEvE25_RESOURCE_ID_TESSELLATION, 
                       __ZGVZN14ModuleGeometry26RESOURCE_ID_HARPE_GEOMETRYEvE27_RESOURCE_ID_HARPE_GEOMETRY, 
                       __ZGVZN14ModuleGeometry28RESOURCE_ID_HARPE_GAS_OPAQUEEvE29_RESOURCE_ID_HARPE_GAS_OPAQUE, 
                       __ZGVZN14ModuleGeometry28RESOURCE_ID_SURFACE_DEFORMEDEvE29_RESOURCE_ID_SURFACE_DEFORMED, 
                       __ZGVZN14ModuleGeometry29RESOURCE_ID_GEOMETRY_ANIMATEDEvE30_RESOURCE_ID_GEOMETRY_ANIMATED, 
                       __ZGVZN14ModuleGeometry29RESOURCE_ID_GEOMETRY_DEFORMEDEvE30_RESOURCE_ID_GEOMETRY_DEFORMED, 
                       __ZGVZN14ModuleGeometry31RESOURCE_ID_GEOMETRY_PROPERTIESEvE32_RESOURCE_ID_GEOMETRY_PROPERTIES, 
                       __ZGVZN14ModuleGeometry33RESOURCE_ID_HARPE_GAS_TRANSPARENTEvE34_RESOURCE_ID_HARPE_GAS_TRANSPARENT, 
                       __ZGVZN14ModuleGeometry33RESOURCE_ID_TESSELLATION_DEFORMEDEvE34_RESOURCE_ID_TESSELLATION_DEFORMED, 
                       __ZGVZN14ModuleGeometry39RESOURCE_ID_DISPLACEMENT_GEOMETRY_FRONTEvE40_RESOURCE_ID_DISPLACEMENT_GEOMETRY_FRONT, 
                       __ZGVZN16OfBaseItemHandleILb0EE10class_infoEvE10class_info, 
                       __ZGVZN18OfBaseObjectHandleILb0EE10class_infoEvE10class_info, 
                       __ZN11ImageSampleIdEC1ERKjS2_RKdS4_S4_S4_, __ZN11ImageSampleIdEC1Ev, 
                       __ZN11ImageSampleIdEC2ERKjS2_RKdS4_S4_S4_, __ZN11ImageSampleIdEC2Ev, 
                       __ZN11ImageSampleIfEC1ERKjS2_RKfS4_S4_S4_, __ZN11ImageSampleIfEC1Ev, 
                       __ZN11ImageSampleIfEC2ERKjS2_RKfS4_S4_S4_, __ZN11ImageSampleIfEC2Ev, 
                       __ZZN14CoreLogHandler12main_handlerEvE18s_main_log_handler, 
                       __ZZN14ModuleGeometry19RESOURCE_ID_SURFACEEvE20_RESOURCE_ID_SURFACE, 
                       __ZZN14ModuleGeometry20RESOURCE_ID_GEOMETRYEvE21_RESOURCE_ID_GEOMETRY, 
                       __ZZN14ModuleGeometry24RESOURCE_ID_TESSELLATIONEvE25_RESOURCE_ID_TESSELLATION, 
                       __ZZN14ModuleGeometry26RESOURCE_ID_HARPE_GEOMETRYEvE27_RESOURCE_ID_HARPE_GEOMETRY, 
                       __ZZN14ModuleGeometry28RESOURCE_ID_HARPE_GAS_OPAQUEEvE29_RESOURCE_ID_HARPE_GAS_OPAQUE, 
                       __ZZN14ModuleGeometry28RESOURCE_ID_SURFACE_DEFORMEDEvE29_RESOURCE_ID_SURFACE_DEFORMED, 
                       __ZZN14ModuleGeometry29RESOURCE_ID_GEOMETRY_ANIMATEDEvE30_RESOURCE_ID_GEOMETRY_ANIMATED, 
                       __ZZN14ModuleGeometry29RESOURCE_ID_GEOMETRY_DEFORMEDEvE30_RESOURCE_ID_GEOMETRY_DEFORMED, 
                       __ZZN14ModuleGeometry31RESOURCE_ID_GEOMETRY_PROPERTIESEvE32_RESOURCE_ID_GEOMETRY_PROPERTIES, 
                       __ZZN14ModuleGeometry33RESOURCE_ID_HARPE_GAS_TRANSPARENTEvE34_RESOURCE_ID_HARPE_GAS_TRANSPARENT, 
                       __ZZN14ModuleGeometry33RESOURCE_ID_TESSELLATION_DEFORMEDEvE34_RESOURCE_ID_TESSELLATION_DEFORMED, 
                       __ZZN14ModuleGeometry39RESOURCE_ID_DISPLACEMENT_GEOMETRY_FRONTEvE40_RESOURCE_ID_DISPLACEMENT_GEOMETRY_FRONT, 
                       __ZZN16OfBaseItemHandleILb0EE10class_infoEvE10class_info, 
                       __ZZN18OfBaseObjectHandleILb0EE10class_infoEvE10class_info ]
...
