--- !tapi-tbd
tbd-version:     4
targets:         [ arm64e-macos ]
install-name:    '/System/Library/PrivateFrameworks/CoreUSDEdit.framework/Versions/A/module/geometry_polymesh.dylib'
current-version: 0
compatibility-version: 0
exports:
  - targets:         [ arm64e-macos ]
    symbols:         [ __ZN33_ModuleGeometryPolymeshCallbacks_10init_classER7OfClass, 
                       __ZN33_ModuleGeometryPolymeshCallbacks_14declare_moduleER8OfObjectR15OfObjectFactory, 
                       __ZN33_ModuleGeometryPolymeshCallbacks_14destroy_moduleER8OfObjectR15OfObjectFactoryP8OfModule, 
                       __ZN33_ModuleGeometryPolymeshCallbacks_15create_resourceER8OfObjectRKiPv, 
                       __ZN33_ModuleGeometryPolymeshCallbacks_17set_resource_dataER8OfObjectRKiPvRKmRK10CoreString, 
                       __ZN33_ModuleGeometryPolymeshCallbacks_18create_surface_osdER8OfObjectP15OsdMeshTopologyPK15OsdMeshGeometryP11OsdMeshMapsPK8PolyMesh, 
                       __ZN33_ModuleGeometryPolymeshCallbacks_18create_surface_sdsER8OfObjectPK11SdsMeshMapsPK15SdsMeshGeometry, 
                       __ZN33_ModuleGeometryPolymeshCallbacks_18on_resource_updateER8OfObjectRKiPK12ResourceData, 
                       __ZN33_ModuleGeometryPolymeshCallbacks_19create_tessellationER8OfObjectPK24TessellationMeshGeometryPK20TessellationMeshMaps, 
                       __ZN33_ModuleGeometryPolymeshCallbacks_19on_attribute_changeER8OfObjectRK6OfAttrRiRKi, 
                       __ZN33_ModuleGeometryPolymeshCallbacks_20get_subdivision_modeERK8OfObject, 
                       __ZN33_ModuleGeometryPolymeshCallbacks_23create_surface_maps_osdER8OfObjectPK8PolyMesh, 
                       __ZN33_ModuleGeometryPolymeshCallbacks_23create_surface_maps_sdsER8OfObjectPK8PolyMeshPK11SdsMeshBase, 
                       __ZN33_ModuleGeometryPolymeshCallbacks_24create_geometry_smoothedER8OfObjectPK8PolyMesh, 
                       __ZN33_ModuleGeometryPolymeshCallbacks_24create_resource_overrideER8OfObjectRKiR16GeometryOverridePv, 
                       __ZN33_ModuleGeometryPolymeshCallbacks_24create_tessellation_mapsER8OfObjectPK20TessellationMeshBasePK11SdsMeshMaps, 
                       __ZN33_ModuleGeometryPolymeshCallbacks_24setup_deformed_resourcesER8OfObjectRKj, 
                       __ZN33_ModuleGeometryPolymeshCallbacks_27create_surface_deformed_osdER8OfObjectPK15OsdMeshGeometryPK11OsdMeshMapsP7OsdMesh, 
                       __ZN33_ModuleGeometryPolymeshCallbacks_27create_surface_deformed_sdsER8OfObjectPK11SdsMeshMapsPK15SdsMeshGeometry, 
                       __ZN33_ModuleGeometryPolymeshCallbacks_27create_surface_geometry_osdER8OfObjectPK8PolyMesh, 
                       __ZN33_ModuleGeometryPolymeshCallbacks_27create_surface_geometry_sdsER8OfObjectPK8PolyMeshPK11SdsMeshBase, 
                       __ZN33_ModuleGeometryPolymeshCallbacks_27create_surface_topology_osdER8OfObjectPK8PolyMesh, 
                       __ZN33_ModuleGeometryPolymeshCallbacks_27create_surface_topology_sdsER8OfObjectPK8PolyMesh, 
                       __ZN33_ModuleGeometryPolymeshCallbacks_28create_tessellation_deformedER8OfObjectPK24TessellationMeshGeometryPK20TessellationMeshMaps, 
                       __ZN33_ModuleGeometryPolymeshCallbacks_28create_tessellation_geometryER8OfObjectPK20TessellationMeshBasePK15SdsMeshGeometry, 
                       __ZN33_ModuleGeometryPolymeshCallbacks_28create_tessellation_topologyER8OfObjectPK11SdsMeshBase, 
                       __ZN33_ModuleGeometryPolymeshCallbacks_29create_surface_properties_osdER8OfObjectPK26GeometryPropertyCollectionPK7OsdMesh, 
                       __ZN33_ModuleGeometryPolymeshCallbacks_29create_surface_properties_sdsER8OfObjectPK26GeometryPropertyCollectionPK7SdsMesh, 
                       __ZN33_ModuleGeometryPolymeshCallbacks_30create_tessellation_propertiesER8OfObjectPK26GeometryPropertyCollectionPK16TessellationMesh, 
                       __ZN33_ModuleGeometryPolymeshCallbacks_33create_geometry_smoothed_deformedER8OfObjectPK8PolyMesh, 
                       __ZN33_ModuleGeometryPolymeshCallbacks_36create_surface_geometry_deformed_osdER8OfObjectPK8PolyMesh, 
                       __ZN33_ModuleGeometryPolymeshCallbacks_36create_surface_geometry_deformed_sdsER8OfObjectPK8PolyMeshPK11SdsMeshBase, 
                       __ZN33_ModuleGeometryPolymeshCallbacks_37create_tessellation_geometry_deformedER8OfObjectPK20TessellationMeshBasePK15SdsMeshGeometry, 
                       __ZN33_ModuleGeometryPolymeshCallbacks_44on_project_geometry_subdivision_mode_changedER5OfAppRKN11EventObject9EventInfoEPv, 
                       __ZN33_ModuleGeometryPolymeshCallbacks_45get_subdivision_level_property_tag_candidatesERK8OfObjectRK6OfAttrR10CoreVectorI10CoreStringER9CoreArrayIbE, 
                       _on_register_module ]
    weak-symbols:    [ __ZGVZN14CoreLogHandler12main_handlerEvE18s_main_log_handler, 
                       __ZGVZN14ModuleGeometry19RESOURCE_ID_SURFACEEvE20_RESOURCE_ID_SURFACE, 
                       __ZGVZN14ModuleGeometry20RESOURCE_ID_GEOMETRYEvE21_RESOURCE_ID_GEOMETRY, 
                       __ZGVZN14ModuleGeometry24RESOURCE_ID_TESSELLATIONEvE25_RESOURCE_ID_TESSELLATION, 
                       __ZGVZN14ModuleGeometry28RESOURCE_ID_SURFACE_DEFORMEDEvE29_RESOURCE_ID_SURFACE_DEFORMED, 
                       __ZGVZN14ModuleGeometry29RESOURCE_ID_GEOMETRY_ANIMATEDEvE30_RESOURCE_ID_GEOMETRY_ANIMATED, 
                       __ZGVZN14ModuleGeometry29RESOURCE_ID_GEOMETRY_DEFORMEDEvE30_RESOURCE_ID_GEOMETRY_DEFORMED, 
                       __ZGVZN14ModuleGeometry29RESOURCE_ID_GEOMETRY_SMOOTHEDEvE30_RESOURCE_ID_GEOMETRY_SMOOTHED, 
                       __ZGVZN14ModuleGeometry30RESOURCE_ID_SURFACE_PROPERTIESEvE31_RESOURCE_ID_SURFACE_PROPERTIES, 
                       __ZGVZN14ModuleGeometry31RESOURCE_ID_GEOMETRY_PROPERTIESEvE32_RESOURCE_ID_GEOMETRY_PROPERTIES, 
                       __ZGVZN14ModuleGeometry33RESOURCE_ID_TESSELLATION_DEFORMEDEvE34_RESOURCE_ID_TESSELLATION_DEFORMED, 
                       __ZGVZN14ModuleGeometry35RESOURCE_ID_TESSELLATION_PROPERTIESEvE36_RESOURCE_ID_TESSELLATION_PROPERTIES, 
                       __ZGVZN14ModuleGeometry38RESOURCE_ID_GEOMETRY_SMOOTHED_DEFORMEDEvE39_RESOURCE_ID_GEOMETRY_SMOOTHED_DEFORMED, 
                       __ZGVZN16OfBaseItemHandleILb0EE10class_infoEvE10class_info, 
                       __ZGVZN18OfBaseObjectHandleILb0EE10class_infoEvE10class_info, 
                       __ZGVZN33_ModuleGeometryPolymeshCallbacks_24RESOURCE_ID_SURFACE_MAPSEvE25_RESOURCE_ID_SURFACE_MAPS, 
                       __ZGVZN33_ModuleGeometryPolymeshCallbacks_28RESOURCE_ID_SURFACE_GEOMETRYEvE29_RESOURCE_ID_SURFACE_GEOMETRY, 
                       __ZGVZN33_ModuleGeometryPolymeshCallbacks_28RESOURCE_ID_SURFACE_TOPOLOGYEvE29_RESOURCE_ID_SURFACE_TOPOLOGY, 
                       __ZGVZN33_ModuleGeometryPolymeshCallbacks_29RESOURCE_ID_TESSELLATION_MAPSEvE30_RESOURCE_ID_TESSELLATION_MAPS, 
                       __ZGVZN33_ModuleGeometryPolymeshCallbacks_33RESOURCE_ID_TESSELLATION_GEOMETRYEvE34_RESOURCE_ID_TESSELLATION_GEOMETRY, 
                       __ZGVZN33_ModuleGeometryPolymeshCallbacks_33RESOURCE_ID_TESSELLATION_TOPOLOGYEvE34_RESOURCE_ID_TESSELLATION_TOPOLOGY, 
                       __ZGVZN33_ModuleGeometryPolymeshCallbacks_37RESOURCE_ID_SURFACE_GEOMETRY_DEFORMEDEvE38_RESOURCE_ID_SURFACE_GEOMETRY_DEFORMED, 
                       __ZGVZN33_ModuleGeometryPolymeshCallbacks_42RESOURCE_ID_TESSELLATION_GEOMETRY_DEFORMEDEvE43_RESOURCE_ID_TESSELLATION_GEOMETRY_DEFORMED, 
                       __ZN17BundleMeshHelpers21validate_rule_max_osdERK6OfAttrRlPv, 
                       __ZN17BundleMeshHelpers21validate_rule_min_osdERK6OfAttrRlPv, 
                       __ZN17BundleMeshHelpers24validate_rule_max_subdivERK6OfAttrRlPv, 
                       __ZN17BundleMeshHelpers24validate_rule_min_subdivERK6OfAttrRlPv, 
                       __ZZN14CoreLogHandler12main_handlerEvE18s_main_log_handler, 
                       __ZZN14ModuleGeometry19RESOURCE_ID_SURFACEEvE20_RESOURCE_ID_SURFACE, 
                       __ZZN14ModuleGeometry20RESOURCE_ID_GEOMETRYEvE21_RESOURCE_ID_GEOMETRY, 
                       __ZZN14ModuleGeometry24RESOURCE_ID_TESSELLATIONEvE25_RESOURCE_ID_TESSELLATION, 
                       __ZZN14ModuleGeometry28RESOURCE_ID_SURFACE_DEFORMEDEvE29_RESOURCE_ID_SURFACE_DEFORMED, 
                       __ZZN14ModuleGeometry29RESOURCE_ID_GEOMETRY_ANIMATEDEvE30_RESOURCE_ID_GEOMETRY_ANIMATED, 
                       __ZZN14ModuleGeometry29RESOURCE_ID_GEOMETRY_DEFORMEDEvE30_RESOURCE_ID_GEOMETRY_DEFORMED, 
                       __ZZN14ModuleGeometry29RESOURCE_ID_GEOMETRY_SMOOTHEDEvE30_RESOURCE_ID_GEOMETRY_SMOOTHED, 
                       __ZZN14ModuleGeometry30RESOURCE_ID_SURFACE_PROPERTIESEvE31_RESOURCE_ID_SURFACE_PROPERTIES, 
                       __ZZN14ModuleGeometry31RESOURCE_ID_GEOMETRY_PROPERTIESEvE32_RESOURCE_ID_GEOMETRY_PROPERTIES, 
                       __ZZN14ModuleGeometry33RESOURCE_ID_TESSELLATION_DEFORMEDEvE34_RESOURCE_ID_TESSELLATION_DEFORMED, 
                       __ZZN14ModuleGeometry35RESOURCE_ID_TESSELLATION_PROPERTIESEvE36_RESOURCE_ID_TESSELLATION_PROPERTIES, 
                       __ZZN14ModuleGeometry38RESOURCE_ID_GEOMETRY_SMOOTHED_DEFORMEDEvE39_RESOURCE_ID_GEOMETRY_SMOOTHED_DEFORMED, 
                       __ZZN16OfBaseItemHandleILb0EE10class_infoEvE10class_info, 
                       __ZZN18OfBaseObjectHandleILb0EE10class_infoEvE10class_info, 
                       __ZZN33_ModuleGeometryPolymeshCallbacks_24RESOURCE_ID_SURFACE_MAPSEvE25_RESOURCE_ID_SURFACE_MAPS, 
                       __ZZN33_ModuleGeometryPolymeshCallbacks_28RESOURCE_ID_SURFACE_GEOMETRYEvE29_RESOURCE_ID_SURFACE_GEOMETRY, 
                       __ZZN33_ModuleGeometryPolymeshCallbacks_28RESOURCE_ID_SURFACE_TOPOLOGYEvE29_RESOURCE_ID_SURFACE_TOPOLOGY, 
                       __ZZN33_ModuleGeometryPolymeshCallbacks_29RESOURCE_ID_TESSELLATION_MAPSEvE30_RESOURCE_ID_TESSELLATION_MAPS, 
                       __ZZN33_ModuleGeometryPolymeshCallbacks_33RESOURCE_ID_TESSELLATION_GEOMETRYEvE34_RESOURCE_ID_TESSELLATION_GEOMETRY, 
                       __ZZN33_ModuleGeometryPolymeshCallbacks_33RESOURCE_ID_TESSELLATION_TOPOLOGYEvE34_RESOURCE_ID_TESSELLATION_TOPOLOGY, 
                       __ZZN33_ModuleGeometryPolymeshCallbacks_37RESOURCE_ID_SURFACE_GEOMETRY_DEFORMEDEvE38_RESOURCE_ID_SURFACE_GEOMETRY_DEFORMED, 
                       __ZZN33_ModuleGeometryPolymeshCallbacks_42RESOURCE_ID_TESSELLATION_GEOMETRY_DEFORMEDEvE43_RESOURCE_ID_TESSELLATION_GEOMETRY_DEFORMED ]
...
