--- !tapi-tbd
tbd-version:     4
targets:         [ arm64e-macos ]
install-name:    '/System/Library/PrivateFrameworks/CoreUSDEdit.framework/Versions/A/module/geometry.dylib'
current-version: 0
compatibility-version: 0
exports:
  - targets:         [ arm64e-macos ]
    symbols:         [ __ZN14HrpMeshBuilder15build_displacedER13HrpMeshHandleP11objc_objectPK14GeometryObjectRK5OfApp, 
                       __ZN14HrpMeshBuilder5buildER13HrpMeshHandleP11objc_objectPK14GeometryObject, 
                       __ZN25_ModuleGeometryCallbacks_10create_gasER24GeometryResourceOverride, 
                       __ZN25_ModuleGeometryCallbacks_10create_gasER8OfObjectPK14GeometryObjectS4_PK16DisplacementMeshS7_, 
                       __ZN25_ModuleGeometryCallbacks_10init_classER7OfClass, __ZN25_ModuleGeometryCallbacks_11frustum_hitER8OfObjectRK7CtxEvalR9CtxShaderR18GeometryFrustumCtx, 
                       __ZN25_ModuleGeometryCallbacks_12get_clustersERK17ModuleSceneObjectP16GeometryOverrideR10CoreVectorIPvERKjRKf, 
                       __ZN25_ModuleGeometryCallbacks_14declare_moduleER8OfObjectR15OfObjectFactory, 
                       __ZN25_ModuleGeometryCallbacks_14destroy_moduleER8OfObjectR15OfObjectFactoryP8OfModule, 
                       __ZN25_ModuleGeometryCallbacks_15create_resourceER8OfObjectRKiPv, 
                       __ZN25_ModuleGeometryCallbacks_15ray_frustum_hitER8OfObjectRK7CtxEvalR9CtxShaderR21GeometryRayFrustumCtx, 
                       __ZN25_ModuleGeometryCallbacks_15ray_hit_nearestER8OfObjectRK7CtxEvalR9CtxShaderR19GeometryRaytraceCtx, 
                       __ZN25_ModuleGeometryCallbacks_18module_constructorER8OfObjectP8OfModule, 
                       __ZN25_ModuleGeometryCallbacks_19get_clusters_bboxesERK17ModuleSceneObjectP16GeometryOverrideRK14CoreBasicArrayIPvEP10GMathBbox3IfE, 
                       __ZN25_ModuleGeometryCallbacks_19on_attribute_changeER8OfObjectRK6OfAttrRiRKi, 
                       __ZN25_ModuleGeometryCallbacks_20get_clusters_weightsERK17ModuleSceneObjectP16GeometryOverrideRK14CoreBasicArrayIPvEPf, 
                       __ZN25_ModuleGeometryCallbacks_21get_geometry_overrideER8OfObjectRK22GeometryOverrideConfig, 
                       __ZN25_ModuleGeometryCallbacks_21on_deserialize_objectER8OfObjectRK11CoreVersionRK11ParserGroupRK15OfSerialOptions, 
                       __ZN25_ModuleGeometryCallbacks_22get_clusters_bboxes_atERK17ModuleSceneObjectP16GeometryOverrideRK7CtxEvalRKdRK14CoreBasicArrayIPvEP10GMathBbox3IfE, 
                       __ZN25_ModuleGeometryCallbacks_24create_displacement_backER8OfObjectPK14GeometryObjectS4_PK24DisplacementMeshTopologyRK14CoreBasicArrayIP18ModuleDisplacementE, 
                       __ZN25_ModuleGeometryCallbacks_24create_resource_overrideER8OfObjectRKiR16GeometryOverridePv, 
                       __ZN25_ModuleGeometryCallbacks_25create_displacement_frontER8OfObjectPK14GeometryObjectS4_PK24DisplacementMeshTopologyRK14CoreBasicArrayIP18ModuleDisplacementE, 
                       __ZN25_ModuleGeometryCallbacks_25on_pre_deserialize_objectERK11CoreVersionR11ParserGroup, 
                       __ZN25_ModuleGeometryCallbacks_28create_displacement_topologyER8OfObjectPK14GeometryObjectS4_, 
                       __ZN25_ModuleGeometryCallbacks_7ray_hitER8OfObjectRK7CtxEvalR9CtxShaderR19GeometryRaytraceCtx, 
                       _on_register_module ]
    weak-symbols:    [ __ZGVZN14ModuleGeometry15RESOURCE_ID_GASEvE16_RESOURCE_ID_GAS, 
                       __ZGVZN14ModuleGeometry19RESOURCE_ID_SURFACEEvE20_RESOURCE_ID_SURFACE, 
                       __ZGVZN14ModuleGeometry20RESOURCE_ID_GEOMETRYEvE21_RESOURCE_ID_GEOMETRY, 
                       __ZGVZN14ModuleGeometry24RESOURCE_ID_TESSELLATIONEvE25_RESOURCE_ID_TESSELLATION, 
                       __ZGVZN14ModuleGeometry26RESOURCE_ID_HARPE_GEOMETRYEvE27_RESOURCE_ID_HARPE_GEOMETRY, 
                       __ZGVZN14ModuleGeometry28RESOURCE_ID_HARPE_GAS_OPAQUEEvE29_RESOURCE_ID_HARPE_GAS_OPAQUE, 
                       __ZGVZN14ModuleGeometry28RESOURCE_ID_SURFACE_DEFORMEDEvE29_RESOURCE_ID_SURFACE_DEFORMED, 
                       __ZGVZN14ModuleGeometry29RESOURCE_ID_GEOMETRY_ANIMATEDEvE30_RESOURCE_ID_GEOMETRY_ANIMATED, 
                       __ZGVZN14ModuleGeometry29RESOURCE_ID_GEOMETRY_DEFORMEDEvE30_RESOURCE_ID_GEOMETRY_DEFORMED, 
                       __ZGVZN14ModuleGeometry30RESOURCE_ID_SURFACE_PROPERTIESEvE31_RESOURCE_ID_SURFACE_PROPERTIES, 
                       __ZGVZN14ModuleGeometry31RESOURCE_ID_GEOMETRY_PROPERTIESEvE32_RESOURCE_ID_GEOMETRY_PROPERTIES, 
                       __ZGVZN14ModuleGeometry33RESOURCE_ID_DISPLACEMENT_TOPOLOGYEvE34_RESOURCE_ID_DISPLACEMENT_TOPOLOGY, 
                       __ZGVZN14ModuleGeometry33RESOURCE_ID_HARPE_GAS_TRANSPARENTEvE34_RESOURCE_ID_HARPE_GAS_TRANSPARENT, 
                       __ZGVZN14ModuleGeometry33RESOURCE_ID_TESSELLATION_DEFORMEDEvE34_RESOURCE_ID_TESSELLATION_DEFORMED, 
                       __ZGVZN14ModuleGeometry35RESOURCE_ID_TESSELLATION_PROPERTIESEvE36_RESOURCE_ID_TESSELLATION_PROPERTIES, 
                       __ZGVZN14ModuleGeometry36RESOURCE_ID_HARPE_GEOMETRY_DISPLACEDEvE37_RESOURCE_ID_HARPE_GEOMETRY_DISPLACED, 
                       __ZGVZN14ModuleGeometry38RESOURCE_ID_DISPLACEMENT_GEOMETRY_BACKEvE39_RESOURCE_ID_DISPLACEMENT_GEOMETRY_BACK, 
                       __ZGVZN14ModuleGeometry39RESOURCE_ID_DISPLACEMENT_GEOMETRY_FRONTEvE40_RESOURCE_ID_DISPLACEMENT_GEOMETRY_FRONT, 
                       __ZZN14ModuleGeometry15RESOURCE_ID_GASEvE16_RESOURCE_ID_GAS, 
                       __ZZN14ModuleGeometry19RESOURCE_ID_SURFACEEvE20_RESOURCE_ID_SURFACE, 
                       __ZZN14ModuleGeometry20RESOURCE_ID_GEOMETRYEvE21_RESOURCE_ID_GEOMETRY, 
                       __ZZN14ModuleGeometry24RESOURCE_ID_TESSELLATIONEvE25_RESOURCE_ID_TESSELLATION, 
                       __ZZN14ModuleGeometry26RESOURCE_ID_HARPE_GEOMETRYEvE27_RESOURCE_ID_HARPE_GEOMETRY, 
                       __ZZN14ModuleGeometry28RESOURCE_ID_HARPE_GAS_OPAQUEEvE29_RESOURCE_ID_HARPE_GAS_OPAQUE, 
                       __ZZN14ModuleGeometry28RESOURCE_ID_SURFACE_DEFORMEDEvE29_RESOURCE_ID_SURFACE_DEFORMED, 
                       __ZZN14ModuleGeometry29RESOURCE_ID_GEOMETRY_ANIMATEDEvE30_RESOURCE_ID_GEOMETRY_ANIMATED, 
                       __ZZN14ModuleGeometry29RESOURCE_ID_GEOMETRY_DEFORMEDEvE30_RESOURCE_ID_GEOMETRY_DEFORMED, 
                       __ZZN14ModuleGeometry30RESOURCE_ID_SURFACE_PROPERTIESEvE31_RESOURCE_ID_SURFACE_PROPERTIES, 
                       __ZZN14ModuleGeometry31RESOURCE_ID_GEOMETRY_PROPERTIESEvE32_RESOURCE_ID_GEOMETRY_PROPERTIES, 
                       __ZZN14ModuleGeometry33RESOURCE_ID_DISPLACEMENT_TOPOLOGYEvE34_RESOURCE_ID_DISPLACEMENT_TOPOLOGY, 
                       __ZZN14ModuleGeometry33RESOURCE_ID_HARPE_GAS_TRANSPARENTEvE34_RESOURCE_ID_HARPE_GAS_TRANSPARENT, 
                       __ZZN14ModuleGeometry33RESOURCE_ID_TESSELLATION_DEFORMEDEvE34_RESOURCE_ID_TESSELLATION_DEFORMED, 
                       __ZZN14ModuleGeometry35RESOURCE_ID_TESSELLATION_PROPERTIESEvE36_RESOURCE_ID_TESSELLATION_PROPERTIES, 
                       __ZZN14ModuleGeometry36RESOURCE_ID_HARPE_GEOMETRY_DISPLACEDEvE37_RESOURCE_ID_HARPE_GEOMETRY_DISPLACED, 
                       __ZZN14ModuleGeometry38RESOURCE_ID_DISPLACEMENT_GEOMETRY_BACKEvE39_RESOURCE_ID_DISPLACEMENT_GEOMETRY_BACK, 
                       __ZZN14ModuleGeometry39RESOURCE_ID_DISPLACEMENT_GEOMETRY_FRONTEvE40_RESOURCE_ID_DISPLACEMENT_GEOMETRY_FRONT ]
...
