--- !tapi-tbd
tbd-version:     4
targets:         [ arm64e-macos ]
install-name:    '/System/Library/PrivateFrameworks/CoreUSDEdit.framework/Versions/A/module/harpe.dylib'
current-version: 0
compatibility-version: 0
exports:
  - targets:         [ arm64e-macos ]
    symbols:         [ __Z14register_layerR5OfAppR10CoreVectorIP7OfClassE, __ZN14HrpCryptomatte13set_materialsERK14CoreBasicArrayI10CoreStringE, 
                       __ZN14HrpCryptomatte17set_scene_objectsERK14CoreBasicArrayI10CoreStringE, 
                       __ZN17HrpRenderDelegate10sync_curveERK14HrpGeometryKeyR17HrpGeometryHandlejb, 
                       __ZN17HrpRenderDelegate11dirty_lightE17R2cItemDescriptorRKi, 
                       __ZN17HrpRenderDelegate11filter_aovsE14CoreBasicArrayIP16ModuleR2cAovItemE12RenderTargetjb, 
                       __ZN17HrpRenderDelegate11sync_cameraEj, __ZN17HrpRenderDelegate12FunctionSlot6updateEP17HrpMaterialHandleb, 
                       __ZN17HrpRenderDelegate12FunctionSlot7releaseEv, __ZN17HrpRenderDelegate12dirty_cameraEv, 
                       __ZN17HrpRenderDelegate12dirty_shaderE17R2cItemDescriptorRKi, 
                       __ZN17HrpRenderDelegate12insert_lightE17R2cItemDescriptor, 
                       __ZN17HrpRenderDelegate12remove_lightE17R2cItemDescriptor, 
                       __ZN17HrpRenderDelegate12sync_sg_aovsEv, __ZN17HrpRenderDelegate13insert_shaderE17R2cItemDescriptor, 
                       __ZN17HrpRenderDelegate13remove_shaderE17R2cItemDescriptor, 
                       __ZN17HrpRenderDelegate13sync_geometryERK14HrpGeometryKeyR17HrpGeometryHandleb, 
                       __ZN17HrpRenderDelegate13sync_implicitER17HrpGeometryHandlejb, 
                       __ZN17HrpRenderDelegate13sync_lpe_aovsEv, __ZN17HrpRenderDelegate13sync_uniformsEf, 
                       __ZN17HrpRenderDelegate14dirty_functionEPv, __ZN17HrpRenderDelegate14dirty_geometryE17R2cItemDescriptorRKi, 
                       __ZN17HrpRenderDelegate14sync_instancerER17HrpGeometryHandleb, 
                       __ZN17HrpRenderDelegate14sync_instancesEv, __ZN17HrpRenderDelegate15dirty_instancerE17R2cItemDescriptorRKi, 
                       __ZN17HrpRenderDelegate15fire_keep_wiredEv, __ZN17HrpRenderDelegate15insert_geometryE17R2cItemDescriptor, 
                       __ZN17HrpRenderDelegate15remove_geometryE17R2cItemDescriptor, 
                       __ZN17HrpRenderDelegate15s_hrp_aov_infosEv, __ZN17HrpRenderDelegate15sync_geometriesEb, 
                       __ZN17HrpRenderDelegate15sync_shapelightER17HrpGeometryHandle, 
                       __ZN17HrpRenderDelegate15sync_volume_boxER17HrpGeometryHandlejb, 
                       __ZN17HrpRenderDelegate16insert_instancerE17R2cItemDescriptor, 
                       __ZN17HrpRenderDelegate16remove_instancerE17R2cItemDescriptor, 
                       __ZN17HrpRenderDelegate16render_wavefrontEibR10CoreAtomicIbE, 
                       __ZN17HrpRenderDelegate18fill_render_bufferEP15R2cRenderBufferRKNS0_6RegionEi, 
                       __ZN17HrpRenderDelegate18sync_shading_tableEv, __ZN17HrpRenderDelegate19dirty_shading_tableEv, 
                       __ZN17HrpRenderDelegate19filter_builtin_aovsE14CoreBasicArrayIP16ModuleR2cAovItemE12RenderTargetjb, 
                       __ZN17HrpRenderDelegate20add_aov_dependenciesEN3hrp7LayerIDER13CoreHashTableIS1_10R2cAovInfoE, 
                       __ZN17HrpRenderDelegate20sync_shadow_catchersEv, __ZN17HrpRenderDelegate21dirty_render_settingsEv, 
                       __ZN17HrpRenderDelegate21flatten_shading_tableEN3hrp10ShaderTypeE, 
                       __ZN17HrpRenderDelegate21rebuild_residency_setEv, __ZN17HrpRenderDelegate21sync_cryptomatte_aovsEv, 
                       __ZN17HrpRenderDelegate22dec_geometry_ref_countERK14HrpGeometryKey, 
                       __ZN17HrpRenderDelegate22inc_geometry_ref_countERK14HrpGeometryKey, 
                       __ZN17HrpRenderDelegate23recreate_shading_kernelEv, __ZN17HrpRenderDelegate24swap_optimized_materialsEN3hrp10ShaderTypeE, 
                       __ZN17HrpRenderDelegate25configure_color_transformEv, __ZN17HrpRenderDelegate25create_display_attributesER8OfObject, 
                       __ZN17HrpRenderDelegate27update_property_collectionsEv, __ZN17HrpRenderDelegate4syncEP15R2cRenderBufferfj, 
                       __ZN17HrpRenderDelegate5clearEv, __ZN17HrpRenderDelegate6renderEP15R2cRenderBufferRKfRKj12RenderTarget14CoreBasicArrayIP16ModuleR2cAovItemE, 
                       __ZN17HrpRenderDelegate8sync_vdbER17HrpGeometryHandlej, __ZN17HrpRenderDelegate9dirty_aovEv, 
                       __ZN17HrpRenderDelegate9sync_meshERK14HrpGeometryKeyR17HrpGeometryHandlejb, 
                       __ZN17HrpRenderDelegateC1ER5OfApp, __ZN17HrpRenderDelegateC2ER5OfApp, 
                       __ZN17HrpRenderDelegateD0Ev, __ZN17HrpRenderDelegateD1Ev, 
                       __ZN17HrpRenderDelegateD2Ev, __ZN18HrpWavefrontHandle11QueueHandle4initEP11objc_objectm, 
                       __ZN18HrpWavefrontHandle11init_queuesEP11objc_object, __ZN18HrpWavefrontHandle12init_buffersEP11objc_object, 
                       __ZN18HrpWavefrontHandle12init_kernelsEP11objc_objectS1_RK10CoreVectorIU8__strongS1_E, 
                       __ZN18HrpWavefrontHandle14KernelPipeline27fill_visible_function_tableERK14CoreBasicArrayIU8__strongP11objc_objectE, 
                       __ZN18HrpWavefrontHandle14KernelPipeline4initEP11objc_objectS2_PKcRK14CoreBasicArrayIU8__strongS2_ES9_S9_, 
                       __ZN18HrpWavefrontHandle15release_buffersEv, __ZN18HrpWavefrontHandle20RenderKernelPipeline4initEP11objc_objectS2_PKcRK14CoreBasicArrayIU8__strongS2_ES9_S9_S9_S9_S9_, 
                       __ZN18HrpWavefrontHandle20sync_sg_aov_pointersEv, __ZN18HrpWavefrontHandle21ResolveKernelPipeline4initEP11objc_objectS2_PKcRK14CoreBasicArrayIU8__strongS2_E, 
                       __ZN18HrpWavefrontHandle21sync_lpe_aov_pointersEv, __ZN18HrpWavefrontHandle22recreate_previz_kernelEP11objc_objectS1_RK10CoreVectorIU8__strongS1_ES6_S6_S6_S6_, 
                       __ZN18HrpWavefrontHandle22recreate_sg_aov_kernelEP11objc_objectS1_RK10CoreVectorIU8__strongS1_ES6_j, 
                       __ZN18HrpWavefrontHandle23recreate_resolve_kernelEP11objc_objectS1_S1_, 
                       __ZN18HrpWavefrontHandle23recreate_shading_kernelEP11objc_objectS1_RK10CoreVectorIU8__strongS1_ES6_S6_S6_S6_S6_, 
                       __ZN18HrpWavefrontHandle24recreate_lpe_aov_buffersEP11objc_objectj, 
                       __ZN18HrpWavefrontHandle30recreate_simple_shading_kernelEP11objc_objectS1_RK10CoreVectorIU8__strongS1_ES6_S6_, 
                       __ZN18HrpWavefrontHandle32recreate_intersect_lights_kernelEP11objc_objectS1_RK10CoreVectorIU8__strongS1_ES6_S6_S6_, 
                       __ZN18HrpWavefrontHandle9LpeVertex4initEP11objc_objectj, __ZN18HrpWavefrontHandle9sync_aovsEP11objc_objectRK7CoreSetIN3hrp7LayerIDEENS3_11ShadingModeEbb, 
                       __ZN18HrpWavefrontHandle9sync_sizeEP11objc_objectj, __ZN20HrpFrameBufferHandle13reset_buffersEv, 
                       __ZN20HrpFrameBufferHandle4initEP11objc_object, __ZN20HrpFrameBufferHandle4syncEP11objc_objectjjRK13CoreHashTableIN3hrp7LayerIDE10R2cAovInfoERK14CoreBasicArrayIP22NgModuleShaderGraphAovERKS9_IP16ModuleR2cAovItemE, 
                       __ZN20HrpFrameBufferHandle9AovBuffer4initEP11objc_objectRK10R2cAovInfoj, 
                       __ZN20HrpFrameBufferHandle9AovBuffer5resetEv, __ZN20HrpFrameBufferHandleD1Ev, 
                       __ZN20HrpFrameBufferHandleD2Ev, __ZN27HrpLpeTransitionTableHandleC1EP11objc_objectRK10CoreString, 
                       __ZN27HrpLpeTransitionTableHandleC1Ev, __ZN27HrpLpeTransitionTableHandleC2EP11objc_objectRK10CoreString, 
                       __ZN27HrpLpeTransitionTableHandleC2Ev, __ZN3hrp13core_get_hashERKNS_7LayerIDE, 
                       __ZNK14HrpCryptomatte19export_cryptomattesER5OfAppP15R2cRenderBufferRK20HrpFrameBufferHandle, 
                       __ZNK14HrpCryptomatte23accumulate_cryptomattesERK5OfAppRK20HrpFrameBufferHandlef, 
                       __ZNK14HrpCryptomatte29get_cryptomatte_instance_nameEjjj, 
                       __ZNK14HrpCryptomatte30get_cryptomatte_computed_itemsERK20HrpFrameBufferHandleR7CoreSetIjES5_R13CoreHashTableIj10CoreStringEP14AppProgressBar, 
                       __ZNK17HrpRenderDelegate10sync_lightEPvjjbbRKN22HrpLightGeometryHandle15ShapeDescriptorER14LightReferenceR14HrpLightHandleS0_, 
                       __ZNK17HrpRenderDelegate12FunctionSlot3useEP11objc_object, 
                       __ZNK17HrpRenderDelegate12FunctionSlot4syncEP11HrpMaterialPK8OfObject, 
                       __ZNK17HrpRenderDelegate13compute_statsEv, __ZNK17HrpRenderDelegate13get_shader_idE17R2cItemDescriptor, 
                       __ZNK17HrpRenderDelegate14filter_sg_aovsE14CoreBasicArrayIP16ModuleR2cAovItemERK7CoreSetI10CoreStringE, 
                       __ZNK17HrpRenderDelegate14get_class_nameEv, __ZNK17HrpRenderDelegate15filter_lpe_aovsE14CoreBasicArrayIP16ModuleR2cAovItemERK7CoreSetI10CoreStringE, 
                       __ZNK17HrpRenderDelegate16get_geometry_keyEPvRNS_8InstanceE, 
                       __ZNK17HrpRenderDelegate17get_current_frameEv, __ZNK17HrpRenderDelegate17get_gl_view_labelEv, 
                       __ZNK17HrpRenderDelegate17get_init_progressEv, __ZNK17HrpRenderDelegate17get_shading_modesEv, 
                       __ZNK17HrpRenderDelegate18get_supported_aovsEv, __ZNK17HrpRenderDelegate19get_render_progressEv, 
                       __ZNK17HrpRenderDelegate20get_default_materialEv, __ZNK17HrpRenderDelegate21geometry_is_displacedEPv, 
                       __ZNK17HrpRenderDelegate21get_renderer_settingsEv, __ZNK17HrpRenderDelegate22material_function_slotEPvjN3hrp10ShaderTypeE, 
                       __ZNK17HrpRenderDelegate23get_init_progress_labelEv, __ZNK17HrpRenderDelegate24bind_wavefront_resourcesEP11objc_objectib, 
                       __ZNK17HrpRenderDelegate31geometry_is_displaced_over_timeEPv, 
                       __ZNK17HrpRenderDelegate8Instance3useEP11objc_object, __ZNK17HrpRenderDelegate9get_statsEv, 
                       __ZNK18HrpWavefrontHandle11QueueHandle18textures_requestedEv, 
                       __ZNK18HrpWavefrontHandle11QueueHandle20properties_requestedEv, 
                       __ZNK18HrpWavefrontHandle11QueueHandle3setEP11objc_objectj, 
                       __ZNK18HrpWavefrontHandle11QueueHandle7counterEv, __ZNK18HrpWavefrontHandle11render_waveEP11objc_objectijjjN3hrp11ShadingModeEbj, 
                       __ZNK18HrpWavefrontHandle13launch_previzEP11objc_object, __ZNK18HrpWavefrontHandle13launch_sg_aovEP11objc_object, 
                       __ZNK18HrpWavefrontHandle14launch_resolveEP11objc_object, 
                       __ZNK18HrpWavefrontHandle16encode_heartbeatEP11objc_object, 
                       __ZNK18HrpWavefrontHandle16launch_intersectEP11objc_object, 
                       __ZNK18HrpWavefrontHandle16sync_render_dataEjN3hrp11ShadingModeEP11objc_objectS3_S3_S3_S3_S3_S3_S3_S3_PU8__strongS3_S3_S5_S3_S3_S3_, 
                       __ZNK18HrpWavefrontHandle21launch_simple_shadingEP11objc_object, 
                       __ZNK18HrpWavefrontHandle22launch_infinite_previzEP11objc_object, 
                       __ZNK18HrpWavefrontHandle23launch_intersect_lightsEP11objc_object, 
                       __ZNK18HrpWavefrontHandle24launch_find_noisy_pixelsEP11objc_objectjb, 
                       __ZNK18HrpWavefrontHandle27launch_generate_camera_raysEP11objc_object, 
                       __ZNK18HrpWavefrontHandle32launch_this_is_not_a_mega_kernelEP11objc_object, 
                       __ZNK18HrpWavefrontHandle33launch_queue_prepare_for_dispatchEP11objc_objectNS_11QueueHandleE, 
                       __ZNK18HrpWavefrontHandle3useEP11objc_object, __ZNK18HrpWavefrontHandle43launch_queue_reset_2_prepare_for_dispatch_1EP11objc_objectNS_11QueueHandleES2_S2_, 
                       __ZNK18HrpWavefrontHandle9LpeVertex3useEP11objc_object, __ZNK18HrpWavefrontHandle9LpeVertex4syncEP12HrpLpeVertex, 
                       __ZNK20HrpFrameBufferHandle21get_layer_buffer_dataEN3hrp7LayerIDE, 
                       __ZNK20HrpFrameBufferHandle22get_sg_aov_buffer_dataEj, __ZNK20HrpFrameBufferHandle23get_lpe_aov_buffer_dataEj, 
                       __ZNK20HrpFrameBufferHandle23get_quality_buffer_dataEv, __ZNK20HrpFrameBufferHandle3useEP11objc_objectj, 
                       __ZNK20HrpFrameBufferHandle9AovBuffer3useEP11objc_object, 
                       __ZNK20HrpFrameBufferHandle9AovBuffer4syncEP12HrpAovBuffer, 
                       __ZNK27HrpLpeTransitionTableHandle3useEP11objc_object, __ZNK27HrpLpeTransitionTableHandle4syncEP21HrpLpeTransitionTable, 
                       __ZTI17HrpRenderDelegate, __ZTS17HrpRenderDelegate, __ZTV17HrpRenderDelegate, 
                       _on_register_module ]
    objc-classes:    [ HrpResidencyCollector ]
    weak-symbols:    [ __ZGVZN14CoreLogHandler12main_handlerEvE18s_main_log_handler, 
                       __ZGVZN14ModuleGeometry26RESOURCE_ID_HARPE_GEOMETRYEvE27_RESOURCE_ID_HARPE_GEOMETRY, 
                       __ZGVZN14ModuleGeometry28RESOURCE_ID_HARPE_GAS_OPAQUEEvE29_RESOURCE_ID_HARPE_GAS_OPAQUE, 
                       __ZGVZN14ModuleGeometry30RESOURCE_ID_SURFACE_PROPERTIESEvE31_RESOURCE_ID_SURFACE_PROPERTIES, 
                       __ZGVZN14ModuleGeometry31RESOURCE_ID_GEOMETRY_PROPERTIESEvE32_RESOURCE_ID_GEOMETRY_PROPERTIES, 
                       __ZGVZN14ModuleGeometry33RESOURCE_ID_HARPE_GAS_TRANSPARENTEvE34_RESOURCE_ID_HARPE_GAS_TRANSPARENT, 
                       __ZGVZN14ModuleGeometry35RESOURCE_ID_TESSELLATION_PROPERTIESEvE36_RESOURCE_ID_TESSELLATION_PROPERTIES, 
                       __ZGVZN14ModuleGeometry36RESOURCE_ID_HARPE_GEOMETRY_DISPLACEDEvE37_RESOURCE_ID_HARPE_GEOMETRY_DISPLACED, 
                       __ZGVZN16OfBaseItemHandleILb0EE10class_infoEvE10class_info, 
                       __ZGVZN19OfBaseContextHandleILb0EE10class_infoEvE10class_info, 
                       __ZGVZN20ModuleGeometryBundle30RESOURCE_ID_SURFACE_PROPERTIESEvE31_RESOURCE_ID_SURFACE_PROPERTIES, 
                       __ZGVZN20ModuleGeometryBundle31RESOURCE_ID_GEOMETRY_PROPERTIESEvE32_RESOURCE_ID_GEOMETRY_PROPERTIES, 
                       __ZGVZN20ModuleGeometryBundle35RESOURCE_ID_TESSELLATION_PROPERTIESEvE36_RESOURCE_ID_TESSELLATION_PROPERTIES, 
                       __ZN11ImageSampleIdEC1ERKjS2_RKdS4_S4_S4_, __ZN11ImageSampleIdEC1Ev, 
                       __ZN11ImageSampleIdEC2ERKjS2_RKdS4_S4_S4_, __ZN11ImageSampleIdEC2Ev, 
                       __ZN11ImageSampleIfEC1ERKjS2_RKfS4_S4_S4_, __ZN11ImageSampleIfEC1Ev, 
                       __ZN11ImageSampleIfEC2ERKjS2_RKfS4_S4_S4_, __ZN11ImageSampleIfEC2Ev, 
                       __ZN12CoreFunctionIFvRN15MaterialX__aapl10GenContextENSt3__110shared_ptrINS0_6ShaderEEEPvEE4copyIPS8_EEvPT_SD_, 
                       __ZN12CoreFunctionIFvRN15MaterialX__aapl10GenContextENSt3__110shared_ptrINS0_6ShaderEEEPvEE6invokeIPS8_EEvPT_S2_OS6_OS7_, 
                       __ZN12CoreFunctionIFvRN15MaterialX__aapl10GenContextENSt3__110shared_ptrINS0_6ShaderEEEPvEE7destroyIPS8_EEvPT_, 
                       __ZN12CoreFunctionIFvRN15MaterialX__aapl10GenContextEPv18MxMaterialTypeFlagEE4copyIPS5_EEvPT_SA_, 
                       __ZN12CoreFunctionIFvRN15MaterialX__aapl10GenContextEPv18MxMaterialTypeFlagEE6invokeIPS5_EEvPT_S2_OS3_OS4_, 
                       __ZN12CoreFunctionIFvRN15MaterialX__aapl10GenContextEPv18MxMaterialTypeFlagEE7destroyIPS5_EEvPT_, 
                       __ZZN14CoreLogHandler12main_handlerEvE18s_main_log_handler, 
                       __ZZN14ModuleGeometry26RESOURCE_ID_HARPE_GEOMETRYEvE27_RESOURCE_ID_HARPE_GEOMETRY, 
                       __ZZN14ModuleGeometry28RESOURCE_ID_HARPE_GAS_OPAQUEEvE29_RESOURCE_ID_HARPE_GAS_OPAQUE, 
                       __ZZN14ModuleGeometry30RESOURCE_ID_SURFACE_PROPERTIESEvE31_RESOURCE_ID_SURFACE_PROPERTIES, 
                       __ZZN14ModuleGeometry31RESOURCE_ID_GEOMETRY_PROPERTIESEvE32_RESOURCE_ID_GEOMETRY_PROPERTIES, 
                       __ZZN14ModuleGeometry33RESOURCE_ID_HARPE_GAS_TRANSPARENTEvE34_RESOURCE_ID_HARPE_GAS_TRANSPARENT, 
                       __ZZN14ModuleGeometry35RESOURCE_ID_TESSELLATION_PROPERTIESEvE36_RESOURCE_ID_TESSELLATION_PROPERTIES, 
                       __ZZN14ModuleGeometry36RESOURCE_ID_HARPE_GEOMETRY_DISPLACEDEvE37_RESOURCE_ID_HARPE_GEOMETRY_DISPLACED, 
                       __ZZN16OfBaseItemHandleILb0EE10class_infoEvE10class_info, 
                       __ZZN19OfBaseContextHandleILb0EE10class_infoEvE10class_info, 
                       __ZZN20ModuleGeometryBundle30RESOURCE_ID_SURFACE_PROPERTIESEvE31_RESOURCE_ID_SURFACE_PROPERTIES, 
                       __ZZN20ModuleGeometryBundle31RESOURCE_ID_GEOMETRY_PROPERTIESEvE32_RESOURCE_ID_GEOMETRY_PROPERTIES, 
                       __ZZN20ModuleGeometryBundle35RESOURCE_ID_TESSELLATION_PROPERTIESEvE36_RESOURCE_ID_TESSELLATION_PROPERTIES ]
...
