--- !tapi-tbd
tbd-version:     4
targets:         [ arm64e-macos ]
install-name:    '/System/Library/PrivateFrameworks/CoreUSDEdit.framework/Versions/A/module/light_physical_builtin.dylib'
current-version: 0
compatibility-version: 0
exports:
  - targets:         [ arm64e-macos ]
    symbols:         [ __Z20get_bounding_ellipseR9GMathVec3IdERdS2_RKS0_RKdS6_S6_, 
                       __ZN23_ModulePortalCallbacks_8paint_glER8OfObjectR10GlUtilsCtx, 
                       __ZN24LightPhysicalAreaBuiltin18on_register_moduleER5OfAppR10CoreVectorIP7OfClassE, 
                       __ZN24LightPhysicalSpotBuiltin18on_register_moduleER5OfAppR10CoreVectorIP7OfClassE, 
                       __ZN25LightPhysicalPointBuiltin18on_register_moduleER5OfAppR10CoreVectorIP7OfClassE, 
                       __ZN26LightPhysicalLinearBuiltin18on_register_moduleER5OfAppR10CoreVectorIP7OfClassE, 
                       __ZN26LightPhysicalPlaneResource10class_infoEv, __ZN26LightPhysicalPlaneResource4initERK8OfObjectR18OfAttrDynEvaluatorRKjS6_PK14GeometryObject, 
                       __ZN27LightPhysicalAmbientBuiltin18on_register_moduleER5OfAppR10CoreVectorIP7OfClassE, 
                       __ZN27LightPhysicalDistantBuiltin18on_register_moduleER5OfAppR10CoreVectorIP7OfClassE, 
                       __ZN28PhysicalAmbientLightGeometry10class_infoEv, __ZN28PhysicalDistantLightGeometry10class_infoEv, 
                       __ZN31LightPhysicalEnvironmentBuiltin18on_register_moduleER5OfAppR10CoreVectorIP7OfClassE, 
                       __ZN32LightPhysicalEnvironmentResource10class_infoEv, __ZN32LightPhysicalEnvironmentResource10s_geometryE, 
                       __ZN32LightPhysicalEnvironmentResource4initERK8OfObjectP6OfAttrRKjS6_, 
                       __ZN34_ModuleLightPhysicalAreaCallbacks_10init_classER7OfClass, 
                       __ZN34_ModuleLightPhysicalAreaCallbacks_11get_gl_bboxER8OfObjectR10GlUtilsCtx, 
                       __ZN34_ModuleLightPhysicalAreaCallbacks_12get_geometryER8OfObject, 
                       __ZN34_ModuleLightPhysicalAreaCallbacks_12pre_evaluateER8OfObjectRK7CtxEvalR9CtxShader, 
                       __ZN34_ModuleLightPhysicalAreaCallbacks_15create_resourceER8OfObjectRKiPv, 
                       __ZN34_ModuleLightPhysicalAreaCallbacks_15ray_scatter_pdfER8OfObjectRK14PbrLightConfigRKd, 
                       __ZN34_ModuleLightPhysicalAreaCallbacks_16create_eval_dataERK8OfObjectRK7CtxEval, 
                       __ZN34_ModuleLightPhysicalAreaCallbacks_16ray_scatter_initER8OfObjectRK7CtxEvalR9CtxShaderRKdS8_R14PbrLightConfig, 
                       __ZN34_ModuleLightPhysicalAreaCallbacks_17destroy_eval_dataERK8OfObjectRK7CtxEvalPv, 
                       __ZN34_ModuleLightPhysicalAreaCallbacks_18create_module_dataERK8OfObject, 
                       __ZN34_ModuleLightPhysicalAreaCallbacks_18ray_scatter_sampleER8OfObjectRK14PbrLightConfigRK14CoreBasicArrayIfERdS9_, 
                       __ZN34_ModuleLightPhysicalAreaCallbacks_19destroy_module_dataERK8OfObjectPv, 
                       __ZN34_ModuleLightPhysicalAreaCallbacks_19on_attribute_changeER8OfObjectRK6OfAttrRiRKi, 
                       __ZN34_ModuleLightPhysicalAreaCallbacks_21on_deserialize_objectER8OfObjectRK11CoreVersionRK11ParserGroupRK15OfSerialOptions, 
                       __ZN34_ModuleLightPhysicalAreaCallbacks_31RESOURCE_ID_AREA_PHYSICAL_LIGHTEv, 
                       __ZN34_ModuleLightPhysicalAreaCallbacks_6sampleER8OfObjectRK7CtxEvalR9CtxShaderRK20PbrIntegrationDomainRK14PbrLightConfigRK14CoreBasicArrayIfEPK10PbrScatterR9PbrSample, 
                       __ZN34_ModuleLightPhysicalAreaCallbacks_8evaluateER8OfObjectRK7CtxEvalR9CtxShaderRK20PbrIntegrationDomainRK14PbrLightConfigRK9PbrSamplePK10PbrScatterR7PbrEval, 
                       __ZN34_ModuleLightPhysicalAreaCallbacks_8paint_glER8OfObjectR10GlUtilsCtx, 
                       __ZN34_ModuleLightPhysicalAreaCallbacks_9configureER8OfObjectRK7CtxEvalR9CtxShaderRK20PbrIntegrationDomainR14PbrLightConfig, 
                       __ZN34_ModuleLightPhysicalSpotCallbacks_10init_classER7OfClass, 
                       __ZN34_ModuleLightPhysicalSpotCallbacks_12get_geometryER8OfObject, 
                       __ZN34_ModuleLightPhysicalSpotCallbacks_12pre_evaluateER8OfObjectRK7CtxEvalR9CtxShader, 
                       __ZN34_ModuleLightPhysicalSpotCallbacks_15create_resourceER8OfObjectRKiPv, 
                       __ZN34_ModuleLightPhysicalSpotCallbacks_15ray_scatter_pdfER8OfObjectRK14PbrLightConfigRKd, 
                       __ZN34_ModuleLightPhysicalSpotCallbacks_16create_eval_dataERK8OfObjectRK7CtxEval, 
                       __ZN34_ModuleLightPhysicalSpotCallbacks_16ray_scatter_initER8OfObjectRK7CtxEvalR9CtxShaderRKdS8_R14PbrLightConfig, 
                       __ZN34_ModuleLightPhysicalSpotCallbacks_17destroy_eval_dataERK8OfObjectRK7CtxEvalPv, 
                       __ZN34_ModuleLightPhysicalSpotCallbacks_18create_module_dataERK8OfObject, 
                       __ZN34_ModuleLightPhysicalSpotCallbacks_18ray_scatter_sampleER8OfObjectRK14PbrLightConfigRK14CoreBasicArrayIfERdS9_, 
                       __ZN34_ModuleLightPhysicalSpotCallbacks_19destroy_module_dataERK8OfObjectPv, 
                       __ZN34_ModuleLightPhysicalSpotCallbacks_19on_attribute_changeER8OfObjectRK6OfAttrRiRKi, 
                       __ZN34_ModuleLightPhysicalSpotCallbacks_21on_deserialize_objectER8OfObjectRK11CoreVersionRK11ParserGroupRK15OfSerialOptions, 
                       __ZN34_ModuleLightPhysicalSpotCallbacks_22get_sampling_dimensionER8OfObject, 
                       __ZN34_ModuleLightPhysicalSpotCallbacks_31RESOURCE_ID_SPOT_PHYSICAL_LIGHTEv, 
                       __ZN34_ModuleLightPhysicalSpotCallbacks_6sampleER8OfObjectRK7CtxEvalR9CtxShaderRK20PbrIntegrationDomainRK14PbrLightConfigRK14CoreBasicArrayIfEPK10PbrScatterR9PbrSample, 
                       __ZN34_ModuleLightPhysicalSpotCallbacks_8evaluateER8OfObjectRK7CtxEvalR9CtxShaderRK20PbrIntegrationDomainRK14PbrLightConfigRK9PbrSamplePK10PbrScatterR7PbrEval, 
                       __ZN34_ModuleLightPhysicalSpotCallbacks_8paint_glER8OfObjectR10GlUtilsCtx, 
                       __ZN34_ModuleLightPhysicalSpotCallbacks_9configureER8OfObjectRK7CtxEvalR9CtxShaderRK20PbrIntegrationDomainR14PbrLightConfig, 
                       __ZN35LightPhysicalEnvironmentPortalLight17set_rectified_mapEP36LightPhysicalEnvironmentRectifiedMap, 
                       __ZN35LightPhysicalEnvironmentPortalLight26set_portal_to_world_matrixERK14GMathMatrix4x4IdLb1EE, 
                       __ZN35LightPhysicalEnvironmentPortalLightC1ERK10CoreStringP15ModuleSceneItemRK14GMathMatrix4x4IdLb1EE, 
                       __ZN35LightPhysicalEnvironmentPortalLightC2ERK10CoreStringP15ModuleSceneItemRK14GMathMatrix4x4IdLb1EE, 
                       __ZN35LightPhysicalEnvironmentPortalLightD1Ev, __ZN35LightPhysicalEnvironmentPortalLightD2Ev, 
                       __ZN35_ModuleLightPhysicalPointCallbacks_12get_geometryER8OfObject, 
                       __ZN35_ModuleLightPhysicalPointCallbacks_12pre_evaluateER8OfObjectRK7CtxEvalR9CtxShader, 
                       __ZN35_ModuleLightPhysicalPointCallbacks_15ray_scatter_pdfER8OfObjectRK14PbrLightConfigRKd, 
                       __ZN35_ModuleLightPhysicalPointCallbacks_16create_eval_dataERK8OfObjectRK7CtxEval, 
                       __ZN35_ModuleLightPhysicalPointCallbacks_16ray_scatter_initER8OfObjectRK7CtxEvalR9CtxShaderRKdS8_R14PbrLightConfig, 
                       __ZN35_ModuleLightPhysicalPointCallbacks_17destroy_eval_dataERK8OfObjectRK7CtxEvalPv, 
                       __ZN35_ModuleLightPhysicalPointCallbacks_18create_module_dataERK8OfObject, 
                       __ZN35_ModuleLightPhysicalPointCallbacks_18ray_scatter_sampleER8OfObjectRK14PbrLightConfigRK14CoreBasicArrayIfERdS9_, 
                       __ZN35_ModuleLightPhysicalPointCallbacks_19destroy_module_dataERK8OfObjectPv, 
                       __ZN35_ModuleLightPhysicalPointCallbacks_19on_attribute_changeER8OfObjectRK6OfAttrRiRKi, 
                       __ZN35_ModuleLightPhysicalPointCallbacks_21on_deserialize_objectER8OfObjectRK11CoreVersionRK11ParserGroupRK15OfSerialOptions, 
                       __ZN35_ModuleLightPhysicalPointCallbacks_6sampleER8OfObjectRK7CtxEvalR9CtxShaderRK20PbrIntegrationDomainRK14PbrLightConfigRK14CoreBasicArrayIfEPK10PbrScatterR9PbrSample, 
                       __ZN35_ModuleLightPhysicalPointCallbacks_8evaluateER8OfObjectRK7CtxEvalR9CtxShaderRK20PbrIntegrationDomainRK14PbrLightConfigRK9PbrSamplePK10PbrScatterR7PbrEval, 
                       __ZN35_ModuleLightPhysicalPointCallbacks_8paint_glER8OfObjectR10GlUtilsCtx, 
                       __ZN35_ModuleLightPhysicalPointCallbacks_9configureER8OfObjectRK7CtxEvalR9CtxShaderRK20PbrIntegrationDomainR14PbrLightConfig, 
                       __ZN36LightPhysicalEnvironmentRectifiedMap25set_world_to_light_matrixERK14GMathMatrix4x4IdLb1EE, 
                       __ZN36LightPhysicalEnvironmentRectifiedMap26set_portal_to_world_matrixERK14GMathMatrix4x4IdLb1EE, 
                       __ZN36LightPhysicalEnvironmentRectifiedMap5clearEv, __ZN36LightPhysicalEnvironmentRectifiedMap6resizeEii, 
                       __ZN36LightPhysicalEnvironmentRectifiedMap8recreateERK8OfObjectRK7CtxEvalRK14TextureWrapperRKiSA_RKb, 
                       __ZN36LightPhysicalEnvironmentRectifiedMapC1Ev, __ZN36LightPhysicalEnvironmentRectifiedMapC2Ev, 
                       __ZN36_ModuleLightPhysicalLinearCallbacks_11get_gl_bboxER8OfObjectR10GlUtilsCtx, 
                       __ZN36_ModuleLightPhysicalLinearCallbacks_12get_geometryER8OfObject, 
                       __ZN36_ModuleLightPhysicalLinearCallbacks_12pre_evaluateER8OfObjectRK7CtxEvalR9CtxShader, 
                       __ZN36_ModuleLightPhysicalLinearCallbacks_15ray_scatter_pdfER8OfObjectRK14PbrLightConfigRKd, 
                       __ZN36_ModuleLightPhysicalLinearCallbacks_16create_eval_dataERK8OfObjectRK7CtxEval, 
                       __ZN36_ModuleLightPhysicalLinearCallbacks_16ray_scatter_initER8OfObjectRK7CtxEvalR9CtxShaderRKdS8_R14PbrLightConfig, 
                       __ZN36_ModuleLightPhysicalLinearCallbacks_17destroy_eval_dataERK8OfObjectRK7CtxEvalPv, 
                       __ZN36_ModuleLightPhysicalLinearCallbacks_18create_module_dataERK8OfObject, 
                       __ZN36_ModuleLightPhysicalLinearCallbacks_18ray_scatter_sampleER8OfObjectRK14PbrLightConfigRK14CoreBasicArrayIfERdS9_, 
                       __ZN36_ModuleLightPhysicalLinearCallbacks_19destroy_module_dataERK8OfObjectPv, 
                       __ZN36_ModuleLightPhysicalLinearCallbacks_19on_attribute_changeER8OfObjectRK6OfAttrRiRKi, 
                       __ZN36_ModuleLightPhysicalLinearCallbacks_21on_deserialize_objectER8OfObjectRK11CoreVersionRK11ParserGroupRK15OfSerialOptions, 
                       __ZN36_ModuleLightPhysicalLinearCallbacks_6sampleER8OfObjectRK7CtxEvalR9CtxShaderRK20PbrIntegrationDomainRK14PbrLightConfigRK14CoreBasicArrayIfEPK10PbrScatterR9PbrSample, 
                       __ZN36_ModuleLightPhysicalLinearCallbacks_8evaluateER8OfObjectRK7CtxEvalR9CtxShaderRK20PbrIntegrationDomainRK14PbrLightConfigRK9PbrSamplePK10PbrScatterR7PbrEval, 
                       __ZN36_ModuleLightPhysicalLinearCallbacks_8paint_glER8OfObjectR10GlUtilsCtx, 
                       __ZN36_ModuleLightPhysicalLinearCallbacks_9configureER8OfObjectRK7CtxEvalR9CtxShaderRK20PbrIntegrationDomainR14PbrLightConfig, 
                       __ZN37_ModuleLightPhysicalAmbientCallbacks_13s_solid_angleE, 
                       __ZN37_ModuleLightPhysicalAmbientCallbacks_16create_eval_dataERK8OfObjectRK7CtxEval, 
                       __ZN37_ModuleLightPhysicalAmbientCallbacks_16eval_light_colorERK7CtxEvalR9CtxShaderRK8GMathRayIdE, 
                       __ZN37_ModuleLightPhysicalAmbientCallbacks_17destroy_eval_dataERK8OfObjectRK7CtxEvalPv, 
                       __ZN37_ModuleLightPhysicalAmbientCallbacks_18module_constructorER8OfObjectP8OfModule, 
                       __ZN37_ModuleLightPhysicalAmbientCallbacks_19on_attribute_changeER8OfObjectRK6OfAttrRiRKi, 
                       __ZN37_ModuleLightPhysicalAmbientCallbacks_21on_deserialize_objectER8OfObjectRK11CoreVersionRK11ParserGroupRK15OfSerialOptions, 
                       __ZN37_ModuleLightPhysicalAmbientCallbacks_22get_sampling_dimensionER8OfObject, 
                       __ZN37_ModuleLightPhysicalAmbientCallbacks_24s_ambient_light_geometryE, 
                       __ZN37_ModuleLightPhysicalAmbientCallbacks_5s_pdfE, __ZN37_ModuleLightPhysicalAmbientCallbacks_6sampleER8OfObjectRK7CtxEvalR9CtxShaderRK20PbrIntegrationDomainRK14PbrLightConfigRK14CoreBasicArrayIfEPK10PbrScatterR9PbrSample, 
                       __ZN37_ModuleLightPhysicalAmbientCallbacks_8evaluateER8OfObjectRK7CtxEvalR9CtxShaderRK20PbrIntegrationDomainRK14PbrLightConfigRK9PbrSamplePK10PbrScatterR7PbrEval, 
                       __ZN37_ModuleLightPhysicalAmbientCallbacks_9configureER8OfObjectRK7CtxEvalR9CtxShaderRK20PbrIntegrationDomainR14PbrLightConfig, 
                       __ZN37_ModuleLightPhysicalDistantCallbacks_12pre_evaluateER8OfObjectRK7CtxEvalR9CtxShader, 
                       __ZN37_ModuleLightPhysicalDistantCallbacks_16create_eval_dataERK8OfObjectRK7CtxEval, 
                       __ZN37_ModuleLightPhysicalDistantCallbacks_16eval_light_colorERK7CtxEvalR9CtxShaderRKNS_9LightDescERK9GMathVec3IdERK28GeometryPositionDifferential, 
                       __ZN37_ModuleLightPhysicalDistantCallbacks_17destroy_eval_dataERK8OfObjectRK7CtxEvalPv, 
                       __ZN37_ModuleLightPhysicalDistantCallbacks_18create_module_dataERK8OfObject, 
                       __ZN37_ModuleLightPhysicalDistantCallbacks_18module_constructorER8OfObjectP8OfModule, 
                       __ZN37_ModuleLightPhysicalDistantCallbacks_19destroy_module_dataERK8OfObjectPv, 
                       __ZN37_ModuleLightPhysicalDistantCallbacks_19on_attribute_changeER8OfObjectRK6OfAttrRiRKi, 
                       __ZN37_ModuleLightPhysicalDistantCallbacks_21on_deserialize_objectER8OfObjectRK11CoreVersionRK11ParserGroupRK15OfSerialOptions, 
                       __ZN37_ModuleLightPhysicalDistantCallbacks_6sampleER8OfObjectRK7CtxEvalR9CtxShaderRK20PbrIntegrationDomainRK14PbrLightConfigRK14CoreBasicArrayIfEPK10PbrScatterR9PbrSample, 
                       __ZN37_ModuleLightPhysicalDistantCallbacks_8evaluateER8OfObjectRK7CtxEvalR9CtxShaderRK20PbrIntegrationDomainRK14PbrLightConfigRK9PbrSamplePK10PbrScatterR7PbrEval, 
                       __ZN37_ModuleLightPhysicalDistantCallbacks_8paint_glER8OfObjectR10GlUtilsCtx, 
                       __ZN37_ModuleLightPhysicalDistantCallbacks_9configureER8OfObjectRK7CtxEvalR9CtxShaderRK20PbrIntegrationDomainR14PbrLightConfig, 
                       __ZN41_ModuleLightPhysicalEnvironmentCallbacks_10init_classER7OfClass, 
                       __ZN41_ModuleLightPhysicalEnvironmentCallbacks_12pre_evaluateER8OfObjectRK7CtxEvalR9CtxShader, 
                       __ZN41_ModuleLightPhysicalEnvironmentCallbacks_13s_solid_angleE, 
                       __ZN41_ModuleLightPhysicalEnvironmentCallbacks_14s_inv_jacobianE, 
                       __ZN41_ModuleLightPhysicalEnvironmentCallbacks_14sample_portalsERK7CtxEvalR9CtxShaderPK10PbrScatterRK20PbrIntegrationDomainRK9GMathVec3IdERK10CoreVectorIP35LightPhysicalEnvironmentPortalLightERNS_10ThreadDataERK14CoreBasicArrayIfER9PbrSample, 
                       __ZN41_ModuleLightPhysicalEnvironmentCallbacks_15create_resourceER8OfObjectRKiPv, 
                       __ZN41_ModuleLightPhysicalEnvironmentCallbacks_16create_eval_dataERK8OfObjectRK7CtxEval, 
                       __ZN41_ModuleLightPhysicalEnvironmentCallbacks_17destroy_eval_dataERK8OfObjectRK7CtxEvalPv, 
                       __ZN41_ModuleLightPhysicalEnvironmentCallbacks_17s_rcp_solid_angleE, 
                       __ZN41_ModuleLightPhysicalEnvironmentCallbacks_18create_module_dataERK8OfObject, 
                       __ZN41_ModuleLightPhysicalEnvironmentCallbacks_18create_thread_dataERK8OfObjectRK7CtxEval, 
                       __ZN41_ModuleLightPhysicalEnvironmentCallbacks_18module_constructorER8OfObjectP8OfModule, 
                       __ZN41_ModuleLightPhysicalEnvironmentCallbacks_18sample_environmentER8OfObjectRK7CtxEvalR9CtxShaderRK20PbrIntegrationDomainRK14PbrLightConfigRK14CoreBasicArrayIfEPK10PbrScatterR9PbrSample, 
                       __ZN41_ModuleLightPhysicalEnvironmentCallbacks_18sample_portal_mapsER8OfObjectRK7CtxEvalR9CtxShaderRK20PbrIntegrationDomainRK14PbrLightConfigRK14CoreBasicArrayIfEPK10PbrScatterR9PbrSample, 
                       __ZN41_ModuleLightPhysicalEnvironmentCallbacks_19destroy_module_dataERK8OfObjectPv, 
                       __ZN41_ModuleLightPhysicalEnvironmentCallbacks_19destroy_thread_dataERK8OfObjectRK7CtxEvalPv, 
                       __ZN41_ModuleLightPhysicalEnvironmentCallbacks_19on_attribute_changeER8OfObjectRK6OfAttrRiRKi, 
                       __ZN41_ModuleLightPhysicalEnvironmentCallbacks_20evaluate_environmentER8OfObjectRK7CtxEvalR9CtxShaderRK20PbrIntegrationDomainRK14PbrLightConfigRK9PbrSamplePK10PbrScatterR7PbrEval, 
                       __ZN41_ModuleLightPhysicalEnvironmentCallbacks_20evaluate_portal_mapsER8OfObjectRK7CtxEvalR9CtxShaderRK20PbrIntegrationDomainRK14PbrLightConfigRK9PbrSamplePK10PbrScatterR7PbrEval, 
                       __ZN41_ModuleLightPhysicalEnvironmentCallbacks_21on_deserialize_objectER8OfObjectRK11CoreVersionRK11ParserGroupRK15OfSerialOptions, 
                       __ZN41_ModuleLightPhysicalEnvironmentCallbacks_22get_sampling_dimensionER8OfObject, 
                       __ZN41_ModuleLightPhysicalEnvironmentCallbacks_24RESOURCE_ID_TEXTURE_DATAEv, 
                       __ZN41_ModuleLightPhysicalEnvironmentCallbacks_25on_pre_deserialize_objectERK11CoreVersionR11ParserGroup, 
                       __ZN41_ModuleLightPhysicalEnvironmentCallbacks_28mark_rectified_maps_as_dirtyER8OfObject, 
                       __ZN41_ModuleLightPhysicalEnvironmentCallbacks_32synchronise_portal_light_objectsER8OfObject, 
                       __ZN41_ModuleLightPhysicalEnvironmentCallbacks_33synchronise_rectified_map_objectsER8OfObject, 
                       __ZN41_ModuleLightPhysicalEnvironmentCallbacks_38RESOURCE_ID_ENVIRONMENT_PHYSICAL_LIGHTEv, 
                       __ZN41_ModuleLightPhysicalEnvironmentCallbacks_6sampleER8OfObjectRK7CtxEvalR9CtxShaderRK20PbrIntegrationDomainRK14PbrLightConfigRK14CoreBasicArrayIfEPK10PbrScatterR9PbrSample, 
                       __ZN41_ModuleLightPhysicalEnvironmentCallbacks_8evaluateER8OfObjectRK7CtxEvalR9CtxShaderRK20PbrIntegrationDomainRK14PbrLightConfigRK9PbrSamplePK10PbrScatterR7PbrEval, 
                       __ZN41_ModuleLightPhysicalEnvironmentCallbacks_8paint_glER8OfObjectR10GlUtilsCtx, 
                       __ZN41_ModuleLightPhysicalEnvironmentCallbacks_9configureER8OfObjectRK7CtxEvalR9CtxShaderRK20PbrIntegrationDomainR14PbrLightConfig, 
                       __ZN6Portal18on_register_moduleER5OfAppR10CoreVectorIP7OfClassE, 
                       __ZNK26LightPhysicalPlaneResource10get_sampleERK9GMathVec2IdE, 
                       __ZNK26LightPhysicalPlaneResource11get_samplesER14CoreBasicArrayI9GMathVec2IdEE, 
                       __ZNK26LightPhysicalPlaneResource15get_memory_sizeEv, __ZNK32LightPhysicalEnvironmentResource15get_memory_sizeEv, 
                       __ZNK35LightPhysicalEnvironmentPortalLight15is_aligned_withERK36LightPhysicalEnvironmentRectifiedMap, 
                       __ZNK35LightPhysicalEnvironmentPortalLight19compute_solid_angleERK9GMathVec3IdES3_20PbrIntegrationDomain, 
                       __ZNK35LightPhysicalEnvironmentPortalLight20sample_as_area_lightERK9GMathVec3IdERK9GMathVec2IdERS1_S8_Rd, 
                       __ZNK35LightPhysicalEnvironmentPortalLight22evaluate_as_area_lightERK9GMathVec3IdES3_RKdRS1_Rd, 
                       __ZNK35LightPhysicalEnvironmentPortalLight24is_shading_point_visibleERK9GMathVec3IdE, 
                       __ZNK35LightPhysicalEnvironmentPortalLight25intersect_ray_with_portalERK9GMathVec3IdES3_R9GMathVec2IdERd, 
                       __ZNK35LightPhysicalEnvironmentPortalLight6sampleERK9GMathVec3IdERK9GMathVec2IdERKdRK40LightPhysicalEnvironmentPortalProjectionRS1_SD_Rd, 
                       __ZNK35LightPhysicalEnvironmentPortalLight7projectERK9GMathVec3IdES3_RK20PbrIntegrationDomainR40LightPhysicalEnvironmentPortalProjection, 
                       __ZNK35LightPhysicalEnvironmentPortalLight8evaluateERK40LightPhysicalEnvironmentPortalProjectionRK9GMathVec2IdER9GMathVec3IdERd, 
                       __ZNK36LightPhysicalEnvironmentRectifiedMap6sampleERK9GMathVec2IdERKdRK40LightPhysicalEnvironmentPortalProjectionR9GMathVec3IdESB_Rd, 
                       __ZNK36LightPhysicalEnvironmentRectifiedMap7projectERK9GMathVec3IdES3_R40LightPhysicalEnvironmentPortalProjection, 
                       __ZNK36LightPhysicalEnvironmentRectifiedMap8evaluateERK40LightPhysicalEnvironmentPortalProjectionRK9GMathVec3IdERK9GMathVec2IdERS4_Rd, 
                       __ZTI26LightPhysicalPlaneResource, __ZTI32LightPhysicalEnvironmentResource, 
                       __ZTS26LightPhysicalPlaneResource, __ZTS32LightPhysicalEnvironmentResource, 
                       __ZTV26LightPhysicalPlaneResource, __ZTV32LightPhysicalEnvironmentResource, 
                       _on_register_module ]
    weak-symbols:    [ __ZGVZN10GMathBbox3IdE9empty_boxEvE11s_empty_box, __ZGVZN14CoreLogHandler12main_handlerEvE18s_main_log_handler, 
                       __ZZN10GMathBbox3IdE9empty_boxEvE11s_empty_box, __ZZN14CoreLogHandler12main_handlerEvE18s_main_log_handler ]
...
